
dhrystone:     file format elf32-littleriscv


Disassembly of section .init:

80000000 <_start>:
    .type _start,@function


_start:

  la gp, __global_pointer
80000000:	00005197          	auipc	gp,0x5
80000004:	a4018193          	addi	gp,gp,-1472 # 80004a40 <__global_pointer>
  la sp, _sp
80000008:	08000117          	auipc	sp,0x8000
8000000c:	ff810113          	addi	sp,sp,-8 # 88000000 <_sp>

  call main
80000010:	00c000ef          	jal	8000001c <main>
  ebreak
80000014:	00100073          	ebreak

80000018 <loop>:

loop:
    j loop
80000018:	0000006f          	j	80000018 <loop>

Disassembly of section .text:

8000001c <main>:

int main(int argc, char **argv)
/*****/
/* main program, corresponds to procedures        */
/* Main and Proc_0 in the Ada version             */
{
8000001c:	f6010113          	addi	sp,sp,-160
80000020:	08112e23          	sw	ra,156(sp)
80000024:	08812c23          	sw	s0,152(sp)
80000028:	09612023          	sw	s6,128(sp)
8000002c:	0a010413          	addi	s0,sp,160
80000030:	07912a23          	sw	s9,116(sp)
80000034:	08912a23          	sw	s1,148(sp)
80000038:	09212823          	sw	s2,144(sp)
8000003c:	09312623          	sw	s3,140(sp)
80000040:	09412423          	sw	s4,136(sp)
80000044:	09512223          	sw	s5,132(sp)
80000048:	07712e23          	sw	s7,124(sp)
8000004c:	07812c23          	sw	s8,120(sp)
80000050:	07a12823          	sw	s10,112(sp)
80000054:	07b12623          	sw	s11,108(sp)
  uart_init();
80000058:	2fd000ef          	jal	80000b54 <uart_init>

  Ptr_Glob->Ptr_Comp = Next_Ptr_Glob;
  Ptr_Glob->Discr = Ident_1;
  Ptr_Glob->variant.var_1.Enum_Comp = Ident_3;
  Ptr_Glob->variant.var_1.Int_Comp = 40;
  strcpy(Ptr_Glob->variant.var_1.Str_Comp, "DHRYSTONE PROGRAM, SOME STRING");
8000005c:	800017b7          	lui	a5,0x80001
  Next_Ptr_Glob = (Rec_Pointer)alloca(sizeof(Rec_Type));
80000060:	fc010113          	addi	sp,sp,-64
  strcpy(Ptr_Glob->variant.var_1.Str_Comp, "DHRYSTONE PROGRAM, SOME STRING");
80000064:	45478793          	addi	a5,a5,1108 # 80001454 <strcmp+0x17c>
80000068:	0007af83          	lw	t6,0(a5)
8000006c:	0047af03          	lw	t5,4(a5)
80000070:	0087ae83          	lw	t4,8(a5)
80000074:	00c7ae03          	lw	t3,12(a5)
80000078:	0107a303          	lw	t1,16(a5)
8000007c:	0147a883          	lw	a7,20(a5)
80000080:	0187a803          	lw	a6,24(a5)
80000084:	01c7d503          	lhu	a0,28(a5)
80000088:	01e7c583          	lbu	a1,30(a5)
  Next_Ptr_Glob = (Rec_Pointer)alloca(sizeof(Rec_Type));
8000008c:	00f10693          	addi	a3,sp,15
  strcpy(Str_1_Loc, "DHRYSTONE PROGRAM, 1'ST STRING");
80000090:	80002737          	lui	a4,0x80002
  Ptr_Glob = (Rec_Pointer)alloca(sizeof(Rec_Type));
80000094:	fc010113          	addi	sp,sp,-64
  strcpy(Str_1_Loc, "DHRYSTONE PROGRAM, 1'ST STRING");
80000098:	96c70713          	addi	a4,a4,-1684 # 8000196c <strcmp+0x694>
  Ptr_Glob = (Rec_Pointer)alloca(sizeof(Rec_Type));
8000009c:	00f10793          	addi	a5,sp,15
800000a0:	ff07f793          	andi	a5,a5,-16
  strcpy(Str_1_Loc, "DHRYSTONE PROGRAM, 1'ST STRING");
800000a4:	00072603          	lw	a2,0(a4)
  Next_Ptr_Glob = (Rec_Pointer)alloca(sizeof(Rec_Type));
800000a8:	ff06f693          	andi	a3,a3,-16
  Ptr_Glob->variant.var_1.Enum_Comp = Ident_3;
800000ac:	00200393          	li	t2,2
  Ptr_Glob->variant.var_1.Int_Comp = 40;
800000b0:	02800293          	li	t0,40
  Ptr_Glob = (Rec_Pointer)alloca(sizeof(Rec_Type));
800000b4:	80004b37          	lui	s6,0x80004
  Ptr_Glob->variant.var_1.Enum_Comp = Ident_3;
800000b8:	0077a423          	sw	t2,8(a5)
  Ptr_Glob->variant.var_1.Int_Comp = 40;
800000bc:	0057a623          	sw	t0,12(a5)
  strcpy(Ptr_Glob->variant.var_1.Str_Comp, "DHRYSTONE PROGRAM, SOME STRING");
800000c0:	01f7a823          	sw	t6,16(a5)
800000c4:	01e7aa23          	sw	t5,20(a5)
800000c8:	01d7ac23          	sw	t4,24(a5)
  Ptr_Glob->Ptr_Comp = Next_Ptr_Glob;
800000cc:	00d7a023          	sw	a3,0(a5)
  strcpy(Ptr_Glob->variant.var_1.Str_Comp, "DHRYSTONE PROGRAM, SOME STRING");
800000d0:	01c7ae23          	sw	t3,28(a5)
800000d4:	0267a023          	sw	t1,32(a5)
800000d8:	0317a223          	sw	a7,36(a5)
800000dc:	0307a423          	sw	a6,40(a5)
800000e0:	02a79623          	sh	a0,44(a5)
800000e4:	02b78723          	sb	a1,46(a5)
  Ptr_Glob->Discr = Ident_1;
800000e8:	0007a223          	sw	zero,4(a5)
  Ptr_Glob = (Rec_Pointer)alloca(sizeof(Rec_Type));
800000ec:	22fb2623          	sw	a5,556(s6) # 8000422c <Ptr_Glob>
  Next_Ptr_Glob = (Rec_Pointer)alloca(sizeof(Rec_Type));
800000f0:	800047b7          	lui	a5,0x80004
800000f4:	22d7a423          	sw	a3,552(a5) # 80004228 <Next_Ptr_Glob>
  strcpy(Str_1_Loc, "DHRYSTONE PROGRAM, 1'ST STRING");
800000f8:	00472e03          	lw	t3,4(a4)
800000fc:	00872303          	lw	t1,8(a4)
80000100:	00c72883          	lw	a7,12(a4)
80000104:	01072803          	lw	a6,16(a4)
80000108:	01472583          	lw	a1,20(a4)
8000010c:	f8c42023          	sw	a2,-128(s0)
80000110:	01872603          	lw	a2,24(a4)
80000114:	01c75683          	lhu	a3,28(a4)
80000118:	01e74703          	lbu	a4,30(a4)

  Arr_2_Glob[8][7] = 10;
8000011c:	80002cb7          	lui	s9,0x80002
  /* Was missing in published program. Without this statement,    */
  /* Arr_2_Glob [8][7] would have an undefined value.             */
  /* Warning: With 16-Bit processors and Number_Of_Runs > 32000,  */
  /* overflow may occur for this array element.                   */

  debug_printf("\n");
80000120:	80001537          	lui	a0,0x80001
  Arr_2_Glob[8][7] = 10;
80000124:	00a00793          	li	a5,10
  debug_printf("\n");
80000128:	47850513          	addi	a0,a0,1144 # 80001478 <strcmp+0x1a0>
  strcpy(Str_1_Loc, "DHRYSTONE PROGRAM, 1'ST STRING");
8000012c:	f8e40f23          	sb	a4,-98(s0)
  Arr_2_Glob[8][7] = 10;
80000130:	af0c8713          	addi	a4,s9,-1296 # 80001af0 <Arr_2_Glob>
80000134:	64f72e23          	sw	a5,1628(a4)
  strcpy(Str_1_Loc, "DHRYSTONE PROGRAM, 1'ST STRING");
80000138:	f9c42223          	sw	t3,-124(s0)
8000013c:	f8642423          	sw	t1,-120(s0)
80000140:	f9142623          	sw	a7,-116(s0)
80000144:	f9042823          	sw	a6,-112(s0)
80000148:	f8b42a23          	sw	a1,-108(s0)
8000014c:	f8c42c23          	sw	a2,-104(s0)
80000150:	f8d41e23          	sh	a3,-100(s0)
  debug_printf("\n");
80000154:	391000ef          	jal	80000ce4 <xprintf>
  debug_printf("Dhrystone Benchmark, Version %s\n", Version);
80000158:	800015b7          	lui	a1,0x80001
8000015c:	80001537          	lui	a0,0x80001
80000160:	47c58593          	addi	a1,a1,1148 # 8000147c <strcmp+0x1a4>
80000164:	48c50513          	addi	a0,a0,1164 # 8000148c <strcmp+0x1b4>
80000168:	37d000ef          	jal	80000ce4 <xprintf>
  if (Reg) {
8000016c:	800047b7          	lui	a5,0x80004
80000170:	2187a783          	lw	a5,536(a5) # 80004218 <Reg>
80000174:	58078e63          	beqz	a5,80000710 <main+0x6f4>
    debug_printf("Program compiled with 'register' attribute\n");
80000178:	80001537          	lui	a0,0x80001
8000017c:	4b050513          	addi	a0,a0,1200 # 800014b0 <strcmp+0x1d8>
80000180:	365000ef          	jal	80000ce4 <xprintf>
  } else {
    debug_printf("Program compiled without 'register' attribute\n");
  }
  debug_printf("Using %s, HZ=%d\n", CLOCK_TYPE, HZ);
80000184:	800015b7          	lui	a1,0x80001
80000188:	80001537          	lui	a0,0x80001
8000018c:	000f4637          	lui	a2,0xf4
80000190:	24060613          	addi	a2,a2,576 # f4240 <__stack_size-0x1f0bdc0>
80000194:	50c58593          	addi	a1,a1,1292 # 8000150c <strcmp+0x234>
80000198:	51850513          	addi	a0,a0,1304 # 80001518 <strcmp+0x240>
8000019c:	349000ef          	jal	80000ce4 <xprintf>
  debug_printf("\n");
800001a0:	800017b7          	lui	a5,0x80001
800001a4:	47878513          	addi	a0,a5,1144 # 80001478 <strcmp+0x1a0>
800001a8:	33d000ef          	jal	80000ce4 <xprintf>

  Done = false;
  while (!Done) {
    debug_printf("Trying %d runs through Dhrystone:\n", Number_Of_Runs);
800001ac:	80001537          	lui	a0,0x80001
  Done = false;
800001b0:	800047b7          	lui	a5,0x80004
    debug_printf("Trying %d runs through Dhrystone:\n", Number_Of_Runs);
800001b4:	52c50513          	addi	a0,a0,1324 # 8000152c <strcmp+0x254>
800001b8:	3e800593          	li	a1,1000
  Done = false;
800001bc:	2007aa23          	sw	zero,532(a5) # 80004214 <Done>
    debug_printf("Trying %d runs through Dhrystone:\n", Number_Of_Runs);
800001c0:	325000ef          	jal	80000ce4 <xprintf>

    /***************/
    /* Start timer */
    /***************/

    Start_Timer();
800001c4:	800047b7          	lui	a5,0x80004
800001c8:	80002bb7          	lui	s7,0x80002
800001cc:	80002937          	lui	s2,0x80002
      {
        if (Enum_Loc == Func_1(Ch_Index, 'C'))
        /* then, not executed */
        {
          Proc_6(Ident_1, &Enum_Loc);
          strcpy(Str_2_Loc, "DHRYSTONE PROGRAM, 3'RD STRING");
800001d0:	80002837          	lui	a6,0x80002
    Start_Timer();
800001d4:	2007a823          	sw	zero,528(a5) # 80004210 <Begin_Time>
    for (Run_Index = 1; Run_Index <= Number_Of_Runs; ++Run_Index) {
800001d8:	a28b8793          	addi	a5,s7,-1496 # 80001a28 <Arr_1_Glob>
800001dc:	00100993          	li	s3,1
800001e0:	98c90913          	addi	s2,s2,-1652 # 8000198c <strcmp+0x6b4>
800001e4:	f6f42623          	sw	a5,-148(s0)
          strcpy(Str_2_Loc, "DHRYSTONE PROGRAM, 3'RD STRING");
800001e8:	9ac80d13          	addi	s10,a6,-1620 # 800019ac <strcmp+0x6d4>
800001ec:	80004c37          	lui	s8,0x80004
800001f0:	800044b7          	lui	s1,0x80004
800001f4:	80004ab7          	lui	s5,0x80004
      Proc_5();
800001f8:	71c000ef          	jal	80000914 <Proc_5>
      Proc_4();
800001fc:	6e8000ef          	jal	800008e4 <Proc_4>
      strcpy(Str_2_Loc, "DHRYSTONE PROGRAM, 2'ND STRING");
80000200:	00892783          	lw	a5,8(s2)
80000204:	00092683          	lw	a3,0(s2)
80000208:	00492703          	lw	a4,4(s2)
8000020c:	faf42423          	sw	a5,-88(s0)
80000210:	01492783          	lw	a5,20(s2)
80000214:	fad42023          	sw	a3,-96(s0)
80000218:	fae42223          	sw	a4,-92(s0)
8000021c:	00c92683          	lw	a3,12(s2)
80000220:	01092703          	lw	a4,16(s2)
80000224:	faf42a23          	sw	a5,-76(s0)
80000228:	01e94783          	lbu	a5,30(s2)
8000022c:	fad42623          	sw	a3,-84(s0)
80000230:	fae42823          	sw	a4,-80(s0)
80000234:	01892683          	lw	a3,24(s2)
80000238:	01c95703          	lhu	a4,28(s2)
8000023c:	faf40f23          	sb	a5,-66(s0)
      Bool_Glob = !Func_2(Str_1_Loc, Str_2_Loc);
80000240:	fa040593          	addi	a1,s0,-96
      Enum_Loc = Ident_2;
80000244:	00100793          	li	a5,1
      Bool_Glob = !Func_2(Str_1_Loc, Str_2_Loc);
80000248:	f8040513          	addi	a0,s0,-128
      strcpy(Str_2_Loc, "DHRYSTONE PROGRAM, 2'ND STRING");
8000024c:	fae41e23          	sh	a4,-68(s0)
80000250:	fad42c23          	sw	a3,-72(s0)
      Enum_Loc = Ident_2;
80000254:	f6f42e23          	sw	a5,-132(s0)
      Bool_Glob = !Func_2(Str_1_Loc, Str_2_Loc);
80000258:	76c000ef          	jal	800009c4 <Func_2>
8000025c:	00153513          	seqz	a0,a0
        Int_3_Loc = 5 * Int_1_Loc - Int_2_Loc;
80000260:	00700793          	li	a5,7
      Bool_Glob = !Func_2(Str_1_Loc, Str_2_Loc);
80000264:	22ac2023          	sw	a0,544(s8) # 80004220 <Bool_Glob>
        Proc_7(Int_1_Loc, Int_2_Loc, &Int_3_Loc);
80000268:	f7840613          	addi	a2,s0,-136
8000026c:	00300593          	li	a1,3
80000270:	00200513          	li	a0,2
        Int_3_Loc = 5 * Int_1_Loc - Int_2_Loc;
80000274:	f6f42c23          	sw	a5,-136(s0)
        Proc_7(Int_1_Loc, Int_2_Loc, &Int_3_Loc);
80000278:	6b4000ef          	jal	8000092c <Proc_7>
      Proc_8(Arr_1_Glob, Arr_2_Glob, Int_1_Loc, Int_3_Loc);
8000027c:	f7842683          	lw	a3,-136(s0)
80000280:	f6c42503          	lw	a0,-148(s0)
80000284:	af0c8593          	addi	a1,s9,-1296
80000288:	00300613          	li	a2,3
8000028c:	6b0000ef          	jal	8000093c <Proc_8>
      Proc_1(Ptr_Glob);
80000290:	22cb2503          	lw	a0,556(s6)
80000294:	4e8000ef          	jal	8000077c <Proc_1>
      for (Ch_Index = 'A'; Ch_Index <= Ch_2_Glob; ++Ch_Index)
80000298:	21c4c703          	lbu	a4,540(s1) # 8000421c <Ch_2_Glob>
8000029c:	04000793          	li	a5,64
800002a0:	46e7f463          	bgeu	a5,a4,80000708 <main+0x6ec>
800002a4:	04100b93          	li	s7,65
      Int_2_Loc = 3;
800002a8:	00300a13          	li	s4,3
800002ac:	0140006f          	j	800002c0 <main+0x2a4>
      for (Ch_Index = 'A'; Ch_Index <= Ch_2_Glob; ++Ch_Index)
800002b0:	21c4c703          	lbu	a4,540(s1)
800002b4:	001b8793          	addi	a5,s7,1
800002b8:	0ff7fb93          	zext.b	s7,a5
800002bc:	09776263          	bltu	a4,s7,80000340 <main+0x324>
        if (Enum_Loc == Func_1(Ch_Index, 'C'))
800002c0:	04300593          	li	a1,67
800002c4:	000b8513          	mv	a0,s7
800002c8:	6d8000ef          	jal	800009a0 <Func_1>
800002cc:	f7c42703          	lw	a4,-132(s0)
800002d0:	fee510e3          	bne	a0,a4,800002b0 <main+0x294>
          Proc_6(Ident_1, &Enum_Loc);
800002d4:	f7c40593          	addi	a1,s0,-132
800002d8:	00000513          	li	a0,0
800002dc:	764000ef          	jal	80000a40 <Proc_6>
          strcpy(Str_2_Loc, "DHRYSTONE PROGRAM, 3'RD STRING");
800002e0:	008d2703          	lw	a4,8(s10)
800002e4:	000d2603          	lw	a2,0(s10)
800002e8:	004d2683          	lw	a3,4(s10)
800002ec:	fae42423          	sw	a4,-88(s0)
800002f0:	01ed4703          	lbu	a4,30(s10)
800002f4:	00cd2883          	lw	a7,12(s10)
800002f8:	010d2503          	lw	a0,16(s10)
800002fc:	014d2583          	lw	a1,20(s10)
80000300:	fac42023          	sw	a2,-96(s0)
80000304:	fad42223          	sw	a3,-92(s0)
80000308:	018d2603          	lw	a2,24(s10)
8000030c:	01cd5683          	lhu	a3,28(s10)
80000310:	fae40f23          	sb	a4,-66(s0)
      for (Ch_Index = 'A'; Ch_Index <= Ch_2_Glob; ++Ch_Index)
80000314:	21c4c703          	lbu	a4,540(s1)
80000318:	001b8793          	addi	a5,s7,1
          Int_2_Loc = Run_Index;
          Int_Glob = Run_Index;
8000031c:	233aa223          	sw	s3,548(s5) # 80004224 <Int_Glob>
          strcpy(Str_2_Loc, "DHRYSTONE PROGRAM, 3'RD STRING");
80000320:	fb142623          	sw	a7,-84(s0)
80000324:	faa42823          	sw	a0,-80(s0)
80000328:	fab42a23          	sw	a1,-76(s0)
8000032c:	fac42c23          	sw	a2,-72(s0)
80000330:	fad41e23          	sh	a3,-68(s0)
      for (Ch_Index = 'A'; Ch_Index <= Ch_2_Glob; ++Ch_Index)
80000334:	0ff7fb93          	zext.b	s7,a5
          Int_2_Loc = Run_Index;
80000338:	00098a13          	mv	s4,s3
      for (Ch_Index = 'A'; Ch_Index <= Ch_2_Glob; ++Ch_Index)
8000033c:	f97772e3          	bgeu	a4,s7,800002c0 <main+0x2a4>
        }
      }
      /* Int_1_Loc == 3, Int_2_Loc == 3, Int_3_Loc == 7 */
      Int_2_Loc = Int_2_Loc * Int_1_Loc;
80000340:	001a1793          	slli	a5,s4,0x1
80000344:	01478a33          	add	s4,a5,s4
      Int_1_Loc = Int_2_Loc / Int_3_Loc;
80000348:	f7842b83          	lw	s7,-136(s0)
      Int_2_Loc = 7 * (Int_2_Loc - Int_3_Loc) - Int_1_Loc;
      /* Int_1_Loc == 1, Int_2_Loc == 13, Int_3_Loc == 7 */
      Proc_2(&Int_1_Loc);
8000034c:	f7440513          	addi	a0,s0,-140
    for (Run_Index = 1; Run_Index <= Number_Of_Runs; ++Run_Index) {
80000350:	00198993          	addi	s3,s3,1
      Int_1_Loc = Int_2_Loc / Int_3_Loc;
80000354:	037a4db3          	div	s11,s4,s7
80000358:	f7b42a23          	sw	s11,-140(s0)
      Proc_2(&Int_1_Loc);
8000035c:	3c4000ef          	jal	80000720 <Proc_2>
    for (Run_Index = 1; Run_Index <= Number_Of_Runs; ++Run_Index) {
80000360:	3e900693          	li	a3,1001
80000364:	e8d99ae3          	bne	s3,a3,800001f8 <main+0x1dc>
    /* Stop timer */
    /**************/

    Stop_Timer();

    User_Time = End_Time - Begin_Time;
80000368:	800047b7          	lui	a5,0x80004
8000036c:	2107a683          	lw	a3,528(a5) # 80004210 <Begin_Time>
      Int_2_Loc = 7 * (Int_2_Loc - Int_3_Loc) - Int_1_Loc;
80000370:	417a0a33          	sub	s4,s4,s7
80000374:	003a1993          	slli	s3,s4,0x3
    //   printf("\n");
    // } else
    Done = true;
  }

  debug_printf("Final values of the variables used in the benchmark:\n");
80000378:	80001537          	lui	a0,0x80001
    User_Time = End_Time - Begin_Time;
8000037c:	40d00733          	neg	a4,a3
    Done = true;
80000380:	800047b7          	lui	a5,0x80004
    Stop_Timer();
80000384:	800046b7          	lui	a3,0x80004
    Done = true;
80000388:	00100913          	li	s2,1
    User_Time = End_Time - Begin_Time;
8000038c:	80004cb7          	lui	s9,0x80004
      Int_2_Loc = 7 * (Int_2_Loc - Int_3_Loc) - Int_1_Loc;
80000390:	414989b3          	sub	s3,s3,s4
  debug_printf("Final values of the variables used in the benchmark:\n");
80000394:	55050513          	addi	a0,a0,1360 # 80001550 <strcmp+0x278>
    Stop_Timer();
80000398:	2006a623          	sw	zero,524(a3) # 8000420c <End_Time>
    User_Time = End_Time - Begin_Time;
8000039c:	20eca423          	sw	a4,520(s9) # 80004208 <User_Time>
    Done = true;
800003a0:	2127aa23          	sw	s2,532(a5) # 80004214 <Done>
      Int_2_Loc = 7 * (Int_2_Loc - Int_3_Loc) - Int_1_Loc;
800003a4:	41b989b3          	sub	s3,s3,s11
  debug_printf("Final values of the variables used in the benchmark:\n");
800003a8:	13d000ef          	jal	80000ce4 <xprintf>
  debug_printf("\n");
800003ac:	80001db7          	lui	s11,0x80001
800003b0:	478d8513          	addi	a0,s11,1144 # 80001478 <strcmp+0x1a0>
800003b4:	131000ef          	jal	80000ce4 <xprintf>
  debug_printf("Int_Glob:            %d\n", Int_Glob);
800003b8:	224aa583          	lw	a1,548(s5)
800003bc:	80001537          	lui	a0,0x80001
800003c0:	58850513          	addi	a0,a0,1416 # 80001588 <strcmp+0x2b0>
  debug_printf("        should be:   %d\n", 5);
800003c4:	80001a37          	lui	s4,0x80001
  debug_printf("Int_Glob:            %d\n", Int_Glob);
800003c8:	11d000ef          	jal	80000ce4 <xprintf>
  debug_printf("        should be:   %d\n", 5);
800003cc:	5a4a0513          	addi	a0,s4,1444 # 800015a4 <strcmp+0x2cc>
800003d0:	00500593          	li	a1,5
800003d4:	111000ef          	jal	80000ce4 <xprintf>
  debug_printf("Bool_Glob:           %d\n", Bool_Glob);
800003d8:	220c2583          	lw	a1,544(s8)
800003dc:	80001537          	lui	a0,0x80001
800003e0:	5c050513          	addi	a0,a0,1472 # 800015c0 <strcmp+0x2e8>
800003e4:	101000ef          	jal	80000ce4 <xprintf>
  debug_printf("        should be:   %d\n", 1);
800003e8:	00090593          	mv	a1,s2
800003ec:	5a4a0513          	addi	a0,s4,1444
800003f0:	0f5000ef          	jal	80000ce4 <xprintf>
  debug_printf("Ch_1_Glob:           %c\n", Ch_1_Glob);
800003f4:	800047b7          	lui	a5,0x80004
800003f8:	21d7c583          	lbu	a1,541(a5) # 8000421d <Ch_1_Glob>
800003fc:	80001537          	lui	a0,0x80001
80000400:	5dc50513          	addi	a0,a0,1500 # 800015dc <strcmp+0x304>
80000404:	0e1000ef          	jal	80000ce4 <xprintf>
  debug_printf("        should be:   %c\n", 'A');
80000408:	80001ab7          	lui	s5,0x80001
8000040c:	5f8a8513          	addi	a0,s5,1528 # 800015f8 <strcmp+0x320>
80000410:	04100593          	li	a1,65
80000414:	0d1000ef          	jal	80000ce4 <xprintf>
  debug_printf("Ch_2_Glob:           %c\n", Ch_2_Glob);
80000418:	21c4c583          	lbu	a1,540(s1)
8000041c:	80001537          	lui	a0,0x80001
80000420:	61450513          	addi	a0,a0,1556 # 80001614 <strcmp+0x33c>
80000424:	0c1000ef          	jal	80000ce4 <xprintf>
  debug_printf("        should be:   %c\n", 'B');
80000428:	5f8a8513          	addi	a0,s5,1528
8000042c:	04200593          	li	a1,66
80000430:	0b5000ef          	jal	80000ce4 <xprintf>
  debug_printf("Arr_1_Glob[8]:       %d\n", Arr_1_Glob[8]);
80000434:	f6c42783          	lw	a5,-148(s0)
80000438:	80001537          	lui	a0,0x80001
8000043c:	63050513          	addi	a0,a0,1584 # 80001630 <strcmp+0x358>
80000440:	0207a583          	lw	a1,32(a5)
  debug_printf("Arr_2_Glob[8][7]:    %d\n", Arr_2_Glob[8][7]);
  debug_printf("        should be:   Number_Of_Runs + 10\n");
  debug_printf("Ptr_Glob->\n");
  debug_printf("  Ptr_Comp:          %d\n", (long)Ptr_Glob->Ptr_Comp);
  debug_printf("        should be:   (implementation-dependent)\n");
  debug_printf("  Discr:             %d\n", Ptr_Glob->Discr);
80000444:	80001d37          	lui	s10,0x80001
  debug_printf("        should be:   %d\n", 0);
  debug_printf("  Enum_Comp:         %d\n", Ptr_Glob->variant.var_1.Enum_Comp);
80000448:	80001c37          	lui	s8,0x80001
  debug_printf("Arr_1_Glob[8]:       %d\n", Arr_1_Glob[8]);
8000044c:	099000ef          	jal	80000ce4 <xprintf>
  debug_printf("        should be:   %d\n", 7);
80000450:	5a4a0513          	addi	a0,s4,1444
80000454:	00700593          	li	a1,7
80000458:	08d000ef          	jal	80000ce4 <xprintf>
  debug_printf("Arr_2_Glob[8][7]:    %d\n", Arr_2_Glob[8][7]);
8000045c:	800027b7          	lui	a5,0x80002
80000460:	af078793          	addi	a5,a5,-1296 # 80001af0 <Arr_2_Glob>
80000464:	65c7a583          	lw	a1,1628(a5)
80000468:	80001537          	lui	a0,0x80001
8000046c:	64c50513          	addi	a0,a0,1612 # 8000164c <strcmp+0x374>
80000470:	075000ef          	jal	80000ce4 <xprintf>
  debug_printf("        should be:   Number_Of_Runs + 10\n");
80000474:	80001537          	lui	a0,0x80001
80000478:	66850513          	addi	a0,a0,1640 # 80001668 <strcmp+0x390>
8000047c:	069000ef          	jal	80000ce4 <xprintf>
  debug_printf("Ptr_Glob->\n");
80000480:	80001537          	lui	a0,0x80001
80000484:	69450513          	addi	a0,a0,1684 # 80001694 <strcmp+0x3bc>
80000488:	05d000ef          	jal	80000ce4 <xprintf>
  debug_printf("  Ptr_Comp:          %d\n", (long)Ptr_Glob->Ptr_Comp);
8000048c:	22cb2703          	lw	a4,556(s6)
80000490:	800017b7          	lui	a5,0x80001
80000494:	6a078513          	addi	a0,a5,1696 # 800016a0 <strcmp+0x3c8>
80000498:	00072583          	lw	a1,0(a4)
  debug_printf("        should be:   %d\n", 2);
  debug_printf("  Int_Comp:          %d\n", Ptr_Glob->variant.var_1.Int_Comp);
8000049c:	80001bb7          	lui	s7,0x80001
  debug_printf("        should be:   %d\n", 17);
  debug_printf("  Str_Comp:          %s\n", Ptr_Glob->variant.var_1.Str_Comp);
800004a0:	80001ab7          	lui	s5,0x80001
  debug_printf("  Ptr_Comp:          %d\n", (long)Ptr_Glob->Ptr_Comp);
800004a4:	041000ef          	jal	80000ce4 <xprintf>
  debug_printf("        should be:   (implementation-dependent)\n");
800004a8:	80001537          	lui	a0,0x80001
800004ac:	6bc50513          	addi	a0,a0,1724 # 800016bc <strcmp+0x3e4>
800004b0:	035000ef          	jal	80000ce4 <xprintf>
  debug_printf("  Discr:             %d\n", Ptr_Glob->Discr);
800004b4:	22cb2703          	lw	a4,556(s6)
800004b8:	6f0d0513          	addi	a0,s10,1776 # 800016f0 <strcmp+0x418>
  debug_printf("        should be:   DHRYSTONE PROGRAM, SOME STRING\n");
800004bc:	800014b7          	lui	s1,0x80001
  debug_printf("  Discr:             %d\n", Ptr_Glob->Discr);
800004c0:	00472583          	lw	a1,4(a4)
800004c4:	021000ef          	jal	80000ce4 <xprintf>
  debug_printf("        should be:   %d\n", 0);
800004c8:	5a4a0513          	addi	a0,s4,1444
800004cc:	00000593          	li	a1,0
800004d0:	015000ef          	jal	80000ce4 <xprintf>
  debug_printf("  Enum_Comp:         %d\n", Ptr_Glob->variant.var_1.Enum_Comp);
800004d4:	22cb2703          	lw	a4,556(s6)
800004d8:	70cc0513          	addi	a0,s8,1804 # 8000170c <strcmp+0x434>
800004dc:	00872583          	lw	a1,8(a4)
800004e0:	005000ef          	jal	80000ce4 <xprintf>
  debug_printf("        should be:   %d\n", 2);
800004e4:	5a4a0513          	addi	a0,s4,1444
800004e8:	00200593          	li	a1,2
800004ec:	7f8000ef          	jal	80000ce4 <xprintf>
  debug_printf("  Int_Comp:          %d\n", Ptr_Glob->variant.var_1.Int_Comp);
800004f0:	22cb2703          	lw	a4,556(s6)
800004f4:	728b8513          	addi	a0,s7,1832 # 80001728 <strcmp+0x450>
800004f8:	00c72583          	lw	a1,12(a4)
800004fc:	7e8000ef          	jal	80000ce4 <xprintf>
  debug_printf("        should be:   %d\n", 17);
80000500:	5a4a0513          	addi	a0,s4,1444
80000504:	01100593          	li	a1,17
80000508:	7dc000ef          	jal	80000ce4 <xprintf>
  debug_printf("  Str_Comp:          %s\n", Ptr_Glob->variant.var_1.Str_Comp);
8000050c:	22cb2583          	lw	a1,556(s6)
80000510:	744a8513          	addi	a0,s5,1860 # 80001744 <strcmp+0x46c>
  debug_printf("Next_Ptr_Glob->\n");
  debug_printf("  Ptr_Comp:          %d\n", (long)Next_Ptr_Glob->Ptr_Comp);
80000514:	80004b37          	lui	s6,0x80004
  debug_printf("  Str_Comp:          %s\n", Ptr_Glob->variant.var_1.Str_Comp);
80000518:	01058593          	addi	a1,a1,16
8000051c:	7c8000ef          	jal	80000ce4 <xprintf>
  debug_printf("        should be:   DHRYSTONE PROGRAM, SOME STRING\n");
80000520:	76048513          	addi	a0,s1,1888 # 80001760 <strcmp+0x488>
80000524:	7c0000ef          	jal	80000ce4 <xprintf>
  debug_printf("Next_Ptr_Glob->\n");
80000528:	80001537          	lui	a0,0x80001
8000052c:	79850513          	addi	a0,a0,1944 # 80001798 <strcmp+0x4c0>
80000530:	7b4000ef          	jal	80000ce4 <xprintf>
  debug_printf("  Ptr_Comp:          %d\n", (long)Next_Ptr_Glob->Ptr_Comp);
80000534:	228b2703          	lw	a4,552(s6) # 80004228 <Next_Ptr_Glob>
80000538:	800017b7          	lui	a5,0x80001
8000053c:	6a078513          	addi	a0,a5,1696 # 800016a0 <strcmp+0x3c8>
80000540:	00072583          	lw	a1,0(a4)
80000544:	7a0000ef          	jal	80000ce4 <xprintf>
  debug_printf(
80000548:	80001537          	lui	a0,0x80001
8000054c:	7ac50513          	addi	a0,a0,1964 # 800017ac <strcmp+0x4d4>
80000550:	794000ef          	jal	80000ce4 <xprintf>
      "        should be:   (implementation-dependent), same as above\n");
  debug_printf("  Discr:             %d\n", Next_Ptr_Glob->Discr);
80000554:	228b2783          	lw	a5,552(s6)
80000558:	6f0d0513          	addi	a0,s10,1776
8000055c:	0047a583          	lw	a1,4(a5)
80000560:	784000ef          	jal	80000ce4 <xprintf>
  debug_printf("        should be:   %d\n", 0);
80000564:	5a4a0513          	addi	a0,s4,1444
80000568:	00000593          	li	a1,0
8000056c:	778000ef          	jal	80000ce4 <xprintf>
  debug_printf("  Enum_Comp:         %d\n",
               Next_Ptr_Glob->variant.var_1.Enum_Comp);
80000570:	228b2783          	lw	a5,552(s6)
  debug_printf("  Enum_Comp:         %d\n",
80000574:	70cc0513          	addi	a0,s8,1804
80000578:	0087a583          	lw	a1,8(a5)
8000057c:	768000ef          	jal	80000ce4 <xprintf>
  debug_printf("        should be:   %d\n", 1);
80000580:	00090593          	mv	a1,s2
80000584:	5a4a0513          	addi	a0,s4,1444
80000588:	75c000ef          	jal	80000ce4 <xprintf>
  debug_printf("  Int_Comp:          %d\n",
8000058c:	228b2783          	lw	a5,552(s6)
80000590:	728b8513          	addi	a0,s7,1832
80000594:	00c7a583          	lw	a1,12(a5)
80000598:	74c000ef          	jal	80000ce4 <xprintf>
               Next_Ptr_Glob->variant.var_1.Int_Comp);
  debug_printf("        should be:   %d\n", 18);
8000059c:	5a4a0513          	addi	a0,s4,1444
800005a0:	01200593          	li	a1,18
800005a4:	740000ef          	jal	80000ce4 <xprintf>
  debug_printf("  Str_Comp:          %s\n",
               Next_Ptr_Glob->variant.var_1.Str_Comp);
800005a8:	228b2583          	lw	a1,552(s6)
  debug_printf("  Str_Comp:          %s\n",
800005ac:	744a8513          	addi	a0,s5,1860
800005b0:	01058593          	addi	a1,a1,16
800005b4:	730000ef          	jal	80000ce4 <xprintf>
  debug_printf("        should be:   DHRYSTONE PROGRAM, SOME STRING\n");
800005b8:	76048513          	addi	a0,s1,1888
800005bc:	728000ef          	jal	80000ce4 <xprintf>
  debug_printf("Int_1_Loc:           %d\n", Int_1_Loc);
800005c0:	f7442583          	lw	a1,-140(s0)
800005c4:	80001537          	lui	a0,0x80001
800005c8:	7ec50513          	addi	a0,a0,2028 # 800017ec <strcmp+0x514>
800005cc:	718000ef          	jal	80000ce4 <xprintf>
  debug_printf("        should be:   %d\n", 5);
800005d0:	5a4a0513          	addi	a0,s4,1444
800005d4:	00500593          	li	a1,5
800005d8:	70c000ef          	jal	80000ce4 <xprintf>
  debug_printf("Int_2_Loc:           %d\n", Int_2_Loc);
800005dc:	80002537          	lui	a0,0x80002
800005e0:	00098593          	mv	a1,s3
800005e4:	80850513          	addi	a0,a0,-2040 # 80001808 <strcmp+0x530>
800005e8:	6fc000ef          	jal	80000ce4 <xprintf>
  debug_printf("        should be:   %d\n", 13);
800005ec:	5a4a0513          	addi	a0,s4,1444
800005f0:	00d00593          	li	a1,13
800005f4:	6f0000ef          	jal	80000ce4 <xprintf>
  debug_printf("Int_3_Loc:           %d\n", Int_3_Loc);
800005f8:	f7842583          	lw	a1,-136(s0)
800005fc:	80002537          	lui	a0,0x80002
80000600:	82450513          	addi	a0,a0,-2012 # 80001824 <strcmp+0x54c>
80000604:	6e0000ef          	jal	80000ce4 <xprintf>
  debug_printf("        should be:   %d\n", 7);
80000608:	5a4a0513          	addi	a0,s4,1444
8000060c:	00700593          	li	a1,7
80000610:	6d4000ef          	jal	80000ce4 <xprintf>
  debug_printf("Enum_Loc:            %d\n", Enum_Loc);
80000614:	f7c42583          	lw	a1,-132(s0)
80000618:	80002537          	lui	a0,0x80002
8000061c:	84050513          	addi	a0,a0,-1984 # 80001840 <strcmp+0x568>
80000620:	6c4000ef          	jal	80000ce4 <xprintf>
  debug_printf("        should be:   %d\n", 1);
80000624:	00090593          	mv	a1,s2
80000628:	5a4a0513          	addi	a0,s4,1444
8000062c:	6b8000ef          	jal	80000ce4 <xprintf>
  debug_printf("Str_1_Loc:           %s\n", Str_1_Loc);
80000630:	80002537          	lui	a0,0x80002
80000634:	f8040593          	addi	a1,s0,-128
80000638:	85c50513          	addi	a0,a0,-1956 # 8000185c <strcmp+0x584>
8000063c:	6a8000ef          	jal	80000ce4 <xprintf>
  debug_printf("        should be:   DHRYSTONE PROGRAM, 1'ST STRING\n");
80000640:	80002537          	lui	a0,0x80002
80000644:	87850513          	addi	a0,a0,-1928 # 80001878 <strcmp+0x5a0>
80000648:	69c000ef          	jal	80000ce4 <xprintf>
  debug_printf("Str_2_Loc:           %s\n", Str_2_Loc);
8000064c:	80002537          	lui	a0,0x80002
80000650:	fa040593          	addi	a1,s0,-96
80000654:	8b050513          	addi	a0,a0,-1872 # 800018b0 <strcmp+0x5d8>
80000658:	68c000ef          	jal	80000ce4 <xprintf>
  debug_printf("        should be:   DHRYSTONE PROGRAM, 2'ND STRING\n");
8000065c:	80002537          	lui	a0,0x80002
80000660:	8cc50513          	addi	a0,a0,-1844 # 800018cc <strcmp+0x5f4>
80000664:	680000ef          	jal	80000ce4 <xprintf>
  debug_printf("\n");
80000668:	478d8513          	addi	a0,s11,1144
8000066c:	678000ef          	jal	80000ce4 <xprintf>

  Microseconds = ((User_Time / Number_Of_Runs) * Mic_secs_Per_Second) / HZ;
80000670:	208ca783          	lw	a5,520(s9)
  Dhrystones_Per_Second = (HZ * Number_Of_Runs) / User_Time;
80000674:	3b9ad737          	lui	a4,0x3b9ad
80000678:	a0070713          	addi	a4,a4,-1536 # 3b9aca00 <__stack_size+0x399aca00>
8000067c:	02f74733          	div	a4,a4,a5
  Microseconds = ((User_Time / Number_Of_Runs) * Mic_secs_Per_Second) / HZ;
80000680:	106256b7          	lui	a3,0x10625
80000684:	dd368693          	addi	a3,a3,-557 # 10624dd3 <__stack_size+0xe624dd3>
80000688:	41f7d813          	srai	a6,a5,0x1f

  printf("Microseconds for one run through Dhrystone: %ld\n", Microseconds);
8000068c:	80002537          	lui	a0,0x80002
  Microseconds = ((User_Time / Number_Of_Runs) * Mic_secs_Per_Second) / HZ;
80000690:	80004637          	lui	a2,0x80004
  Dhrystones_Per_Second = (HZ * Number_Of_Runs) / User_Time;
80000694:	800044b7          	lui	s1,0x80004
  printf("Microseconds for one run through Dhrystone: %ld\n", Microseconds);
80000698:	90450513          	addi	a0,a0,-1788 # 80001904 <strcmp+0x62c>
  Microseconds = ((User_Time / Number_Of_Runs) * Mic_secs_Per_Second) / HZ;
8000069c:	02d795b3          	mulh	a1,a5,a3
  Dhrystones_Per_Second = (HZ * Number_Of_Runs) / User_Time;
800006a0:	20e4a023          	sw	a4,512(s1) # 80004200 <Dhrystones_Per_Second>
  Microseconds = ((User_Time / Number_Of_Runs) * Mic_secs_Per_Second) / HZ;
800006a4:	4065d593          	srai	a1,a1,0x6
800006a8:	410585b3          	sub	a1,a1,a6
800006ac:	20b62223          	sw	a1,516(a2) # 80004204 <Microseconds>
  printf("Microseconds for one run through Dhrystone: %ld\n", Microseconds);
800006b0:	634000ef          	jal	80000ce4 <xprintf>
  printf("Dhrystones per Second:                      %ld\n",
800006b4:	2004a583          	lw	a1,512(s1)
800006b8:	80002537          	lui	a0,0x80002
800006bc:	93850513          	addi	a0,a0,-1736 # 80001938 <strcmp+0x660>
800006c0:	624000ef          	jal	80000ce4 <xprintf>
         Dhrystones_Per_Second);

  return 0;
}
800006c4:	f6040113          	addi	sp,s0,-160
800006c8:	09c12083          	lw	ra,156(sp)
800006cc:	09812403          	lw	s0,152(sp)
800006d0:	09412483          	lw	s1,148(sp)
800006d4:	09012903          	lw	s2,144(sp)
800006d8:	08c12983          	lw	s3,140(sp)
800006dc:	08812a03          	lw	s4,136(sp)
800006e0:	08412a83          	lw	s5,132(sp)
800006e4:	08012b03          	lw	s6,128(sp)
800006e8:	07c12b83          	lw	s7,124(sp)
800006ec:	07812c03          	lw	s8,120(sp)
800006f0:	07412c83          	lw	s9,116(sp)
800006f4:	07012d03          	lw	s10,112(sp)
800006f8:	06c12d83          	lw	s11,108(sp)
800006fc:	00000513          	li	a0,0
80000700:	0a010113          	addi	sp,sp,160
80000704:	00008067          	ret
      for (Ch_Index = 'A'; Ch_Index <= Ch_2_Glob; ++Ch_Index)
80000708:	00900a13          	li	s4,9
8000070c:	c3dff06f          	j	80000348 <main+0x32c>
    debug_printf("Program compiled without 'register' attribute\n");
80000710:	80001537          	lui	a0,0x80001
80000714:	4dc50513          	addi	a0,a0,1244 # 800014dc <strcmp+0x204>
80000718:	5cc000ef          	jal	80000ce4 <xprintf>
8000071c:	a69ff06f          	j	80000184 <main+0x168>

80000720 <Proc_2>:
  One_Fifty Int_Loc;
  Enumeration Enum_Loc;

  Int_Loc = *Int_Par_Ref + 10;
  do /* executed once */
    if (Ch_1_Glob == 'A')
80000720:	800047b7          	lui	a5,0x80004
80000724:	21d7c703          	lbu	a4,541(a5) # 8000421d <Ch_1_Glob>
80000728:	04100793          	li	a5,65
8000072c:	00f70463          	beq	a4,a5,80000734 <Proc_2+0x14>
      Int_Loc -= 1;
      *Int_Par_Ref = Int_Loc - Int_Glob;
      Enum_Loc = Ident_1;
    } /* if */
  while (Enum_Loc != Ident_1); /* true */
} /* Proc_2 */
80000730:	00008067          	ret
      Int_Loc -= 1;
80000734:	00052783          	lw	a5,0(a0)
      *Int_Par_Ref = Int_Loc - Int_Glob;
80000738:	80004737          	lui	a4,0x80004
8000073c:	22472703          	lw	a4,548(a4) # 80004224 <Int_Glob>
      Int_Loc -= 1;
80000740:	00978793          	addi	a5,a5,9
      *Int_Par_Ref = Int_Loc - Int_Glob;
80000744:	40e787b3          	sub	a5,a5,a4
80000748:	00f52023          	sw	a5,0(a0)
} /* Proc_2 */
8000074c:	00008067          	ret

80000750 <Proc_3>:
    /* Ptr_Ref_Par becomes Ptr_Glob */

    Rec_Pointer *Ptr_Ref_Par;

{
  if (Ptr_Glob != Null)
80000750:	800047b7          	lui	a5,0x80004
80000754:	22c7a603          	lw	a2,556(a5) # 8000422c <Ptr_Glob>
80000758:	00060863          	beqz	a2,80000768 <Proc_3+0x18>
    /* then, executed */
    *Ptr_Ref_Par = Ptr_Glob->Ptr_Comp;
8000075c:	00062703          	lw	a4,0(a2)
80000760:	00e52023          	sw	a4,0(a0)
  Proc_7(10, Int_Glob, &Ptr_Glob->variant.var_1.Int_Comp);
80000764:	22c7a603          	lw	a2,556(a5)
80000768:	800047b7          	lui	a5,0x80004
8000076c:	2247a583          	lw	a1,548(a5) # 80004224 <Int_Glob>
80000770:	00c60613          	addi	a2,a2,12
80000774:	00a00513          	li	a0,10
80000778:	1b40006f          	j	8000092c <Proc_7>

8000077c <Proc_1>:
{
8000077c:	ff010113          	addi	sp,sp,-16
80000780:	01212023          	sw	s2,0(sp)
  structassign(*Ptr_Val_Par->Ptr_Comp, *Ptr_Glob);
80000784:	80004937          	lui	s2,0x80004
80000788:	22c92783          	lw	a5,556(s2) # 8000422c <Ptr_Glob>
{
8000078c:	00112623          	sw	ra,12(sp)
80000790:	00812423          	sw	s0,8(sp)
80000794:	00912223          	sw	s1,4(sp)
  REG Rec_Pointer Next_Record = Ptr_Val_Par->Ptr_Comp;
80000798:	00052403          	lw	s0,0(a0)
  structassign(*Ptr_Val_Par->Ptr_Comp, *Ptr_Glob);
8000079c:	0007af03          	lw	t5,0(a5)
800007a0:	0047ae83          	lw	t4,4(a5)
800007a4:	0087ae03          	lw	t3,8(a5)
800007a8:	00c7a303          	lw	t1,12(a5)
800007ac:	0107a883          	lw	a7,16(a5)
800007b0:	0147a803          	lw	a6,20(a5)
800007b4:	01c7a583          	lw	a1,28(a5)
800007b8:	0207a603          	lw	a2,32(a5)
800007bc:	0247a683          	lw	a3,36(a5)
800007c0:	0287a703          	lw	a4,40(a5)
{
800007c4:	00050493          	mv	s1,a0
  structassign(*Ptr_Val_Par->Ptr_Comp, *Ptr_Glob);
800007c8:	0187a503          	lw	a0,24(a5)
800007cc:	01e42023          	sw	t5,0(s0)
800007d0:	01d42223          	sw	t4,4(s0)
800007d4:	01c42423          	sw	t3,8(s0)
800007d8:	00642623          	sw	t1,12(s0)
800007dc:	01142823          	sw	a7,16(s0)
800007e0:	01042a23          	sw	a6,20(s0)
800007e4:	00a42c23          	sw	a0,24(s0)
800007e8:	00b42e23          	sw	a1,28(s0)
800007ec:	02c42023          	sw	a2,32(s0)
800007f0:	02d42223          	sw	a3,36(s0)
800007f4:	02e42423          	sw	a4,40(s0)
800007f8:	02c7a703          	lw	a4,44(a5)
  Ptr_Val_Par->variant.var_1.Int_Comp = 5;
800007fc:	00500793          	li	a5,5
  Proc_3(&Next_Record->Ptr_Comp);
80000800:	00040513          	mv	a0,s0
  structassign(*Ptr_Val_Par->Ptr_Comp, *Ptr_Glob);
80000804:	02e42623          	sw	a4,44(s0)
  Ptr_Val_Par->variant.var_1.Int_Comp = 5;
80000808:	00f4a623          	sw	a5,12(s1)
  Next_Record->variant.var_1.Int_Comp = Ptr_Val_Par->variant.var_1.Int_Comp;
8000080c:	00f42623          	sw	a5,12(s0)
  Next_Record->Ptr_Comp = Ptr_Val_Par->Ptr_Comp;
80000810:	0004a783          	lw	a5,0(s1)
80000814:	00f42023          	sw	a5,0(s0)
  Proc_3(&Next_Record->Ptr_Comp);
80000818:	f39ff0ef          	jal	80000750 <Proc_3>
  if (Next_Record->Discr == Ident_1)
8000081c:	00442783          	lw	a5,4(s0)
80000820:	08078063          	beqz	a5,800008a0 <Proc_1+0x124>
    structassign(*Ptr_Val_Par, *Ptr_Val_Par->Ptr_Comp);
80000824:	0004a783          	lw	a5,0(s1)
80000828:	0007af83          	lw	t6,0(a5)
8000082c:	0047af03          	lw	t5,4(a5)
80000830:	0087ae83          	lw	t4,8(a5)
80000834:	00c7ae03          	lw	t3,12(a5)
80000838:	0107a303          	lw	t1,16(a5)
8000083c:	0147a883          	lw	a7,20(a5)
80000840:	0187a803          	lw	a6,24(a5)
80000844:	01c7a583          	lw	a1,28(a5)
80000848:	0207a603          	lw	a2,32(a5)
8000084c:	0247a683          	lw	a3,36(a5)
80000850:	0287a703          	lw	a4,40(a5)
80000854:	01f4a023          	sw	t6,0(s1)
80000858:	01e4a223          	sw	t5,4(s1)
8000085c:	01d4a423          	sw	t4,8(s1)
80000860:	01c4a623          	sw	t3,12(s1)
80000864:	0064a823          	sw	t1,16(s1)
80000868:	0114aa23          	sw	a7,20(s1)
8000086c:	0104ac23          	sw	a6,24(s1)
80000870:	00b4ae23          	sw	a1,28(s1)
80000874:	02c4a023          	sw	a2,32(s1)
80000878:	02d4a223          	sw	a3,36(s1)
8000087c:	02e4a423          	sw	a4,40(s1)
80000880:	02c7a783          	lw	a5,44(a5)
80000884:	02f4a623          	sw	a5,44(s1)
} /* Proc_1 */
80000888:	00c12083          	lw	ra,12(sp)
8000088c:	00812403          	lw	s0,8(sp)
80000890:	00412483          	lw	s1,4(sp)
80000894:	00012903          	lw	s2,0(sp)
80000898:	01010113          	addi	sp,sp,16
8000089c:	00008067          	ret
    Next_Record->variant.var_1.Int_Comp = 6;
800008a0:	00600793          	li	a5,6
800008a4:	00f42623          	sw	a5,12(s0)
    Proc_6(Ptr_Val_Par->variant.var_1.Enum_Comp,
800008a8:	0084a503          	lw	a0,8(s1)
800008ac:	00840593          	addi	a1,s0,8
800008b0:	190000ef          	jal	80000a40 <Proc_6>
    Next_Record->Ptr_Comp = Ptr_Glob->Ptr_Comp;
800008b4:	22c92783          	lw	a5,556(s2)
    Proc_7(Next_Record->variant.var_1.Int_Comp, 10,
800008b8:	00c42503          	lw	a0,12(s0)
800008bc:	00c40613          	addi	a2,s0,12
    Next_Record->Ptr_Comp = Ptr_Glob->Ptr_Comp;
800008c0:	0007a783          	lw	a5,0(a5)
} /* Proc_1 */
800008c4:	00c12083          	lw	ra,12(sp)
800008c8:	00412483          	lw	s1,4(sp)
    Next_Record->Ptr_Comp = Ptr_Glob->Ptr_Comp;
800008cc:	00f42023          	sw	a5,0(s0)
} /* Proc_1 */
800008d0:	00812403          	lw	s0,8(sp)
800008d4:	00012903          	lw	s2,0(sp)
    Proc_7(Next_Record->variant.var_1.Int_Comp, 10,
800008d8:	00a00593          	li	a1,10
} /* Proc_1 */
800008dc:	01010113          	addi	sp,sp,16
    Proc_7(Next_Record->variant.var_1.Int_Comp, 10,
800008e0:	04c0006f          	j	8000092c <Proc_7>

800008e4 <Proc_4>:
/*******/
/* executed once */
{
  Boolean Bool_Loc;

  Bool_Loc = Ch_1_Glob == 'A';
800008e4:	800047b7          	lui	a5,0x80004
800008e8:	21d7c783          	lbu	a5,541(a5) # 8000421d <Ch_1_Glob>
  Bool_Glob = Bool_Loc | Bool_Glob;
800008ec:	80004737          	lui	a4,0x80004
800008f0:	22072683          	lw	a3,544(a4) # 80004220 <Bool_Glob>
  Bool_Loc = Ch_1_Glob == 'A';
800008f4:	fbf78793          	addi	a5,a5,-65
800008f8:	0017b793          	seqz	a5,a5
  Bool_Glob = Bool_Loc | Bool_Glob;
800008fc:	00d7e7b3          	or	a5,a5,a3
  Ch_2_Glob = 'B';
80000900:	04200613          	li	a2,66
80000904:	800046b7          	lui	a3,0x80004
  Bool_Glob = Bool_Loc | Bool_Glob;
80000908:	22f72023          	sw	a5,544(a4)
  Ch_2_Glob = 'B';
8000090c:	20c68e23          	sb	a2,540(a3) # 8000421c <Ch_2_Glob>
} /* Proc_4 */
80000910:	00008067          	ret

80000914 <Proc_5>:

Proc_5() /* without parameters */
/*******/
/* executed once */
{
  Ch_1_Glob = 'A';
80000914:	80004737          	lui	a4,0x80004
80000918:	04100693          	li	a3,65
  Bool_Glob = false;
8000091c:	800047b7          	lui	a5,0x80004
  Ch_1_Glob = 'A';
80000920:	20d70ea3          	sb	a3,541(a4) # 8000421d <Ch_1_Glob>
  Bool_Glob = false;
80000924:	2207a023          	sw	zero,544(a5) # 80004220 <Bool_Glob>
} /* Proc_5 */
80000928:	00008067          	ret

8000092c <Proc_7>:
One_Fifty Int_2_Par_Val;
One_Fifty *Int_Par_Ref;
{
  One_Fifty Int_Loc;

  Int_Loc = Int_1_Par_Val + 2;
8000092c:	00250513          	addi	a0,a0,2
  *Int_Par_Ref = Int_2_Par_Val + Int_Loc;
80000930:	00b50533          	add	a0,a0,a1
80000934:	00a62023          	sw	a0,0(a2)
} /* Proc_7 */
80000938:	00008067          	ret

8000093c <Proc_8>:
int Int_2_Par_Val;
{
  REG One_Fifty Int_Index;
  REG One_Fifty Int_Loc;

  Int_Loc = Int_1_Par_Val + 5;
8000093c:	00560713          	addi	a4,a2,5
  Arr_1_Par_Ref[Int_Loc] = Int_2_Par_Val;
  Arr_1_Par_Ref[Int_Loc + 1] = Arr_1_Par_Ref[Int_Loc];
  Arr_1_Par_Ref[Int_Loc + 30] = Int_Loc;
  for (Int_Index = Int_Loc; Int_Index <= Int_Loc + 1; ++Int_Index)
    Arr_2_Par_Ref[Int_Loc][Int_Index] = Int_Loc;
80000940:	0c800813          	li	a6,200
80000944:	03070833          	mul	a6,a4,a6
80000948:	00261613          	slli	a2,a2,0x2
  Arr_1_Par_Ref[Int_Loc] = Int_2_Par_Val;
8000094c:	00271793          	slli	a5,a4,0x2
80000950:	00f50533          	add	a0,a0,a5
80000954:	00d52023          	sw	a3,0(a0)
  Arr_1_Par_Ref[Int_Loc + 30] = Int_Loc;
80000958:	06e52c23          	sw	a4,120(a0)
  Arr_1_Par_Ref[Int_Loc + 1] = Arr_1_Par_Ref[Int_Loc];
8000095c:	00d52223          	sw	a3,4(a0)
    Arr_2_Par_Ref[Int_Loc][Int_Index] = Int_Loc;
80000960:	00c807b3          	add	a5,a6,a2
80000964:	00f587b3          	add	a5,a1,a5
  Arr_2_Par_Ref[Int_Loc][Int_Loc - 1] += 1;
80000968:	0107a683          	lw	a3,16(a5)
    Arr_2_Par_Ref[Int_Loc][Int_Index] = Int_Loc;
8000096c:	00e7aa23          	sw	a4,20(a5)
80000970:	00e7ac23          	sw	a4,24(a5)
  Arr_2_Par_Ref[Int_Loc][Int_Loc - 1] += 1;
80000974:	00168713          	addi	a4,a3,1
80000978:	00e7a823          	sw	a4,16(a5)
  Arr_2_Par_Ref[Int_Loc + 20][Int_Loc] = Arr_1_Par_Ref[Int_Loc];
8000097c:	00052683          	lw	a3,0(a0)
80000980:	010585b3          	add	a1,a1,a6
80000984:	00c585b3          	add	a1,a1,a2
80000988:	7ff58593          	addi	a1,a1,2047
  Int_Glob = 5;
8000098c:	800047b7          	lui	a5,0x80004
80000990:	00500713          	li	a4,5
  Arr_2_Par_Ref[Int_Loc + 20][Int_Loc] = Arr_1_Par_Ref[Int_Loc];
80000994:	7ad5aaa3          	sw	a3,1973(a1)
  Int_Glob = 5;
80000998:	22e7a223          	sw	a4,548(a5) # 80004224 <Int_Glob>
} /* Proc_8 */
8000099c:	00008067          	ret

800009a0 <Func_1>:
/* second call:     Ch_1_Par_Val == 'A', Ch_2_Par_Val == 'C'    */
/* third call:      Ch_1_Par_Val == 'B', Ch_2_Par_Val == 'C'    */

Capital_Letter Ch_1_Par_Val;
Capital_Letter Ch_2_Par_Val;
{
800009a0:	0ff57513          	zext.b	a0,a0
800009a4:	0ff5f593          	zext.b	a1,a1
  Capital_Letter Ch_1_Loc;
  Capital_Letter Ch_2_Loc;

  Ch_1_Loc = Ch_1_Par_Val;
  Ch_2_Loc = Ch_1_Loc;
  if (Ch_2_Loc != Ch_2_Par_Val)
800009a8:	00b50663          	beq	a0,a1,800009b4 <Func_1+0x14>
    /* then, executed */
    return (Ident_1);
800009ac:	00000513          	li	a0,0
  else /* not executed */
  {
    Ch_1_Glob = Ch_1_Loc;
    return (Ident_2);
  }
} /* Func_1 */
800009b0:	00008067          	ret
    Ch_1_Glob = Ch_1_Loc;
800009b4:	800047b7          	lui	a5,0x80004
800009b8:	20a78ea3          	sb	a0,541(a5) # 8000421d <Ch_1_Glob>
    return (Ident_2);
800009bc:	00100513          	li	a0,1
800009c0:	00008067          	ret

800009c4 <Func_2>:
/* Str_1_Par_Ref == "DHRYSTONE PROGRAM, 1'ST STRING" */
/* Str_2_Par_Ref == "DHRYSTONE PROGRAM, 2'ND STRING" */

Str_30 Str_1_Par_Ref;
Str_30 Str_2_Par_Ref;
{
800009c4:	ff010113          	addi	sp,sp,-16
800009c8:	00812423          	sw	s0,8(sp)
800009cc:	00912223          	sw	s1,4(sp)
800009d0:	01212023          	sw	s2,0(sp)
800009d4:	00112623          	sw	ra,12(sp)
800009d8:	00050413          	mv	s0,a0
800009dc:	00058493          	mv	s1,a1
  REG One_Thirty Int_Loc;
  Capital_Letter Ch_Loc;

  Int_Loc = 2;
  while (Int_Loc <= 2) /* loop body executed once */
800009e0:	00100913          	li	s2,1
    if (Func_1(Str_1_Par_Ref[Int_Loc], Str_2_Par_Ref[Int_Loc + 1]) == Ident_1)
800009e4:	0034c583          	lbu	a1,3(s1)
800009e8:	00244503          	lbu	a0,2(s0)
800009ec:	fb5ff0ef          	jal	800009a0 <Func_1>
  while (Int_Loc <= 2) /* loop body executed once */
800009f0:	ff250ae3          	beq	a0,s2,800009e4 <Func_2+0x20>
  if (Ch_Loc == 'R')
    /* then, not executed */
    return (true);
  else /* executed */
  {
    if (strcmp(Str_1_Par_Ref, Str_2_Par_Ref) > 0)
800009f4:	00048593          	mv	a1,s1
800009f8:	00040513          	mv	a0,s0
800009fc:	0dd000ef          	jal	800012d8 <strcmp>
    {
      Int_Loc += 7;
      Int_Glob = Int_Loc;
      return (true);
    } else /* executed */
      return (false);
80000a00:	00000793          	li	a5,0
    if (strcmp(Str_1_Par_Ref, Str_2_Par_Ref) > 0)
80000a04:	00a05a63          	blez	a0,80000a18 <Func_2+0x54>
      Int_Glob = Int_Loc;
80000a08:	800047b7          	lui	a5,0x80004
80000a0c:	00a00713          	li	a4,10
80000a10:	22e7a223          	sw	a4,548(a5) # 80004224 <Int_Glob>
      return (true);
80000a14:	00100793          	li	a5,1
  } /* if Ch_Loc */
} /* Func_2 */
80000a18:	00c12083          	lw	ra,12(sp)
80000a1c:	00812403          	lw	s0,8(sp)
80000a20:	00412483          	lw	s1,4(sp)
80000a24:	00012903          	lw	s2,0(sp)
80000a28:	00078513          	mv	a0,a5
80000a2c:	01010113          	addi	sp,sp,16
80000a30:	00008067          	ret

80000a34 <Func_3>:
Enumeration Enum_Par_Val;
{
  Enumeration Enum_Loc;

  Enum_Loc = Enum_Par_Val;
  if (Enum_Loc == Ident_3)
80000a34:	ffe50513          	addi	a0,a0,-2
    /* then, executed */
    return (true);
  else /* not executed */
    return (false);
} /* Func_3 */
80000a38:	00153513          	seqz	a0,a0
80000a3c:	00008067          	ret

80000a40 <Proc_6>:
{
80000a40:	fe010113          	addi	sp,sp,-32
80000a44:	00812c23          	sw	s0,24(sp)
80000a48:	00b12623          	sw	a1,12(sp)
80000a4c:	00112e23          	sw	ra,28(sp)
80000a50:	00050413          	mv	s0,a0
  if (!Func_3(Enum_Val_Par))
80000a54:	fe1ff0ef          	jal	80000a34 <Func_3>
80000a58:	00c12583          	lw	a1,12(sp)
    *Enum_Ref_Par = Ident_4;
80000a5c:	00300793          	li	a5,3
  if (!Func_3(Enum_Val_Par))
80000a60:	00050463          	beqz	a0,80000a68 <Proc_6+0x28>
80000a64:	00040793          	mv	a5,s0
80000a68:	00f5a023          	sw	a5,0(a1)
  switch (Enum_Val_Par) {
80000a6c:	00200793          	li	a5,2
80000a70:	04f40663          	beq	s0,a5,80000abc <Proc_6+0x7c>
80000a74:	0287e663          	bltu	a5,s0,80000aa0 <Proc_6+0x60>
80000a78:	00040a63          	beqz	s0,80000a8c <Proc_6+0x4c>
    if (Int_Glob > 100)
80000a7c:	800047b7          	lui	a5,0x80004
80000a80:	2247a703          	lw	a4,548(a5) # 80004224 <Int_Glob>
80000a84:	06400793          	li	a5,100
80000a88:	04e7d663          	bge	a5,a4,80000ad4 <Proc_6+0x94>
} /* Proc_6 */
80000a8c:	01c12083          	lw	ra,28(sp)
80000a90:	01812403          	lw	s0,24(sp)
      *Enum_Ref_Par = Ident_1;
80000a94:	0005a023          	sw	zero,0(a1)
} /* Proc_6 */
80000a98:	02010113          	addi	sp,sp,32
80000a9c:	00008067          	ret
  switch (Enum_Val_Par) {
80000aa0:	00400713          	li	a4,4
80000aa4:	00e41463          	bne	s0,a4,80000aac <Proc_6+0x6c>
    *Enum_Ref_Par = Ident_3;
80000aa8:	00f5a023          	sw	a5,0(a1)
} /* Proc_6 */
80000aac:	01c12083          	lw	ra,28(sp)
80000ab0:	01812403          	lw	s0,24(sp)
80000ab4:	02010113          	addi	sp,sp,32
80000ab8:	00008067          	ret
80000abc:	01c12083          	lw	ra,28(sp)
80000ac0:	01812403          	lw	s0,24(sp)
    *Enum_Ref_Par = Ident_2;
80000ac4:	00100793          	li	a5,1
80000ac8:	00f5a023          	sw	a5,0(a1)
} /* Proc_6 */
80000acc:	02010113          	addi	sp,sp,32
80000ad0:	00008067          	ret
80000ad4:	01c12083          	lw	ra,28(sp)
80000ad8:	01812403          	lw	s0,24(sp)
      *Enum_Ref_Par = Ident_4;
80000adc:	00300793          	li	a5,3
80000ae0:	00f5a023          	sw	a5,0(a1)
} /* Proc_6 */
80000ae4:	02010113          	addi	sp,sp,32
80000ae8:	00008067          	ret

80000aec <uart_putc>:

static void set_reg(u32 num, u32 val)
{
    u32 offset = num << uart8250_reg_shift;

    writeb(val, uart8250_base + offset);
80000aec:	0140000f          	fence	w,o
80000af0:	800047b7          	lui	a5,0x80004
#define u32 uint32_t
#define u16 uint16_t
#define u8 uint16_t

static inline void __raw_writeb(u8 val, volatile void *addr) {
  asm volatile("sb %0, 0(%1)" : : "r"(val), "r"(addr));
80000af4:	2347a783          	lw	a5,564(a5) # 80004234 <uart8250_base>
80000af8:	00a78023          	sb	a0,0(a5)
{
    // while ((get_reg(UART_LSR_OFFSET) & UART_LSR_THRE) == 0)
    // 	;

    set_reg(UART_THR_OFFSET, ch);
}
80000afc:	00008067          	ret

80000b00 <uart_getc>:
    u32 offset = num << uart8250_reg_shift;
80000b00:	800047b7          	lui	a5,0x80004
80000b04:	2307a603          	lw	a2,560(a5) # 80004230 <uart8250_reg_shift>
    return readb(uart8250_base + offset);
80000b08:	800046b7          	lui	a3,0x80004
80000b0c:	2346a783          	lw	a5,564(a3) # 80004234 <uart8250_base>
    u32 offset = num << uart8250_reg_shift;
80000b10:	00500713          	li	a4,5
80000b14:	00c71733          	sll	a4,a4,a2
    return readb(uart8250_base + offset);
80000b18:	00e787b3          	add	a5,a5,a4
}

static inline u8 __raw_readb(const volatile void *addr) {
  u8 val;

  asm volatile("lb %0, 0(%1)" : "=r"(val) : "r"(addr));
80000b1c:	00078783          	lb	a5,0(a5)
80000b20:	01079793          	slli	a5,a5,0x10
80000b24:	0107d793          	srli	a5,a5,0x10
80000b28:	0820000f          	fence	i,r

int uart_getc(void)
{
    if (get_reg(UART_LSR_OFFSET) & UART_LSR_DR)
80000b2c:	0017f793          	andi	a5,a5,1
80000b30:	00078e63          	beqz	a5,80000b4c <uart_getc+0x4c>
80000b34:	2346a503          	lw	a0,564(a3)
80000b38:	00050503          	lb	a0,0(a0)
    return readb(uart8250_base + offset);
80000b3c:	0820000f          	fence	i,r
        return get_reg(UART_RBR_OFFSET);
80000b40:	01051513          	slli	a0,a0,0x10
80000b44:	01055513          	srli	a0,a0,0x10
80000b48:	00008067          	ret
    return -1;
80000b4c:	fff00513          	li	a0,-1
}
80000b50:	00008067          	ret

80000b54 <uart_init>:

int uart_init()
{
    u16 bdiv;

    uart8250_base = (volatile void *)0x10000000;
80000b54:	800047b7          	lui	a5,0x80004
80000b58:	10000737          	lui	a4,0x10000
80000b5c:	22e7aa23          	sw	a4,564(a5) # 80004234 <uart8250_base>
    uart8250_reg_shift = 0;
80000b60:	80004737          	lui	a4,0x80004
80000b64:	22072823          	sw	zero,560(a4) # 80004230 <uart8250_reg_shift>
    writeb(val, uart8250_base + offset);
80000b68:	0140000f          	fence	w,o
80000b6c:	2347a603          	lw	a2,564(a5)
  asm volatile("sb %0, 0(%1)" : : "r"(val), "r"(addr));
80000b70:	00000693          	li	a3,0
80000b74:	00160613          	addi	a2,a2,1
80000b78:	00d60023          	sb	a3,0(a2)
    u32 offset = num << uart8250_reg_shift;
80000b7c:	23072503          	lw	a0,560(a4)
80000b80:	00300613          	li	a2,3
80000b84:	00a61533          	sll	a0,a2,a0
    writeb(val, uart8250_base + offset);
80000b88:	0140000f          	fence	w,o
80000b8c:	2347a583          	lw	a1,564(a5)
80000b90:	08000813          	li	a6,128
80000b94:	00a585b3          	add	a1,a1,a0
80000b98:	01058023          	sb	a6,0(a1)
    u32 offset = num << uart8250_reg_shift;
80000b9c:	23072503          	lw	a0,560(a4)
80000ba0:	00100813          	li	a6,1
80000ba4:	00a81533          	sll	a0,a6,a0
    writeb(val, uart8250_base + offset);
80000ba8:	0140000f          	fence	w,o
80000bac:	2347a583          	lw	a1,564(a5)
80000bb0:	00a585b3          	add	a1,a1,a0
80000bb4:	00d58023          	sb	a3,0(a1)
    u32 offset = num << uart8250_reg_shift;
80000bb8:	23072503          	lw	a0,560(a4)
80000bbc:	00a61533          	sll	a0,a2,a0
    writeb(val, uart8250_base + offset);
80000bc0:	0140000f          	fence	w,o
80000bc4:	2347a583          	lw	a1,564(a5)
80000bc8:	00a585b3          	add	a1,a1,a0
80000bcc:	00c58023          	sb	a2,0(a1)
    u32 offset = num << uart8250_reg_shift;
80000bd0:	23072603          	lw	a2,560(a4)
80000bd4:	00200593          	li	a1,2
80000bd8:	00c595b3          	sll	a1,a1,a2
    writeb(val, uart8250_base + offset);
80000bdc:	0140000f          	fence	w,o
80000be0:	2347a603          	lw	a2,564(a5)
80000be4:	00b60633          	add	a2,a2,a1
80000be8:	01060023          	sb	a6,0(a2)
    u32 offset = num << uart8250_reg_shift;
80000bec:	23072603          	lw	a2,560(a4)
80000bf0:	00400593          	li	a1,4
80000bf4:	00c595b3          	sll	a1,a1,a2
    writeb(val, uart8250_base + offset);
80000bf8:	0140000f          	fence	w,o
80000bfc:	2347a603          	lw	a2,564(a5)
80000c00:	00b60633          	add	a2,a2,a1
80000c04:	00d60023          	sb	a3,0(a2)
    u32 offset = num << uart8250_reg_shift;
80000c08:	23072603          	lw	a2,560(a4)
80000c0c:	00700713          	li	a4,7
80000c10:	00c71733          	sll	a4,a4,a2
    writeb(val, uart8250_base + offset);
80000c14:	0140000f          	fence	w,o
80000c18:	2347a783          	lw	a5,564(a5)
80000c1c:	00e787b3          	add	a5,a5,a4
80000c20:	00d78023          	sb	a3,0(a5)
    // /* Read receive buffer */
    // get_reg(UART_RBR_OFFSET);
    /* Set scratchpad */
    set_reg(UART_SCR_OFFSET, 0x00);

    xdev_out(uart_putc);
80000c24:	800017b7          	lui	a5,0x80001
80000c28:	aec78793          	addi	a5,a5,-1300 # 80000aec <uart_putc>
80000c2c:	80004737          	lui	a4,0x80004
80000c30:	22f72e23          	sw	a5,572(a4) # 8000423c <xfunc_out>
    return 0;
80000c34:	00000513          	li	a0,0
80000c38:	00008067          	ret

80000c3c <xputc>:

void xputc (char c)
{
	if (_CR_CRLF && c == '\n') xputc('\r');		/* CR -> CRLF */

	if (outptr) {
80000c3c:	80004737          	lui	a4,0x80004
80000c40:	23872783          	lw	a5,568(a4) # 80004238 <outptr>
80000c44:	00078a63          	beqz	a5,80000c58 <xputc+0x1c>
		*outptr++ = (unsigned char)c;
80000c48:	00178693          	addi	a3,a5,1
80000c4c:	00a78023          	sb	a0,0(a5)
80000c50:	22d72c23          	sw	a3,568(a4)
		return;
80000c54:	00008067          	ret
	}

	if (xfunc_out) xfunc_out((unsigned char)c);
80000c58:	800047b7          	lui	a5,0x80004
80000c5c:	23c7a783          	lw	a5,572(a5) # 8000423c <xfunc_out>
80000c60:	00078463          	beqz	a5,80000c68 <xputc+0x2c>
80000c64:	00078067          	jr	a5
}
80000c68:	00008067          	ret

80000c6c <xputs>:
/*----------------------------------------------*/

void xputs (					/* Put a string to the default device */
	const char* str				/* Pointer to the string */
)
{
80000c6c:	ff010113          	addi	sp,sp,-16
80000c70:	00812423          	sw	s0,8(sp)
80000c74:	00112623          	sw	ra,12(sp)
80000c78:	00050413          	mv	s0,a0
	while (*str)
80000c7c:	00054503          	lbu	a0,0(a0)
80000c80:	04050a63          	beqz	a0,80000cd4 <xputs+0x68>
80000c84:	00912223          	sw	s1,4(sp)
80000c88:	01212023          	sw	s2,0(sp)
80000c8c:	800044b7          	lui	s1,0x80004
	if (xfunc_out) xfunc_out((unsigned char)c);
80000c90:	80004937          	lui	s2,0x80004
80000c94:	0140006f          	j	80000ca8 <xputs+0x3c>
		*outptr++ = (unsigned char)c;
80000c98:	22e4ac23          	sw	a4,568(s1) # 80004238 <outptr>
80000c9c:	00a78023          	sb	a0,0(a5)
	while (*str)
80000ca0:	00044503          	lbu	a0,0(s0)
80000ca4:	02050463          	beqz	a0,80000ccc <xputs+0x60>
	if (outptr) {
80000ca8:	2384a783          	lw	a5,568(s1)
		xputc(*str++);
80000cac:	00140413          	addi	s0,s0,1
		*outptr++ = (unsigned char)c;
80000cb0:	00178713          	addi	a4,a5,1
	if (outptr) {
80000cb4:	fe0792e3          	bnez	a5,80000c98 <xputs+0x2c>
	if (xfunc_out) xfunc_out((unsigned char)c);
80000cb8:	23c92783          	lw	a5,572(s2) # 8000423c <xfunc_out>
80000cbc:	fe0782e3          	beqz	a5,80000ca0 <xputs+0x34>
80000cc0:	000780e7          	jalr	a5
	while (*str)
80000cc4:	00044503          	lbu	a0,0(s0)
80000cc8:	fe0510e3          	bnez	a0,80000ca8 <xputs+0x3c>
80000ccc:	00412483          	lw	s1,4(sp)
80000cd0:	00012903          	lw	s2,0(sp)
}
80000cd4:	00c12083          	lw	ra,12(sp)
80000cd8:	00812403          	lw	s0,8(sp)
80000cdc:	01010113          	addi	sp,sp,16
80000ce0:	00008067          	ret

80000ce4 <xprintf>:

void xprintf (			/* Put a formatted string to the default device */
	const char*	fmt,	/* Pointer to the format string */
	...					/* Optional arguments */
)
{
80000ce4:	f7010113          	addi	sp,sp,-144
80000ce8:	06912223          	sw	s1,100(sp)
80000cec:	05612823          	sw	s6,80(sp)
80000cf0:	06112623          	sw	ra,108(sp)
80000cf4:	06b12a23          	sw	a1,116(sp)
80000cf8:	06c12c23          	sw	a2,120(sp)
80000cfc:	06d12e23          	sw	a3,124(sp)
80000d00:	08e12023          	sw	a4,128(sp)
80000d04:	08f12223          	sw	a5,132(sp)
80000d08:	09012423          	sw	a6,136(sp)
80000d0c:	09112623          	sw	a7,140(sp)
80000d10:	00050b13          	mv	s6,a0
		c = *fmt++;					/* Get a char */
80000d14:	00054503          	lbu	a0,0(a0)
	va_list arp;


	va_start(arp, fmt);
80000d18:	07410493          	addi	s1,sp,116
80000d1c:	00912e23          	sw	s1,28(sp)
		if (!c) break;				/* End of format? */
80000d20:	08050e63          	beqz	a0,80000dbc <xprintf+0xd8>
80000d24:	05412c23          	sw	s4,88(sp)
		switch (d) {				/* Type is... */
80000d28:	80002a37          	lui	s4,0x80002
80000d2c:	9cca0793          	addi	a5,s4,-1588 # 800019cc <strcmp+0x6f4>
80000d30:	06812423          	sw	s0,104(sp)
80000d34:	07212023          	sw	s2,96(sp)
80000d38:	05512a23          	sw	s5,84(sp)
80000d3c:	03b12e23          	sw	s11,60(sp)
80000d40:	05312e23          	sw	s3,92(sp)
80000d44:	05712623          	sw	s7,76(sp)
80000d48:	05812423          	sw	s8,72(sp)
80000d4c:	05912223          	sw	s9,68(sp)
80000d50:	05a12023          	sw	s10,64(sp)
80000d54:	00f12623          	sw	a5,12(sp)
		c = *fmt++;					/* Get a char */
80000d58:	001b0a93          	addi	s5,s6,1
		if (c != '%') {				/* Pass through it if not a % sequense */
80000d5c:	02500913          	li	s2,37
		for (w = 0; c >= '0' && c <= '9'; c = *fmt++)	/* Minimum width */
80000d60:	00900d93          	li	s11,9
	if (xfunc_out) xfunc_out((unsigned char)c);
80000d64:	80004437          	lui	s0,0x80004
		if (c != '%') {				/* Pass through it if not a % sequense */
80000d68:	07250463          	beq	a0,s2,80000dd0 <xprintf+0xec>
	if (outptr) {
80000d6c:	80004737          	lui	a4,0x80004
80000d70:	23872783          	lw	a5,568(a4) # 80004238 <outptr>
80000d74:	3e078a63          	beqz	a5,80001168 <xprintf+0x484>
		*outptr++ = (unsigned char)c;
80000d78:	00178693          	addi	a3,a5,1
80000d7c:	00a78023          	sb	a0,0(a5)
80000d80:	22d72c23          	sw	a3,568(a4)
		c = *fmt++;					/* Get a char */
80000d84:	000a8b13          	mv	s6,s5
80000d88:	000b4503          	lbu	a0,0(s6)
80000d8c:	001b0a93          	addi	s5,s6,1
		if (!c) break;				/* End of format? */
80000d90:	fc051ce3          	bnez	a0,80000d68 <xprintf+0x84>
80000d94:	06812403          	lw	s0,104(sp)
80000d98:	06012903          	lw	s2,96(sp)
80000d9c:	05c12983          	lw	s3,92(sp)
80000da0:	05812a03          	lw	s4,88(sp)
80000da4:	05412a83          	lw	s5,84(sp)
80000da8:	04c12b83          	lw	s7,76(sp)
80000dac:	04812c03          	lw	s8,72(sp)
80000db0:	04412c83          	lw	s9,68(sp)
80000db4:	04012d03          	lw	s10,64(sp)
80000db8:	03c12d83          	lw	s11,60(sp)
	xvprintf(fmt, arp);
	va_end(arp);
}
80000dbc:	06c12083          	lw	ra,108(sp)
80000dc0:	06412483          	lw	s1,100(sp)
80000dc4:	05012b03          	lw	s6,80(sp)
80000dc8:	09010113          	addi	sp,sp,144
80000dcc:	00008067          	ret
		c = *fmt++;					/* Get first char of the sequense */
80000dd0:	001b4503          	lbu	a0,1(s6)
		if (c == '0') {				/* Flag: '0' padded */
80000dd4:	03000793          	li	a5,48
80000dd8:	3af50063          	beq	a0,a5,80001178 <xprintf+0x494>
			if (c == '-') {			/* Flag: left justified */
80000ddc:	02d00793          	li	a5,45
80000de0:	3af50463          	beq	a0,a5,80001188 <xprintf+0x4a4>
		c = *fmt++;					/* Get first char of the sequense */
80000de4:	002b0b13          	addi	s6,s6,2
		f = 0;
80000de8:	00000593          	li	a1,0
		for (w = 0; c >= '0' && c <= '9'; c = *fmt++)	/* Minimum width */
80000dec:	fd050793          	addi	a5,a0,-48
80000df0:	0ff7f793          	zext.b	a5,a5
80000df4:	00000b93          	li	s7,0
80000df8:	02fde663          	bltu	s11,a5,80000e24 <xprintf+0x140>
			w = w * 10 + c - '0';
80000dfc:	002b9793          	slli	a5,s7,0x2
80000e00:	017787b3          	add	a5,a5,s7
		for (w = 0; c >= '0' && c <= '9'; c = *fmt++)	/* Minimum width */
80000e04:	001b0b13          	addi	s6,s6,1
			w = w * 10 + c - '0';
80000e08:	00179793          	slli	a5,a5,0x1
80000e0c:	00a787b3          	add	a5,a5,a0
		for (w = 0; c >= '0' && c <= '9'; c = *fmt++)	/* Minimum width */
80000e10:	fffb4503          	lbu	a0,-1(s6)
			w = w * 10 + c - '0';
80000e14:	fd078b93          	addi	s7,a5,-48
		for (w = 0; c >= '0' && c <= '9'; c = *fmt++)	/* Minimum width */
80000e18:	fd050793          	addi	a5,a0,-48
80000e1c:	0ff7f793          	zext.b	a5,a5
80000e20:	fcfdfee3          	bgeu	s11,a5,80000dfc <xprintf+0x118>
		if (c == 'l' || c == 'L') {	/* Prefix: Size is long int */
80000e24:	0df57793          	andi	a5,a0,223
80000e28:	04c00713          	li	a4,76
80000e2c:	00e79863          	bne	a5,a4,80000e3c <xprintf+0x158>
			f |= 4; c = *fmt++;
80000e30:	000b4503          	lbu	a0,0(s6)
80000e34:	0045e593          	ori	a1,a1,4
80000e38:	001b0b13          	addi	s6,s6,1
		if (!c) break;				/* End of format? */
80000e3c:	f4050ce3          	beqz	a0,80000d94 <xprintf+0xb0>
		if (d >= 'a') d -= 0x20;
80000e40:	06000793          	li	a5,96
		d = c;
80000e44:	00050713          	mv	a4,a0
		if (d >= 'a') d -= 0x20;
80000e48:	00a7f663          	bgeu	a5,a0,80000e54 <xprintf+0x170>
80000e4c:	fe050713          	addi	a4,a0,-32
80000e50:	0ff77713          	zext.b	a4,a4
		switch (d) {				/* Type is... */
80000e54:	fbe70793          	addi	a5,a4,-66
80000e58:	0ff7f793          	zext.b	a5,a5
80000e5c:	01600693          	li	a3,22
80000e60:	00f6ec63          	bltu	a3,a5,80000e78 <xprintf+0x194>
80000e64:	00c12683          	lw	a3,12(sp)
80000e68:	00279793          	slli	a5,a5,0x2
80000e6c:	00d787b3          	add	a5,a5,a3
80000e70:	0007a783          	lw	a5,0(a5)
80000e74:	00078067          	jr	a5
	if (outptr) {
80000e78:	80004737          	lui	a4,0x80004
80000e7c:	23872783          	lw	a5,568(a4) # 80004238 <outptr>
80000e80:	34078a63          	beqz	a5,800011d4 <xprintf+0x4f0>
		*outptr++ = (unsigned char)c;
80000e84:	00178693          	addi	a3,a5,1
80000e88:	00a78023          	sb	a0,0(a5)
80000e8c:	22d72c23          	sw	a3,568(a4)
		return;
80000e90:	ef9ff06f          	j	80000d88 <xprintf+0xa4>
		v = (f & 4) ? va_arg(arp, long) : ((d == 'D') ? (long)va_arg(arp, int) : (long)va_arg(arp, unsigned int));
80000e94:	0045f793          	andi	a5,a1,4
			p = va_arg(arp, char*);
80000e98:	00448613          	addi	a2,s1,4
		v = (f & 4) ? va_arg(arp, long) : ((d == 'D') ? (long)va_arg(arp, int) : (long)va_arg(arp, unsigned int));
80000e9c:	30078863          	beqz	a5,800011ac <xprintf+0x4c8>
		if (d == 'D' && (v & 0x80000000)) {
80000ea0:	fbc70793          	addi	a5,a4,-68
			p = va_arg(arp, char*);
80000ea4:	0004a703          	lw	a4,0(s1)
		if (d == 'D' && (v & 0x80000000)) {
80000ea8:	42079063          	bnez	a5,800012c8 <xprintf+0x5e4>
80000eac:	40075e63          	bgez	a4,800012c8 <xprintf+0x5e4>
			v = 0 - v;
80000eb0:	40e00733          	neg	a4,a4
			f |= 8;
80000eb4:	0085e593          	ori	a1,a1,8
80000eb8:	00060493          	mv	s1,a2
80000ebc:	00800e13          	li	t3,8
80000ec0:	00a00693          	li	a3,10
		i = 0;
80000ec4:	f8850513          	addi	a0,a0,-120
80000ec8:	00700313          	li	t1,7
80000ecc:	00051463          	bnez	a0,80000ed4 <xprintf+0x1f0>
80000ed0:	02700313          	li	t1,39
80000ed4:	00000613          	li	a2,0
80000ed8:	02010a13          	addi	s4,sp,32
80000edc:	0080006f          	j	80000ee4 <xprintf+0x200>
			s[i++] = d + '0';
80000ee0:	000a8613          	mv	a2,s5
			d = (char)(v % r); v /= r;
80000ee4:	02d777b3          	remu	a5,a4,a3
80000ee8:	00070513          	mv	a0,a4
80000eec:	02d75733          	divu	a4,a4,a3
			if (d > 9) d += (c == 'x') ? 0x27 : 0x07;
80000ef0:	00fdf463          	bgeu	s11,a5,80000ef8 <xprintf+0x214>
80000ef4:	00f307b3          	add	a5,t1,a5
			s[i++] = d + '0';
80000ef8:	00160a93          	addi	s5,a2,1
80000efc:	03078793          	addi	a5,a5,48
80000f00:	015a08b3          	add	a7,s4,s5
80000f04:	fef88fa3          	sb	a5,-1(a7)
		} while (v && i < sizeof(s));
80000f08:	00d56663          	bltu	a0,a3,80000f14 <xprintf+0x230>
80000f0c:	ff160793          	addi	a5,a2,-15
80000f10:	fc0798e3          	bnez	a5,80000ee0 <xprintf+0x1fc>
		if (f & 8) s[i++] = '-';
80000f14:	000e0a63          	beqz	t3,80000f28 <xprintf+0x244>
80000f18:	002a87b3          	add	a5,s5,sp
80000f1c:	02d00713          	li	a4,45
80000f20:	00260a93          	addi	s5,a2,2
80000f24:	02e78023          	sb	a4,32(a5)
		j = i; d = (f & 1) ? '0' : ' ';
80000f28:	01f59793          	slli	a5,a1,0x1f
80000f2c:	41f7d513          	srai	a0,a5,0x1f
80000f30:	01057c93          	andi	s9,a0,16
	if (outptr) {
80000f34:	80004c37          	lui	s8,0x80004
		while (!(f & 2) && j++ < w) xputc(d);
80000f38:	0025f593          	andi	a1,a1,2
80000f3c:	01512423          	sw	s5,8(sp)
	if (outptr) {
80000f40:	238c2783          	lw	a5,568(s8) # 80004238 <outptr>
		j = i; d = (f & 1) ? '0' : ' ';
80000f44:	020c8c93          	addi	s9,s9,32
		while (!(f & 2) && j++ < w) xputc(d);
80000f48:	04059a63          	bnez	a1,80000f9c <xprintf+0x2b8>
80000f4c:	001b8713          	addi	a4,s7,1
80000f50:	00e12423          	sw	a4,8(sp)
80000f54:	00070d13          	mv	s10,a4
80000f58:	001a8993          	addi	s3,s5,1
80000f5c:	337afc63          	bgeu	s5,s7,80001294 <xprintf+0x5b0>
	if (outptr) {
80000f60:	02079263          	bnez	a5,80000f84 <xprintf+0x2a0>
	if (xfunc_out) xfunc_out((unsigned char)c);
80000f64:	23c42683          	lw	a3,572(s0) # 8000423c <xfunc_out>
80000f68:	1e068a63          	beqz	a3,8000115c <xprintf+0x478>
80000f6c:	000c8513          	mv	a0,s9
80000f70:	000680e7          	jalr	a3
	if (outptr) {
80000f74:	238c2783          	lw	a5,568(s8)
		while (!(f & 2) && j++ < w) xputc(d);
80000f78:	03798263          	beq	s3,s7,80000f9c <xprintf+0x2b8>
80000f7c:	00198993          	addi	s3,s3,1
	if (outptr) {
80000f80:	fe0782e3          	beqz	a5,80000f64 <xprintf+0x280>
		*outptr++ = (unsigned char)c;
80000f84:	00078693          	mv	a3,a5
80000f88:	00178793          	addi	a5,a5,1
		while (!(f & 2) && j++ < w) xputc(d);
80000f8c:	00198993          	addi	s3,s3,1
		*outptr++ = (unsigned char)c;
80000f90:	01968023          	sb	s9,0(a3)
80000f94:	22fc2c23          	sw	a5,568(s8)
		while (!(f & 2) && j++ < w) xputc(d);
80000f98:	ffa996e3          	bne	s3,s10,80000f84 <xprintf+0x2a0>
80000f9c:	015a0ab3          	add	s5,s4,s5
80000fa0:	01c0006f          	j	80000fbc <xprintf+0x2d8>
		*outptr++ = (unsigned char)c;
80000fa4:	00178713          	addi	a4,a5,1
80000fa8:	00a78023          	sb	a0,0(a5)
80000fac:	22ec2c23          	sw	a4,568(s8)
		do xputc(s[--i]); while(i);
80000fb0:	fffa8a93          	addi	s5,s5,-1
80000fb4:	035a0263          	beq	s4,s5,80000fd8 <xprintf+0x2f4>
	if (outptr) {
80000fb8:	238c2783          	lw	a5,568(s8)
		do xputc(s[--i]); while(i);
80000fbc:	fffac503          	lbu	a0,-1(s5)
	if (outptr) {
80000fc0:	fe0792e3          	bnez	a5,80000fa4 <xprintf+0x2c0>
	if (xfunc_out) xfunc_out((unsigned char)c);
80000fc4:	23c42783          	lw	a5,572(s0)
80000fc8:	fe0784e3          	beqz	a5,80000fb0 <xprintf+0x2cc>
		do xputc(s[--i]); while(i);
80000fcc:	fffa8a93          	addi	s5,s5,-1
	if (xfunc_out) xfunc_out((unsigned char)c);
80000fd0:	000780e7          	jalr	a5
		do xputc(s[--i]); while(i);
80000fd4:	ff5a12e3          	bne	s4,s5,80000fb8 <xprintf+0x2d4>
		while (j++ < w) xputc(' ');
80000fd8:	00812783          	lw	a5,8(sp)
80000fdc:	db77f6e3          	bgeu	a5,s7,80000d88 <xprintf+0xa4>
80000fe0:	00178c93          	addi	s9,a5,1
	if (outptr) {
80000fe4:	238c2783          	lw	a5,568(s8)
	if (xfunc_out) xfunc_out((unsigned char)c);
80000fe8:	02000a93          	li	s5,32
	if (outptr) {
80000fec:	02078063          	beqz	a5,8000100c <xprintf+0x328>
		*outptr++ = (unsigned char)c;
80000ff0:	00178713          	addi	a4,a5,1
80000ff4:	01578023          	sb	s5,0(a5)
80000ff8:	22ec2c23          	sw	a4,568(s8)
		while (j++ < w) xputc(' ');
80000ffc:	d99b86e3          	beq	s7,s9,80000d88 <xprintf+0xa4>
	if (outptr) {
80001000:	238c2783          	lw	a5,568(s8)
80001004:	001c8c93          	addi	s9,s9,1
80001008:	fe0794e3          	bnez	a5,80000ff0 <xprintf+0x30c>
	if (xfunc_out) xfunc_out((unsigned char)c);
8000100c:	23c42783          	lw	a5,572(s0)
80001010:	fe0786e3          	beqz	a5,80000ffc <xprintf+0x318>
80001014:	02000513          	li	a0,32
80001018:	000780e7          	jalr	a5
8000101c:	fe1ff06f          	j	80000ffc <xprintf+0x318>
		v = (f & 4) ? va_arg(arp, long) : ((d == 'D') ? (long)va_arg(arp, int) : (long)va_arg(arp, unsigned int));
80001020:	0045f793          	andi	a5,a1,4
80001024:	16079a63          	bnez	a5,80001198 <xprintf+0x4b4>
			r = 8; break;
80001028:	00800693          	li	a3,8
8000102c:	00448613          	addi	a2,s1,4
		v = (f & 4) ? va_arg(arp, long) : ((d == 'D') ? (long)va_arg(arp, int) : (long)va_arg(arp, unsigned int));
80001030:	0004a703          	lw	a4,0(s1)
80001034:	00000e13          	li	t3,0
80001038:	00060493          	mv	s1,a2
8000103c:	e89ff06f          	j	80000ec4 <xprintf+0x1e0>
	if (outptr) {
80001040:	80004737          	lui	a4,0x80004
80001044:	23872783          	lw	a5,568(a4) # 80004238 <outptr>
			xputc((char)va_arg(arp, int)); continue;
80001048:	0004c503          	lbu	a0,0(s1)
8000104c:	00448a93          	addi	s5,s1,4
	if (outptr) {
80001050:	18078c63          	beqz	a5,800011e8 <xprintf+0x504>
		*outptr++ = (unsigned char)c;
80001054:	00178693          	addi	a3,a5,1
80001058:	00a78023          	sb	a0,0(a5)
8000105c:	22d72c23          	sw	a3,568(a4)
			xputc((char)va_arg(arp, int)); continue;
80001060:	000a8493          	mv	s1,s5
80001064:	d25ff06f          	j	80000d88 <xprintf+0xa4>
		v = (f & 4) ? va_arg(arp, long) : ((d == 'D') ? (long)va_arg(arp, int) : (long)va_arg(arp, unsigned int));
80001068:	0045f793          	andi	a5,a1,4
8000106c:	14078e63          	beqz	a5,800011c8 <xprintf+0x4e4>
			p = va_arg(arp, char*);
80001070:	0004a703          	lw	a4,0(s1)
		v = (f & 4) ? va_arg(arp, long) : ((d == 'D') ? (long)va_arg(arp, int) : (long)va_arg(arp, unsigned int));
80001074:	00000e13          	li	t3,0
			p = va_arg(arp, char*);
80001078:	00448493          	addi	s1,s1,4
			r = 2; break;
8000107c:	00200693          	li	a3,2
80001080:	e45ff06f          	j	80000ec4 <xprintf+0x1e0>
		v = (f & 4) ? va_arg(arp, long) : ((d == 'D') ? (long)va_arg(arp, int) : (long)va_arg(arp, unsigned int));
80001084:	0045f793          	andi	a5,a1,4
80001088:	12078a63          	beqz	a5,800011bc <xprintf+0x4d8>
			p = va_arg(arp, char*);
8000108c:	0004a703          	lw	a4,0(s1)
		v = (f & 4) ? va_arg(arp, long) : ((d == 'D') ? (long)va_arg(arp, int) : (long)va_arg(arp, unsigned int));
80001090:	00000e13          	li	t3,0
			p = va_arg(arp, char*);
80001094:	00448493          	addi	s1,s1,4
			r = 16; break;
80001098:	01000693          	li	a3,16
8000109c:	e29ff06f          	j	80000ec4 <xprintf+0x1e0>
			p = va_arg(arp, char*);
800010a0:	0004aa03          	lw	s4,0(s1)
			while (!(f & 2) && j++ < w) xputc(' ');
800010a4:	0025f593          	andi	a1,a1,2
			p = va_arg(arp, char*);
800010a8:	00448493          	addi	s1,s1,4
			for (j = 0; p[j]; j++) ;
800010ac:	000a4503          	lbu	a0,0(s4)
800010b0:	1e050663          	beqz	a0,8000129c <xprintf+0x5b8>
800010b4:	00000a93          	li	s5,0
800010b8:	000a8d13          	mv	s10,s5
800010bc:	001a8a93          	addi	s5,s5,1
800010c0:	015a0733          	add	a4,s4,s5
800010c4:	00074703          	lbu	a4,0(a4)
800010c8:	fe0718e3          	bnez	a4,800010b8 <xprintf+0x3d4>
			while (!(f & 2) && j++ < w) xputc(' ');
800010cc:	12058a63          	beqz	a1,80001200 <xprintf+0x51c>
			while (j++ < w) xputc(' ');
800010d0:	002d0d13          	addi	s10,s10,2
800010d4:	80004c37          	lui	s8,0x80004
	if (xfunc_out) xfunc_out((unsigned char)c);
800010d8:	80004cb7          	lui	s9,0x80004
800010dc:	0180006f          	j	800010f4 <xprintf+0x410>
		*outptr++ = (unsigned char)c;
800010e0:	00170693          	addi	a3,a4,1
800010e4:	00a70023          	sb	a0,0(a4)
800010e8:	22dc2c23          	sw	a3,568(s8) # 80004238 <outptr>
	while (*str)
800010ec:	000a4503          	lbu	a0,0(s4)
800010f0:	02050263          	beqz	a0,80001114 <xprintf+0x430>
	if (outptr) {
800010f4:	238c2703          	lw	a4,568(s8)
		xputc(*str++);
800010f8:	001a0a13          	addi	s4,s4,1
	if (outptr) {
800010fc:	fe0712e3          	bnez	a4,800010e0 <xprintf+0x3fc>
	if (xfunc_out) xfunc_out((unsigned char)c);
80001100:	23cca703          	lw	a4,572(s9) # 8000423c <xfunc_out>
80001104:	fe0704e3          	beqz	a4,800010ec <xprintf+0x408>
80001108:	000700e7          	jalr	a4
	while (*str)
8000110c:	000a4503          	lbu	a0,0(s4)
80001110:	fe0512e3          	bnez	a0,800010f4 <xprintf+0x410>
			while (j++ < w) xputc(' ');
80001114:	80004c37          	lui	s8,0x80004
	if (xfunc_out) xfunc_out((unsigned char)c);
80001118:	80004cb7          	lui	s9,0x80004
8000111c:	02000993          	li	s3,32
			while (j++ < w) xputc(' ');
80001120:	c77af4e3          	bgeu	s5,s7,80000d88 <xprintf+0xa4>
	if (outptr) {
80001124:	238c2783          	lw	a5,568(s8) # 80004238 <outptr>
80001128:	02078063          	beqz	a5,80001148 <xprintf+0x464>
		*outptr++ = (unsigned char)c;
8000112c:	00178713          	addi	a4,a5,1
80001130:	01378023          	sb	s3,0(a5)
80001134:	22ec2c23          	sw	a4,568(s8)
			while (j++ < w) xputc(' ');
80001138:	c57d78e3          	bgeu	s10,s7,80000d88 <xprintf+0xa4>
	if (outptr) {
8000113c:	238c2783          	lw	a5,568(s8)
80001140:	001d0d13          	addi	s10,s10,1
80001144:	fe0794e3          	bnez	a5,8000112c <xprintf+0x448>
	if (xfunc_out) xfunc_out((unsigned char)c);
80001148:	23cca783          	lw	a5,572(s9) # 8000423c <xfunc_out>
8000114c:	fe0786e3          	beqz	a5,80001138 <xprintf+0x454>
80001150:	02000513          	li	a0,32
80001154:	000780e7          	jalr	a5
80001158:	fe1ff06f          	j	80001138 <xprintf+0x454>
		while (!(f & 2) && j++ < w) xputc(d);
8000115c:	e57980e3          	beq	s3,s7,80000f9c <xprintf+0x2b8>
80001160:	00198993          	addi	s3,s3,1
80001164:	e01ff06f          	j	80000f64 <xprintf+0x280>
	if (xfunc_out) xfunc_out((unsigned char)c);
80001168:	23c42783          	lw	a5,572(s0)
8000116c:	c0078ce3          	beqz	a5,80000d84 <xprintf+0xa0>
80001170:	000780e7          	jalr	a5
80001174:	c11ff06f          	j	80000d84 <xprintf+0xa0>
			f = 1; c = *fmt++;
80001178:	002b4503          	lbu	a0,2(s6)
8000117c:	00100593          	li	a1,1
80001180:	003b0b13          	addi	s6,s6,3
80001184:	c69ff06f          	j	80000dec <xprintf+0x108>
				f = 2; c = *fmt++;
80001188:	002b4503          	lbu	a0,2(s6)
8000118c:	00200593          	li	a1,2
80001190:	003b0b13          	addi	s6,s6,3
80001194:	c59ff06f          	j	80000dec <xprintf+0x108>
			p = va_arg(arp, char*);
80001198:	0004a703          	lw	a4,0(s1)
		v = (f & 4) ? va_arg(arp, long) : ((d == 'D') ? (long)va_arg(arp, int) : (long)va_arg(arp, unsigned int));
8000119c:	00000e13          	li	t3,0
			p = va_arg(arp, char*);
800011a0:	00448493          	addi	s1,s1,4
			r = 8; break;
800011a4:	00800693          	li	a3,8
800011a8:	d1dff06f          	j	80000ec4 <xprintf+0x1e0>
		v = (f & 4) ? va_arg(arp, long) : ((d == 'D') ? (long)va_arg(arp, int) : (long)va_arg(arp, unsigned int));
800011ac:	04400793          	li	a5,68
800011b0:	cef708e3          	beq	a4,a5,80000ea0 <xprintf+0x1bc>
800011b4:	00a00693          	li	a3,10
800011b8:	e79ff06f          	j	80001030 <xprintf+0x34c>
			r = 16; break;
800011bc:	01000693          	li	a3,16
800011c0:	00448613          	addi	a2,s1,4
800011c4:	e6dff06f          	j	80001030 <xprintf+0x34c>
			r = 2; break;
800011c8:	00200693          	li	a3,2
800011cc:	00448613          	addi	a2,s1,4
800011d0:	e61ff06f          	j	80001030 <xprintf+0x34c>
	if (xfunc_out) xfunc_out((unsigned char)c);
800011d4:	800047b7          	lui	a5,0x80004
800011d8:	23c7a783          	lw	a5,572(a5) # 8000423c <xfunc_out>
800011dc:	ba0786e3          	beqz	a5,80000d88 <xprintf+0xa4>
800011e0:	000780e7          	jalr	a5
800011e4:	ba5ff06f          	j	80000d88 <xprintf+0xa4>
800011e8:	800047b7          	lui	a5,0x80004
800011ec:	23c7a783          	lw	a5,572(a5) # 8000423c <xfunc_out>
800011f0:	e60788e3          	beqz	a5,80001060 <xprintf+0x37c>
800011f4:	000780e7          	jalr	a5
			xputc((char)va_arg(arp, int)); continue;
800011f8:	000a8493          	mv	s1,s5
800011fc:	b8dff06f          	j	80000d88 <xprintf+0xa4>
			while (j++ < w) xputc(' ');
80001200:	002d0c93          	addi	s9,s10,2
			while (!(f & 2) && j++ < w) xputc(' ');
80001204:	0b7afa63          	bgeu	s5,s7,800012b8 <xprintf+0x5d4>
80001208:	80004c37          	lui	s8,0x80004
	if (outptr) {
8000120c:	238c2703          	lw	a4,568(s8) # 80004238 <outptr>
			while (!(f & 2) && j++ < w) xputc(' ');
80001210:	000c8993          	mv	s3,s9
	if (xfunc_out) xfunc_out((unsigned char)c);
80001214:	80004d37          	lui	s10,0x80004
80001218:	02000a93          	li	s5,32
	if (outptr) {
8000121c:	02070063          	beqz	a4,8000123c <xprintf+0x558>
		*outptr++ = (unsigned char)c;
80001220:	00170613          	addi	a2,a4,1
80001224:	01570023          	sb	s5,0(a4)
80001228:	22cc2c23          	sw	a2,568(s8)
			while (!(f & 2) && j++ < w) xputc(' ');
8000122c:	0379f263          	bgeu	s3,s7,80001250 <xprintf+0x56c>
	if (outptr) {
80001230:	238c2703          	lw	a4,568(s8)
80001234:	00198993          	addi	s3,s3,1
80001238:	fe0714e3          	bnez	a4,80001220 <xprintf+0x53c>
	if (xfunc_out) xfunc_out((unsigned char)c);
8000123c:	23cd2703          	lw	a4,572(s10) # 8000423c <xfunc_out>
80001240:	fe0706e3          	beqz	a4,8000122c <xprintf+0x548>
80001244:	02000513          	li	a0,32
80001248:	000700e7          	jalr	a4
			while (!(f & 2) && j++ < w) xputc(' ');
8000124c:	ff79e2e3          	bltu	s3,s7,80001230 <xprintf+0x54c>
80001250:	00000713          	li	a4,0
80001254:	039bf063          	bgeu	s7,s9,80001274 <xprintf+0x590>
	while (*str)
80001258:	000a4503          	lbu	a0,0(s4)
8000125c:	001c8a93          	addi	s5,s9,1
			while (j++ < w) xputc(' ');
80001260:	002c8d13          	addi	s10,s9,2
80001264:	00ea8ab3          	add	s5,s5,a4
80001268:	00ed0d33          	add	s10,s10,a4
	while (*str)
8000126c:	e60516e3          	bnez	a0,800010d8 <xprintf+0x3f4>
80001270:	ea5ff06f          	j	80001114 <xprintf+0x430>
80001274:	000a4503          	lbu	a0,0(s4)
80001278:	419b8733          	sub	a4,s7,s9
8000127c:	001c8a93          	addi	s5,s9,1
			while (j++ < w) xputc(' ');
80001280:	002c8d13          	addi	s10,s9,2
80001284:	00ea8ab3          	add	s5,s5,a4
80001288:	00ed0d33          	add	s10,s10,a4
	while (*str)
8000128c:	e40516e3          	bnez	a0,800010d8 <xprintf+0x3f4>
80001290:	e85ff06f          	j	80001114 <xprintf+0x430>
		while (!(f & 2) && j++ < w) xputc(d);
80001294:	01312423          	sw	s3,8(sp)
80001298:	d05ff06f          	j	80000f9c <xprintf+0x2b8>
			while (!(f & 2) && j++ < w) xputc(' ');
8000129c:	00058863          	beqz	a1,800012ac <xprintf+0x5c8>
800012a0:	00100d13          	li	s10,1
			for (j = 0; p[j]; j++) ;
800012a4:	00000a93          	li	s5,0
800012a8:	e6dff06f          	j	80001114 <xprintf+0x430>
			while (!(f & 2) && j++ < w) xputc(' ');
800012ac:	00100c93          	li	s9,1
800012b0:	f40b9ce3          	bnez	s7,80001208 <xprintf+0x524>
800012b4:	ad5ff06f          	j	80000d88 <xprintf+0xa4>
800012b8:	003d0d13          	addi	s10,s10,3
800012bc:	000c8a93          	mv	s5,s9
	while (*str)
800012c0:	80004c37          	lui	s8,0x80004
800012c4:	e15ff06f          	j	800010d8 <xprintf+0x3f4>
800012c8:	00060493          	mv	s1,a2
800012cc:	00000e13          	li	t3,0
800012d0:	00a00693          	li	a3,10
800012d4:	bf1ff06f          	j	80000ec4 <xprintf+0x1e0>

800012d8 <strcmp>:
800012d8:	00b56733          	or	a4,a0,a1
800012dc:	fff00393          	li	t2,-1
800012e0:	00377713          	andi	a4,a4,3
800012e4:	10071063          	bnez	a4,800013e4 <strcmp+0x10c>
800012e8:	7f7f87b7          	lui	a5,0x7f7f8
800012ec:	f7f78793          	addi	a5,a5,-129 # 7f7f7f7f <__stack_size+0x7d7f7f7f>
800012f0:	00052603          	lw	a2,0(a0)
800012f4:	0005a683          	lw	a3,0(a1)
800012f8:	00f672b3          	and	t0,a2,a5
800012fc:	00f66333          	or	t1,a2,a5
80001300:	00f282b3          	add	t0,t0,a5
80001304:	0062e2b3          	or	t0,t0,t1
80001308:	10729263          	bne	t0,t2,8000140c <strcmp+0x134>
8000130c:	08d61663          	bne	a2,a3,80001398 <strcmp+0xc0>
80001310:	00452603          	lw	a2,4(a0)
80001314:	0045a683          	lw	a3,4(a1)
80001318:	00f672b3          	and	t0,a2,a5
8000131c:	00f66333          	or	t1,a2,a5
80001320:	00f282b3          	add	t0,t0,a5
80001324:	0062e2b3          	or	t0,t0,t1
80001328:	0c729e63          	bne	t0,t2,80001404 <strcmp+0x12c>
8000132c:	06d61663          	bne	a2,a3,80001398 <strcmp+0xc0>
80001330:	00852603          	lw	a2,8(a0)
80001334:	0085a683          	lw	a3,8(a1)
80001338:	00f672b3          	and	t0,a2,a5
8000133c:	00f66333          	or	t1,a2,a5
80001340:	00f282b3          	add	t0,t0,a5
80001344:	0062e2b3          	or	t0,t0,t1
80001348:	0c729863          	bne	t0,t2,80001418 <strcmp+0x140>
8000134c:	04d61663          	bne	a2,a3,80001398 <strcmp+0xc0>
80001350:	00c52603          	lw	a2,12(a0)
80001354:	00c5a683          	lw	a3,12(a1)
80001358:	00f672b3          	and	t0,a2,a5
8000135c:	00f66333          	or	t1,a2,a5
80001360:	00f282b3          	add	t0,t0,a5
80001364:	0062e2b3          	or	t0,t0,t1
80001368:	0c729263          	bne	t0,t2,8000142c <strcmp+0x154>
8000136c:	02d61663          	bne	a2,a3,80001398 <strcmp+0xc0>
80001370:	01052603          	lw	a2,16(a0)
80001374:	0105a683          	lw	a3,16(a1)
80001378:	00f672b3          	and	t0,a2,a5
8000137c:	00f66333          	or	t1,a2,a5
80001380:	00f282b3          	add	t0,t0,a5
80001384:	0062e2b3          	or	t0,t0,t1
80001388:	0a729c63          	bne	t0,t2,80001440 <strcmp+0x168>
8000138c:	01450513          	addi	a0,a0,20
80001390:	01458593          	addi	a1,a1,20
80001394:	f4d60ee3          	beq	a2,a3,800012f0 <strcmp+0x18>
80001398:	01061713          	slli	a4,a2,0x10
8000139c:	01069793          	slli	a5,a3,0x10
800013a0:	00f71e63          	bne	a4,a5,800013bc <strcmp+0xe4>
800013a4:	01065713          	srli	a4,a2,0x10
800013a8:	0106d793          	srli	a5,a3,0x10
800013ac:	40f70533          	sub	a0,a4,a5
800013b0:	0ff57593          	zext.b	a1,a0
800013b4:	02059063          	bnez	a1,800013d4 <strcmp+0xfc>
800013b8:	00008067          	ret
800013bc:	01075713          	srli	a4,a4,0x10
800013c0:	0107d793          	srli	a5,a5,0x10
800013c4:	40f70533          	sub	a0,a4,a5
800013c8:	0ff57593          	zext.b	a1,a0
800013cc:	00059463          	bnez	a1,800013d4 <strcmp+0xfc>
800013d0:	00008067          	ret
800013d4:	0ff77713          	zext.b	a4,a4
800013d8:	0ff7f793          	zext.b	a5,a5
800013dc:	40f70533          	sub	a0,a4,a5
800013e0:	00008067          	ret
800013e4:	00054603          	lbu	a2,0(a0)
800013e8:	0005c683          	lbu	a3,0(a1)
800013ec:	00150513          	addi	a0,a0,1
800013f0:	00158593          	addi	a1,a1,1
800013f4:	00d61463          	bne	a2,a3,800013fc <strcmp+0x124>
800013f8:	fe0616e3          	bnez	a2,800013e4 <strcmp+0x10c>
800013fc:	40d60533          	sub	a0,a2,a3
80001400:	00008067          	ret
80001404:	00450513          	addi	a0,a0,4
80001408:	00458593          	addi	a1,a1,4
8000140c:	fcd61ce3          	bne	a2,a3,800013e4 <strcmp+0x10c>
80001410:	00000513          	li	a0,0
80001414:	00008067          	ret
80001418:	00850513          	addi	a0,a0,8
8000141c:	00858593          	addi	a1,a1,8
80001420:	fcd612e3          	bne	a2,a3,800013e4 <strcmp+0x10c>
80001424:	00000513          	li	a0,0
80001428:	00008067          	ret
8000142c:	00c50513          	addi	a0,a0,12
80001430:	00c58593          	addi	a1,a1,12
80001434:	fad618e3          	bne	a2,a3,800013e4 <strcmp+0x10c>
80001438:	00000513          	li	a0,0
8000143c:	00008067          	ret
80001440:	01050513          	addi	a0,a0,16
80001444:	01058593          	addi	a1,a1,16
80001448:	f8d61ee3          	bne	a2,a3,800013e4 <strcmp+0x10c>
8000144c:	00000513          	li	a0,0
80001450:	00008067          	ret
