
dhrystone:     file format elf32-littleriscv
dhrystone


Disassembly of section .init:

80000000 <_start>:
_start():
/home/tututu/qimeng/simulator/baremetal/new_dhrystone/../start.S:9
    .type _start,@function


_start:

  la gp, __global_pointer
80000000:	00005197          	auipc	gp,0x5
80000004:	a4818193          	addi	gp,gp,-1464 # 80004a48 <__global_pointer>
/home/tututu/qimeng/simulator/baremetal/new_dhrystone/../start.S:10
  la sp, _sp
80000008:	08000117          	auipc	sp,0x8000
8000000c:	ff810113          	addi	sp,sp,-8 # 88000000 <_sp>
/home/tututu/qimeng/simulator/baremetal/new_dhrystone/../start.S:12

  call main
80000010:	00c000ef          	jal	ra,8000001c <main>
/home/tututu/qimeng/simulator/baremetal/new_dhrystone/../start.S:13
  ebreak
80000014:	00100073          	ebreak

80000018 <loop>:
loop():
/home/tututu/qimeng/simulator/baremetal/new_dhrystone/../start.S:16

loop:
    j loop
80000018:	0000006f          	jal	zero,80000018 <loop>

Disassembly of section .text:

8000001c <main>:
main():
/home/tututu/qimeng/simulator/baremetal/new_dhrystone/dhrystone_main.c:54

int main(int argc, char **argv)
/*****/
/* main program, corresponds to procedures        */
/* Main and Proc_0 in the Ada version             */
{
8000001c:	f6010113          	addi	sp,sp,-160
80000020:	08112e23          	sw	ra,156(sp)
80000024:	08812c23          	sw	s0,152(sp)
80000028:	09612023          	sw	s6,128(sp)
8000002c:	0a010413          	addi	s0,sp,160
80000030:	07912a23          	sw	s9,116(sp)
80000034:	08912a23          	sw	s1,148(sp)
80000038:	09212823          	sw	s2,144(sp)
8000003c:	09312623          	sw	s3,140(sp)
80000040:	09412423          	sw	s4,136(sp)
80000044:	09512223          	sw	s5,132(sp)
80000048:	07712e23          	sw	s7,124(sp)
8000004c:	07812c23          	sw	s8,120(sp)
80000050:	07a12823          	sw	s10,112(sp)
80000054:	07b12623          	sw	s11,108(sp)
/home/tututu/qimeng/simulator/baremetal/new_dhrystone/dhrystone_main.c:55
  uart_init();
80000058:	305000ef          	jal	ra,80000b5c <uart_init>
/home/tututu/qimeng/simulator/baremetal/new_dhrystone/dhrystone_main.c:78

  Ptr_Glob->Ptr_Comp = Next_Ptr_Glob;
  Ptr_Glob->Discr = Ident_1;
  Ptr_Glob->variant.var_1.Enum_Comp = Ident_3;
  Ptr_Glob->variant.var_1.Int_Comp = 40;
  strcpy(Ptr_Glob->variant.var_1.Str_Comp, "DHRYSTONE PROGRAM, SOME STRING");
8000005c:	800017b7          	lui	a5,0x80001
/home/tututu/qimeng/simulator/baremetal/new_dhrystone/dhrystone_main.c:71
  Next_Ptr_Glob = (Rec_Pointer)alloca(sizeof(Rec_Type));
80000060:	fc010113          	addi	sp,sp,-64
/home/tututu/qimeng/simulator/baremetal/new_dhrystone/dhrystone_main.c:78
  strcpy(Ptr_Glob->variant.var_1.Str_Comp, "DHRYSTONE PROGRAM, SOME STRING");
80000064:	45c78793          	addi	a5,a5,1116 # 8000145c <strcmp+0x17c>
80000068:	0007af83          	lw	t6,0(a5)
8000006c:	0047af03          	lw	t5,4(a5)
80000070:	0087ae83          	lw	t4,8(a5)
80000074:	00c7ae03          	lw	t3,12(a5)
80000078:	0107a303          	lw	t1,16(a5)
8000007c:	0147a883          	lw	a7,20(a5)
80000080:	0187a803          	lw	a6,24(a5)
80000084:	01c7d503          	lhu	a0,28(a5)
80000088:	01e7c583          	lbu	a1,30(a5)
/home/tututu/qimeng/simulator/baremetal/new_dhrystone/dhrystone_main.c:71
  Next_Ptr_Glob = (Rec_Pointer)alloca(sizeof(Rec_Type));
8000008c:	00f10693          	addi	a3,sp,15
/home/tututu/qimeng/simulator/baremetal/new_dhrystone/dhrystone_main.c:79
  strcpy(Str_1_Loc, "DHRYSTONE PROGRAM, 1'ST STRING");
80000090:	80002737          	lui	a4,0x80002
/home/tututu/qimeng/simulator/baremetal/new_dhrystone/dhrystone_main.c:72
  Ptr_Glob = (Rec_Pointer)alloca(sizeof(Rec_Type));
80000094:	fc010113          	addi	sp,sp,-64
/home/tututu/qimeng/simulator/baremetal/new_dhrystone/dhrystone_main.c:79
  strcpy(Str_1_Loc, "DHRYSTONE PROGRAM, 1'ST STRING");
80000098:	97470713          	addi	a4,a4,-1676 # 80001974 <strcmp+0x694>
/home/tututu/qimeng/simulator/baremetal/new_dhrystone/dhrystone_main.c:72
  Ptr_Glob = (Rec_Pointer)alloca(sizeof(Rec_Type));
8000009c:	00f10793          	addi	a5,sp,15
800000a0:	ff07f793          	andi	a5,a5,-16
/home/tututu/qimeng/simulator/baremetal/new_dhrystone/dhrystone_main.c:79
  strcpy(Str_1_Loc, "DHRYSTONE PROGRAM, 1'ST STRING");
800000a4:	00072603          	lw	a2,0(a4)
/home/tututu/qimeng/simulator/baremetal/new_dhrystone/dhrystone_main.c:71
  Next_Ptr_Glob = (Rec_Pointer)alloca(sizeof(Rec_Type));
800000a8:	ff06f693          	andi	a3,a3,-16
/home/tututu/qimeng/simulator/baremetal/new_dhrystone/dhrystone_main.c:76
  Ptr_Glob->variant.var_1.Enum_Comp = Ident_3;
800000ac:	00200393          	addi	t2,zero,2
/home/tututu/qimeng/simulator/baremetal/new_dhrystone/dhrystone_main.c:77
  Ptr_Glob->variant.var_1.Int_Comp = 40;
800000b0:	02800293          	addi	t0,zero,40
/home/tututu/qimeng/simulator/baremetal/new_dhrystone/dhrystone_main.c:72 (discriminator 1)
  Ptr_Glob = (Rec_Pointer)alloca(sizeof(Rec_Type));
800000b4:	80004b37          	lui	s6,0x80004
/home/tututu/qimeng/simulator/baremetal/new_dhrystone/dhrystone_main.c:76
  Ptr_Glob->variant.var_1.Enum_Comp = Ident_3;
800000b8:	0077a423          	sw	t2,8(a5)
/home/tututu/qimeng/simulator/baremetal/new_dhrystone/dhrystone_main.c:77
  Ptr_Glob->variant.var_1.Int_Comp = 40;
800000bc:	0057a623          	sw	t0,12(a5)
/home/tututu/qimeng/simulator/baremetal/new_dhrystone/dhrystone_main.c:78
  strcpy(Ptr_Glob->variant.var_1.Str_Comp, "DHRYSTONE PROGRAM, SOME STRING");
800000c0:	01f7a823          	sw	t6,16(a5)
800000c4:	01e7aa23          	sw	t5,20(a5)
800000c8:	01d7ac23          	sw	t4,24(a5)
/home/tututu/qimeng/simulator/baremetal/new_dhrystone/dhrystone_main.c:74
  Ptr_Glob->Ptr_Comp = Next_Ptr_Glob;
800000cc:	00d7a023          	sw	a3,0(a5)
/home/tututu/qimeng/simulator/baremetal/new_dhrystone/dhrystone_main.c:78
  strcpy(Ptr_Glob->variant.var_1.Str_Comp, "DHRYSTONE PROGRAM, SOME STRING");
800000d0:	01c7ae23          	sw	t3,28(a5)
800000d4:	0267a023          	sw	t1,32(a5)
800000d8:	0317a223          	sw	a7,36(a5)
800000dc:	0307a423          	sw	a6,40(a5)
800000e0:	02a79623          	sh	a0,44(a5)
800000e4:	02b78723          	sb	a1,46(a5)
/home/tututu/qimeng/simulator/baremetal/new_dhrystone/dhrystone_main.c:75
  Ptr_Glob->Discr = Ident_1;
800000e8:	0007a223          	sw	zero,4(a5)
/home/tututu/qimeng/simulator/baremetal/new_dhrystone/dhrystone_main.c:72 (discriminator 1)
  Ptr_Glob = (Rec_Pointer)alloca(sizeof(Rec_Type));
800000ec:	22fb2a23          	sw	a5,564(s6) # 80004234 <Ptr_Glob>
/home/tututu/qimeng/simulator/baremetal/new_dhrystone/dhrystone_main.c:71
  Next_Ptr_Glob = (Rec_Pointer)alloca(sizeof(Rec_Type));
800000f0:	800047b7          	lui	a5,0x80004
800000f4:	22d7a823          	sw	a3,560(a5) # 80004230 <Next_Ptr_Glob>
/home/tututu/qimeng/simulator/baremetal/new_dhrystone/dhrystone_main.c:79
  strcpy(Str_1_Loc, "DHRYSTONE PROGRAM, 1'ST STRING");
800000f8:	00472e03          	lw	t3,4(a4)
800000fc:	00872303          	lw	t1,8(a4)
80000100:	00c72883          	lw	a7,12(a4)
80000104:	01072803          	lw	a6,16(a4)
80000108:	01472583          	lw	a1,20(a4)
8000010c:	f8c42023          	sw	a2,-128(s0)
80000110:	01872603          	lw	a2,24(a4)
80000114:	01c75683          	lhu	a3,28(a4)
80000118:	01e74703          	lbu	a4,30(a4)
/home/tututu/qimeng/simulator/baremetal/new_dhrystone/dhrystone_main.c:81

  Arr_2_Glob[8][7] = 10;
8000011c:	80002cb7          	lui	s9,0x80002
/home/tututu/qimeng/simulator/baremetal/new_dhrystone/dhrystone_main.c:87
  /* Was missing in published program. Without this statement,    */
  /* Arr_2_Glob [8][7] would have an undefined value.             */
  /* Warning: With 16-Bit processors and Number_Of_Runs > 32000,  */
  /* overflow may occur for this array element.                   */

  debug_printf("\n");
80000120:	80001537          	lui	a0,0x80001
/home/tututu/qimeng/simulator/baremetal/new_dhrystone/dhrystone_main.c:81
  Arr_2_Glob[8][7] = 10;
80000124:	00a00793          	addi	a5,zero,10
/home/tututu/qimeng/simulator/baremetal/new_dhrystone/dhrystone_main.c:87
  debug_printf("\n");
80000128:	48050513          	addi	a0,a0,1152 # 80001480 <strcmp+0x1a0>
/home/tututu/qimeng/simulator/baremetal/new_dhrystone/dhrystone_main.c:79
  strcpy(Str_1_Loc, "DHRYSTONE PROGRAM, 1'ST STRING");
8000012c:	f8e40f23          	sb	a4,-98(s0)
/home/tututu/qimeng/simulator/baremetal/new_dhrystone/dhrystone_main.c:81
  Arr_2_Glob[8][7] = 10;
80000130:	af8c8713          	addi	a4,s9,-1288 # 80001af8 <Arr_2_Glob>
80000134:	64f72e23          	sw	a5,1628(a4)
/home/tututu/qimeng/simulator/baremetal/new_dhrystone/dhrystone_main.c:79
  strcpy(Str_1_Loc, "DHRYSTONE PROGRAM, 1'ST STRING");
80000138:	f9c42223          	sw	t3,-124(s0)
8000013c:	f8642423          	sw	t1,-120(s0)
80000140:	f9142623          	sw	a7,-116(s0)
80000144:	f9042823          	sw	a6,-112(s0)
80000148:	f8b42a23          	sw	a1,-108(s0)
8000014c:	f8c42c23          	sw	a2,-104(s0)
80000150:	f8d41e23          	sh	a3,-100(s0)
/home/tututu/qimeng/simulator/baremetal/new_dhrystone/dhrystone_main.c:87
  debug_printf("\n");
80000154:	399000ef          	jal	ra,80000cec <xprintf>
/home/tututu/qimeng/simulator/baremetal/new_dhrystone/dhrystone_main.c:88
  debug_printf("Dhrystone Benchmark, Version %s\n", Version);
80000158:	800015b7          	lui	a1,0x80001
8000015c:	80001537          	lui	a0,0x80001
80000160:	48458593          	addi	a1,a1,1156 # 80001484 <strcmp+0x1a4>
80000164:	49450513          	addi	a0,a0,1172 # 80001494 <strcmp+0x1b4>
80000168:	385000ef          	jal	ra,80000cec <xprintf>
/home/tututu/qimeng/simulator/baremetal/new_dhrystone/dhrystone_main.c:89
  if (Reg) {
8000016c:	800047b7          	lui	a5,0x80004
80000170:	2207a783          	lw	a5,544(a5) # 80004220 <Reg>
80000174:	5a078263          	beq	a5,zero,80000718 <main+0x6fc>
/home/tututu/qimeng/simulator/baremetal/new_dhrystone/dhrystone_main.c:90
    debug_printf("Program compiled with 'register' attribute\n");
80000178:	80001537          	lui	a0,0x80001
8000017c:	4b850513          	addi	a0,a0,1208 # 800014b8 <strcmp+0x1d8>
80000180:	36d000ef          	jal	ra,80000cec <xprintf>
/home/tututu/qimeng/simulator/baremetal/new_dhrystone/dhrystone_main.c:94
  } else {
    debug_printf("Program compiled without 'register' attribute\n");
  }
  debug_printf("Using %s, HZ=%d\n", CLOCK_TYPE, HZ);
80000184:	800015b7          	lui	a1,0x80001
80000188:	80001537          	lui	a0,0x80001
8000018c:	000f4637          	lui	a2,0xf4
80000190:	24060613          	addi	a2,a2,576 # f4240 <__stack_size-0x1f0bdc0>
80000194:	51458593          	addi	a1,a1,1300 # 80001514 <strcmp+0x234>
80000198:	52050513          	addi	a0,a0,1312 # 80001520 <strcmp+0x240>
8000019c:	351000ef          	jal	ra,80000cec <xprintf>
/home/tututu/qimeng/simulator/baremetal/new_dhrystone/dhrystone_main.c:95
  debug_printf("\n");
800001a0:	800017b7          	lui	a5,0x80001
800001a4:	48078513          	addi	a0,a5,1152 # 80001480 <strcmp+0x1a0>
800001a8:	345000ef          	jal	ra,80000cec <xprintf>
/home/tututu/qimeng/simulator/baremetal/new_dhrystone/dhrystone_main.c:99

  Done = false;
  while (!Done) {
    debug_printf("Trying %d runs through Dhrystone:\n", Number_Of_Runs);
800001ac:	80001537          	lui	a0,0x80001
800001b0:	000025b7          	lui	a1,0x2
/home/tututu/qimeng/simulator/baremetal/new_dhrystone/dhrystone_main.c:97
  Done = false;
800001b4:	800047b7          	lui	a5,0x80004
/home/tututu/qimeng/simulator/baremetal/new_dhrystone/dhrystone_main.c:99
    debug_printf("Trying %d runs through Dhrystone:\n", Number_Of_Runs);
800001b8:	71058593          	addi	a1,a1,1808 # 2710 <__stack_size-0x1ffd8f0>
800001bc:	53450513          	addi	a0,a0,1332 # 80001534 <strcmp+0x254>
/home/tututu/qimeng/simulator/baremetal/new_dhrystone/dhrystone_main.c:97
  Done = false;
800001c0:	2007ae23          	sw	zero,540(a5) # 8000421c <Done>
/home/tututu/qimeng/simulator/baremetal/new_dhrystone/dhrystone_main.c:99
    debug_printf("Trying %d runs through Dhrystone:\n", Number_Of_Runs);
800001c4:	329000ef          	jal	ra,80000cec <xprintf>
/home/tututu/qimeng/simulator/baremetal/new_dhrystone/dhrystone_main.c:105

    /***************/
    /* Start timer */
    /***************/

    Start_Timer();
800001c8:	800047b7          	lui	a5,0x80004
800001cc:	80002bb7          	lui	s7,0x80002
800001d0:	80002937          	lui	s2,0x80002
/home/tututu/qimeng/simulator/baremetal/new_dhrystone/dhrystone_main.c:137
      {
        if (Enum_Loc == Func_1(Ch_Index, 'C'))
        /* then, not executed */
        {
          Proc_6(Ident_1, &Enum_Loc);
          strcpy(Str_2_Loc, "DHRYSTONE PROGRAM, 3'RD STRING");
800001d4:	80002837          	lui	a6,0x80002
/home/tututu/qimeng/simulator/baremetal/new_dhrystone/dhrystone_main.c:105
    Start_Timer();
800001d8:	2007ac23          	sw	zero,536(a5) # 80004218 <Begin_Time>
/home/tututu/qimeng/simulator/baremetal/new_dhrystone/dhrystone_main.c:107 (discriminator 1)
    for (Run_Index = 1; Run_Index <= Number_Of_Runs; ++Run_Index) {
800001dc:	a30b8793          	addi	a5,s7,-1488 # 80001a30 <Arr_1_Glob>
/home/tututu/qimeng/simulator/baremetal/new_dhrystone/dhrystone_main.c:107
800001e0:	00100993          	addi	s3,zero,1
800001e4:	99490913          	addi	s2,s2,-1644 # 80001994 <strcmp+0x6b4>
800001e8:	f6f42623          	sw	a5,-148(s0)
/home/tututu/qimeng/simulator/baremetal/new_dhrystone/dhrystone_main.c:137
          strcpy(Str_2_Loc, "DHRYSTONE PROGRAM, 3'RD STRING");
800001ec:	9b480d13          	addi	s10,a6,-1612 # 800019b4 <strcmp+0x6d4>
800001f0:	80004c37          	lui	s8,0x80004
800001f4:	800044b7          	lui	s1,0x80004
800001f8:	80004ab7          	lui	s5,0x80004
/home/tututu/qimeng/simulator/baremetal/new_dhrystone/dhrystone_main.c:109
      Proc_5();
800001fc:	720000ef          	jal	ra,8000091c <Proc_5>
/home/tututu/qimeng/simulator/baremetal/new_dhrystone/dhrystone_main.c:110
      Proc_4();
80000200:	6ec000ef          	jal	ra,800008ec <Proc_4>
/home/tututu/qimeng/simulator/baremetal/new_dhrystone/dhrystone_main.c:114
      strcpy(Str_2_Loc, "DHRYSTONE PROGRAM, 2'ND STRING");
80000204:	00892783          	lw	a5,8(s2)
80000208:	00092683          	lw	a3,0(s2)
8000020c:	00492703          	lw	a4,4(s2)
80000210:	faf42423          	sw	a5,-88(s0)
80000214:	01492783          	lw	a5,20(s2)
80000218:	fad42023          	sw	a3,-96(s0)
8000021c:	fae42223          	sw	a4,-92(s0)
80000220:	00c92683          	lw	a3,12(s2)
80000224:	01092703          	lw	a4,16(s2)
80000228:	faf42a23          	sw	a5,-76(s0)
8000022c:	01e94783          	lbu	a5,30(s2)
80000230:	fad42623          	sw	a3,-84(s0)
80000234:	fae42823          	sw	a4,-80(s0)
80000238:	01892683          	lw	a3,24(s2)
8000023c:	01c95703          	lhu	a4,28(s2)
80000240:	faf40f23          	sb	a5,-66(s0)
/home/tututu/qimeng/simulator/baremetal/new_dhrystone/dhrystone_main.c:116
      Bool_Glob = !Func_2(Str_1_Loc, Str_2_Loc);
80000244:	fa040593          	addi	a1,s0,-96
/home/tututu/qimeng/simulator/baremetal/new_dhrystone/dhrystone_main.c:115
      Enum_Loc = Ident_2;
80000248:	00100793          	addi	a5,zero,1
/home/tututu/qimeng/simulator/baremetal/new_dhrystone/dhrystone_main.c:116
      Bool_Glob = !Func_2(Str_1_Loc, Str_2_Loc);
8000024c:	f8040513          	addi	a0,s0,-128
/home/tututu/qimeng/simulator/baremetal/new_dhrystone/dhrystone_main.c:114
      strcpy(Str_2_Loc, "DHRYSTONE PROGRAM, 2'ND STRING");
80000250:	fae41e23          	sh	a4,-68(s0)
80000254:	fad42c23          	sw	a3,-72(s0)
/home/tututu/qimeng/simulator/baremetal/new_dhrystone/dhrystone_main.c:115
      Enum_Loc = Ident_2;
80000258:	f6f42e23          	sw	a5,-132(s0)
/home/tututu/qimeng/simulator/baremetal/new_dhrystone/dhrystone_main.c:116
      Bool_Glob = !Func_2(Str_1_Loc, Str_2_Loc);
8000025c:	770000ef          	jal	ra,800009cc <Func_2>
/home/tututu/qimeng/simulator/baremetal/new_dhrystone/dhrystone_main.c:116 (discriminator 1)
80000260:	00153513          	sltiu	a0,a0,1
/home/tututu/qimeng/simulator/baremetal/new_dhrystone/dhrystone_main.c:120
        Int_3_Loc = 5 * Int_1_Loc - Int_2_Loc;
80000264:	00700793          	addi	a5,zero,7
/home/tututu/qimeng/simulator/baremetal/new_dhrystone/dhrystone_main.c:116 (discriminator 1)
      Bool_Glob = !Func_2(Str_1_Loc, Str_2_Loc);
80000268:	22ac2423          	sw	a0,552(s8) # 80004228 <Bool_Glob>
/home/tututu/qimeng/simulator/baremetal/new_dhrystone/dhrystone_main.c:122
        Proc_7(Int_1_Loc, Int_2_Loc, &Int_3_Loc);
8000026c:	f7840613          	addi	a2,s0,-136
80000270:	00300593          	addi	a1,zero,3
80000274:	00200513          	addi	a0,zero,2
/home/tututu/qimeng/simulator/baremetal/new_dhrystone/dhrystone_main.c:120
        Int_3_Loc = 5 * Int_1_Loc - Int_2_Loc;
80000278:	f6f42c23          	sw	a5,-136(s0)
/home/tututu/qimeng/simulator/baremetal/new_dhrystone/dhrystone_main.c:122
        Proc_7(Int_1_Loc, Int_2_Loc, &Int_3_Loc);
8000027c:	6b8000ef          	jal	ra,80000934 <Proc_7>
/home/tututu/qimeng/simulator/baremetal/new_dhrystone/dhrystone_main.c:127
      Proc_8(Arr_1_Glob, Arr_2_Glob, Int_1_Loc, Int_3_Loc);
80000280:	f7842683          	lw	a3,-136(s0)
80000284:	f6c42503          	lw	a0,-148(s0)
80000288:	af8c8593          	addi	a1,s9,-1288
8000028c:	00300613          	addi	a2,zero,3
80000290:	6b4000ef          	jal	ra,80000944 <Proc_8>
/home/tututu/qimeng/simulator/baremetal/new_dhrystone/dhrystone_main.c:129
      Proc_1(Ptr_Glob);
80000294:	234b2503          	lw	a0,564(s6)
80000298:	4ec000ef          	jal	ra,80000784 <Proc_1>
/home/tututu/qimeng/simulator/baremetal/new_dhrystone/dhrystone_main.c:130 (discriminator 1)
      for (Ch_Index = 'A'; Ch_Index <= Ch_2_Glob; ++Ch_Index)
8000029c:	2244c703          	lbu	a4,548(s1) # 80004224 <Ch_2_Glob>
800002a0:	04000793          	addi	a5,zero,64
800002a4:	46e7f663          	bgeu	a5,a4,80000710 <main+0x6f4>
/home/tututu/qimeng/simulator/baremetal/new_dhrystone/dhrystone_main.c:130
800002a8:	04100b93          	addi	s7,zero,65
/home/tututu/qimeng/simulator/baremetal/new_dhrystone/dhrystone_main.c:113
      Int_2_Loc = 3;
800002ac:	00300a13          	addi	s4,zero,3
800002b0:	0140006f          	jal	zero,800002c4 <main+0x2a8>
/home/tututu/qimeng/simulator/baremetal/new_dhrystone/dhrystone_main.c:130 (discriminator 1)
      for (Ch_Index = 'A'; Ch_Index <= Ch_2_Glob; ++Ch_Index)
800002b4:	2244c703          	lbu	a4,548(s1)
/home/tututu/qimeng/simulator/baremetal/new_dhrystone/dhrystone_main.c:130 (discriminator 2)
800002b8:	001b8793          	addi	a5,s7,1
800002bc:	0ff7fb93          	andi	s7,a5,255
/home/tututu/qimeng/simulator/baremetal/new_dhrystone/dhrystone_main.c:130 (discriminator 1)
800002c0:	09776263          	bltu	a4,s7,80000344 <main+0x328>
/home/tututu/qimeng/simulator/baremetal/new_dhrystone/dhrystone_main.c:133
        if (Enum_Loc == Func_1(Ch_Index, 'C'))
800002c4:	04300593          	addi	a1,zero,67
800002c8:	000b8513          	addi	a0,s7,0
800002cc:	6dc000ef          	jal	ra,800009a8 <Func_1>
/home/tututu/qimeng/simulator/baremetal/new_dhrystone/dhrystone_main.c:133 (discriminator 1)
800002d0:	f7c42703          	lw	a4,-132(s0)
800002d4:	fee510e3          	bne	a0,a4,800002b4 <main+0x298>
/home/tututu/qimeng/simulator/baremetal/new_dhrystone/dhrystone_main.c:136
          Proc_6(Ident_1, &Enum_Loc);
800002d8:	f7c40593          	addi	a1,s0,-132
800002dc:	00000513          	addi	a0,zero,0
800002e0:	768000ef          	jal	ra,80000a48 <Proc_6>
/home/tututu/qimeng/simulator/baremetal/new_dhrystone/dhrystone_main.c:137
          strcpy(Str_2_Loc, "DHRYSTONE PROGRAM, 3'RD STRING");
800002e4:	008d2703          	lw	a4,8(s10)
800002e8:	000d2603          	lw	a2,0(s10)
800002ec:	004d2683          	lw	a3,4(s10)
800002f0:	fae42423          	sw	a4,-88(s0)
800002f4:	01ed4703          	lbu	a4,30(s10)
800002f8:	00cd2883          	lw	a7,12(s10)
800002fc:	010d2503          	lw	a0,16(s10)
80000300:	014d2583          	lw	a1,20(s10)
80000304:	fac42023          	sw	a2,-96(s0)
80000308:	fad42223          	sw	a3,-92(s0)
8000030c:	018d2603          	lw	a2,24(s10)
80000310:	01cd5683          	lhu	a3,28(s10)
80000314:	fae40f23          	sb	a4,-66(s0)
/home/tututu/qimeng/simulator/baremetal/new_dhrystone/dhrystone_main.c:130 (discriminator 1)
      for (Ch_Index = 'A'; Ch_Index <= Ch_2_Glob; ++Ch_Index)
80000318:	2244c703          	lbu	a4,548(s1)
/home/tututu/qimeng/simulator/baremetal/new_dhrystone/dhrystone_main.c:130 (discriminator 2)
8000031c:	001b8793          	addi	a5,s7,1
/home/tututu/qimeng/simulator/baremetal/new_dhrystone/dhrystone_main.c:139
          Int_2_Loc = Run_Index;
          Int_Glob = Run_Index;
80000320:	233aa623          	sw	s3,556(s5) # 8000422c <Int_Glob>
/home/tututu/qimeng/simulator/baremetal/new_dhrystone/dhrystone_main.c:137
          strcpy(Str_2_Loc, "DHRYSTONE PROGRAM, 3'RD STRING");
80000324:	fb142623          	sw	a7,-84(s0)
80000328:	faa42823          	sw	a0,-80(s0)
8000032c:	fab42a23          	sw	a1,-76(s0)
80000330:	fac42c23          	sw	a2,-72(s0)
80000334:	fad41e23          	sh	a3,-68(s0)
/home/tututu/qimeng/simulator/baremetal/new_dhrystone/dhrystone_main.c:130 (discriminator 2)
      for (Ch_Index = 'A'; Ch_Index <= Ch_2_Glob; ++Ch_Index)
80000338:	0ff7fb93          	andi	s7,a5,255
/home/tututu/qimeng/simulator/baremetal/new_dhrystone/dhrystone_main.c:138
          Int_2_Loc = Run_Index;
8000033c:	00098a13          	addi	s4,s3,0
/home/tututu/qimeng/simulator/baremetal/new_dhrystone/dhrystone_main.c:130 (discriminator 1)
      for (Ch_Index = 'A'; Ch_Index <= Ch_2_Glob; ++Ch_Index)
80000340:	f97772e3          	bgeu	a4,s7,800002c4 <main+0x2a8>
/home/tututu/qimeng/simulator/baremetal/new_dhrystone/dhrystone_main.c:143
        }
      }
      /* Int_1_Loc == 3, Int_2_Loc == 3, Int_3_Loc == 7 */
      Int_2_Loc = Int_2_Loc * Int_1_Loc;
80000344:	001a1793          	slli	a5,s4,0x1
80000348:	01478a33          	add	s4,a5,s4
/home/tututu/qimeng/simulator/baremetal/new_dhrystone/dhrystone_main.c:144
      Int_1_Loc = Int_2_Loc / Int_3_Loc;
8000034c:	f7842b83          	lw	s7,-136(s0)
/home/tututu/qimeng/simulator/baremetal/new_dhrystone/dhrystone_main.c:147
      Int_2_Loc = 7 * (Int_2_Loc - Int_3_Loc) - Int_1_Loc;
      /* Int_1_Loc == 1, Int_2_Loc == 13, Int_3_Loc == 7 */
      Proc_2(&Int_1_Loc);
80000350:	f7440513          	addi	a0,s0,-140
/home/tututu/qimeng/simulator/baremetal/new_dhrystone/dhrystone_main.c:107 (discriminator 2)
    for (Run_Index = 1; Run_Index <= Number_Of_Runs; ++Run_Index) {
80000354:	00198993          	addi	s3,s3,1
/home/tututu/qimeng/simulator/baremetal/new_dhrystone/dhrystone_main.c:144
      Int_1_Loc = Int_2_Loc / Int_3_Loc;
80000358:	037a4db3          	div	s11,s4,s7
8000035c:	f7b42a23          	sw	s11,-140(s0)
/home/tututu/qimeng/simulator/baremetal/new_dhrystone/dhrystone_main.c:147
      Proc_2(&Int_1_Loc);
80000360:	3c8000ef          	jal	ra,80000728 <Proc_2>
/home/tututu/qimeng/simulator/baremetal/new_dhrystone/dhrystone_main.c:107 (discriminator 1)
    for (Run_Index = 1; Run_Index <= Number_Of_Runs; ++Run_Index) {
80000364:	000027b7          	lui	a5,0x2
80000368:	71178793          	addi	a5,a5,1809 # 2711 <__stack_size-0x1ffd8ef>
8000036c:	e8f998e3          	bne	s3,a5,800001fc <main+0x1e0>
/home/tututu/qimeng/simulator/baremetal/new_dhrystone/dhrystone_main.c:158
    /* Stop timer */
    /**************/

    Stop_Timer();

    User_Time = End_Time - Begin_Time;
80000370:	800047b7          	lui	a5,0x80004
80000374:	2187a783          	lw	a5,536(a5) # 80004218 <Begin_Time>
/home/tututu/qimeng/simulator/baremetal/new_dhrystone/dhrystone_main.c:145
      Int_2_Loc = 7 * (Int_2_Loc - Int_3_Loc) - Int_1_Loc;
80000378:	417a0a33          	sub	s4,s4,s7
/home/tututu/qimeng/simulator/baremetal/new_dhrystone/dhrystone_main.c:158
    User_Time = End_Time - Begin_Time;
8000037c:	80004cb7          	lui	s9,0x80004
/home/tututu/qimeng/simulator/baremetal/new_dhrystone/dhrystone_main.c:145
      Int_2_Loc = 7 * (Int_2_Loc - Int_3_Loc) - Int_1_Loc;
80000380:	003a1993          	slli	s3,s4,0x3
/home/tututu/qimeng/simulator/baremetal/new_dhrystone/dhrystone_main.c:158
    User_Time = End_Time - Begin_Time;
80000384:	40f007b3          	sub	a5,zero,a5
/home/tututu/qimeng/simulator/baremetal/new_dhrystone/dhrystone_main.c:168
    //   printf("\n");
    // } else
    Done = true;
  }

  debug_printf("Final values of the variables used in the benchmark:\n");
80000388:	80001537          	lui	a0,0x80001
/home/tututu/qimeng/simulator/baremetal/new_dhrystone/dhrystone_main.c:156
    Stop_Timer();
8000038c:	800046b7          	lui	a3,0x80004
/home/tututu/qimeng/simulator/baremetal/new_dhrystone/dhrystone_main.c:165
    Done = true;
80000390:	00100913          	addi	s2,zero,1
/home/tututu/qimeng/simulator/baremetal/new_dhrystone/dhrystone_main.c:158
    User_Time = End_Time - Begin_Time;
80000394:	20fca823          	sw	a5,528(s9) # 80004210 <User_Time>
/home/tututu/qimeng/simulator/baremetal/new_dhrystone/dhrystone_main.c:145
      Int_2_Loc = 7 * (Int_2_Loc - Int_3_Loc) - Int_1_Loc;
80000398:	414989b3          	sub	s3,s3,s4
/home/tututu/qimeng/simulator/baremetal/new_dhrystone/dhrystone_main.c:165
    Done = true;
8000039c:	800047b7          	lui	a5,0x80004
/home/tututu/qimeng/simulator/baremetal/new_dhrystone/dhrystone_main.c:168
  debug_printf("Final values of the variables used in the benchmark:\n");
800003a0:	55850513          	addi	a0,a0,1368 # 80001558 <strcmp+0x278>
/home/tututu/qimeng/simulator/baremetal/new_dhrystone/dhrystone_main.c:156
    Stop_Timer();
800003a4:	2006aa23          	sw	zero,532(a3) # 80004214 <End_Time>
/home/tututu/qimeng/simulator/baremetal/new_dhrystone/dhrystone_main.c:165
    Done = true;
800003a8:	2127ae23          	sw	s2,540(a5) # 8000421c <Done>
/home/tututu/qimeng/simulator/baremetal/new_dhrystone/dhrystone_main.c:145
      Int_2_Loc = 7 * (Int_2_Loc - Int_3_Loc) - Int_1_Loc;
800003ac:	41b989b3          	sub	s3,s3,s11
/home/tututu/qimeng/simulator/baremetal/new_dhrystone/dhrystone_main.c:168
  debug_printf("Final values of the variables used in the benchmark:\n");
800003b0:	13d000ef          	jal	ra,80000cec <xprintf>
/home/tututu/qimeng/simulator/baremetal/new_dhrystone/dhrystone_main.c:169
  debug_printf("\n");
800003b4:	80001db7          	lui	s11,0x80001
800003b8:	480d8513          	addi	a0,s11,1152 # 80001480 <strcmp+0x1a0>
800003bc:	131000ef          	jal	ra,80000cec <xprintf>
/home/tututu/qimeng/simulator/baremetal/new_dhrystone/dhrystone_main.c:170
  debug_printf("Int_Glob:            %d\n", Int_Glob);
800003c0:	22caa583          	lw	a1,556(s5)
800003c4:	80001537          	lui	a0,0x80001
800003c8:	59050513          	addi	a0,a0,1424 # 80001590 <strcmp+0x2b0>
/home/tututu/qimeng/simulator/baremetal/new_dhrystone/dhrystone_main.c:171
  debug_printf("        should be:   %d\n", 5);
800003cc:	80001a37          	lui	s4,0x80001
/home/tututu/qimeng/simulator/baremetal/new_dhrystone/dhrystone_main.c:170
  debug_printf("Int_Glob:            %d\n", Int_Glob);
800003d0:	11d000ef          	jal	ra,80000cec <xprintf>
/home/tututu/qimeng/simulator/baremetal/new_dhrystone/dhrystone_main.c:171
  debug_printf("        should be:   %d\n", 5);
800003d4:	5aca0513          	addi	a0,s4,1452 # 800015ac <strcmp+0x2cc>
800003d8:	00500593          	addi	a1,zero,5
800003dc:	111000ef          	jal	ra,80000cec <xprintf>
/home/tututu/qimeng/simulator/baremetal/new_dhrystone/dhrystone_main.c:172
  debug_printf("Bool_Glob:           %d\n", Bool_Glob);
800003e0:	228c2583          	lw	a1,552(s8)
800003e4:	80001537          	lui	a0,0x80001
800003e8:	5c850513          	addi	a0,a0,1480 # 800015c8 <strcmp+0x2e8>
800003ec:	101000ef          	jal	ra,80000cec <xprintf>
/home/tututu/qimeng/simulator/baremetal/new_dhrystone/dhrystone_main.c:173
  debug_printf("        should be:   %d\n", 1);
800003f0:	00090593          	addi	a1,s2,0
800003f4:	5aca0513          	addi	a0,s4,1452
800003f8:	0f5000ef          	jal	ra,80000cec <xprintf>
/home/tututu/qimeng/simulator/baremetal/new_dhrystone/dhrystone_main.c:174
  debug_printf("Ch_1_Glob:           %c\n", Ch_1_Glob);
800003fc:	800047b7          	lui	a5,0x80004
80000400:	2257c583          	lbu	a1,549(a5) # 80004225 <Ch_1_Glob>
80000404:	80001537          	lui	a0,0x80001
80000408:	5e450513          	addi	a0,a0,1508 # 800015e4 <strcmp+0x304>
8000040c:	0e1000ef          	jal	ra,80000cec <xprintf>
/home/tututu/qimeng/simulator/baremetal/new_dhrystone/dhrystone_main.c:175
  debug_printf("        should be:   %c\n", 'A');
80000410:	80001ab7          	lui	s5,0x80001
80000414:	600a8513          	addi	a0,s5,1536 # 80001600 <strcmp+0x320>
80000418:	04100593          	addi	a1,zero,65
8000041c:	0d1000ef          	jal	ra,80000cec <xprintf>
/home/tututu/qimeng/simulator/baremetal/new_dhrystone/dhrystone_main.c:176
  debug_printf("Ch_2_Glob:           %c\n", Ch_2_Glob);
80000420:	2244c583          	lbu	a1,548(s1)
80000424:	80001537          	lui	a0,0x80001
80000428:	61c50513          	addi	a0,a0,1564 # 8000161c <strcmp+0x33c>
8000042c:	0c1000ef          	jal	ra,80000cec <xprintf>
/home/tututu/qimeng/simulator/baremetal/new_dhrystone/dhrystone_main.c:177
  debug_printf("        should be:   %c\n", 'B');
80000430:	600a8513          	addi	a0,s5,1536
80000434:	04200593          	addi	a1,zero,66
80000438:	0b5000ef          	jal	ra,80000cec <xprintf>
/home/tututu/qimeng/simulator/baremetal/new_dhrystone/dhrystone_main.c:178
  debug_printf("Arr_1_Glob[8]:       %d\n", Arr_1_Glob[8]);
8000043c:	f6c42783          	lw	a5,-148(s0)
80000440:	80001537          	lui	a0,0x80001
80000444:	63850513          	addi	a0,a0,1592 # 80001638 <strcmp+0x358>
80000448:	0207a583          	lw	a1,32(a5)
/home/tututu/qimeng/simulator/baremetal/new_dhrystone/dhrystone_main.c:185
  debug_printf("Arr_2_Glob[8][7]:    %d\n", Arr_2_Glob[8][7]);
  debug_printf("        should be:   Number_Of_Runs + 10\n");
  debug_printf("Ptr_Glob->\n");
  debug_printf("  Ptr_Comp:          %d\n", (long)Ptr_Glob->Ptr_Comp);
  debug_printf("        should be:   (implementation-dependent)\n");
  debug_printf("  Discr:             %d\n", Ptr_Glob->Discr);
8000044c:	80001d37          	lui	s10,0x80001
/home/tututu/qimeng/simulator/baremetal/new_dhrystone/dhrystone_main.c:187
  debug_printf("        should be:   %d\n", 0);
  debug_printf("  Enum_Comp:         %d\n", Ptr_Glob->variant.var_1.Enum_Comp);
80000450:	80001c37          	lui	s8,0x80001
/home/tututu/qimeng/simulator/baremetal/new_dhrystone/dhrystone_main.c:178
  debug_printf("Arr_1_Glob[8]:       %d\n", Arr_1_Glob[8]);
80000454:	099000ef          	jal	ra,80000cec <xprintf>
/home/tututu/qimeng/simulator/baremetal/new_dhrystone/dhrystone_main.c:179
  debug_printf("        should be:   %d\n", 7);
80000458:	5aca0513          	addi	a0,s4,1452
8000045c:	00700593          	addi	a1,zero,7
80000460:	08d000ef          	jal	ra,80000cec <xprintf>
/home/tututu/qimeng/simulator/baremetal/new_dhrystone/dhrystone_main.c:180
  debug_printf("Arr_2_Glob[8][7]:    %d\n", Arr_2_Glob[8][7]);
80000464:	800027b7          	lui	a5,0x80002
80000468:	af878793          	addi	a5,a5,-1288 # 80001af8 <Arr_2_Glob>
8000046c:	65c7a583          	lw	a1,1628(a5)
80000470:	80001537          	lui	a0,0x80001
80000474:	65450513          	addi	a0,a0,1620 # 80001654 <strcmp+0x374>
80000478:	075000ef          	jal	ra,80000cec <xprintf>
/home/tututu/qimeng/simulator/baremetal/new_dhrystone/dhrystone_main.c:181
  debug_printf("        should be:   Number_Of_Runs + 10\n");
8000047c:	80001537          	lui	a0,0x80001
80000480:	67050513          	addi	a0,a0,1648 # 80001670 <strcmp+0x390>
80000484:	069000ef          	jal	ra,80000cec <xprintf>
/home/tututu/qimeng/simulator/baremetal/new_dhrystone/dhrystone_main.c:182
  debug_printf("Ptr_Glob->\n");
80000488:	80001537          	lui	a0,0x80001
8000048c:	69c50513          	addi	a0,a0,1692 # 8000169c <strcmp+0x3bc>
80000490:	05d000ef          	jal	ra,80000cec <xprintf>
/home/tututu/qimeng/simulator/baremetal/new_dhrystone/dhrystone_main.c:183
  debug_printf("  Ptr_Comp:          %d\n", (long)Ptr_Glob->Ptr_Comp);
80000494:	234b2703          	lw	a4,564(s6)
80000498:	800017b7          	lui	a5,0x80001
8000049c:	6a878513          	addi	a0,a5,1704 # 800016a8 <strcmp+0x3c8>
800004a0:	00072583          	lw	a1,0(a4)
/home/tututu/qimeng/simulator/baremetal/new_dhrystone/dhrystone_main.c:189
  debug_printf("        should be:   %d\n", 2);
  debug_printf("  Int_Comp:          %d\n", Ptr_Glob->variant.var_1.Int_Comp);
800004a4:	80001bb7          	lui	s7,0x80001
/home/tututu/qimeng/simulator/baremetal/new_dhrystone/dhrystone_main.c:191
  debug_printf("        should be:   %d\n", 17);
  debug_printf("  Str_Comp:          %s\n", Ptr_Glob->variant.var_1.Str_Comp);
800004a8:	80001ab7          	lui	s5,0x80001
/home/tututu/qimeng/simulator/baremetal/new_dhrystone/dhrystone_main.c:183
  debug_printf("  Ptr_Comp:          %d\n", (long)Ptr_Glob->Ptr_Comp);
800004ac:	041000ef          	jal	ra,80000cec <xprintf>
/home/tututu/qimeng/simulator/baremetal/new_dhrystone/dhrystone_main.c:184
  debug_printf("        should be:   (implementation-dependent)\n");
800004b0:	80001537          	lui	a0,0x80001
800004b4:	6c450513          	addi	a0,a0,1732 # 800016c4 <strcmp+0x3e4>
800004b8:	035000ef          	jal	ra,80000cec <xprintf>
/home/tututu/qimeng/simulator/baremetal/new_dhrystone/dhrystone_main.c:185
  debug_printf("  Discr:             %d\n", Ptr_Glob->Discr);
800004bc:	234b2703          	lw	a4,564(s6)
800004c0:	6f8d0513          	addi	a0,s10,1784 # 800016f8 <strcmp+0x418>
/home/tututu/qimeng/simulator/baremetal/new_dhrystone/dhrystone_main.c:192
  debug_printf("        should be:   DHRYSTONE PROGRAM, SOME STRING\n");
800004c4:	800014b7          	lui	s1,0x80001
/home/tututu/qimeng/simulator/baremetal/new_dhrystone/dhrystone_main.c:185
  debug_printf("  Discr:             %d\n", Ptr_Glob->Discr);
800004c8:	00472583          	lw	a1,4(a4)
800004cc:	021000ef          	jal	ra,80000cec <xprintf>
/home/tututu/qimeng/simulator/baremetal/new_dhrystone/dhrystone_main.c:186
  debug_printf("        should be:   %d\n", 0);
800004d0:	5aca0513          	addi	a0,s4,1452
800004d4:	00000593          	addi	a1,zero,0
800004d8:	015000ef          	jal	ra,80000cec <xprintf>
/home/tututu/qimeng/simulator/baremetal/new_dhrystone/dhrystone_main.c:187
  debug_printf("  Enum_Comp:         %d\n", Ptr_Glob->variant.var_1.Enum_Comp);
800004dc:	234b2703          	lw	a4,564(s6)
800004e0:	714c0513          	addi	a0,s8,1812 # 80001714 <strcmp+0x434>
800004e4:	00872583          	lw	a1,8(a4)
800004e8:	005000ef          	jal	ra,80000cec <xprintf>
/home/tututu/qimeng/simulator/baremetal/new_dhrystone/dhrystone_main.c:188
  debug_printf("        should be:   %d\n", 2);
800004ec:	5aca0513          	addi	a0,s4,1452
800004f0:	00200593          	addi	a1,zero,2
800004f4:	7f8000ef          	jal	ra,80000cec <xprintf>
/home/tututu/qimeng/simulator/baremetal/new_dhrystone/dhrystone_main.c:189
  debug_printf("  Int_Comp:          %d\n", Ptr_Glob->variant.var_1.Int_Comp);
800004f8:	234b2703          	lw	a4,564(s6)
800004fc:	730b8513          	addi	a0,s7,1840 # 80001730 <strcmp+0x450>
80000500:	00c72583          	lw	a1,12(a4)
80000504:	7e8000ef          	jal	ra,80000cec <xprintf>
/home/tututu/qimeng/simulator/baremetal/new_dhrystone/dhrystone_main.c:190
  debug_printf("        should be:   %d\n", 17);
80000508:	5aca0513          	addi	a0,s4,1452
8000050c:	01100593          	addi	a1,zero,17
80000510:	7dc000ef          	jal	ra,80000cec <xprintf>
/home/tututu/qimeng/simulator/baremetal/new_dhrystone/dhrystone_main.c:191
  debug_printf("  Str_Comp:          %s\n", Ptr_Glob->variant.var_1.Str_Comp);
80000514:	234b2583          	lw	a1,564(s6)
80000518:	74ca8513          	addi	a0,s5,1868 # 8000174c <strcmp+0x46c>
/home/tututu/qimeng/simulator/baremetal/new_dhrystone/dhrystone_main.c:194
  debug_printf("Next_Ptr_Glob->\n");
  debug_printf("  Ptr_Comp:          %d\n", (long)Next_Ptr_Glob->Ptr_Comp);
8000051c:	80004b37          	lui	s6,0x80004
/home/tututu/qimeng/simulator/baremetal/new_dhrystone/dhrystone_main.c:191
  debug_printf("  Str_Comp:          %s\n", Ptr_Glob->variant.var_1.Str_Comp);
80000520:	01058593          	addi	a1,a1,16
80000524:	7c8000ef          	jal	ra,80000cec <xprintf>
/home/tututu/qimeng/simulator/baremetal/new_dhrystone/dhrystone_main.c:192
  debug_printf("        should be:   DHRYSTONE PROGRAM, SOME STRING\n");
80000528:	76848513          	addi	a0,s1,1896 # 80001768 <strcmp+0x488>
8000052c:	7c0000ef          	jal	ra,80000cec <xprintf>
/home/tututu/qimeng/simulator/baremetal/new_dhrystone/dhrystone_main.c:193
  debug_printf("Next_Ptr_Glob->\n");
80000530:	80001537          	lui	a0,0x80001
80000534:	7a050513          	addi	a0,a0,1952 # 800017a0 <strcmp+0x4c0>
80000538:	7b4000ef          	jal	ra,80000cec <xprintf>
/home/tututu/qimeng/simulator/baremetal/new_dhrystone/dhrystone_main.c:194
  debug_printf("  Ptr_Comp:          %d\n", (long)Next_Ptr_Glob->Ptr_Comp);
8000053c:	230b2703          	lw	a4,560(s6) # 80004230 <Next_Ptr_Glob>
80000540:	800017b7          	lui	a5,0x80001
80000544:	6a878513          	addi	a0,a5,1704 # 800016a8 <strcmp+0x3c8>
80000548:	00072583          	lw	a1,0(a4)
8000054c:	7a0000ef          	jal	ra,80000cec <xprintf>
/home/tututu/qimeng/simulator/baremetal/new_dhrystone/dhrystone_main.c:195
  debug_printf(
80000550:	80001537          	lui	a0,0x80001
80000554:	7b450513          	addi	a0,a0,1972 # 800017b4 <strcmp+0x4d4>
80000558:	794000ef          	jal	ra,80000cec <xprintf>
/home/tututu/qimeng/simulator/baremetal/new_dhrystone/dhrystone_main.c:197
      "        should be:   (implementation-dependent), same as above\n");
  debug_printf("  Discr:             %d\n", Next_Ptr_Glob->Discr);
8000055c:	230b2783          	lw	a5,560(s6)
80000560:	6f8d0513          	addi	a0,s10,1784
80000564:	0047a583          	lw	a1,4(a5)
80000568:	784000ef          	jal	ra,80000cec <xprintf>
/home/tututu/qimeng/simulator/baremetal/new_dhrystone/dhrystone_main.c:198
  debug_printf("        should be:   %d\n", 0);
8000056c:	5aca0513          	addi	a0,s4,1452
80000570:	00000593          	addi	a1,zero,0
80000574:	778000ef          	jal	ra,80000cec <xprintf>
/home/tututu/qimeng/simulator/baremetal/new_dhrystone/dhrystone_main.c:200
  debug_printf("  Enum_Comp:         %d\n",
               Next_Ptr_Glob->variant.var_1.Enum_Comp);
80000578:	230b2783          	lw	a5,560(s6)
/home/tututu/qimeng/simulator/baremetal/new_dhrystone/dhrystone_main.c:199
  debug_printf("  Enum_Comp:         %d\n",
8000057c:	714c0513          	addi	a0,s8,1812
80000580:	0087a583          	lw	a1,8(a5)
80000584:	768000ef          	jal	ra,80000cec <xprintf>
/home/tututu/qimeng/simulator/baremetal/new_dhrystone/dhrystone_main.c:201
  debug_printf("        should be:   %d\n", 1);
80000588:	00090593          	addi	a1,s2,0
8000058c:	5aca0513          	addi	a0,s4,1452
80000590:	75c000ef          	jal	ra,80000cec <xprintf>
/home/tututu/qimeng/simulator/baremetal/new_dhrystone/dhrystone_main.c:202
  debug_printf("  Int_Comp:          %d\n",
80000594:	230b2783          	lw	a5,560(s6)
80000598:	730b8513          	addi	a0,s7,1840
8000059c:	00c7a583          	lw	a1,12(a5)
800005a0:	74c000ef          	jal	ra,80000cec <xprintf>
/home/tututu/qimeng/simulator/baremetal/new_dhrystone/dhrystone_main.c:204
               Next_Ptr_Glob->variant.var_1.Int_Comp);
  debug_printf("        should be:   %d\n", 18);
800005a4:	5aca0513          	addi	a0,s4,1452
800005a8:	01200593          	addi	a1,zero,18
800005ac:	740000ef          	jal	ra,80000cec <xprintf>
/home/tututu/qimeng/simulator/baremetal/new_dhrystone/dhrystone_main.c:206
  debug_printf("  Str_Comp:          %s\n",
               Next_Ptr_Glob->variant.var_1.Str_Comp);
800005b0:	230b2583          	lw	a1,560(s6)
/home/tututu/qimeng/simulator/baremetal/new_dhrystone/dhrystone_main.c:205
  debug_printf("  Str_Comp:          %s\n",
800005b4:	74ca8513          	addi	a0,s5,1868
800005b8:	01058593          	addi	a1,a1,16
800005bc:	730000ef          	jal	ra,80000cec <xprintf>
/home/tututu/qimeng/simulator/baremetal/new_dhrystone/dhrystone_main.c:207
  debug_printf("        should be:   DHRYSTONE PROGRAM, SOME STRING\n");
800005c0:	76848513          	addi	a0,s1,1896
800005c4:	728000ef          	jal	ra,80000cec <xprintf>
/home/tututu/qimeng/simulator/baremetal/new_dhrystone/dhrystone_main.c:208
  debug_printf("Int_1_Loc:           %d\n", Int_1_Loc);
800005c8:	f7442583          	lw	a1,-140(s0)
800005cc:	80001537          	lui	a0,0x80001
800005d0:	7f450513          	addi	a0,a0,2036 # 800017f4 <strcmp+0x514>
800005d4:	718000ef          	jal	ra,80000cec <xprintf>
/home/tututu/qimeng/simulator/baremetal/new_dhrystone/dhrystone_main.c:209
  debug_printf("        should be:   %d\n", 5);
800005d8:	5aca0513          	addi	a0,s4,1452
800005dc:	00500593          	addi	a1,zero,5
800005e0:	70c000ef          	jal	ra,80000cec <xprintf>
/home/tututu/qimeng/simulator/baremetal/new_dhrystone/dhrystone_main.c:210
  debug_printf("Int_2_Loc:           %d\n", Int_2_Loc);
800005e4:	80002537          	lui	a0,0x80002
800005e8:	00098593          	addi	a1,s3,0
800005ec:	81050513          	addi	a0,a0,-2032 # 80001810 <strcmp+0x530>
800005f0:	6fc000ef          	jal	ra,80000cec <xprintf>
/home/tututu/qimeng/simulator/baremetal/new_dhrystone/dhrystone_main.c:211
  debug_printf("        should be:   %d\n", 13);
800005f4:	5aca0513          	addi	a0,s4,1452
800005f8:	00d00593          	addi	a1,zero,13
800005fc:	6f0000ef          	jal	ra,80000cec <xprintf>
/home/tututu/qimeng/simulator/baremetal/new_dhrystone/dhrystone_main.c:212
  debug_printf("Int_3_Loc:           %d\n", Int_3_Loc);
80000600:	f7842583          	lw	a1,-136(s0)
80000604:	80002537          	lui	a0,0x80002
80000608:	82c50513          	addi	a0,a0,-2004 # 8000182c <strcmp+0x54c>
8000060c:	6e0000ef          	jal	ra,80000cec <xprintf>
/home/tututu/qimeng/simulator/baremetal/new_dhrystone/dhrystone_main.c:213
  debug_printf("        should be:   %d\n", 7);
80000610:	5aca0513          	addi	a0,s4,1452
80000614:	00700593          	addi	a1,zero,7
80000618:	6d4000ef          	jal	ra,80000cec <xprintf>
/home/tututu/qimeng/simulator/baremetal/new_dhrystone/dhrystone_main.c:214
  debug_printf("Enum_Loc:            %d\n", Enum_Loc);
8000061c:	f7c42583          	lw	a1,-132(s0)
80000620:	80002537          	lui	a0,0x80002
80000624:	84850513          	addi	a0,a0,-1976 # 80001848 <strcmp+0x568>
80000628:	6c4000ef          	jal	ra,80000cec <xprintf>
/home/tututu/qimeng/simulator/baremetal/new_dhrystone/dhrystone_main.c:215
  debug_printf("        should be:   %d\n", 1);
8000062c:	00090593          	addi	a1,s2,0
80000630:	5aca0513          	addi	a0,s4,1452
80000634:	6b8000ef          	jal	ra,80000cec <xprintf>
/home/tututu/qimeng/simulator/baremetal/new_dhrystone/dhrystone_main.c:216
  debug_printf("Str_1_Loc:           %s\n", Str_1_Loc);
80000638:	80002537          	lui	a0,0x80002
8000063c:	f8040593          	addi	a1,s0,-128
80000640:	86450513          	addi	a0,a0,-1948 # 80001864 <strcmp+0x584>
80000644:	6a8000ef          	jal	ra,80000cec <xprintf>
/home/tututu/qimeng/simulator/baremetal/new_dhrystone/dhrystone_main.c:217
  debug_printf("        should be:   DHRYSTONE PROGRAM, 1'ST STRING\n");
80000648:	80002537          	lui	a0,0x80002
8000064c:	88050513          	addi	a0,a0,-1920 # 80001880 <strcmp+0x5a0>
80000650:	69c000ef          	jal	ra,80000cec <xprintf>
/home/tututu/qimeng/simulator/baremetal/new_dhrystone/dhrystone_main.c:218
  debug_printf("Str_2_Loc:           %s\n", Str_2_Loc);
80000654:	80002537          	lui	a0,0x80002
80000658:	fa040593          	addi	a1,s0,-96
8000065c:	8b850513          	addi	a0,a0,-1864 # 800018b8 <strcmp+0x5d8>
80000660:	68c000ef          	jal	ra,80000cec <xprintf>
/home/tututu/qimeng/simulator/baremetal/new_dhrystone/dhrystone_main.c:219
  debug_printf("        should be:   DHRYSTONE PROGRAM, 2'ND STRING\n");
80000664:	80002537          	lui	a0,0x80002
80000668:	8d450513          	addi	a0,a0,-1836 # 800018d4 <strcmp+0x5f4>
8000066c:	680000ef          	jal	ra,80000cec <xprintf>
/home/tututu/qimeng/simulator/baremetal/new_dhrystone/dhrystone_main.c:220
  debug_printf("\n");
80000670:	480d8513          	addi	a0,s11,1152
80000674:	678000ef          	jal	ra,80000cec <xprintf>
/home/tututu/qimeng/simulator/baremetal/new_dhrystone/dhrystone_main.c:222

  Microseconds = ((User_Time / Number_Of_Runs) * Mic_secs_Per_Second) / HZ;
80000678:	210ca783          	lw	a5,528(s9)
/home/tututu/qimeng/simulator/baremetal/new_dhrystone/dhrystone_main.c:223
  Dhrystones_Per_Second = (HZ * Number_Of_Runs) / User_Time;
8000067c:	540be737          	lui	a4,0x540be
80000680:	40070713          	addi	a4,a4,1024 # 540be400 <__stack_size+0x520be400>
80000684:	02f74733          	div	a4,a4,a5
/home/tututu/qimeng/simulator/baremetal/new_dhrystone/dhrystone_main.c:222
  Microseconds = ((User_Time / Number_Of_Runs) * Mic_secs_Per_Second) / HZ;
80000688:	68db96b7          	lui	a3,0x68db9
8000068c:	bad68693          	addi	a3,a3,-1107 # 68db8bad <__stack_size+0x66db8bad>
80000690:	41f7d813          	srai	a6,a5,0x1f
/home/tututu/qimeng/simulator/baremetal/new_dhrystone/dhrystone_main.c:225

  printf("Microseconds for one run through Dhrystone: %ld\n", Microseconds);
80000694:	80002537          	lui	a0,0x80002
/home/tututu/qimeng/simulator/baremetal/new_dhrystone/dhrystone_main.c:222
  Microseconds = ((User_Time / Number_Of_Runs) * Mic_secs_Per_Second) / HZ;
80000698:	80004637          	lui	a2,0x80004
/home/tututu/qimeng/simulator/baremetal/new_dhrystone/dhrystone_main.c:223
  Dhrystones_Per_Second = (HZ * Number_Of_Runs) / User_Time;
8000069c:	800044b7          	lui	s1,0x80004
/home/tututu/qimeng/simulator/baremetal/new_dhrystone/dhrystone_main.c:225
  printf("Microseconds for one run through Dhrystone: %ld\n", Microseconds);
800006a0:	90c50513          	addi	a0,a0,-1780 # 8000190c <strcmp+0x62c>
/home/tututu/qimeng/simulator/baremetal/new_dhrystone/dhrystone_main.c:222
  Microseconds = ((User_Time / Number_Of_Runs) * Mic_secs_Per_Second) / HZ;
800006a4:	02d795b3          	mulh	a1,a5,a3
/home/tututu/qimeng/simulator/baremetal/new_dhrystone/dhrystone_main.c:223
  Dhrystones_Per_Second = (HZ * Number_Of_Runs) / User_Time;
800006a8:	20e4a423          	sw	a4,520(s1) # 80004208 <Dhrystones_Per_Second>
/home/tututu/qimeng/simulator/baremetal/new_dhrystone/dhrystone_main.c:222
  Microseconds = ((User_Time / Number_Of_Runs) * Mic_secs_Per_Second) / HZ;
800006ac:	40c5d593          	srai	a1,a1,0xc
800006b0:	410585b3          	sub	a1,a1,a6
800006b4:	20b62623          	sw	a1,524(a2) # 8000420c <Microseconds>
/home/tututu/qimeng/simulator/baremetal/new_dhrystone/dhrystone_main.c:225
  printf("Microseconds for one run through Dhrystone: %ld\n", Microseconds);
800006b8:	634000ef          	jal	ra,80000cec <xprintf>
/home/tututu/qimeng/simulator/baremetal/new_dhrystone/dhrystone_main.c:226
  printf("Dhrystones per Second:                      %ld\n",
800006bc:	2084a583          	lw	a1,520(s1)
800006c0:	80002537          	lui	a0,0x80002
800006c4:	94050513          	addi	a0,a0,-1728 # 80001940 <strcmp+0x660>
800006c8:	624000ef          	jal	ra,80000cec <xprintf>
/home/tututu/qimeng/simulator/baremetal/new_dhrystone/dhrystone_main.c:230
         Dhrystones_Per_Second);

  return 0;
}
800006cc:	f6040113          	addi	sp,s0,-160
800006d0:	09c12083          	lw	ra,156(sp)
800006d4:	09812403          	lw	s0,152(sp)
800006d8:	09412483          	lw	s1,148(sp)
800006dc:	09012903          	lw	s2,144(sp)
800006e0:	08c12983          	lw	s3,140(sp)
800006e4:	08812a03          	lw	s4,136(sp)
800006e8:	08412a83          	lw	s5,132(sp)
800006ec:	08012b03          	lw	s6,128(sp)
800006f0:	07c12b83          	lw	s7,124(sp)
800006f4:	07812c03          	lw	s8,120(sp)
800006f8:	07412c83          	lw	s9,116(sp)
800006fc:	07012d03          	lw	s10,112(sp)
80000700:	06c12d83          	lw	s11,108(sp)
80000704:	00000513          	addi	a0,zero,0
80000708:	0a010113          	addi	sp,sp,160
8000070c:	00008067          	jalr	zero,0(ra)
/home/tututu/qimeng/simulator/baremetal/new_dhrystone/dhrystone_main.c:130 (discriminator 1)
      for (Ch_Index = 'A'; Ch_Index <= Ch_2_Glob; ++Ch_Index)
80000710:	00900a13          	addi	s4,zero,9
80000714:	c39ff06f          	jal	zero,8000034c <main+0x330>
/home/tututu/qimeng/simulator/baremetal/new_dhrystone/dhrystone_main.c:92
    debug_printf("Program compiled without 'register' attribute\n");
80000718:	80001537          	lui	a0,0x80001
8000071c:	4e450513          	addi	a0,a0,1252 # 800014e4 <strcmp+0x204>
80000720:	5cc000ef          	jal	ra,80000cec <xprintf>
80000724:	a61ff06f          	jal	zero,80000184 <main+0x168>

80000728 <Proc_2>:
Proc_2():
/home/tututu/qimeng/simulator/baremetal/new_dhrystone/dhrystone_main.c:275
  One_Fifty Int_Loc;
  Enumeration Enum_Loc;

  Int_Loc = *Int_Par_Ref + 10;
  do /* executed once */
    if (Ch_1_Glob == 'A')
80000728:	800047b7          	lui	a5,0x80004
8000072c:	2257c703          	lbu	a4,549(a5) # 80004225 <Ch_1_Glob>
80000730:	04100793          	addi	a5,zero,65
80000734:	00f70463          	beq	a4,a5,8000073c <Proc_2+0x14>
/home/tututu/qimeng/simulator/baremetal/new_dhrystone/dhrystone_main.c:283
      Int_Loc -= 1;
      *Int_Par_Ref = Int_Loc - Int_Glob;
      Enum_Loc = Ident_1;
    } /* if */
  while (Enum_Loc != Ident_1); /* true */
} /* Proc_2 */
80000738:	00008067          	jalr	zero,0(ra)
/home/tututu/qimeng/simulator/baremetal/new_dhrystone/dhrystone_main.c:278
      Int_Loc -= 1;
8000073c:	00052783          	lw	a5,0(a0)
/home/tututu/qimeng/simulator/baremetal/new_dhrystone/dhrystone_main.c:279
      *Int_Par_Ref = Int_Loc - Int_Glob;
80000740:	80004737          	lui	a4,0x80004
80000744:	22c72703          	lw	a4,556(a4) # 8000422c <Int_Glob>
/home/tututu/qimeng/simulator/baremetal/new_dhrystone/dhrystone_main.c:278
      Int_Loc -= 1;
80000748:	00978793          	addi	a5,a5,9
/home/tututu/qimeng/simulator/baremetal/new_dhrystone/dhrystone_main.c:279
      *Int_Par_Ref = Int_Loc - Int_Glob;
8000074c:	40e787b3          	sub	a5,a5,a4
80000750:	00f52023          	sw	a5,0(a0)
/home/tututu/qimeng/simulator/baremetal/new_dhrystone/dhrystone_main.c:283
} /* Proc_2 */
80000754:	00008067          	jalr	zero,0(ra)

80000758 <Proc_3>:
Proc_3():
/home/tututu/qimeng/simulator/baremetal/new_dhrystone/dhrystone_main.c:293
    /* Ptr_Ref_Par becomes Ptr_Glob */

    Rec_Pointer *Ptr_Ref_Par;

{
  if (Ptr_Glob != Null)
80000758:	800047b7          	lui	a5,0x80004
8000075c:	2347a603          	lw	a2,564(a5) # 80004234 <Ptr_Glob>
80000760:	00060863          	beq	a2,zero,80000770 <Proc_3+0x18>
/home/tututu/qimeng/simulator/baremetal/new_dhrystone/dhrystone_main.c:295
    /* then, executed */
    *Ptr_Ref_Par = Ptr_Glob->Ptr_Comp;
80000764:	00062703          	lw	a4,0(a2)
80000768:	00e52023          	sw	a4,0(a0)
/home/tututu/qimeng/simulator/baremetal/new_dhrystone/dhrystone_main.c:296
  Proc_7(10, Int_Glob, &Ptr_Glob->variant.var_1.Int_Comp);
8000076c:	2347a603          	lw	a2,564(a5)
80000770:	800047b7          	lui	a5,0x80004
80000774:	22c7a583          	lw	a1,556(a5) # 8000422c <Int_Glob>
80000778:	00c60613          	addi	a2,a2,12
8000077c:	00a00513          	addi	a0,zero,10
80000780:	1b40006f          	jal	zero,80000934 <Proc_7>

80000784 <Proc_1>:
Proc_1():
/home/tututu/qimeng/simulator/baremetal/new_dhrystone/dhrystone_main.c:237
{
80000784:	ff010113          	addi	sp,sp,-16
80000788:	01212023          	sw	s2,0(sp)
/home/tututu/qimeng/simulator/baremetal/new_dhrystone/dhrystone_main.c:243
  structassign(*Ptr_Val_Par->Ptr_Comp, *Ptr_Glob);
8000078c:	80004937          	lui	s2,0x80004
80000790:	23492783          	lw	a5,564(s2) # 80004234 <Ptr_Glob>
/home/tututu/qimeng/simulator/baremetal/new_dhrystone/dhrystone_main.c:237
{
80000794:	00112623          	sw	ra,12(sp)
80000798:	00812423          	sw	s0,8(sp)
8000079c:	00912223          	sw	s1,4(sp)
/home/tututu/qimeng/simulator/baremetal/new_dhrystone/dhrystone_main.c:238
  REG Rec_Pointer Next_Record = Ptr_Val_Par->Ptr_Comp;
800007a0:	00052403          	lw	s0,0(a0)
/home/tututu/qimeng/simulator/baremetal/new_dhrystone/dhrystone_main.c:243
  structassign(*Ptr_Val_Par->Ptr_Comp, *Ptr_Glob);
800007a4:	0007af03          	lw	t5,0(a5)
800007a8:	0047ae83          	lw	t4,4(a5)
800007ac:	0087ae03          	lw	t3,8(a5)
800007b0:	00c7a303          	lw	t1,12(a5)
800007b4:	0107a883          	lw	a7,16(a5)
800007b8:	0147a803          	lw	a6,20(a5)
800007bc:	01c7a583          	lw	a1,28(a5)
800007c0:	0207a603          	lw	a2,32(a5)
800007c4:	0247a683          	lw	a3,36(a5)
800007c8:	0287a703          	lw	a4,40(a5)
/home/tututu/qimeng/simulator/baremetal/new_dhrystone/dhrystone_main.c:237
{
800007cc:	00050493          	addi	s1,a0,0
/home/tututu/qimeng/simulator/baremetal/new_dhrystone/dhrystone_main.c:243
  structassign(*Ptr_Val_Par->Ptr_Comp, *Ptr_Glob);
800007d0:	0187a503          	lw	a0,24(a5)
800007d4:	01e42023          	sw	t5,0(s0)
800007d8:	01d42223          	sw	t4,4(s0)
800007dc:	01c42423          	sw	t3,8(s0)
800007e0:	00642623          	sw	t1,12(s0)
800007e4:	01142823          	sw	a7,16(s0)
800007e8:	01042a23          	sw	a6,20(s0)
800007ec:	00a42c23          	sw	a0,24(s0)
800007f0:	00b42e23          	sw	a1,28(s0)
800007f4:	02c42023          	sw	a2,32(s0)
800007f8:	02d42223          	sw	a3,36(s0)
800007fc:	02e42423          	sw	a4,40(s0)
80000800:	02c7a703          	lw	a4,44(a5)
/home/tututu/qimeng/simulator/baremetal/new_dhrystone/dhrystone_main.c:244
  Ptr_Val_Par->variant.var_1.Int_Comp = 5;
80000804:	00500793          	addi	a5,zero,5
/home/tututu/qimeng/simulator/baremetal/new_dhrystone/dhrystone_main.c:247
  Proc_3(&Next_Record->Ptr_Comp);
80000808:	00040513          	addi	a0,s0,0
/home/tututu/qimeng/simulator/baremetal/new_dhrystone/dhrystone_main.c:243
  structassign(*Ptr_Val_Par->Ptr_Comp, *Ptr_Glob);
8000080c:	02e42623          	sw	a4,44(s0)
/home/tututu/qimeng/simulator/baremetal/new_dhrystone/dhrystone_main.c:244
  Ptr_Val_Par->variant.var_1.Int_Comp = 5;
80000810:	00f4a623          	sw	a5,12(s1)
/home/tututu/qimeng/simulator/baremetal/new_dhrystone/dhrystone_main.c:245
  Next_Record->variant.var_1.Int_Comp = Ptr_Val_Par->variant.var_1.Int_Comp;
80000814:	00f42623          	sw	a5,12(s0)
/home/tututu/qimeng/simulator/baremetal/new_dhrystone/dhrystone_main.c:246
  Next_Record->Ptr_Comp = Ptr_Val_Par->Ptr_Comp;
80000818:	0004a783          	lw	a5,0(s1)
8000081c:	00f42023          	sw	a5,0(s0)
/home/tututu/qimeng/simulator/baremetal/new_dhrystone/dhrystone_main.c:247
  Proc_3(&Next_Record->Ptr_Comp);
80000820:	f39ff0ef          	jal	ra,80000758 <Proc_3>
/home/tututu/qimeng/simulator/baremetal/new_dhrystone/dhrystone_main.c:250
  if (Next_Record->Discr == Ident_1)
80000824:	00442783          	lw	a5,4(s0)
80000828:	08078063          	beq	a5,zero,800008a8 <Proc_1+0x124>
/home/tututu/qimeng/simulator/baremetal/new_dhrystone/dhrystone_main.c:260
    structassign(*Ptr_Val_Par, *Ptr_Val_Par->Ptr_Comp);
8000082c:	0004a783          	lw	a5,0(s1)
80000830:	0007af83          	lw	t6,0(a5)
80000834:	0047af03          	lw	t5,4(a5)
80000838:	0087ae83          	lw	t4,8(a5)
8000083c:	00c7ae03          	lw	t3,12(a5)
80000840:	0107a303          	lw	t1,16(a5)
80000844:	0147a883          	lw	a7,20(a5)
80000848:	0187a803          	lw	a6,24(a5)
8000084c:	01c7a583          	lw	a1,28(a5)
80000850:	0207a603          	lw	a2,32(a5)
80000854:	0247a683          	lw	a3,36(a5)
80000858:	0287a703          	lw	a4,40(a5)
8000085c:	01f4a023          	sw	t6,0(s1)
80000860:	01e4a223          	sw	t5,4(s1)
80000864:	01d4a423          	sw	t4,8(s1)
80000868:	01c4a623          	sw	t3,12(s1)
8000086c:	0064a823          	sw	t1,16(s1)
80000870:	0114aa23          	sw	a7,20(s1)
80000874:	0104ac23          	sw	a6,24(s1)
80000878:	00b4ae23          	sw	a1,28(s1)
8000087c:	02c4a023          	sw	a2,32(s1)
80000880:	02d4a223          	sw	a3,36(s1)
80000884:	02e4a423          	sw	a4,40(s1)
80000888:	02c7a783          	lw	a5,44(a5)
8000088c:	02f4a623          	sw	a5,44(s1)
/home/tututu/qimeng/simulator/baremetal/new_dhrystone/dhrystone_main.c:261
} /* Proc_1 */
80000890:	00c12083          	lw	ra,12(sp)
80000894:	00812403          	lw	s0,8(sp)
80000898:	00412483          	lw	s1,4(sp)
8000089c:	00012903          	lw	s2,0(sp)
800008a0:	01010113          	addi	sp,sp,16
800008a4:	00008067          	jalr	zero,0(ra)
/home/tututu/qimeng/simulator/baremetal/new_dhrystone/dhrystone_main.c:253
    Next_Record->variant.var_1.Int_Comp = 6;
800008a8:	00600793          	addi	a5,zero,6
800008ac:	00f42623          	sw	a5,12(s0)
/home/tututu/qimeng/simulator/baremetal/new_dhrystone/dhrystone_main.c:254
    Proc_6(Ptr_Val_Par->variant.var_1.Enum_Comp,
800008b0:	0084a503          	lw	a0,8(s1)
800008b4:	00840593          	addi	a1,s0,8
800008b8:	190000ef          	jal	ra,80000a48 <Proc_6>
/home/tututu/qimeng/simulator/baremetal/new_dhrystone/dhrystone_main.c:256
    Next_Record->Ptr_Comp = Ptr_Glob->Ptr_Comp;
800008bc:	23492783          	lw	a5,564(s2)
/home/tututu/qimeng/simulator/baremetal/new_dhrystone/dhrystone_main.c:257
    Proc_7(Next_Record->variant.var_1.Int_Comp, 10,
800008c0:	00c42503          	lw	a0,12(s0)
800008c4:	00c40613          	addi	a2,s0,12
/home/tututu/qimeng/simulator/baremetal/new_dhrystone/dhrystone_main.c:256
    Next_Record->Ptr_Comp = Ptr_Glob->Ptr_Comp;
800008c8:	0007a783          	lw	a5,0(a5)
/home/tututu/qimeng/simulator/baremetal/new_dhrystone/dhrystone_main.c:261
} /* Proc_1 */
800008cc:	00c12083          	lw	ra,12(sp)
800008d0:	00412483          	lw	s1,4(sp)
/home/tututu/qimeng/simulator/baremetal/new_dhrystone/dhrystone_main.c:256
    Next_Record->Ptr_Comp = Ptr_Glob->Ptr_Comp;
800008d4:	00f42023          	sw	a5,0(s0)
/home/tututu/qimeng/simulator/baremetal/new_dhrystone/dhrystone_main.c:261
} /* Proc_1 */
800008d8:	00812403          	lw	s0,8(sp)
800008dc:	00012903          	lw	s2,0(sp)
/home/tututu/qimeng/simulator/baremetal/new_dhrystone/dhrystone_main.c:257
    Proc_7(Next_Record->variant.var_1.Int_Comp, 10,
800008e0:	00a00593          	addi	a1,zero,10
/home/tututu/qimeng/simulator/baremetal/new_dhrystone/dhrystone_main.c:261
} /* Proc_1 */
800008e4:	01010113          	addi	sp,sp,16
/home/tututu/qimeng/simulator/baremetal/new_dhrystone/dhrystone_main.c:257
    Proc_7(Next_Record->variant.var_1.Int_Comp, 10,
800008e8:	04c0006f          	jal	zero,80000934 <Proc_7>

800008ec <Proc_4>:
Proc_4():
/home/tututu/qimeng/simulator/baremetal/new_dhrystone/dhrystone_main.c:305
/*******/
/* executed once */
{
  Boolean Bool_Loc;

  Bool_Loc = Ch_1_Glob == 'A';
800008ec:	800047b7          	lui	a5,0x80004
800008f0:	2257c783          	lbu	a5,549(a5) # 80004225 <Ch_1_Glob>
/home/tututu/qimeng/simulator/baremetal/new_dhrystone/dhrystone_main.c:306
  Bool_Glob = Bool_Loc | Bool_Glob;
800008f4:	80004737          	lui	a4,0x80004
800008f8:	22872683          	lw	a3,552(a4) # 80004228 <Bool_Glob>
/home/tututu/qimeng/simulator/baremetal/new_dhrystone/dhrystone_main.c:305
  Bool_Loc = Ch_1_Glob == 'A';
800008fc:	fbf78793          	addi	a5,a5,-65
80000900:	0017b793          	sltiu	a5,a5,1
/home/tututu/qimeng/simulator/baremetal/new_dhrystone/dhrystone_main.c:306
  Bool_Glob = Bool_Loc | Bool_Glob;
80000904:	00d7e7b3          	or	a5,a5,a3
/home/tututu/qimeng/simulator/baremetal/new_dhrystone/dhrystone_main.c:307
  Ch_2_Glob = 'B';
80000908:	04200613          	addi	a2,zero,66
8000090c:	800046b7          	lui	a3,0x80004
/home/tututu/qimeng/simulator/baremetal/new_dhrystone/dhrystone_main.c:306
  Bool_Glob = Bool_Loc | Bool_Glob;
80000910:	22f72423          	sw	a5,552(a4)
/home/tututu/qimeng/simulator/baremetal/new_dhrystone/dhrystone_main.c:307
  Ch_2_Glob = 'B';
80000914:	22c68223          	sb	a2,548(a3) # 80004224 <Ch_2_Glob>
/home/tututu/qimeng/simulator/baremetal/new_dhrystone/dhrystone_main.c:308
} /* Proc_4 */
80000918:	00008067          	jalr	zero,0(ra)

8000091c <Proc_5>:
Proc_5():
/home/tututu/qimeng/simulator/baremetal/new_dhrystone/dhrystone_main.c:314

Proc_5() /* without parameters */
/*******/
/* executed once */
{
  Ch_1_Glob = 'A';
8000091c:	80004737          	lui	a4,0x80004
80000920:	04100693          	addi	a3,zero,65
/home/tututu/qimeng/simulator/baremetal/new_dhrystone/dhrystone_main.c:315
  Bool_Glob = false;
80000924:	800047b7          	lui	a5,0x80004
/home/tututu/qimeng/simulator/baremetal/new_dhrystone/dhrystone_main.c:314
  Ch_1_Glob = 'A';
80000928:	22d702a3          	sb	a3,549(a4) # 80004225 <Ch_1_Glob>
/home/tututu/qimeng/simulator/baremetal/new_dhrystone/dhrystone_main.c:315
  Bool_Glob = false;
8000092c:	2207a423          	sw	zero,552(a5) # 80004228 <Bool_Glob>
/home/tututu/qimeng/simulator/baremetal/new_dhrystone/dhrystone_main.c:316
} /* Proc_5 */
80000930:	00008067          	jalr	zero,0(ra)

80000934 <Proc_7>:
Proc_7():
/home/tututu/qimeng/simulator/baremetal/new_dhrystone/dhrystone.c:68
One_Fifty Int_2_Par_Val;
One_Fifty *Int_Par_Ref;
{
  One_Fifty Int_Loc;

  Int_Loc = Int_1_Par_Val + 2;
80000934:	00250513          	addi	a0,a0,2
/home/tututu/qimeng/simulator/baremetal/new_dhrystone/dhrystone.c:69
  *Int_Par_Ref = Int_2_Par_Val + Int_Loc;
80000938:	00b50533          	add	a0,a0,a1
8000093c:	00a62023          	sw	a0,0(a2)
/home/tututu/qimeng/simulator/baremetal/new_dhrystone/dhrystone.c:70
} /* Proc_7 */
80000940:	00008067          	jalr	zero,0(ra)

80000944 <Proc_8>:
Proc_8():
/home/tututu/qimeng/simulator/baremetal/new_dhrystone/dhrystone.c:85
int Int_2_Par_Val;
{
  REG One_Fifty Int_Index;
  REG One_Fifty Int_Loc;

  Int_Loc = Int_1_Par_Val + 5;
80000944:	00560713          	addi	a4,a2,5
/home/tututu/qimeng/simulator/baremetal/new_dhrystone/dhrystone.c:90
  Arr_1_Par_Ref[Int_Loc] = Int_2_Par_Val;
  Arr_1_Par_Ref[Int_Loc + 1] = Arr_1_Par_Ref[Int_Loc];
  Arr_1_Par_Ref[Int_Loc + 30] = Int_Loc;
  for (Int_Index = Int_Loc; Int_Index <= Int_Loc + 1; ++Int_Index)
    Arr_2_Par_Ref[Int_Loc][Int_Index] = Int_Loc;
80000948:	0c800813          	addi	a6,zero,200
8000094c:	03070833          	mul	a6,a4,a6
80000950:	00261613          	slli	a2,a2,0x2
/home/tututu/qimeng/simulator/baremetal/new_dhrystone/dhrystone.c:86
  Arr_1_Par_Ref[Int_Loc] = Int_2_Par_Val;
80000954:	00271793          	slli	a5,a4,0x2
80000958:	00f50533          	add	a0,a0,a5
8000095c:	00d52023          	sw	a3,0(a0)
/home/tututu/qimeng/simulator/baremetal/new_dhrystone/dhrystone.c:88
  Arr_1_Par_Ref[Int_Loc + 30] = Int_Loc;
80000960:	06e52c23          	sw	a4,120(a0)
/home/tututu/qimeng/simulator/baremetal/new_dhrystone/dhrystone.c:87
  Arr_1_Par_Ref[Int_Loc + 1] = Arr_1_Par_Ref[Int_Loc];
80000964:	00d52223          	sw	a3,4(a0)
/home/tututu/qimeng/simulator/baremetal/new_dhrystone/dhrystone.c:90
    Arr_2_Par_Ref[Int_Loc][Int_Index] = Int_Loc;
80000968:	00c807b3          	add	a5,a6,a2
8000096c:	00f587b3          	add	a5,a1,a5
/home/tututu/qimeng/simulator/baremetal/new_dhrystone/dhrystone.c:91
  Arr_2_Par_Ref[Int_Loc][Int_Loc - 1] += 1;
80000970:	0107a683          	lw	a3,16(a5)
/home/tututu/qimeng/simulator/baremetal/new_dhrystone/dhrystone.c:90
    Arr_2_Par_Ref[Int_Loc][Int_Index] = Int_Loc;
80000974:	00e7aa23          	sw	a4,20(a5)
80000978:	00e7ac23          	sw	a4,24(a5)
/home/tututu/qimeng/simulator/baremetal/new_dhrystone/dhrystone.c:91
  Arr_2_Par_Ref[Int_Loc][Int_Loc - 1] += 1;
8000097c:	00168713          	addi	a4,a3,1
80000980:	00e7a823          	sw	a4,16(a5)
/home/tututu/qimeng/simulator/baremetal/new_dhrystone/dhrystone.c:92
  Arr_2_Par_Ref[Int_Loc + 20][Int_Loc] = Arr_1_Par_Ref[Int_Loc];
80000984:	00052683          	lw	a3,0(a0)
80000988:	010585b3          	add	a1,a1,a6
8000098c:	00c585b3          	add	a1,a1,a2
80000990:	7ff58593          	addi	a1,a1,2047
/home/tututu/qimeng/simulator/baremetal/new_dhrystone/dhrystone.c:93
  Int_Glob = 5;
80000994:	800047b7          	lui	a5,0x80004
80000998:	00500713          	addi	a4,zero,5
/home/tututu/qimeng/simulator/baremetal/new_dhrystone/dhrystone.c:92
  Arr_2_Par_Ref[Int_Loc + 20][Int_Loc] = Arr_1_Par_Ref[Int_Loc];
8000099c:	7ad5aaa3          	sw	a3,1973(a1)
/home/tututu/qimeng/simulator/baremetal/new_dhrystone/dhrystone.c:93
  Int_Glob = 5;
800009a0:	22e7a623          	sw	a4,556(a5) # 8000422c <Int_Glob>
/home/tututu/qimeng/simulator/baremetal/new_dhrystone/dhrystone.c:94
} /* Proc_8 */
800009a4:	00008067          	jalr	zero,0(ra)

800009a8 <Func_1>:
Func_1():
/home/tututu/qimeng/simulator/baremetal/new_dhrystone/dhrystone.c:105
/* second call:     Ch_1_Par_Val == 'A', Ch_2_Par_Val == 'C'    */
/* third call:      Ch_1_Par_Val == 'B', Ch_2_Par_Val == 'C'    */

Capital_Letter Ch_1_Par_Val;
Capital_Letter Ch_2_Par_Val;
{
800009a8:	0ff57513          	andi	a0,a0,255
800009ac:	0ff5f593          	andi	a1,a1,255
/home/tututu/qimeng/simulator/baremetal/new_dhrystone/dhrystone.c:111
  Capital_Letter Ch_1_Loc;
  Capital_Letter Ch_2_Loc;

  Ch_1_Loc = Ch_1_Par_Val;
  Ch_2_Loc = Ch_1_Loc;
  if (Ch_2_Loc != Ch_2_Par_Val)
800009b0:	00b50663          	beq	a0,a1,800009bc <Func_1+0x14>
/home/tututu/qimeng/simulator/baremetal/new_dhrystone/dhrystone.c:113
    /* then, executed */
    return (Ident_1);
800009b4:	00000513          	addi	a0,zero,0
/home/tututu/qimeng/simulator/baremetal/new_dhrystone/dhrystone.c:119
  else /* not executed */
  {
    Ch_1_Glob = Ch_1_Loc;
    return (Ident_2);
  }
} /* Func_1 */
800009b8:	00008067          	jalr	zero,0(ra)
/home/tututu/qimeng/simulator/baremetal/new_dhrystone/dhrystone.c:116
    Ch_1_Glob = Ch_1_Loc;
800009bc:	800047b7          	lui	a5,0x80004
800009c0:	22a782a3          	sb	a0,549(a5) # 80004225 <Ch_1_Glob>
/home/tututu/qimeng/simulator/baremetal/new_dhrystone/dhrystone.c:117
    return (Ident_2);
800009c4:	00100513          	addi	a0,zero,1
800009c8:	00008067          	jalr	zero,0(ra)

800009cc <Func_2>:
Func_2():
/home/tututu/qimeng/simulator/baremetal/new_dhrystone/dhrystone.c:129
/* Str_1_Par_Ref == "DHRYSTONE PROGRAM, 1'ST STRING" */
/* Str_2_Par_Ref == "DHRYSTONE PROGRAM, 2'ND STRING" */

Str_30 Str_1_Par_Ref;
Str_30 Str_2_Par_Ref;
{
800009cc:	ff010113          	addi	sp,sp,-16
800009d0:	00812423          	sw	s0,8(sp)
800009d4:	00912223          	sw	s1,4(sp)
800009d8:	01212023          	sw	s2,0(sp)
800009dc:	00112623          	sw	ra,12(sp)
800009e0:	00050413          	addi	s0,a0,0
800009e4:	00058493          	addi	s1,a1,0
/home/tututu/qimeng/simulator/baremetal/new_dhrystone/dhrystone.c:134
  REG One_Thirty Int_Loc;
  Capital_Letter Ch_Loc;

  Int_Loc = 2;
  while (Int_Loc <= 2) /* loop body executed once */
800009e8:	00100913          	addi	s2,zero,1
/home/tututu/qimeng/simulator/baremetal/new_dhrystone/dhrystone.c:135
    if (Func_1(Str_1_Par_Ref[Int_Loc], Str_2_Par_Ref[Int_Loc + 1]) == Ident_1)
800009ec:	0034c583          	lbu	a1,3(s1)
800009f0:	00244503          	lbu	a0,2(s0)
800009f4:	fb5ff0ef          	jal	ra,800009a8 <Func_1>
/home/tututu/qimeng/simulator/baremetal/new_dhrystone/dhrystone.c:134
  while (Int_Loc <= 2) /* loop body executed once */
800009f8:	ff250ae3          	beq	a0,s2,800009ec <Func_2+0x20>
/home/tututu/qimeng/simulator/baremetal/new_dhrystone/dhrystone.c:149
  if (Ch_Loc == 'R')
    /* then, not executed */
    return (true);
  else /* executed */
  {
    if (strcmp(Str_1_Par_Ref, Str_2_Par_Ref) > 0)
800009fc:	00048593          	addi	a1,s1,0
80000a00:	00040513          	addi	a0,s0,0
80000a04:	0dd000ef          	jal	ra,800012e0 <strcmp>
/home/tututu/qimeng/simulator/baremetal/new_dhrystone/dhrystone.c:156
    {
      Int_Loc += 7;
      Int_Glob = Int_Loc;
      return (true);
    } else /* executed */
      return (false);
80000a08:	00000793          	addi	a5,zero,0
/home/tututu/qimeng/simulator/baremetal/new_dhrystone/dhrystone.c:149 (discriminator 1)
    if (strcmp(Str_1_Par_Ref, Str_2_Par_Ref) > 0)
80000a0c:	00a05a63          	bge	zero,a0,80000a20 <Func_2+0x54>
/home/tututu/qimeng/simulator/baremetal/new_dhrystone/dhrystone.c:153
      Int_Glob = Int_Loc;
80000a10:	800047b7          	lui	a5,0x80004
80000a14:	00a00713          	addi	a4,zero,10
80000a18:	22e7a623          	sw	a4,556(a5) # 8000422c <Int_Glob>
/home/tututu/qimeng/simulator/baremetal/new_dhrystone/dhrystone.c:154
      return (true);
80000a1c:	00100793          	addi	a5,zero,1
/home/tututu/qimeng/simulator/baremetal/new_dhrystone/dhrystone.c:158
  } /* if Ch_Loc */
} /* Func_2 */
80000a20:	00c12083          	lw	ra,12(sp)
80000a24:	00812403          	lw	s0,8(sp)
80000a28:	00412483          	lw	s1,4(sp)
80000a2c:	00012903          	lw	s2,0(sp)
80000a30:	00078513          	addi	a0,a5,0
80000a34:	01010113          	addi	sp,sp,16
80000a38:	00008067          	jalr	zero,0(ra)

80000a3c <Func_3>:
Func_3():
/home/tututu/qimeng/simulator/baremetal/new_dhrystone/dhrystone.c:169
Enumeration Enum_Par_Val;
{
  Enumeration Enum_Loc;

  Enum_Loc = Enum_Par_Val;
  if (Enum_Loc == Ident_3)
80000a3c:	ffe50513          	addi	a0,a0,-2
/home/tututu/qimeng/simulator/baremetal/new_dhrystone/dhrystone.c:174
    /* then, executed */
    return (true);
  else /* not executed */
    return (false);
} /* Func_3 */
80000a40:	00153513          	sltiu	a0,a0,1
80000a44:	00008067          	jalr	zero,0(ra)

80000a48 <Proc_6>:
Proc_6():
/home/tututu/qimeng/simulator/baremetal/new_dhrystone/dhrystone.c:26
{
80000a48:	fe010113          	addi	sp,sp,-32
80000a4c:	00812c23          	sw	s0,24(sp)
80000a50:	00b12623          	sw	a1,12(sp)
80000a54:	00112e23          	sw	ra,28(sp)
80000a58:	00050413          	addi	s0,a0,0
/home/tututu/qimeng/simulator/baremetal/new_dhrystone/dhrystone.c:28
  if (!Func_3(Enum_Val_Par))
80000a5c:	fe1ff0ef          	jal	ra,80000a3c <Func_3>
/home/tututu/qimeng/simulator/baremetal/new_dhrystone/dhrystone.c:28 (discriminator 1)
80000a60:	00c12583          	lw	a1,12(sp)
/home/tututu/qimeng/simulator/baremetal/new_dhrystone/dhrystone.c:30
    *Enum_Ref_Par = Ident_4;
80000a64:	00300793          	addi	a5,zero,3
/home/tututu/qimeng/simulator/baremetal/new_dhrystone/dhrystone.c:28 (discriminator 1)
  if (!Func_3(Enum_Val_Par))
80000a68:	00050463          	beq	a0,zero,80000a70 <Proc_6+0x28>
80000a6c:	00040793          	addi	a5,s0,0
/home/tututu/qimeng/simulator/baremetal/new_dhrystone/dhrystone.c:28
80000a70:	00f5a023          	sw	a5,0(a1)
/home/tututu/qimeng/simulator/baremetal/new_dhrystone/dhrystone.c:31
  switch (Enum_Val_Par) {
80000a74:	00200793          	addi	a5,zero,2
80000a78:	04f40663          	beq	s0,a5,80000ac4 <Proc_6+0x7c>
80000a7c:	0287e663          	bltu	a5,s0,80000aa8 <Proc_6+0x60>
80000a80:	00040a63          	beq	s0,zero,80000a94 <Proc_6+0x4c>
/home/tututu/qimeng/simulator/baremetal/new_dhrystone/dhrystone.c:36
    if (Int_Glob > 100)
80000a84:	800047b7          	lui	a5,0x80004
80000a88:	22c7a703          	lw	a4,556(a5) # 8000422c <Int_Glob>
80000a8c:	06400793          	addi	a5,zero,100
80000a90:	04e7d663          	bge	a5,a4,80000adc <Proc_6+0x94>
/home/tututu/qimeng/simulator/baremetal/new_dhrystone/dhrystone.c:51
} /* Proc_6 */
80000a94:	01c12083          	lw	ra,28(sp)
80000a98:	01812403          	lw	s0,24(sp)
/home/tututu/qimeng/simulator/baremetal/new_dhrystone/dhrystone.c:38
      *Enum_Ref_Par = Ident_1;
80000a9c:	0005a023          	sw	zero,0(a1)
/home/tututu/qimeng/simulator/baremetal/new_dhrystone/dhrystone.c:51
} /* Proc_6 */
80000aa0:	02010113          	addi	sp,sp,32
80000aa4:	00008067          	jalr	zero,0(ra)
/home/tututu/qimeng/simulator/baremetal/new_dhrystone/dhrystone.c:31
  switch (Enum_Val_Par) {
80000aa8:	00400713          	addi	a4,zero,4
80000aac:	00e41463          	bne	s0,a4,80000ab4 <Proc_6+0x6c>
/home/tututu/qimeng/simulator/baremetal/new_dhrystone/dhrystone.c:48
    *Enum_Ref_Par = Ident_3;
80000ab0:	00f5a023          	sw	a5,0(a1)
/home/tututu/qimeng/simulator/baremetal/new_dhrystone/dhrystone.c:51
} /* Proc_6 */
80000ab4:	01c12083          	lw	ra,28(sp)
80000ab8:	01812403          	lw	s0,24(sp)
80000abc:	02010113          	addi	sp,sp,32
80000ac0:	00008067          	jalr	zero,0(ra)
80000ac4:	01c12083          	lw	ra,28(sp)
80000ac8:	01812403          	lw	s0,24(sp)
/home/tututu/qimeng/simulator/baremetal/new_dhrystone/dhrystone.c:43
    *Enum_Ref_Par = Ident_2;
80000acc:	00100793          	addi	a5,zero,1
80000ad0:	00f5a023          	sw	a5,0(a1)
/home/tututu/qimeng/simulator/baremetal/new_dhrystone/dhrystone.c:51
} /* Proc_6 */
80000ad4:	02010113          	addi	sp,sp,32
80000ad8:	00008067          	jalr	zero,0(ra)
80000adc:	01c12083          	lw	ra,28(sp)
80000ae0:	01812403          	lw	s0,24(sp)
/home/tututu/qimeng/simulator/baremetal/new_dhrystone/dhrystone.c:40
      *Enum_Ref_Par = Ident_4;
80000ae4:	00300793          	addi	a5,zero,3
80000ae8:	00f5a023          	sw	a5,0(a1)
/home/tututu/qimeng/simulator/baremetal/new_dhrystone/dhrystone.c:51
} /* Proc_6 */
80000aec:	02010113          	addi	sp,sp,32
80000af0:	00008067          	jalr	zero,0(ra)

80000af4 <uart_putc>:
set_reg():
/home/tututu/qimeng/simulator/baremetal/new_dhrystone/../lib/uart.c:46

static void set_reg(u32 num, u32 val)
{
    u32 offset = num << uart8250_reg_shift;

    writeb(val, uart8250_base + offset);
80000af4:	0140000f          	fence	w,o
80000af8:	800047b7          	lui	a5,0x80004
__raw_writeb():
/home/tututu/qimeng/simulator/baremetal/new_dhrystone/../lib/../include/uart.h:49
#define u32 uint32_t
#define u16 uint16_t
#define u8 uint16_t

static inline void __raw_writeb(u8 val, volatile void *addr) {
  asm volatile("sb %0, 0(%1)" : : "r"(val), "r"(addr));
80000afc:	23c7a783          	lw	a5,572(a5) # 8000423c <uart8250_base>
80000b00:	00a78023          	sb	a0,0(a5)
uart_putc():
/home/tututu/qimeng/simulator/baremetal/new_dhrystone/../lib/uart.c:55
{
    // while ((get_reg(UART_LSR_OFFSET) & UART_LSR_THRE) == 0)
    // 	;

    set_reg(UART_THR_OFFSET, ch);
}
80000b04:	00008067          	jalr	zero,0(ra)

80000b08 <uart_getc>:
get_reg():
/home/tututu/qimeng/simulator/baremetal/new_dhrystone/../lib/uart.c:37
    u32 offset = num << uart8250_reg_shift;
80000b08:	800047b7          	lui	a5,0x80004
80000b0c:	2387a603          	lw	a2,568(a5) # 80004238 <uart8250_reg_shift>
/home/tututu/qimeng/simulator/baremetal/new_dhrystone/../lib/uart.c:39
    return readb(uart8250_base + offset);
80000b10:	800046b7          	lui	a3,0x80004
80000b14:	23c6a783          	lw	a5,572(a3) # 8000423c <uart8250_base>
/home/tututu/qimeng/simulator/baremetal/new_dhrystone/../lib/uart.c:37
    u32 offset = num << uart8250_reg_shift;
80000b18:	00500713          	addi	a4,zero,5
80000b1c:	00c71733          	sll	a4,a4,a2
/home/tututu/qimeng/simulator/baremetal/new_dhrystone/../lib/uart.c:39
    return readb(uart8250_base + offset);
80000b20:	00e787b3          	add	a5,a5,a4
__raw_readb():
/home/tututu/qimeng/simulator/baremetal/new_dhrystone/../lib/../include/uart.h:55
}

static inline u8 __raw_readb(const volatile void *addr) {
  u8 val;

  asm volatile("lb %0, 0(%1)" : "=r"(val) : "r"(addr));
80000b24:	00078783          	lb	a5,0(a5)
80000b28:	01079793          	slli	a5,a5,0x10
80000b2c:	0107d793          	srli	a5,a5,0x10
get_reg():
/home/tututu/qimeng/simulator/baremetal/new_dhrystone/../lib/uart.c:39 (discriminator 1)
80000b30:	0820000f          	fence	i,r
uart_getc():
/home/tututu/qimeng/simulator/baremetal/new_dhrystone/../lib/uart.c:59

int uart_getc(void)
{
    if (get_reg(UART_LSR_OFFSET) & UART_LSR_DR)
80000b34:	0017f793          	andi	a5,a5,1
80000b38:	00078e63          	beq	a5,zero,80000b54 <uart_getc+0x4c>
__raw_readb():
/home/tututu/qimeng/simulator/baremetal/new_dhrystone/../lib/../include/uart.h:55
80000b3c:	23c6a503          	lw	a0,572(a3)
80000b40:	00050503          	lb	a0,0(a0)
get_reg():
/home/tututu/qimeng/simulator/baremetal/new_dhrystone/../lib/uart.c:39 (discriminator 1)
    return readb(uart8250_base + offset);
80000b44:	0820000f          	fence	i,r
uart_getc():
/home/tututu/qimeng/simulator/baremetal/new_dhrystone/../lib/uart.c:60
        return get_reg(UART_RBR_OFFSET);
80000b48:	01051513          	slli	a0,a0,0x10
80000b4c:	01055513          	srli	a0,a0,0x10
80000b50:	00008067          	jalr	zero,0(ra)
/home/tututu/qimeng/simulator/baremetal/new_dhrystone/../lib/uart.c:61
    return -1;
80000b54:	fff00513          	addi	a0,zero,-1
/home/tututu/qimeng/simulator/baremetal/new_dhrystone/../lib/uart.c:62
}
80000b58:	00008067          	jalr	zero,0(ra)

80000b5c <uart_init>:
uart_init():
/home/tututu/qimeng/simulator/baremetal/new_dhrystone/../lib/uart.c:68

int uart_init()
{
    u16 bdiv;

    uart8250_base = (volatile void *)0x10000000;
80000b5c:	800047b7          	lui	a5,0x80004
80000b60:	10000737          	lui	a4,0x10000
80000b64:	22e7ae23          	sw	a4,572(a5) # 8000423c <uart8250_base>
/home/tututu/qimeng/simulator/baremetal/new_dhrystone/../lib/uart.c:69
    uart8250_reg_shift = 0;
80000b68:	80004737          	lui	a4,0x80004
80000b6c:	22072c23          	sw	zero,568(a4) # 80004238 <uart8250_reg_shift>
set_reg():
/home/tututu/qimeng/simulator/baremetal/new_dhrystone/../lib/uart.c:46
    writeb(val, uart8250_base + offset);
80000b70:	0140000f          	fence	w,o
80000b74:	23c7a603          	lw	a2,572(a5)
__raw_writeb():
/home/tututu/qimeng/simulator/baremetal/new_dhrystone/../lib/../include/uart.h:49
  asm volatile("sb %0, 0(%1)" : : "r"(val), "r"(addr));
80000b78:	00000693          	addi	a3,zero,0
set_reg():
/home/tututu/qimeng/simulator/baremetal/new_dhrystone/../lib/uart.c:46
80000b7c:	00160613          	addi	a2,a2,1
__raw_writeb():
/home/tututu/qimeng/simulator/baremetal/new_dhrystone/../lib/../include/uart.h:49
80000b80:	00d60023          	sb	a3,0(a2)
set_reg():
/home/tututu/qimeng/simulator/baremetal/new_dhrystone/../lib/uart.c:44
    u32 offset = num << uart8250_reg_shift;
80000b84:	23872503          	lw	a0,568(a4)
80000b88:	00300613          	addi	a2,zero,3
80000b8c:	00a61533          	sll	a0,a2,a0
/home/tututu/qimeng/simulator/baremetal/new_dhrystone/../lib/uart.c:46
    writeb(val, uart8250_base + offset);
80000b90:	0140000f          	fence	w,o
80000b94:	23c7a583          	lw	a1,572(a5)
__raw_writeb():
/home/tututu/qimeng/simulator/baremetal/new_dhrystone/../lib/../include/uart.h:49
80000b98:	08000813          	addi	a6,zero,128
set_reg():
/home/tututu/qimeng/simulator/baremetal/new_dhrystone/../lib/uart.c:46
80000b9c:	00a585b3          	add	a1,a1,a0
__raw_writeb():
/home/tututu/qimeng/simulator/baremetal/new_dhrystone/../lib/../include/uart.h:49
80000ba0:	01058023          	sb	a6,0(a1)
set_reg():
/home/tututu/qimeng/simulator/baremetal/new_dhrystone/../lib/uart.c:44
    u32 offset = num << uart8250_reg_shift;
80000ba4:	23872503          	lw	a0,568(a4)
80000ba8:	00100813          	addi	a6,zero,1
80000bac:	00a81533          	sll	a0,a6,a0
/home/tututu/qimeng/simulator/baremetal/new_dhrystone/../lib/uart.c:46
    writeb(val, uart8250_base + offset);
80000bb0:	0140000f          	fence	w,o
80000bb4:	23c7a583          	lw	a1,572(a5)
80000bb8:	00a585b3          	add	a1,a1,a0
__raw_writeb():
/home/tututu/qimeng/simulator/baremetal/new_dhrystone/../lib/../include/uart.h:49
80000bbc:	00d58023          	sb	a3,0(a1)
set_reg():
/home/tututu/qimeng/simulator/baremetal/new_dhrystone/../lib/uart.c:44
    u32 offset = num << uart8250_reg_shift;
80000bc0:	23872503          	lw	a0,568(a4)
80000bc4:	00a61533          	sll	a0,a2,a0
/home/tututu/qimeng/simulator/baremetal/new_dhrystone/../lib/uart.c:46
    writeb(val, uart8250_base + offset);
80000bc8:	0140000f          	fence	w,o
80000bcc:	23c7a583          	lw	a1,572(a5)
80000bd0:	00a585b3          	add	a1,a1,a0
__raw_writeb():
/home/tututu/qimeng/simulator/baremetal/new_dhrystone/../lib/../include/uart.h:49
80000bd4:	00c58023          	sb	a2,0(a1)
set_reg():
/home/tututu/qimeng/simulator/baremetal/new_dhrystone/../lib/uart.c:44
    u32 offset = num << uart8250_reg_shift;
80000bd8:	23872603          	lw	a2,568(a4)
80000bdc:	00200593          	addi	a1,zero,2
80000be0:	00c595b3          	sll	a1,a1,a2
/home/tututu/qimeng/simulator/baremetal/new_dhrystone/../lib/uart.c:46
    writeb(val, uart8250_base + offset);
80000be4:	0140000f          	fence	w,o
80000be8:	23c7a603          	lw	a2,572(a5)
80000bec:	00b60633          	add	a2,a2,a1
__raw_writeb():
/home/tututu/qimeng/simulator/baremetal/new_dhrystone/../lib/../include/uart.h:49
80000bf0:	01060023          	sb	a6,0(a2)
set_reg():
/home/tututu/qimeng/simulator/baremetal/new_dhrystone/../lib/uart.c:44
    u32 offset = num << uart8250_reg_shift;
80000bf4:	23872603          	lw	a2,568(a4)
80000bf8:	00400593          	addi	a1,zero,4
80000bfc:	00c595b3          	sll	a1,a1,a2
/home/tututu/qimeng/simulator/baremetal/new_dhrystone/../lib/uart.c:46
    writeb(val, uart8250_base + offset);
80000c00:	0140000f          	fence	w,o
80000c04:	23c7a603          	lw	a2,572(a5)
80000c08:	00b60633          	add	a2,a2,a1
__raw_writeb():
/home/tututu/qimeng/simulator/baremetal/new_dhrystone/../lib/../include/uart.h:49
80000c0c:	00d60023          	sb	a3,0(a2)
set_reg():
/home/tututu/qimeng/simulator/baremetal/new_dhrystone/../lib/uart.c:44
    u32 offset = num << uart8250_reg_shift;
80000c10:	23872603          	lw	a2,568(a4)
80000c14:	00700713          	addi	a4,zero,7
80000c18:	00c71733          	sll	a4,a4,a2
/home/tututu/qimeng/simulator/baremetal/new_dhrystone/../lib/uart.c:46
    writeb(val, uart8250_base + offset);
80000c1c:	0140000f          	fence	w,o
80000c20:	23c7a783          	lw	a5,572(a5)
80000c24:	00e787b3          	add	a5,a5,a4
__raw_writeb():
/home/tututu/qimeng/simulator/baremetal/new_dhrystone/../lib/../include/uart.h:49
80000c28:	00d78023          	sb	a3,0(a5)
uart_init():
/home/tututu/qimeng/simulator/baremetal/new_dhrystone/../lib/uart.c:96
    // /* Read receive buffer */
    // get_reg(UART_RBR_OFFSET);
    /* Set scratchpad */
    set_reg(UART_SCR_OFFSET, 0x00);

    xdev_out(uart_putc);
80000c2c:	800017b7          	lui	a5,0x80001
80000c30:	af478793          	addi	a5,a5,-1292 # 80000af4 <uart_putc>
80000c34:	80004737          	lui	a4,0x80004
80000c38:	24f72223          	sw	a5,580(a4) # 80004244 <xfunc_out>
/home/tututu/qimeng/simulator/baremetal/new_dhrystone/../lib/uart.c:98
    return 0;
80000c3c:	00000513          	addi	a0,zero,0
80000c40:	00008067          	jalr	zero,0(ra)

80000c44 <xputc>:
xputc():
/home/tututu/qimeng/simulator/baremetal/new_dhrystone/../lib/xprintf.c:30

void xputc (char c)
{
	if (_CR_CRLF && c == '\n') xputc('\r');		/* CR -> CRLF */

	if (outptr) {
80000c44:	80004737          	lui	a4,0x80004
80000c48:	24072783          	lw	a5,576(a4) # 80004240 <outptr>
80000c4c:	00078a63          	beq	a5,zero,80000c60 <xputc+0x1c>
/home/tututu/qimeng/simulator/baremetal/new_dhrystone/../lib/xprintf.c:31
		*outptr++ = (unsigned char)c;
80000c50:	00178693          	addi	a3,a5,1
80000c54:	00a78023          	sb	a0,0(a5)
80000c58:	24d72023          	sw	a3,576(a4)
/home/tututu/qimeng/simulator/baremetal/new_dhrystone/../lib/xprintf.c:32
		return;
80000c5c:	00008067          	jalr	zero,0(ra)
/home/tututu/qimeng/simulator/baremetal/new_dhrystone/../lib/xprintf.c:35
	}

	if (xfunc_out) xfunc_out((unsigned char)c);
80000c60:	800047b7          	lui	a5,0x80004
80000c64:	2447a783          	lw	a5,580(a5) # 80004244 <xfunc_out>
80000c68:	00078463          	beq	a5,zero,80000c70 <xputc+0x2c>
/home/tututu/qimeng/simulator/baremetal/new_dhrystone/../lib/xprintf.c:35 (discriminator 1)
80000c6c:	00078067          	jalr	zero,0(a5)
/home/tututu/qimeng/simulator/baremetal/new_dhrystone/../lib/xprintf.c:36
}
80000c70:	00008067          	jalr	zero,0(ra)

80000c74 <xputs>:
xputs():
/home/tututu/qimeng/simulator/baremetal/new_dhrystone/../lib/xprintf.c:46
/*----------------------------------------------*/

void xputs (					/* Put a string to the default device */
	const char* str				/* Pointer to the string */
)
{
80000c74:	ff010113          	addi	sp,sp,-16
80000c78:	00812423          	sw	s0,8(sp)
80000c7c:	00112623          	sw	ra,12(sp)
80000c80:	00050413          	addi	s0,a0,0
/home/tututu/qimeng/simulator/baremetal/new_dhrystone/../lib/xprintf.c:47
	while (*str)
80000c84:	00054503          	lbu	a0,0(a0)
80000c88:	04050a63          	beq	a0,zero,80000cdc <xputs+0x68>
80000c8c:	00912223          	sw	s1,4(sp)
80000c90:	01212023          	sw	s2,0(sp)
80000c94:	800044b7          	lui	s1,0x80004
xputc():
/home/tututu/qimeng/simulator/baremetal/new_dhrystone/../lib/xprintf.c:35
	if (xfunc_out) xfunc_out((unsigned char)c);
80000c98:	80004937          	lui	s2,0x80004
80000c9c:	0140006f          	jal	zero,80000cb0 <xputs+0x3c>
/home/tututu/qimeng/simulator/baremetal/new_dhrystone/../lib/xprintf.c:31
		*outptr++ = (unsigned char)c;
80000ca0:	24e4a023          	sw	a4,576(s1) # 80004240 <outptr>
80000ca4:	00a78023          	sb	a0,0(a5)
xputs():
/home/tututu/qimeng/simulator/baremetal/new_dhrystone/../lib/xprintf.c:47
	while (*str)
80000ca8:	00044503          	lbu	a0,0(s0)
80000cac:	02050463          	beq	a0,zero,80000cd4 <xputs+0x60>
xputc():
/home/tututu/qimeng/simulator/baremetal/new_dhrystone/../lib/xprintf.c:30
	if (outptr) {
80000cb0:	2404a783          	lw	a5,576(s1)
xputs():
/home/tututu/qimeng/simulator/baremetal/new_dhrystone/../lib/xprintf.c:48
		xputc(*str++);
80000cb4:	00140413          	addi	s0,s0,1
xputc():
/home/tututu/qimeng/simulator/baremetal/new_dhrystone/../lib/xprintf.c:31
		*outptr++ = (unsigned char)c;
80000cb8:	00178713          	addi	a4,a5,1
/home/tututu/qimeng/simulator/baremetal/new_dhrystone/../lib/xprintf.c:30
	if (outptr) {
80000cbc:	fe0792e3          	bne	a5,zero,80000ca0 <xputs+0x2c>
/home/tututu/qimeng/simulator/baremetal/new_dhrystone/../lib/xprintf.c:35
	if (xfunc_out) xfunc_out((unsigned char)c);
80000cc0:	24492783          	lw	a5,580(s2) # 80004244 <xfunc_out>
80000cc4:	fe0782e3          	beq	a5,zero,80000ca8 <xputs+0x34>
/home/tututu/qimeng/simulator/baremetal/new_dhrystone/../lib/xprintf.c:35 (discriminator 1)
80000cc8:	000780e7          	jalr	ra,0(a5)
xputs():
/home/tututu/qimeng/simulator/baremetal/new_dhrystone/../lib/xprintf.c:47
	while (*str)
80000ccc:	00044503          	lbu	a0,0(s0)
80000cd0:	fe0510e3          	bne	a0,zero,80000cb0 <xputs+0x3c>
80000cd4:	00412483          	lw	s1,4(sp)
80000cd8:	00012903          	lw	s2,0(sp)
/home/tututu/qimeng/simulator/baremetal/new_dhrystone/../lib/xprintf.c:49
}
80000cdc:	00c12083          	lw	ra,12(sp)
80000ce0:	00812403          	lw	s0,8(sp)
80000ce4:	01010113          	addi	sp,sp,16
80000ce8:	00008067          	jalr	zero,0(ra)

80000cec <xprintf>:
xprintf():
/home/tututu/qimeng/simulator/baremetal/new_dhrystone/../lib/xprintf.c:150

void xprintf (			/* Put a formatted string to the default device */
	const char*	fmt,	/* Pointer to the format string */
	...					/* Optional arguments */
)
{
80000cec:	f7010113          	addi	sp,sp,-144
80000cf0:	06912223          	sw	s1,100(sp)
80000cf4:	05612823          	sw	s6,80(sp)
80000cf8:	06112623          	sw	ra,108(sp)
80000cfc:	06b12a23          	sw	a1,116(sp)
80000d00:	06c12c23          	sw	a2,120(sp)
80000d04:	06d12e23          	sw	a3,124(sp)
80000d08:	08e12023          	sw	a4,128(sp)
80000d0c:	08f12223          	sw	a5,132(sp)
80000d10:	09012423          	sw	a6,136(sp)
80000d14:	09112623          	sw	a7,140(sp)
80000d18:	00050b13          	addi	s6,a0,0
xvprintf():
/home/tututu/qimeng/simulator/baremetal/new_dhrystone/../lib/xprintf.c:81
		c = *fmt++;					/* Get a char */
80000d1c:	00054503          	lbu	a0,0(a0)
xprintf():
/home/tututu/qimeng/simulator/baremetal/new_dhrystone/../lib/xprintf.c:154
	va_list arp;


	va_start(arp, fmt);
80000d20:	07410493          	addi	s1,sp,116
80000d24:	00912e23          	sw	s1,28(sp)
xvprintf():
/home/tututu/qimeng/simulator/baremetal/new_dhrystone/../lib/xprintf.c:82
		if (!c) break;				/* End of format? */
80000d28:	08050e63          	beq	a0,zero,80000dc4 <xprintf+0xd8>
80000d2c:	05412c23          	sw	s4,88(sp)
/home/tututu/qimeng/simulator/baremetal/new_dhrystone/../lib/xprintf.c:103
		switch (d) {				/* Type is... */
80000d30:	80002a37          	lui	s4,0x80002
80000d34:	9d4a0793          	addi	a5,s4,-1580 # 800019d4 <strcmp+0x6f4>
80000d38:	06812423          	sw	s0,104(sp)
80000d3c:	07212023          	sw	s2,96(sp)
80000d40:	05512a23          	sw	s5,84(sp)
80000d44:	03b12e23          	sw	s11,60(sp)
80000d48:	05312e23          	sw	s3,92(sp)
80000d4c:	05712623          	sw	s7,76(sp)
80000d50:	05812423          	sw	s8,72(sp)
80000d54:	05912223          	sw	s9,68(sp)
80000d58:	05a12023          	sw	s10,64(sp)
80000d5c:	00f12623          	sw	a5,12(sp)
/home/tututu/qimeng/simulator/baremetal/new_dhrystone/../lib/xprintf.c:81
		c = *fmt++;					/* Get a char */
80000d60:	001b0a93          	addi	s5,s6,1
/home/tututu/qimeng/simulator/baremetal/new_dhrystone/../lib/xprintf.c:83
		if (c != '%') {				/* Pass through it if not a % sequense */
80000d64:	02500913          	addi	s2,zero,37
/home/tututu/qimeng/simulator/baremetal/new_dhrystone/../lib/xprintf.c:95 (discriminator 1)
		for (w = 0; c >= '0' && c <= '9'; c = *fmt++)	/* Minimum width */
80000d68:	00900d93          	addi	s11,zero,9
xputc():
/home/tututu/qimeng/simulator/baremetal/new_dhrystone/../lib/xprintf.c:35
	if (xfunc_out) xfunc_out((unsigned char)c);
80000d6c:	80004437          	lui	s0,0x80004
xvprintf():
/home/tututu/qimeng/simulator/baremetal/new_dhrystone/../lib/xprintf.c:83
		if (c != '%') {				/* Pass through it if not a % sequense */
80000d70:	07250463          	beq	a0,s2,80000dd8 <xprintf+0xec>
xputc():
/home/tututu/qimeng/simulator/baremetal/new_dhrystone/../lib/xprintf.c:30
	if (outptr) {
80000d74:	80004737          	lui	a4,0x80004
80000d78:	24072783          	lw	a5,576(a4) # 80004240 <outptr>
80000d7c:	3e078a63          	beq	a5,zero,80001170 <xprintf+0x484>
/home/tututu/qimeng/simulator/baremetal/new_dhrystone/../lib/xprintf.c:31
		*outptr++ = (unsigned char)c;
80000d80:	00178693          	addi	a3,a5,1
80000d84:	00a78023          	sb	a0,0(a5)
80000d88:	24d72023          	sw	a3,576(a4)
xvprintf():
/home/tututu/qimeng/simulator/baremetal/new_dhrystone/../lib/xprintf.c:81
		c = *fmt++;					/* Get a char */
80000d8c:	000a8b13          	addi	s6,s5,0
80000d90:	000b4503          	lbu	a0,0(s6)
80000d94:	001b0a93          	addi	s5,s6,1
/home/tututu/qimeng/simulator/baremetal/new_dhrystone/../lib/xprintf.c:82
		if (!c) break;				/* End of format? */
80000d98:	fc051ce3          	bne	a0,zero,80000d70 <xprintf+0x84>
80000d9c:	06812403          	lw	s0,104(sp)
80000da0:	06012903          	lw	s2,96(sp)
80000da4:	05c12983          	lw	s3,92(sp)
80000da8:	05812a03          	lw	s4,88(sp)
80000dac:	05412a83          	lw	s5,84(sp)
80000db0:	04c12b83          	lw	s7,76(sp)
80000db4:	04812c03          	lw	s8,72(sp)
80000db8:	04412c83          	lw	s9,68(sp)
80000dbc:	04012d03          	lw	s10,64(sp)
80000dc0:	03c12d83          	lw	s11,60(sp)
xprintf():
/home/tututu/qimeng/simulator/baremetal/new_dhrystone/../lib/xprintf.c:157
	xvprintf(fmt, arp);
	va_end(arp);
}
80000dc4:	06c12083          	lw	ra,108(sp)
80000dc8:	06412483          	lw	s1,100(sp)
80000dcc:	05012b03          	lw	s6,80(sp)
80000dd0:	09010113          	addi	sp,sp,144
80000dd4:	00008067          	jalr	zero,0(ra)
xvprintf():
/home/tututu/qimeng/simulator/baremetal/new_dhrystone/../lib/xprintf.c:87
		c = *fmt++;					/* Get first char of the sequense */
80000dd8:	001b4503          	lbu	a0,1(s6)
/home/tututu/qimeng/simulator/baremetal/new_dhrystone/../lib/xprintf.c:88
		if (c == '0') {				/* Flag: '0' padded */
80000ddc:	03000793          	addi	a5,zero,48
80000de0:	3af50063          	beq	a0,a5,80001180 <xprintf+0x494>
/home/tututu/qimeng/simulator/baremetal/new_dhrystone/../lib/xprintf.c:91
			if (c == '-') {			/* Flag: left justified */
80000de4:	02d00793          	addi	a5,zero,45
80000de8:	3af50463          	beq	a0,a5,80001190 <xprintf+0x4a4>
/home/tututu/qimeng/simulator/baremetal/new_dhrystone/../lib/xprintf.c:87
		c = *fmt++;					/* Get first char of the sequense */
80000dec:	002b0b13          	addi	s6,s6,2
/home/tututu/qimeng/simulator/baremetal/new_dhrystone/../lib/xprintf.c:86
		f = 0;
80000df0:	00000593          	addi	a1,zero,0
/home/tututu/qimeng/simulator/baremetal/new_dhrystone/../lib/xprintf.c:95 (discriminator 1)
		for (w = 0; c >= '0' && c <= '9'; c = *fmt++)	/* Minimum width */
80000df4:	fd050793          	addi	a5,a0,-48
80000df8:	0ff7f793          	andi	a5,a5,255
/home/tututu/qimeng/simulator/baremetal/new_dhrystone/../lib/xprintf.c:95
80000dfc:	00000b93          	addi	s7,zero,0
/home/tututu/qimeng/simulator/baremetal/new_dhrystone/../lib/xprintf.c:95 (discriminator 1)
80000e00:	02fde663          	bltu	s11,a5,80000e2c <xprintf+0x140>
/home/tututu/qimeng/simulator/baremetal/new_dhrystone/../lib/xprintf.c:96
			w = w * 10 + c - '0';
80000e04:	002b9793          	slli	a5,s7,0x2
80000e08:	017787b3          	add	a5,a5,s7
/home/tututu/qimeng/simulator/baremetal/new_dhrystone/../lib/xprintf.c:95 (discriminator 3)
		for (w = 0; c >= '0' && c <= '9'; c = *fmt++)	/* Minimum width */
80000e0c:	001b0b13          	addi	s6,s6,1
/home/tututu/qimeng/simulator/baremetal/new_dhrystone/../lib/xprintf.c:96
			w = w * 10 + c - '0';
80000e10:	00179793          	slli	a5,a5,0x1
80000e14:	00a787b3          	add	a5,a5,a0
/home/tututu/qimeng/simulator/baremetal/new_dhrystone/../lib/xprintf.c:95 (discriminator 3)
		for (w = 0; c >= '0' && c <= '9'; c = *fmt++)	/* Minimum width */
80000e18:	fffb4503          	lbu	a0,-1(s6)
/home/tututu/qimeng/simulator/baremetal/new_dhrystone/../lib/xprintf.c:96
			w = w * 10 + c - '0';
80000e1c:	fd078b93          	addi	s7,a5,-48
/home/tututu/qimeng/simulator/baremetal/new_dhrystone/../lib/xprintf.c:95 (discriminator 1)
		for (w = 0; c >= '0' && c <= '9'; c = *fmt++)	/* Minimum width */
80000e20:	fd050793          	addi	a5,a0,-48
80000e24:	0ff7f793          	andi	a5,a5,255
80000e28:	fcfdfee3          	bgeu	s11,a5,80000e04 <xprintf+0x118>
/home/tututu/qimeng/simulator/baremetal/new_dhrystone/../lib/xprintf.c:97
		if (c == 'l' || c == 'L') {	/* Prefix: Size is long int */
80000e2c:	0df57793          	andi	a5,a0,223
80000e30:	04c00713          	addi	a4,zero,76
80000e34:	00e79863          	bne	a5,a4,80000e44 <xprintf+0x158>
/home/tututu/qimeng/simulator/baremetal/new_dhrystone/../lib/xprintf.c:98
			f |= 4; c = *fmt++;
80000e38:	000b4503          	lbu	a0,0(s6)
80000e3c:	0045e593          	ori	a1,a1,4
80000e40:	001b0b13          	addi	s6,s6,1
/home/tututu/qimeng/simulator/baremetal/new_dhrystone/../lib/xprintf.c:100
		if (!c) break;				/* End of format? */
80000e44:	f4050ce3          	beq	a0,zero,80000d9c <xprintf+0xb0>
/home/tututu/qimeng/simulator/baremetal/new_dhrystone/../lib/xprintf.c:102
		if (d >= 'a') d -= 0x20;
80000e48:	06000793          	addi	a5,zero,96
/home/tututu/qimeng/simulator/baremetal/new_dhrystone/../lib/xprintf.c:101
		d = c;
80000e4c:	00050713          	addi	a4,a0,0
/home/tututu/qimeng/simulator/baremetal/new_dhrystone/../lib/xprintf.c:102
		if (d >= 'a') d -= 0x20;
80000e50:	00a7f663          	bgeu	a5,a0,80000e5c <xprintf+0x170>
80000e54:	fe050713          	addi	a4,a0,-32
80000e58:	0ff77713          	andi	a4,a4,255
/home/tututu/qimeng/simulator/baremetal/new_dhrystone/../lib/xprintf.c:103
		switch (d) {				/* Type is... */
80000e5c:	fbe70793          	addi	a5,a4,-66
80000e60:	0ff7f793          	andi	a5,a5,255
80000e64:	01600693          	addi	a3,zero,22
80000e68:	00f6ec63          	bltu	a3,a5,80000e80 <xprintf+0x194>
80000e6c:	00c12683          	lw	a3,12(sp)
80000e70:	00279793          	slli	a5,a5,0x2
80000e74:	00d787b3          	add	a5,a5,a3
80000e78:	0007a783          	lw	a5,0(a5)
80000e7c:	00078067          	jalr	zero,0(a5)
xputc():
/home/tututu/qimeng/simulator/baremetal/new_dhrystone/../lib/xprintf.c:30
	if (outptr) {
80000e80:	80004737          	lui	a4,0x80004
80000e84:	24072783          	lw	a5,576(a4) # 80004240 <outptr>
80000e88:	34078a63          	beq	a5,zero,800011dc <xprintf+0x4f0>
/home/tututu/qimeng/simulator/baremetal/new_dhrystone/../lib/xprintf.c:31
		*outptr++ = (unsigned char)c;
80000e8c:	00178693          	addi	a3,a5,1
80000e90:	00a78023          	sb	a0,0(a5)
80000e94:	24d72023          	sw	a3,576(a4)
/home/tututu/qimeng/simulator/baremetal/new_dhrystone/../lib/xprintf.c:32
		return;
80000e98:	ef9ff06f          	jal	zero,80000d90 <xprintf+0xa4>
xvprintf():
/home/tututu/qimeng/simulator/baremetal/new_dhrystone/../lib/xprintf.c:127
		v = (f & 4) ? va_arg(arp, long) : ((d == 'D') ? (long)va_arg(arp, int) : (long)va_arg(arp, unsigned int));
80000e9c:	0045f793          	andi	a5,a1,4
/home/tututu/qimeng/simulator/baremetal/new_dhrystone/../lib/xprintf.c:105
			p = va_arg(arp, char*);
80000ea0:	00448613          	addi	a2,s1,4
/home/tututu/qimeng/simulator/baremetal/new_dhrystone/../lib/xprintf.c:127
		v = (f & 4) ? va_arg(arp, long) : ((d == 'D') ? (long)va_arg(arp, int) : (long)va_arg(arp, unsigned int));
80000ea4:	30078863          	beq	a5,zero,800011b4 <xprintf+0x4c8>
/home/tututu/qimeng/simulator/baremetal/new_dhrystone/../lib/xprintf.c:128
		if (d == 'D' && (v & 0x80000000)) {
80000ea8:	fbc70793          	addi	a5,a4,-68
/home/tututu/qimeng/simulator/baremetal/new_dhrystone/../lib/xprintf.c:105
			p = va_arg(arp, char*);
80000eac:	0004a703          	lw	a4,0(s1)
/home/tututu/qimeng/simulator/baremetal/new_dhrystone/../lib/xprintf.c:128
		if (d == 'D' && (v & 0x80000000)) {
80000eb0:	42079063          	bne	a5,zero,800012d0 <xprintf+0x5e4>
80000eb4:	40075e63          	bge	a4,zero,800012d0 <xprintf+0x5e4>
/home/tututu/qimeng/simulator/baremetal/new_dhrystone/../lib/xprintf.c:129
			v = 0 - v;
80000eb8:	40e00733          	sub	a4,zero,a4
/home/tututu/qimeng/simulator/baremetal/new_dhrystone/../lib/xprintf.c:130
			f |= 8;
80000ebc:	0085e593          	ori	a1,a1,8
80000ec0:	00060493          	addi	s1,a2,0
80000ec4:	00800e13          	addi	t3,zero,8
80000ec8:	00a00693          	addi	a3,zero,10
/home/tututu/qimeng/simulator/baremetal/new_dhrystone/../lib/xprintf.c:132
		i = 0;
80000ecc:	f8850513          	addi	a0,a0,-120
80000ed0:	00700313          	addi	t1,zero,7
80000ed4:	00051463          	bne	a0,zero,80000edc <xprintf+0x1f0>
80000ed8:	02700313          	addi	t1,zero,39
80000edc:	00000613          	addi	a2,zero,0
80000ee0:	02010a13          	addi	s4,sp,32
80000ee4:	0080006f          	jal	zero,80000eec <xprintf+0x200>
/home/tututu/qimeng/simulator/baremetal/new_dhrystone/../lib/xprintf.c:136
			s[i++] = d + '0';
80000ee8:	000a8613          	addi	a2,s5,0
/home/tututu/qimeng/simulator/baremetal/new_dhrystone/../lib/xprintf.c:134
			d = (char)(v % r); v /= r;
80000eec:	02d777b3          	remu	a5,a4,a3
80000ef0:	00070513          	addi	a0,a4,0
80000ef4:	02d75733          	divu	a4,a4,a3
/home/tututu/qimeng/simulator/baremetal/new_dhrystone/../lib/xprintf.c:135
			if (d > 9) d += (c == 'x') ? 0x27 : 0x07;
80000ef8:	00fdf463          	bgeu	s11,a5,80000f00 <xprintf+0x214>
/home/tututu/qimeng/simulator/baremetal/new_dhrystone/../lib/xprintf.c:135 (discriminator 5)
80000efc:	00f307b3          	add	a5,t1,a5
/home/tututu/qimeng/simulator/baremetal/new_dhrystone/../lib/xprintf.c:136
			s[i++] = d + '0';
80000f00:	00160a93          	addi	s5,a2,1
80000f04:	03078793          	addi	a5,a5,48
80000f08:	015a08b3          	add	a7,s4,s5
80000f0c:	fef88fa3          	sb	a5,-1(a7)
/home/tututu/qimeng/simulator/baremetal/new_dhrystone/../lib/xprintf.c:137
		} while (v && i < sizeof(s));
80000f10:	00d56663          	bltu	a0,a3,80000f1c <xprintf+0x230>
80000f14:	ff160793          	addi	a5,a2,-15
80000f18:	fc0798e3          	bne	a5,zero,80000ee8 <xprintf+0x1fc>
/home/tututu/qimeng/simulator/baremetal/new_dhrystone/../lib/xprintf.c:138
		if (f & 8) s[i++] = '-';
80000f1c:	000e0a63          	beq	t3,zero,80000f30 <xprintf+0x244>
80000f20:	002a87b3          	add	a5,s5,sp
80000f24:	02d00713          	addi	a4,zero,45
80000f28:	00260a93          	addi	s5,a2,2
80000f2c:	02e78023          	sb	a4,32(a5)
/home/tututu/qimeng/simulator/baremetal/new_dhrystone/../lib/xprintf.c:139 (discriminator 2)
		j = i; d = (f & 1) ? '0' : ' ';
80000f30:	01f59793          	slli	a5,a1,0x1f
80000f34:	41f7d513          	srai	a0,a5,0x1f
/home/tututu/qimeng/simulator/baremetal/new_dhrystone/../lib/xprintf.c:139
80000f38:	01057c93          	andi	s9,a0,16
xputc():
/home/tututu/qimeng/simulator/baremetal/new_dhrystone/../lib/xprintf.c:30
	if (outptr) {
80000f3c:	80004c37          	lui	s8,0x80004
xvprintf():
/home/tututu/qimeng/simulator/baremetal/new_dhrystone/../lib/xprintf.c:140 (discriminator 2)
		while (!(f & 2) && j++ < w) xputc(d);
80000f40:	0025f593          	andi	a1,a1,2
/home/tututu/qimeng/simulator/baremetal/new_dhrystone/../lib/xprintf.c:140
80000f44:	01512423          	sw	s5,8(sp)
xputc():
/home/tututu/qimeng/simulator/baremetal/new_dhrystone/../lib/xprintf.c:30
	if (outptr) {
80000f48:	240c2783          	lw	a5,576(s8) # 80004240 <outptr>
xvprintf():
/home/tututu/qimeng/simulator/baremetal/new_dhrystone/../lib/xprintf.c:139 (discriminator 2)
		j = i; d = (f & 1) ? '0' : ' ';
80000f4c:	020c8c93          	addi	s9,s9,32
/home/tututu/qimeng/simulator/baremetal/new_dhrystone/../lib/xprintf.c:140
		while (!(f & 2) && j++ < w) xputc(d);
80000f50:	04059a63          	bne	a1,zero,80000fa4 <xprintf+0x2b8>
80000f54:	001b8713          	addi	a4,s7,1
80000f58:	00e12423          	sw	a4,8(sp)
80000f5c:	00070d13          	addi	s10,a4,0
/home/tututu/qimeng/simulator/baremetal/new_dhrystone/../lib/xprintf.c:140 (discriminator 3)
80000f60:	001a8993          	addi	s3,s5,1
/home/tututu/qimeng/simulator/baremetal/new_dhrystone/../lib/xprintf.c:140
80000f64:	337afc63          	bgeu	s5,s7,8000129c <xprintf+0x5b0>
xputc():
/home/tututu/qimeng/simulator/baremetal/new_dhrystone/../lib/xprintf.c:30
	if (outptr) {
80000f68:	02079263          	bne	a5,zero,80000f8c <xprintf+0x2a0>
/home/tututu/qimeng/simulator/baremetal/new_dhrystone/../lib/xprintf.c:35
	if (xfunc_out) xfunc_out((unsigned char)c);
80000f6c:	24442683          	lw	a3,580(s0) # 80004244 <xfunc_out>
80000f70:	1e068a63          	beq	a3,zero,80001164 <xprintf+0x478>
/home/tututu/qimeng/simulator/baremetal/new_dhrystone/../lib/xprintf.c:35 (discriminator 1)
80000f74:	000c8513          	addi	a0,s9,0
80000f78:	000680e7          	jalr	ra,0(a3)
/home/tututu/qimeng/simulator/baremetal/new_dhrystone/../lib/xprintf.c:30
	if (outptr) {
80000f7c:	240c2783          	lw	a5,576(s8)
xvprintf():
/home/tututu/qimeng/simulator/baremetal/new_dhrystone/../lib/xprintf.c:140 (discriminator 3)
		while (!(f & 2) && j++ < w) xputc(d);
80000f80:	03798263          	beq	s3,s7,80000fa4 <xprintf+0x2b8>
/home/tututu/qimeng/simulator/baremetal/new_dhrystone/../lib/xprintf.c:140
80000f84:	00198993          	addi	s3,s3,1
xputc():
/home/tututu/qimeng/simulator/baremetal/new_dhrystone/../lib/xprintf.c:30
	if (outptr) {
80000f88:	fe0782e3          	beq	a5,zero,80000f6c <xprintf+0x280>
/home/tututu/qimeng/simulator/baremetal/new_dhrystone/../lib/xprintf.c:31
		*outptr++ = (unsigned char)c;
80000f8c:	00078693          	addi	a3,a5,0
80000f90:	00178793          	addi	a5,a5,1
xvprintf():
/home/tututu/qimeng/simulator/baremetal/new_dhrystone/../lib/xprintf.c:140 (discriminator 3)
		while (!(f & 2) && j++ < w) xputc(d);
80000f94:	00198993          	addi	s3,s3,1
xputc():
/home/tututu/qimeng/simulator/baremetal/new_dhrystone/../lib/xprintf.c:31
		*outptr++ = (unsigned char)c;
80000f98:	01968023          	sb	s9,0(a3)
80000f9c:	24fc2023          	sw	a5,576(s8)
xvprintf():
/home/tututu/qimeng/simulator/baremetal/new_dhrystone/../lib/xprintf.c:140 (discriminator 3)
		while (!(f & 2) && j++ < w) xputc(d);
80000fa0:	ffa996e3          	bne	s3,s10,80000f8c <xprintf+0x2a0>
/home/tututu/qimeng/simulator/baremetal/new_dhrystone/../lib/xprintf.c:140
80000fa4:	015a0ab3          	add	s5,s4,s5
80000fa8:	01c0006f          	jal	zero,80000fc4 <xprintf+0x2d8>
xputc():
/home/tututu/qimeng/simulator/baremetal/new_dhrystone/../lib/xprintf.c:31
		*outptr++ = (unsigned char)c;
80000fac:	00178713          	addi	a4,a5,1
80000fb0:	00a78023          	sb	a0,0(a5)
80000fb4:	24ec2023          	sw	a4,576(s8)
xvprintf():
/home/tututu/qimeng/simulator/baremetal/new_dhrystone/../lib/xprintf.c:141 (discriminator 2)
		do xputc(s[--i]); while(i);
80000fb8:	fffa8a93          	addi	s5,s5,-1
/home/tututu/qimeng/simulator/baremetal/new_dhrystone/../lib/xprintf.c:141
80000fbc:	035a0263          	beq	s4,s5,80000fe0 <xprintf+0x2f4>
xputc():
/home/tututu/qimeng/simulator/baremetal/new_dhrystone/../lib/xprintf.c:30
	if (outptr) {
80000fc0:	240c2783          	lw	a5,576(s8)
xvprintf():
/home/tututu/qimeng/simulator/baremetal/new_dhrystone/../lib/xprintf.c:141
		do xputc(s[--i]); while(i);
80000fc4:	fffac503          	lbu	a0,-1(s5)
xputc():
/home/tututu/qimeng/simulator/baremetal/new_dhrystone/../lib/xprintf.c:30
	if (outptr) {
80000fc8:	fe0792e3          	bne	a5,zero,80000fac <xprintf+0x2c0>
/home/tututu/qimeng/simulator/baremetal/new_dhrystone/../lib/xprintf.c:35
	if (xfunc_out) xfunc_out((unsigned char)c);
80000fcc:	24442783          	lw	a5,580(s0)
80000fd0:	fe0784e3          	beq	a5,zero,80000fb8 <xprintf+0x2cc>
xvprintf():
/home/tututu/qimeng/simulator/baremetal/new_dhrystone/../lib/xprintf.c:141 (discriminator 2)
		do xputc(s[--i]); while(i);
80000fd4:	fffa8a93          	addi	s5,s5,-1
xputc():
/home/tututu/qimeng/simulator/baremetal/new_dhrystone/../lib/xprintf.c:35 (discriminator 1)
	if (xfunc_out) xfunc_out((unsigned char)c);
80000fd8:	000780e7          	jalr	ra,0(a5)
xvprintf():
/home/tututu/qimeng/simulator/baremetal/new_dhrystone/../lib/xprintf.c:141 (discriminator 2)
		do xputc(s[--i]); while(i);
80000fdc:	ff5a12e3          	bne	s4,s5,80000fc0 <xprintf+0x2d4>
/home/tututu/qimeng/simulator/baremetal/new_dhrystone/../lib/xprintf.c:142
		while (j++ < w) xputc(' ');
80000fe0:	00812783          	lw	a5,8(sp)
80000fe4:	db77f6e3          	bgeu	a5,s7,80000d90 <xprintf+0xa4>
80000fe8:	00178c93          	addi	s9,a5,1
xputc():
/home/tututu/qimeng/simulator/baremetal/new_dhrystone/../lib/xprintf.c:30
	if (outptr) {
80000fec:	240c2783          	lw	a5,576(s8)
/home/tututu/qimeng/simulator/baremetal/new_dhrystone/../lib/xprintf.c:35 (discriminator 1)
	if (xfunc_out) xfunc_out((unsigned char)c);
80000ff0:	02000a93          	addi	s5,zero,32
/home/tututu/qimeng/simulator/baremetal/new_dhrystone/../lib/xprintf.c:30
	if (outptr) {
80000ff4:	02078063          	beq	a5,zero,80001014 <xprintf+0x328>
/home/tututu/qimeng/simulator/baremetal/new_dhrystone/../lib/xprintf.c:31
		*outptr++ = (unsigned char)c;
80000ff8:	00178713          	addi	a4,a5,1
80000ffc:	01578023          	sb	s5,0(a5)
80001000:	24ec2023          	sw	a4,576(s8)
xvprintf():
/home/tututu/qimeng/simulator/baremetal/new_dhrystone/../lib/xprintf.c:142
		while (j++ < w) xputc(' ');
80001004:	d99b86e3          	beq	s7,s9,80000d90 <xprintf+0xa4>
xputc():
/home/tututu/qimeng/simulator/baremetal/new_dhrystone/../lib/xprintf.c:30
	if (outptr) {
80001008:	240c2783          	lw	a5,576(s8)
xvprintf():
/home/tututu/qimeng/simulator/baremetal/new_dhrystone/../lib/xprintf.c:30
8000100c:	001c8c93          	addi	s9,s9,1
xputc():
/home/tututu/qimeng/simulator/baremetal/new_dhrystone/../lib/xprintf.c:30
80001010:	fe0794e3          	bne	a5,zero,80000ff8 <xprintf+0x30c>
/home/tututu/qimeng/simulator/baremetal/new_dhrystone/../lib/xprintf.c:35
	if (xfunc_out) xfunc_out((unsigned char)c);
80001014:	24442783          	lw	a5,580(s0)
80001018:	fe0786e3          	beq	a5,zero,80001004 <xprintf+0x318>
/home/tututu/qimeng/simulator/baremetal/new_dhrystone/../lib/xprintf.c:35 (discriminator 1)
8000101c:	02000513          	addi	a0,zero,32
80001020:	000780e7          	jalr	ra,0(a5)
80001024:	fe1ff06f          	jal	zero,80001004 <xprintf+0x318>
xvprintf():
/home/tututu/qimeng/simulator/baremetal/new_dhrystone/../lib/xprintf.c:127
		v = (f & 4) ? va_arg(arp, long) : ((d == 'D') ? (long)va_arg(arp, int) : (long)va_arg(arp, unsigned int));
80001028:	0045f793          	andi	a5,a1,4
8000102c:	16079a63          	bne	a5,zero,800011a0 <xprintf+0x4b4>
/home/tututu/qimeng/simulator/baremetal/new_dhrystone/../lib/xprintf.c:116
			r = 8; break;
80001030:	00800693          	addi	a3,zero,8
80001034:	00448613          	addi	a2,s1,4
/home/tututu/qimeng/simulator/baremetal/new_dhrystone/../lib/xprintf.c:127 (discriminator 5)
		v = (f & 4) ? va_arg(arp, long) : ((d == 'D') ? (long)va_arg(arp, int) : (long)va_arg(arp, unsigned int));
80001038:	0004a703          	lw	a4,0(s1)
8000103c:	00000e13          	addi	t3,zero,0
80001040:	00060493          	addi	s1,a2,0
80001044:	e89ff06f          	jal	zero,80000ecc <xprintf+0x1e0>
xputc():
/home/tututu/qimeng/simulator/baremetal/new_dhrystone/../lib/xprintf.c:30
	if (outptr) {
80001048:	80004737          	lui	a4,0x80004
8000104c:	24072783          	lw	a5,576(a4) # 80004240 <outptr>
xvprintf():
/home/tututu/qimeng/simulator/baremetal/new_dhrystone/../lib/xprintf.c:112 (discriminator 1)
			xputc((char)va_arg(arp, int)); continue;
80001050:	0004c503          	lbu	a0,0(s1)
/home/tututu/qimeng/simulator/baremetal/new_dhrystone/../lib/xprintf.c:112
80001054:	00448a93          	addi	s5,s1,4
xputc():
/home/tututu/qimeng/simulator/baremetal/new_dhrystone/../lib/xprintf.c:30
	if (outptr) {
80001058:	18078c63          	beq	a5,zero,800011f0 <xprintf+0x504>
/home/tututu/qimeng/simulator/baremetal/new_dhrystone/../lib/xprintf.c:31
		*outptr++ = (unsigned char)c;
8000105c:	00178693          	addi	a3,a5,1
80001060:	00a78023          	sb	a0,0(a5)
80001064:	24d72023          	sw	a3,576(a4)
xvprintf():
/home/tututu/qimeng/simulator/baremetal/new_dhrystone/../lib/xprintf.c:112
			xputc((char)va_arg(arp, int)); continue;
80001068:	000a8493          	addi	s1,s5,0
8000106c:	d25ff06f          	jal	zero,80000d90 <xprintf+0xa4>
/home/tututu/qimeng/simulator/baremetal/new_dhrystone/../lib/xprintf.c:127
		v = (f & 4) ? va_arg(arp, long) : ((d == 'D') ? (long)va_arg(arp, int) : (long)va_arg(arp, unsigned int));
80001070:	0045f793          	andi	a5,a1,4
80001074:	14078e63          	beq	a5,zero,800011d0 <xprintf+0x4e4>
/home/tututu/qimeng/simulator/baremetal/new_dhrystone/../lib/xprintf.c:105
			p = va_arg(arp, char*);
80001078:	0004a703          	lw	a4,0(s1)
/home/tututu/qimeng/simulator/baremetal/new_dhrystone/../lib/xprintf.c:127 (discriminator 3)
		v = (f & 4) ? va_arg(arp, long) : ((d == 'D') ? (long)va_arg(arp, int) : (long)va_arg(arp, unsigned int));
8000107c:	00000e13          	addi	t3,zero,0
/home/tututu/qimeng/simulator/baremetal/new_dhrystone/../lib/xprintf.c:105
			p = va_arg(arp, char*);
80001080:	00448493          	addi	s1,s1,4
/home/tututu/qimeng/simulator/baremetal/new_dhrystone/../lib/xprintf.c:114
			r = 2; break;
80001084:	00200693          	addi	a3,zero,2
80001088:	e45ff06f          	jal	zero,80000ecc <xprintf+0x1e0>
/home/tututu/qimeng/simulator/baremetal/new_dhrystone/../lib/xprintf.c:127
		v = (f & 4) ? va_arg(arp, long) : ((d == 'D') ? (long)va_arg(arp, int) : (long)va_arg(arp, unsigned int));
8000108c:	0045f793          	andi	a5,a1,4
80001090:	12078a63          	beq	a5,zero,800011c4 <xprintf+0x4d8>
/home/tututu/qimeng/simulator/baremetal/new_dhrystone/../lib/xprintf.c:105
			p = va_arg(arp, char*);
80001094:	0004a703          	lw	a4,0(s1)
/home/tututu/qimeng/simulator/baremetal/new_dhrystone/../lib/xprintf.c:127 (discriminator 3)
		v = (f & 4) ? va_arg(arp, long) : ((d == 'D') ? (long)va_arg(arp, int) : (long)va_arg(arp, unsigned int));
80001098:	00000e13          	addi	t3,zero,0
/home/tututu/qimeng/simulator/baremetal/new_dhrystone/../lib/xprintf.c:105
			p = va_arg(arp, char*);
8000109c:	00448493          	addi	s1,s1,4
/home/tututu/qimeng/simulator/baremetal/new_dhrystone/../lib/xprintf.c:121
			r = 16; break;
800010a0:	01000693          	addi	a3,zero,16
800010a4:	e29ff06f          	jal	zero,80000ecc <xprintf+0x1e0>
/home/tututu/qimeng/simulator/baremetal/new_dhrystone/../lib/xprintf.c:105
			p = va_arg(arp, char*);
800010a8:	0004aa03          	lw	s4,0(s1)
/home/tututu/qimeng/simulator/baremetal/new_dhrystone/../lib/xprintf.c:107 (discriminator 2)
			while (!(f & 2) && j++ < w) xputc(' ');
800010ac:	0025f593          	andi	a1,a1,2
/home/tututu/qimeng/simulator/baremetal/new_dhrystone/../lib/xprintf.c:105
			p = va_arg(arp, char*);
800010b0:	00448493          	addi	s1,s1,4
/home/tututu/qimeng/simulator/baremetal/new_dhrystone/../lib/xprintf.c:106
			for (j = 0; p[j]; j++) ;
800010b4:	000a4503          	lbu	a0,0(s4)
800010b8:	1e050663          	beq	a0,zero,800012a4 <xprintf+0x5b8>
800010bc:	00000a93          	addi	s5,zero,0
/home/tututu/qimeng/simulator/baremetal/new_dhrystone/../lib/xprintf.c:106 (discriminator 3)
800010c0:	000a8d13          	addi	s10,s5,0
800010c4:	001a8a93          	addi	s5,s5,1
/home/tututu/qimeng/simulator/baremetal/new_dhrystone/../lib/xprintf.c:106
800010c8:	015a0733          	add	a4,s4,s5
800010cc:	00074703          	lbu	a4,0(a4)
800010d0:	fe0718e3          	bne	a4,zero,800010c0 <xprintf+0x3d4>
/home/tututu/qimeng/simulator/baremetal/new_dhrystone/../lib/xprintf.c:107 (discriminator 2)
			while (!(f & 2) && j++ < w) xputc(' ');
800010d4:	12058a63          	beq	a1,zero,80001208 <xprintf+0x51c>
/home/tututu/qimeng/simulator/baremetal/new_dhrystone/../lib/xprintf.c:109
			while (j++ < w) xputc(' ');
800010d8:	002d0d13          	addi	s10,s10,2
800010dc:	80004c37          	lui	s8,0x80004
xputc():
/home/tututu/qimeng/simulator/baremetal/new_dhrystone/../lib/xprintf.c:35
	if (xfunc_out) xfunc_out((unsigned char)c);
800010e0:	80004cb7          	lui	s9,0x80004
800010e4:	0180006f          	jal	zero,800010fc <xprintf+0x410>
/home/tututu/qimeng/simulator/baremetal/new_dhrystone/../lib/xprintf.c:31
		*outptr++ = (unsigned char)c;
800010e8:	00170693          	addi	a3,a4,1
800010ec:	00a70023          	sb	a0,0(a4)
800010f0:	24dc2023          	sw	a3,576(s8) # 80004240 <outptr>
xputs():
/home/tututu/qimeng/simulator/baremetal/new_dhrystone/../lib/xprintf.c:47
	while (*str)
800010f4:	000a4503          	lbu	a0,0(s4)
800010f8:	02050263          	beq	a0,zero,8000111c <xprintf+0x430>
xputc():
/home/tututu/qimeng/simulator/baremetal/new_dhrystone/../lib/xprintf.c:30
	if (outptr) {
800010fc:	240c2703          	lw	a4,576(s8)
xputs():
/home/tututu/qimeng/simulator/baremetal/new_dhrystone/../lib/xprintf.c:48
		xputc(*str++);
80001100:	001a0a13          	addi	s4,s4,1
xputc():
/home/tututu/qimeng/simulator/baremetal/new_dhrystone/../lib/xprintf.c:30
	if (outptr) {
80001104:	fe0712e3          	bne	a4,zero,800010e8 <xprintf+0x3fc>
/home/tututu/qimeng/simulator/baremetal/new_dhrystone/../lib/xprintf.c:35
	if (xfunc_out) xfunc_out((unsigned char)c);
80001108:	244ca703          	lw	a4,580(s9) # 80004244 <xfunc_out>
8000110c:	fe0704e3          	beq	a4,zero,800010f4 <xprintf+0x408>
/home/tututu/qimeng/simulator/baremetal/new_dhrystone/../lib/xprintf.c:35 (discriminator 1)
80001110:	000700e7          	jalr	ra,0(a4)
xputs():
/home/tututu/qimeng/simulator/baremetal/new_dhrystone/../lib/xprintf.c:47
	while (*str)
80001114:	000a4503          	lbu	a0,0(s4)
80001118:	fe0512e3          	bne	a0,zero,800010fc <xprintf+0x410>
xvprintf():
/home/tututu/qimeng/simulator/baremetal/new_dhrystone/../lib/xprintf.c:109
			while (j++ < w) xputc(' ');
8000111c:	80004c37          	lui	s8,0x80004
xputc():
/home/tututu/qimeng/simulator/baremetal/new_dhrystone/../lib/xprintf.c:35
	if (xfunc_out) xfunc_out((unsigned char)c);
80001120:	80004cb7          	lui	s9,0x80004
/home/tututu/qimeng/simulator/baremetal/new_dhrystone/../lib/xprintf.c:35 (discriminator 1)
80001124:	02000993          	addi	s3,zero,32
xvprintf():
/home/tututu/qimeng/simulator/baremetal/new_dhrystone/../lib/xprintf.c:109 (discriminator 2)
			while (j++ < w) xputc(' ');
80001128:	c77af4e3          	bgeu	s5,s7,80000d90 <xprintf+0xa4>
xputc():
/home/tututu/qimeng/simulator/baremetal/new_dhrystone/../lib/xprintf.c:30
	if (outptr) {
8000112c:	240c2783          	lw	a5,576(s8) # 80004240 <outptr>
80001130:	02078063          	beq	a5,zero,80001150 <xprintf+0x464>
/home/tututu/qimeng/simulator/baremetal/new_dhrystone/../lib/xprintf.c:31
		*outptr++ = (unsigned char)c;
80001134:	00178713          	addi	a4,a5,1
80001138:	01378023          	sb	s3,0(a5)
8000113c:	24ec2023          	sw	a4,576(s8)
xvprintf():
/home/tututu/qimeng/simulator/baremetal/new_dhrystone/../lib/xprintf.c:109
			while (j++ < w) xputc(' ');
80001140:	c57d78e3          	bgeu	s10,s7,80000d90 <xprintf+0xa4>
xputc():
/home/tututu/qimeng/simulator/baremetal/new_dhrystone/../lib/xprintf.c:30
	if (outptr) {
80001144:	240c2783          	lw	a5,576(s8)
xvprintf():
/home/tututu/qimeng/simulator/baremetal/new_dhrystone/../lib/xprintf.c:30
80001148:	001d0d13          	addi	s10,s10,1
xputc():
/home/tututu/qimeng/simulator/baremetal/new_dhrystone/../lib/xprintf.c:30
8000114c:	fe0794e3          	bne	a5,zero,80001134 <xprintf+0x448>
/home/tututu/qimeng/simulator/baremetal/new_dhrystone/../lib/xprintf.c:35
	if (xfunc_out) xfunc_out((unsigned char)c);
80001150:	244ca783          	lw	a5,580(s9) # 80004244 <xfunc_out>
80001154:	fe0786e3          	beq	a5,zero,80001140 <xprintf+0x454>
/home/tututu/qimeng/simulator/baremetal/new_dhrystone/../lib/xprintf.c:35 (discriminator 1)
80001158:	02000513          	addi	a0,zero,32
8000115c:	000780e7          	jalr	ra,0(a5)
80001160:	fe1ff06f          	jal	zero,80001140 <xprintf+0x454>
xvprintf():
/home/tututu/qimeng/simulator/baremetal/new_dhrystone/../lib/xprintf.c:140 (discriminator 3)
		while (!(f & 2) && j++ < w) xputc(d);
80001164:	e57980e3          	beq	s3,s7,80000fa4 <xprintf+0x2b8>
/home/tututu/qimeng/simulator/baremetal/new_dhrystone/../lib/xprintf.c:140
80001168:	00198993          	addi	s3,s3,1
8000116c:	e01ff06f          	jal	zero,80000f6c <xprintf+0x280>
xputc():
/home/tututu/qimeng/simulator/baremetal/new_dhrystone/../lib/xprintf.c:35
	if (xfunc_out) xfunc_out((unsigned char)c);
80001170:	24442783          	lw	a5,580(s0)
80001174:	c0078ce3          	beq	a5,zero,80000d8c <xprintf+0xa0>
/home/tututu/qimeng/simulator/baremetal/new_dhrystone/../lib/xprintf.c:35 (discriminator 1)
80001178:	000780e7          	jalr	ra,0(a5)
/home/tututu/qimeng/simulator/baremetal/new_dhrystone/../lib/xprintf.c:35
8000117c:	c11ff06f          	jal	zero,80000d8c <xprintf+0xa0>
xvprintf():
/home/tututu/qimeng/simulator/baremetal/new_dhrystone/../lib/xprintf.c:89
			f = 1; c = *fmt++;
80001180:	002b4503          	lbu	a0,2(s6)
80001184:	00100593          	addi	a1,zero,1
80001188:	003b0b13          	addi	s6,s6,3
8000118c:	c69ff06f          	jal	zero,80000df4 <xprintf+0x108>
/home/tututu/qimeng/simulator/baremetal/new_dhrystone/../lib/xprintf.c:92
				f = 2; c = *fmt++;
80001190:	002b4503          	lbu	a0,2(s6)
80001194:	00200593          	addi	a1,zero,2
80001198:	003b0b13          	addi	s6,s6,3
8000119c:	c59ff06f          	jal	zero,80000df4 <xprintf+0x108>
/home/tututu/qimeng/simulator/baremetal/new_dhrystone/../lib/xprintf.c:105
			p = va_arg(arp, char*);
800011a0:	0004a703          	lw	a4,0(s1)
/home/tututu/qimeng/simulator/baremetal/new_dhrystone/../lib/xprintf.c:127 (discriminator 3)
		v = (f & 4) ? va_arg(arp, long) : ((d == 'D') ? (long)va_arg(arp, int) : (long)va_arg(arp, unsigned int));
800011a4:	00000e13          	addi	t3,zero,0
/home/tututu/qimeng/simulator/baremetal/new_dhrystone/../lib/xprintf.c:105
			p = va_arg(arp, char*);
800011a8:	00448493          	addi	s1,s1,4
/home/tututu/qimeng/simulator/baremetal/new_dhrystone/../lib/xprintf.c:116
			r = 8; break;
800011ac:	00800693          	addi	a3,zero,8
800011b0:	d1dff06f          	jal	zero,80000ecc <xprintf+0x1e0>
/home/tututu/qimeng/simulator/baremetal/new_dhrystone/../lib/xprintf.c:127 (discriminator 2)
		v = (f & 4) ? va_arg(arp, long) : ((d == 'D') ? (long)va_arg(arp, int) : (long)va_arg(arp, unsigned int));
800011b4:	04400793          	addi	a5,zero,68
800011b8:	cef708e3          	beq	a4,a5,80000ea8 <xprintf+0x1bc>
800011bc:	00a00693          	addi	a3,zero,10
800011c0:	e79ff06f          	jal	zero,80001038 <xprintf+0x34c>
/home/tututu/qimeng/simulator/baremetal/new_dhrystone/../lib/xprintf.c:121
			r = 16; break;
800011c4:	01000693          	addi	a3,zero,16
800011c8:	00448613          	addi	a2,s1,4
800011cc:	e6dff06f          	jal	zero,80001038 <xprintf+0x34c>
/home/tututu/qimeng/simulator/baremetal/new_dhrystone/../lib/xprintf.c:114
			r = 2; break;
800011d0:	00200693          	addi	a3,zero,2
800011d4:	00448613          	addi	a2,s1,4
800011d8:	e61ff06f          	jal	zero,80001038 <xprintf+0x34c>
xputc():
/home/tututu/qimeng/simulator/baremetal/new_dhrystone/../lib/xprintf.c:35
	if (xfunc_out) xfunc_out((unsigned char)c);
800011dc:	800047b7          	lui	a5,0x80004
800011e0:	2447a783          	lw	a5,580(a5) # 80004244 <xfunc_out>
800011e4:	ba0786e3          	beq	a5,zero,80000d90 <xprintf+0xa4>
/home/tututu/qimeng/simulator/baremetal/new_dhrystone/../lib/xprintf.c:35 (discriminator 1)
800011e8:	000780e7          	jalr	ra,0(a5)
/home/tututu/qimeng/simulator/baremetal/new_dhrystone/../lib/xprintf.c:35
800011ec:	ba5ff06f          	jal	zero,80000d90 <xprintf+0xa4>
800011f0:	800047b7          	lui	a5,0x80004
800011f4:	2447a783          	lw	a5,580(a5) # 80004244 <xfunc_out>
800011f8:	e60788e3          	beq	a5,zero,80001068 <xprintf+0x37c>
/home/tututu/qimeng/simulator/baremetal/new_dhrystone/../lib/xprintf.c:35 (discriminator 1)
800011fc:	000780e7          	jalr	ra,0(a5)
xvprintf():
/home/tututu/qimeng/simulator/baremetal/new_dhrystone/../lib/xprintf.c:112
			xputc((char)va_arg(arp, int)); continue;
80001200:	000a8493          	addi	s1,s5,0
80001204:	b8dff06f          	jal	zero,80000d90 <xprintf+0xa4>
/home/tututu/qimeng/simulator/baremetal/new_dhrystone/../lib/xprintf.c:109 (discriminator 2)
			while (j++ < w) xputc(' ');
80001208:	002d0c93          	addi	s9,s10,2
/home/tututu/qimeng/simulator/baremetal/new_dhrystone/../lib/xprintf.c:107 (discriminator 3)
			while (!(f & 2) && j++ < w) xputc(' ');
8000120c:	0b7afa63          	bgeu	s5,s7,800012c0 <xprintf+0x5d4>
/home/tututu/qimeng/simulator/baremetal/new_dhrystone/../lib/xprintf.c:107
80001210:	80004c37          	lui	s8,0x80004
xputc():
/home/tututu/qimeng/simulator/baremetal/new_dhrystone/../lib/xprintf.c:30
	if (outptr) {
80001214:	240c2703          	lw	a4,576(s8) # 80004240 <outptr>
xvprintf():
/home/tututu/qimeng/simulator/baremetal/new_dhrystone/../lib/xprintf.c:107 (discriminator 3)
			while (!(f & 2) && j++ < w) xputc(' ');
80001218:	000c8993          	addi	s3,s9,0
xputc():
/home/tututu/qimeng/simulator/baremetal/new_dhrystone/../lib/xprintf.c:35
	if (xfunc_out) xfunc_out((unsigned char)c);
8000121c:	80004d37          	lui	s10,0x80004
/home/tututu/qimeng/simulator/baremetal/new_dhrystone/../lib/xprintf.c:35 (discriminator 1)
80001220:	02000a93          	addi	s5,zero,32
/home/tututu/qimeng/simulator/baremetal/new_dhrystone/../lib/xprintf.c:30
	if (outptr) {
80001224:	02070063          	beq	a4,zero,80001244 <xprintf+0x558>
/home/tututu/qimeng/simulator/baremetal/new_dhrystone/../lib/xprintf.c:31
		*outptr++ = (unsigned char)c;
80001228:	00170613          	addi	a2,a4,1
8000122c:	01570023          	sb	s5,0(a4)
80001230:	24cc2023          	sw	a2,576(s8)
xvprintf():
/home/tututu/qimeng/simulator/baremetal/new_dhrystone/../lib/xprintf.c:107 (discriminator 3)
			while (!(f & 2) && j++ < w) xputc(' ');
80001234:	0379f263          	bgeu	s3,s7,80001258 <xprintf+0x56c>
xputc():
/home/tututu/qimeng/simulator/baremetal/new_dhrystone/../lib/xprintf.c:30
	if (outptr) {
80001238:	240c2703          	lw	a4,576(s8)
xvprintf():
/home/tututu/qimeng/simulator/baremetal/new_dhrystone/../lib/xprintf.c:30
8000123c:	00198993          	addi	s3,s3,1
xputc():
/home/tututu/qimeng/simulator/baremetal/new_dhrystone/../lib/xprintf.c:30
80001240:	fe0714e3          	bne	a4,zero,80001228 <xprintf+0x53c>
/home/tututu/qimeng/simulator/baremetal/new_dhrystone/../lib/xprintf.c:35
	if (xfunc_out) xfunc_out((unsigned char)c);
80001244:	244d2703          	lw	a4,580(s10) # 80004244 <xfunc_out>
80001248:	fe0706e3          	beq	a4,zero,80001234 <xprintf+0x548>
/home/tututu/qimeng/simulator/baremetal/new_dhrystone/../lib/xprintf.c:35 (discriminator 1)
8000124c:	02000513          	addi	a0,zero,32
80001250:	000700e7          	jalr	ra,0(a4)
xvprintf():
/home/tututu/qimeng/simulator/baremetal/new_dhrystone/../lib/xprintf.c:107 (discriminator 3)
			while (!(f & 2) && j++ < w) xputc(' ');
80001254:	ff79e2e3          	bltu	s3,s7,80001238 <xprintf+0x54c>
/home/tututu/qimeng/simulator/baremetal/new_dhrystone/../lib/xprintf.c:107
80001258:	00000713          	addi	a4,zero,0
8000125c:	039bf063          	bgeu	s7,s9,8000127c <xprintf+0x590>
xputs():
/home/tututu/qimeng/simulator/baremetal/new_dhrystone/../lib/xprintf.c:47
	while (*str)
80001260:	000a4503          	lbu	a0,0(s4)
80001264:	001c8a93          	addi	s5,s9,1
xvprintf():
/home/tututu/qimeng/simulator/baremetal/new_dhrystone/../lib/xprintf.c:109 (discriminator 2)
			while (j++ < w) xputc(' ');
80001268:	002c8d13          	addi	s10,s9,2
8000126c:	00ea8ab3          	add	s5,s5,a4
80001270:	00ed0d33          	add	s10,s10,a4
xputs():
/home/tututu/qimeng/simulator/baremetal/new_dhrystone/../lib/xprintf.c:47
	while (*str)
80001274:	e60516e3          	bne	a0,zero,800010e0 <xprintf+0x3f4>
80001278:	ea5ff06f          	jal	zero,8000111c <xprintf+0x430>
8000127c:	000a4503          	lbu	a0,0(s4)
80001280:	419b8733          	sub	a4,s7,s9
80001284:	001c8a93          	addi	s5,s9,1
xvprintf():
/home/tututu/qimeng/simulator/baremetal/new_dhrystone/../lib/xprintf.c:109 (discriminator 2)
			while (j++ < w) xputc(' ');
80001288:	002c8d13          	addi	s10,s9,2
8000128c:	00ea8ab3          	add	s5,s5,a4
80001290:	00ed0d33          	add	s10,s10,a4
xputs():
/home/tututu/qimeng/simulator/baremetal/new_dhrystone/../lib/xprintf.c:47
	while (*str)
80001294:	e40516e3          	bne	a0,zero,800010e0 <xprintf+0x3f4>
80001298:	e85ff06f          	jal	zero,8000111c <xprintf+0x430>
xvprintf():
/home/tututu/qimeng/simulator/baremetal/new_dhrystone/../lib/xprintf.c:140 (discriminator 3)
		while (!(f & 2) && j++ < w) xputc(d);
8000129c:	01312423          	sw	s3,8(sp)
800012a0:	d05ff06f          	jal	zero,80000fa4 <xprintf+0x2b8>
/home/tututu/qimeng/simulator/baremetal/new_dhrystone/../lib/xprintf.c:107 (discriminator 2)
			while (!(f & 2) && j++ < w) xputc(' ');
800012a4:	00058863          	beq	a1,zero,800012b4 <xprintf+0x5c8>
800012a8:	00100d13          	addi	s10,zero,1
/home/tututu/qimeng/simulator/baremetal/new_dhrystone/../lib/xprintf.c:106
			for (j = 0; p[j]; j++) ;
800012ac:	00000a93          	addi	s5,zero,0
800012b0:	e6dff06f          	jal	zero,8000111c <xprintf+0x430>
/home/tututu/qimeng/simulator/baremetal/new_dhrystone/../lib/xprintf.c:107 (discriminator 3)
			while (!(f & 2) && j++ < w) xputc(' ');
800012b4:	00100c93          	addi	s9,zero,1
800012b8:	f40b9ce3          	bne	s7,zero,80001210 <xprintf+0x524>
800012bc:	ad5ff06f          	jal	zero,80000d90 <xprintf+0xa4>
/home/tututu/qimeng/simulator/baremetal/new_dhrystone/../lib/xprintf.c:107
800012c0:	003d0d13          	addi	s10,s10,3
800012c4:	000c8a93          	addi	s5,s9,0
xputs():
/home/tututu/qimeng/simulator/baremetal/new_dhrystone/../lib/xprintf.c:47
	while (*str)
800012c8:	80004c37          	lui	s8,0x80004
800012cc:	e15ff06f          	jal	zero,800010e0 <xprintf+0x3f4>
xvprintf():
/home/tututu/qimeng/simulator/baremetal/new_dhrystone/../lib/xprintf.c:47
800012d0:	00060493          	addi	s1,a2,0
800012d4:	00000e13          	addi	t3,zero,0
800012d8:	00a00693          	addi	a3,zero,10
800012dc:	bf1ff06f          	jal	zero,80000ecc <xprintf+0x1e0>

800012e0 <strcmp>:
strcmp():
800012e0:	00b56733          	or	a4,a0,a1
800012e4:	fff00393          	addi	t2,zero,-1
800012e8:	00377713          	andi	a4,a4,3
800012ec:	10071063          	bne	a4,zero,800013ec <strcmp+0x10c>
800012f0:	7f7f87b7          	lui	a5,0x7f7f8
800012f4:	f7f78793          	addi	a5,a5,-129 # 7f7f7f7f <__stack_size+0x7d7f7f7f>
800012f8:	00052603          	lw	a2,0(a0)
800012fc:	0005a683          	lw	a3,0(a1)
80001300:	00f672b3          	and	t0,a2,a5
80001304:	00f66333          	or	t1,a2,a5
80001308:	00f282b3          	add	t0,t0,a5
8000130c:	0062e2b3          	or	t0,t0,t1
80001310:	10729263          	bne	t0,t2,80001414 <strcmp+0x134>
80001314:	08d61663          	bne	a2,a3,800013a0 <strcmp+0xc0>
80001318:	00452603          	lw	a2,4(a0)
8000131c:	0045a683          	lw	a3,4(a1)
80001320:	00f672b3          	and	t0,a2,a5
80001324:	00f66333          	or	t1,a2,a5
80001328:	00f282b3          	add	t0,t0,a5
8000132c:	0062e2b3          	or	t0,t0,t1
80001330:	0c729e63          	bne	t0,t2,8000140c <strcmp+0x12c>
80001334:	06d61663          	bne	a2,a3,800013a0 <strcmp+0xc0>
80001338:	00852603          	lw	a2,8(a0)
8000133c:	0085a683          	lw	a3,8(a1)
80001340:	00f672b3          	and	t0,a2,a5
80001344:	00f66333          	or	t1,a2,a5
80001348:	00f282b3          	add	t0,t0,a5
8000134c:	0062e2b3          	or	t0,t0,t1
80001350:	0c729863          	bne	t0,t2,80001420 <strcmp+0x140>
80001354:	04d61663          	bne	a2,a3,800013a0 <strcmp+0xc0>
80001358:	00c52603          	lw	a2,12(a0)
8000135c:	00c5a683          	lw	a3,12(a1)
80001360:	00f672b3          	and	t0,a2,a5
80001364:	00f66333          	or	t1,a2,a5
80001368:	00f282b3          	add	t0,t0,a5
8000136c:	0062e2b3          	or	t0,t0,t1
80001370:	0c729263          	bne	t0,t2,80001434 <strcmp+0x154>
80001374:	02d61663          	bne	a2,a3,800013a0 <strcmp+0xc0>
80001378:	01052603          	lw	a2,16(a0)
8000137c:	0105a683          	lw	a3,16(a1)
80001380:	00f672b3          	and	t0,a2,a5
80001384:	00f66333          	or	t1,a2,a5
80001388:	00f282b3          	add	t0,t0,a5
8000138c:	0062e2b3          	or	t0,t0,t1
80001390:	0a729c63          	bne	t0,t2,80001448 <strcmp+0x168>
80001394:	01450513          	addi	a0,a0,20
80001398:	01458593          	addi	a1,a1,20
8000139c:	f4d60ee3          	beq	a2,a3,800012f8 <strcmp+0x18>
800013a0:	01061713          	slli	a4,a2,0x10
800013a4:	01069793          	slli	a5,a3,0x10
800013a8:	00f71e63          	bne	a4,a5,800013c4 <strcmp+0xe4>
800013ac:	01065713          	srli	a4,a2,0x10
800013b0:	0106d793          	srli	a5,a3,0x10
800013b4:	40f70533          	sub	a0,a4,a5
800013b8:	0ff57593          	andi	a1,a0,255
800013bc:	02059063          	bne	a1,zero,800013dc <strcmp+0xfc>
800013c0:	00008067          	jalr	zero,0(ra)
800013c4:	01075713          	srli	a4,a4,0x10
800013c8:	0107d793          	srli	a5,a5,0x10
800013cc:	40f70533          	sub	a0,a4,a5
800013d0:	0ff57593          	andi	a1,a0,255
800013d4:	00059463          	bne	a1,zero,800013dc <strcmp+0xfc>
800013d8:	00008067          	jalr	zero,0(ra)
800013dc:	0ff77713          	andi	a4,a4,255
800013e0:	0ff7f793          	andi	a5,a5,255
800013e4:	40f70533          	sub	a0,a4,a5
800013e8:	00008067          	jalr	zero,0(ra)
800013ec:	00054603          	lbu	a2,0(a0)
800013f0:	0005c683          	lbu	a3,0(a1)
800013f4:	00150513          	addi	a0,a0,1
800013f8:	00158593          	addi	a1,a1,1
800013fc:	00d61463          	bne	a2,a3,80001404 <strcmp+0x124>
80001400:	fe0616e3          	bne	a2,zero,800013ec <strcmp+0x10c>
80001404:	40d60533          	sub	a0,a2,a3
80001408:	00008067          	jalr	zero,0(ra)
8000140c:	00450513          	addi	a0,a0,4
80001410:	00458593          	addi	a1,a1,4
80001414:	fcd61ce3          	bne	a2,a3,800013ec <strcmp+0x10c>
80001418:	00000513          	addi	a0,zero,0
8000141c:	00008067          	jalr	zero,0(ra)
80001420:	00850513          	addi	a0,a0,8
80001424:	00858593          	addi	a1,a1,8
80001428:	fcd612e3          	bne	a2,a3,800013ec <strcmp+0x10c>
8000142c:	00000513          	addi	a0,zero,0
80001430:	00008067          	jalr	zero,0(ra)
80001434:	00c50513          	addi	a0,a0,12
80001438:	00c58593          	addi	a1,a1,12
8000143c:	fad618e3          	bne	a2,a3,800013ec <strcmp+0x10c>
80001440:	00000513          	addi	a0,zero,0
80001444:	00008067          	jalr	zero,0(ra)
80001448:	01050513          	addi	a0,a0,16
8000144c:	01058593          	addi	a1,a1,16
80001450:	f8d61ee3          	bne	a2,a3,800013ec <strcmp+0x10c>
80001454:	00000513          	addi	a0,zero,0
80001458:	00008067          	jalr	zero,0(ra)

Disassembly of section .rodata.str1.4:

8000145c <.rodata.str1.4>:
8000145c:	4844                	.insn	2, 0x4844
8000145e:	5952                	.insn	2, 0x5952
80001460:	4e4f5453          	.insn	4, 0x4e4f5453
80001464:	2045                	.insn	2, 0x2045
80001466:	5250                	.insn	2, 0x5250
80001468:	4152474f          	.insn	4, 0x4152474f
8000146c:	2c4d                	.insn	2, 0x2c4d
8000146e:	5320                	.insn	2, 0x5320
80001470:	20454d4f          	.insn	4, 0x20454d4f
80001474:	49525453          	.insn	4, 0x49525453
80001478:	474e                	.insn	2, 0x474e
8000147a:	0000                	.insn	2, 0x0000
8000147c:	0000                	.insn	2, 0x0000
8000147e:	0000                	.insn	2, 0x0000
80001480:	000a                	.insn	2, 0x000a
80001482:	0000                	.insn	2, 0x0000
80001484:	56202c43          	.insn	4, 0x56202c43
80001488:	7265                	.insn	2, 0x7265
8000148a:	6e6f6973          	.insn	4, 0x6e6f6973
8000148e:	3220                	.insn	2, 0x3220
80001490:	322e                	.insn	2, 0x322e
80001492:	0000                	.insn	2, 0x0000
80001494:	6844                	.insn	2, 0x6844
80001496:	7972                	.insn	2, 0x7972
80001498:	6e6f7473          	.insn	4, 0x6e6f7473
8000149c:	2065                	.insn	2, 0x2065
8000149e:	6542                	.insn	2, 0x6542
800014a0:	636e                	.insn	2, 0x636e
800014a2:	6d68                	.insn	2, 0x6d68
800014a4:	7261                	.insn	2, 0x7261
800014a6:	56202c6b          	.insn	4, 0x56202c6b
800014aa:	7265                	.insn	2, 0x7265
800014ac:	6e6f6973          	.insn	4, 0x6e6f6973
800014b0:	2520                	.insn	2, 0x2520
800014b2:	00000a73          	.insn	4, 0x0a73
800014b6:	0000                	.insn	2, 0x0000
800014b8:	7250                	.insn	2, 0x7250
800014ba:	6172676f          	jal	a4,800282d0 <__global_pointer+0x23888>
800014be:	206d                	.insn	2, 0x206d
800014c0:	706d6f63          	bltu	s10,t1,80001bde <Arr_2_Glob+0xe6>
800014c4:	6c69                	.insn	2, 0x6c69
800014c6:	6465                	.insn	2, 0x6465
800014c8:	7720                	.insn	2, 0x7720
800014ca:	7469                	.insn	2, 0x7469
800014cc:	2068                	.insn	2, 0x2068
800014ce:	67657227          	.insn	4, 0x67657227
800014d2:	7369                	.insn	2, 0x7369
800014d4:	6574                	.insn	2, 0x6574
800014d6:	2772                	.insn	2, 0x2772
800014d8:	6120                	.insn	2, 0x6120
800014da:	7474                	.insn	2, 0x7474
800014dc:	6972                	.insn	2, 0x6972
800014de:	7562                	.insn	2, 0x7562
800014e0:	6574                	.insn	2, 0x6574
800014e2:	000a                	.insn	2, 0x000a
800014e4:	7250                	.insn	2, 0x7250
800014e6:	6172676f          	jal	a4,800282fc <__global_pointer+0x238b4>
800014ea:	206d                	.insn	2, 0x206d
800014ec:	706d6f63          	bltu	s10,t1,80001c0a <Arr_2_Glob+0x112>
800014f0:	6c69                	.insn	2, 0x6c69
800014f2:	6465                	.insn	2, 0x6465
800014f4:	7720                	.insn	2, 0x7720
800014f6:	7469                	.insn	2, 0x7469
800014f8:	6f68                	.insn	2, 0x6f68
800014fa:	7475                	.insn	2, 0x7475
800014fc:	2720                	.insn	2, 0x2720
800014fe:	6572                	.insn	2, 0x6572
80001500:	74736967          	.insn	4, 0x74736967
80001504:	7265                	.insn	2, 0x7265
80001506:	74612027          	.insn	4, 0x74612027
8000150a:	7274                	.insn	2, 0x7274
8000150c:	6269                	.insn	2, 0x6269
8000150e:	7475                	.insn	2, 0x7475
80001510:	0a65                	.insn	2, 0x0a65
80001512:	0000                	.insn	2, 0x0000
80001514:	6472                	.insn	2, 0x6472
80001516:	6c637963          	bgeu	t1,t1,80001be8 <Arr_2_Glob+0xf0>
8000151a:	2865                	.insn	2, 0x2865
8000151c:	0029                	.insn	2, 0x0029
8000151e:	0000                	.insn	2, 0x0000
80001520:	7355                	.insn	2, 0x7355
80001522:	6e69                	.insn	2, 0x6e69
80001524:	73252067          	.insn	4, 0x73252067
80001528:	202c                	.insn	2, 0x202c
8000152a:	5a48                	.insn	2, 0x5a48
8000152c:	253d                	.insn	2, 0x253d
8000152e:	0a64                	.insn	2, 0x0a64
80001530:	0000                	.insn	2, 0x0000
80001532:	0000                	.insn	2, 0x0000
80001534:	7254                	.insn	2, 0x7254
80001536:	6979                	.insn	2, 0x6979
80001538:	676e                	.insn	2, 0x676e
8000153a:	2520                	.insn	2, 0x2520
8000153c:	2064                	.insn	2, 0x2064
8000153e:	7572                	.insn	2, 0x7572
80001540:	736e                	.insn	2, 0x736e
80001542:	7420                	.insn	2, 0x7420
80001544:	7268                	.insn	2, 0x7268
80001546:	6867756f          	jal	a0,80078bcc <__global_pointer+0x74184>
8000154a:	4420                	.insn	2, 0x4420
8000154c:	7268                	.insn	2, 0x7268
8000154e:	7379                	.insn	2, 0x7379
80001550:	6f74                	.insn	2, 0x6f74
80001552:	656e                	.insn	2, 0x656e
80001554:	0a3a                	.insn	2, 0x0a3a
80001556:	0000                	.insn	2, 0x0000
80001558:	6946                	.insn	2, 0x6946
8000155a:	616e                	.insn	2, 0x616e
8000155c:	206c                	.insn	2, 0x206c
8000155e:	6176                	.insn	2, 0x6176
80001560:	756c                	.insn	2, 0x756c
80001562:	7365                	.insn	2, 0x7365
80001564:	6f20                	.insn	2, 0x6f20
80001566:	2066                	.insn	2, 0x2066
80001568:	6874                	.insn	2, 0x6874
8000156a:	2065                	.insn	2, 0x2065
8000156c:	6176                	.insn	2, 0x6176
8000156e:	6972                	.insn	2, 0x6972
80001570:	6261                	.insn	2, 0x6261
80001572:	656c                	.insn	2, 0x656c
80001574:	73752073          	.insn	4, 0x73752073
80001578:	6465                	.insn	2, 0x6465
8000157a:	6920                	.insn	2, 0x6920
8000157c:	206e                	.insn	2, 0x206e
8000157e:	6874                	.insn	2, 0x6874
80001580:	2065                	.insn	2, 0x2065
80001582:	6562                	.insn	2, 0x6562
80001584:	636e                	.insn	2, 0x636e
80001586:	6d68                	.insn	2, 0x6d68
80001588:	7261                	.insn	2, 0x7261
8000158a:	000a3a6b          	.insn	4, 0x000a3a6b
8000158e:	0000                	.insn	2, 0x0000
80001590:	6e49                	.insn	2, 0x6e49
80001592:	5f74                	.insn	2, 0x5f74
80001594:	626f6c47          	.insn	4, 0x626f6c47
80001598:	203a                	.insn	2, 0x203a
8000159a:	2020                	.insn	2, 0x2020
8000159c:	2020                	.insn	2, 0x2020
8000159e:	2020                	.insn	2, 0x2020
800015a0:	2020                	.insn	2, 0x2020
800015a2:	2020                	.insn	2, 0x2020
800015a4:	2520                	.insn	2, 0x2520
800015a6:	0a64                	.insn	2, 0x0a64
800015a8:	0000                	.insn	2, 0x0000
800015aa:	0000                	.insn	2, 0x0000
800015ac:	2020                	.insn	2, 0x2020
800015ae:	2020                	.insn	2, 0x2020
800015b0:	2020                	.insn	2, 0x2020
800015b2:	2020                	.insn	2, 0x2020
800015b4:	756f6873          	.insn	4, 0x756f6873
800015b8:	646c                	.insn	2, 0x646c
800015ba:	6220                	.insn	2, 0x6220
800015bc:	3a65                	.insn	2, 0x3a65
800015be:	2020                	.insn	2, 0x2020
800015c0:	2520                	.insn	2, 0x2520
800015c2:	0a64                	.insn	2, 0x0a64
800015c4:	0000                	.insn	2, 0x0000
800015c6:	0000                	.insn	2, 0x0000
800015c8:	6f42                	.insn	2, 0x6f42
800015ca:	475f6c6f          	jal	s8,800f823e <__global_pointer+0xf37f6>
800015ce:	6f6c                	.insn	2, 0x6f6c
800015d0:	3a62                	.insn	2, 0x3a62
800015d2:	2020                	.insn	2, 0x2020
800015d4:	2020                	.insn	2, 0x2020
800015d6:	2020                	.insn	2, 0x2020
800015d8:	2020                	.insn	2, 0x2020
800015da:	2020                	.insn	2, 0x2020
800015dc:	2520                	.insn	2, 0x2520
800015de:	0a64                	.insn	2, 0x0a64
800015e0:	0000                	.insn	2, 0x0000
800015e2:	0000                	.insn	2, 0x0000
800015e4:	315f6843          	.insn	4, 0x315f6843
800015e8:	475f 6f6c 3a62      	.insn	6, 0x3a626f6c475f
800015ee:	2020                	.insn	2, 0x2020
800015f0:	2020                	.insn	2, 0x2020
800015f2:	2020                	.insn	2, 0x2020
800015f4:	2020                	.insn	2, 0x2020
800015f6:	2020                	.insn	2, 0x2020
800015f8:	2520                	.insn	2, 0x2520
800015fa:	00000a63          	beq	zero,zero,8000160e <strcmp+0x32e>
800015fe:	0000                	.insn	2, 0x0000
80001600:	2020                	.insn	2, 0x2020
80001602:	2020                	.insn	2, 0x2020
80001604:	2020                	.insn	2, 0x2020
80001606:	2020                	.insn	2, 0x2020
80001608:	756f6873          	.insn	4, 0x756f6873
8000160c:	646c                	.insn	2, 0x646c
8000160e:	6220                	.insn	2, 0x6220
80001610:	3a65                	.insn	2, 0x3a65
80001612:	2020                	.insn	2, 0x2020
80001614:	2520                	.insn	2, 0x2520
80001616:	00000a63          	beq	zero,zero,8000162a <strcmp+0x34a>
8000161a:	0000                	.insn	2, 0x0000
8000161c:	325f6843          	.insn	4, 0x325f6843
80001620:	475f 6f6c 3a62      	.insn	6, 0x3a626f6c475f
80001626:	2020                	.insn	2, 0x2020
80001628:	2020                	.insn	2, 0x2020
8000162a:	2020                	.insn	2, 0x2020
8000162c:	2020                	.insn	2, 0x2020
8000162e:	2020                	.insn	2, 0x2020
80001630:	2520                	.insn	2, 0x2520
80001632:	00000a63          	beq	zero,zero,80001646 <strcmp+0x366>
80001636:	0000                	.insn	2, 0x0000
80001638:	7241                	.insn	2, 0x7241
8000163a:	5f72                	.insn	2, 0x5f72
8000163c:	5f31                	.insn	2, 0x5f31
8000163e:	626f6c47          	.insn	4, 0x626f6c47
80001642:	3a5d385b          	.insn	4, 0x3a5d385b
80001646:	2020                	.insn	2, 0x2020
80001648:	2020                	.insn	2, 0x2020
8000164a:	2020                	.insn	2, 0x2020
8000164c:	2520                	.insn	2, 0x2520
8000164e:	0a64                	.insn	2, 0x0a64
80001650:	0000                	.insn	2, 0x0000
80001652:	0000                	.insn	2, 0x0000
80001654:	7241                	.insn	2, 0x7241
80001656:	5f72                	.insn	2, 0x5f72
80001658:	5f32                	.insn	2, 0x5f32
8000165a:	626f6c47          	.insn	4, 0x626f6c47
8000165e:	5b5d385b          	.insn	4, 0x5b5d385b
80001662:	203a5d37          	lui	s10,0x203a5
80001666:	2020                	.insn	2, 0x2020
80001668:	2520                	.insn	2, 0x2520
8000166a:	0a64                	.insn	2, 0x0a64
8000166c:	0000                	.insn	2, 0x0000
8000166e:	0000                	.insn	2, 0x0000
80001670:	2020                	.insn	2, 0x2020
80001672:	2020                	.insn	2, 0x2020
80001674:	2020                	.insn	2, 0x2020
80001676:	2020                	.insn	2, 0x2020
80001678:	756f6873          	.insn	4, 0x756f6873
8000167c:	646c                	.insn	2, 0x646c
8000167e:	6220                	.insn	2, 0x6220
80001680:	3a65                	.insn	2, 0x3a65
80001682:	2020                	.insn	2, 0x2020
80001684:	4e20                	.insn	2, 0x4e20
80001686:	6d75                	.insn	2, 0x6d75
80001688:	6562                	.insn	2, 0x6562
8000168a:	5f72                	.insn	2, 0x5f72
8000168c:	525f664f          	.insn	4, 0x525f664f
80001690:	6e75                	.insn	2, 0x6e75
80001692:	202b2073          	.insn	4, 0x202b2073
80001696:	3031                	.insn	2, 0x3031
80001698:	000a                	.insn	2, 0x000a
8000169a:	0000                	.insn	2, 0x0000
8000169c:	7450                	.insn	2, 0x7450
8000169e:	5f72                	.insn	2, 0x5f72
800016a0:	626f6c47          	.insn	4, 0x626f6c47
800016a4:	3e2d                	.insn	2, 0x3e2d
800016a6:	000a                	.insn	2, 0x000a
800016a8:	2020                	.insn	2, 0x2020
800016aa:	7450                	.insn	2, 0x7450
800016ac:	5f72                	.insn	2, 0x5f72
800016ae:	706d6f43          	.insn	4, 0x706d6f43
800016b2:	203a                	.insn	2, 0x203a
800016b4:	2020                	.insn	2, 0x2020
800016b6:	2020                	.insn	2, 0x2020
800016b8:	2020                	.insn	2, 0x2020
800016ba:	2020                	.insn	2, 0x2020
800016bc:	2520                	.insn	2, 0x2520
800016be:	0a64                	.insn	2, 0x0a64
800016c0:	0000                	.insn	2, 0x0000
800016c2:	0000                	.insn	2, 0x0000
800016c4:	2020                	.insn	2, 0x2020
800016c6:	2020                	.insn	2, 0x2020
800016c8:	2020                	.insn	2, 0x2020
800016ca:	2020                	.insn	2, 0x2020
800016cc:	756f6873          	.insn	4, 0x756f6873
800016d0:	646c                	.insn	2, 0x646c
800016d2:	6220                	.insn	2, 0x6220
800016d4:	3a65                	.insn	2, 0x3a65
800016d6:	2020                	.insn	2, 0x2020
800016d8:	2820                	.insn	2, 0x2820
800016da:	6d69                	.insn	2, 0x6d69
800016dc:	6c70                	.insn	2, 0x6c70
800016de:	6d65                	.insn	2, 0x6d65
800016e0:	6e65                	.insn	2, 0x6e65
800016e2:	6174                	.insn	2, 0x6174
800016e4:	6974                	.insn	2, 0x6974
800016e6:	642d6e6f          	jal	t3,800d7d28 <__global_pointer+0xd32e0>
800016ea:	7065                	.insn	2, 0x7065
800016ec:	6e65                	.insn	2, 0x6e65
800016ee:	6564                	.insn	2, 0x6564
800016f0:	746e                	.insn	2, 0x746e
800016f2:	0a29                	.insn	2, 0x0a29
800016f4:	0000                	.insn	2, 0x0000
800016f6:	0000                	.insn	2, 0x0000
800016f8:	2020                	.insn	2, 0x2020
800016fa:	6944                	.insn	2, 0x6944
800016fc:	3a726373          	.insn	4, 0x3a726373
80001700:	2020                	.insn	2, 0x2020
80001702:	2020                	.insn	2, 0x2020
80001704:	2020                	.insn	2, 0x2020
80001706:	2020                	.insn	2, 0x2020
80001708:	2020                	.insn	2, 0x2020
8000170a:	2020                	.insn	2, 0x2020
8000170c:	2520                	.insn	2, 0x2520
8000170e:	0a64                	.insn	2, 0x0a64
80001710:	0000                	.insn	2, 0x0000
80001712:	0000                	.insn	2, 0x0000
80001714:	2020                	.insn	2, 0x2020
80001716:	6e45                	.insn	2, 0x6e45
80001718:	6d75                	.insn	2, 0x6d75
8000171a:	435f 6d6f 3a70      	.insn	6, 0x3a706d6f435f
80001720:	2020                	.insn	2, 0x2020
80001722:	2020                	.insn	2, 0x2020
80001724:	2020                	.insn	2, 0x2020
80001726:	2020                	.insn	2, 0x2020
80001728:	2520                	.insn	2, 0x2520
8000172a:	0a64                	.insn	2, 0x0a64
8000172c:	0000                	.insn	2, 0x0000
8000172e:	0000                	.insn	2, 0x0000
80001730:	2020                	.insn	2, 0x2020
80001732:	6e49                	.insn	2, 0x6e49
80001734:	5f74                	.insn	2, 0x5f74
80001736:	706d6f43          	.insn	4, 0x706d6f43
8000173a:	203a                	.insn	2, 0x203a
8000173c:	2020                	.insn	2, 0x2020
8000173e:	2020                	.insn	2, 0x2020
80001740:	2020                	.insn	2, 0x2020
80001742:	2020                	.insn	2, 0x2020
80001744:	2520                	.insn	2, 0x2520
80001746:	0a64                	.insn	2, 0x0a64
80001748:	0000                	.insn	2, 0x0000
8000174a:	0000                	.insn	2, 0x0000
8000174c:	2020                	.insn	2, 0x2020
8000174e:	5f727453          	.insn	4, 0x5f727453
80001752:	706d6f43          	.insn	4, 0x706d6f43
80001756:	203a                	.insn	2, 0x203a
80001758:	2020                	.insn	2, 0x2020
8000175a:	2020                	.insn	2, 0x2020
8000175c:	2020                	.insn	2, 0x2020
8000175e:	2020                	.insn	2, 0x2020
80001760:	2520                	.insn	2, 0x2520
80001762:	00000a73          	.insn	4, 0x0a73
80001766:	0000                	.insn	2, 0x0000
80001768:	2020                	.insn	2, 0x2020
8000176a:	2020                	.insn	2, 0x2020
8000176c:	2020                	.insn	2, 0x2020
8000176e:	2020                	.insn	2, 0x2020
80001770:	756f6873          	.insn	4, 0x756f6873
80001774:	646c                	.insn	2, 0x646c
80001776:	6220                	.insn	2, 0x6220
80001778:	3a65                	.insn	2, 0x3a65
8000177a:	2020                	.insn	2, 0x2020
8000177c:	4420                	.insn	2, 0x4420
8000177e:	5248                	.insn	2, 0x5248
80001780:	5359                	.insn	2, 0x5359
80001782:	4f54                	.insn	2, 0x4f54
80001784:	454e                	.insn	2, 0x454e
80001786:	5020                	.insn	2, 0x5020
80001788:	4f52                	.insn	2, 0x4f52
8000178a:	4d415247          	.insn	4, 0x4d415247
8000178e:	202c                	.insn	2, 0x202c
80001790:	454d4f53          	.insn	4, 0x454d4f53
80001794:	5320                	.insn	2, 0x5320
80001796:	5254                	.insn	2, 0x5254
80001798:	4e49                	.insn	2, 0x4e49
8000179a:	00000a47          	.insn	4, 0x0a47
8000179e:	0000                	.insn	2, 0x0000
800017a0:	654e                	.insn	2, 0x654e
800017a2:	7478                	.insn	2, 0x7478
800017a4:	505f 7274 475f      	.insn	6, 0x475f7274505f
800017aa:	6f6c                	.insn	2, 0x6f6c
800017ac:	2d62                	.insn	2, 0x2d62
800017ae:	0a3e                	.insn	2, 0x0a3e
800017b0:	0000                	.insn	2, 0x0000
800017b2:	0000                	.insn	2, 0x0000
800017b4:	2020                	.insn	2, 0x2020
800017b6:	2020                	.insn	2, 0x2020
800017b8:	2020                	.insn	2, 0x2020
800017ba:	2020                	.insn	2, 0x2020
800017bc:	756f6873          	.insn	4, 0x756f6873
800017c0:	646c                	.insn	2, 0x646c
800017c2:	6220                	.insn	2, 0x6220
800017c4:	3a65                	.insn	2, 0x3a65
800017c6:	2020                	.insn	2, 0x2020
800017c8:	2820                	.insn	2, 0x2820
800017ca:	6d69                	.insn	2, 0x6d69
800017cc:	6c70                	.insn	2, 0x6c70
800017ce:	6d65                	.insn	2, 0x6d65
800017d0:	6e65                	.insn	2, 0x6e65
800017d2:	6174                	.insn	2, 0x6174
800017d4:	6974                	.insn	2, 0x6974
800017d6:	642d6e6f          	jal	t3,800d7e18 <__global_pointer+0xd33d0>
800017da:	7065                	.insn	2, 0x7065
800017dc:	6e65                	.insn	2, 0x6e65
800017de:	6564                	.insn	2, 0x6564
800017e0:	746e                	.insn	2, 0x746e
800017e2:	2c29                	.insn	2, 0x2c29
800017e4:	7320                	.insn	2, 0x7320
800017e6:	6d61                	.insn	2, 0x6d61
800017e8:	2065                	.insn	2, 0x2065
800017ea:	7361                	.insn	2, 0x7361
800017ec:	6120                	.insn	2, 0x6120
800017ee:	6f62                	.insn	2, 0x6f62
800017f0:	6576                	.insn	2, 0x6576
800017f2:	000a                	.insn	2, 0x000a
800017f4:	6e49                	.insn	2, 0x6e49
800017f6:	5f74                	.insn	2, 0x5f74
800017f8:	5f31                	.insn	2, 0x5f31
800017fa:	6f4c                	.insn	2, 0x6f4c
800017fc:	20203a63          	.insn	4, 0x20203a63
80001800:	2020                	.insn	2, 0x2020
80001802:	2020                	.insn	2, 0x2020
80001804:	2020                	.insn	2, 0x2020
80001806:	2020                	.insn	2, 0x2020
80001808:	2520                	.insn	2, 0x2520
8000180a:	0a64                	.insn	2, 0x0a64
8000180c:	0000                	.insn	2, 0x0000
8000180e:	0000                	.insn	2, 0x0000
80001810:	6e49                	.insn	2, 0x6e49
80001812:	5f74                	.insn	2, 0x5f74
80001814:	5f32                	.insn	2, 0x5f32
80001816:	6f4c                	.insn	2, 0x6f4c
80001818:	20203a63          	.insn	4, 0x20203a63
8000181c:	2020                	.insn	2, 0x2020
8000181e:	2020                	.insn	2, 0x2020
80001820:	2020                	.insn	2, 0x2020
80001822:	2020                	.insn	2, 0x2020
80001824:	2520                	.insn	2, 0x2520
80001826:	0a64                	.insn	2, 0x0a64
80001828:	0000                	.insn	2, 0x0000
8000182a:	0000                	.insn	2, 0x0000
8000182c:	6e49                	.insn	2, 0x6e49
8000182e:	5f74                	.insn	2, 0x5f74
80001830:	6f4c5f33          	.insn	4, 0x6f4c5f33
80001834:	20203a63          	.insn	4, 0x20203a63
80001838:	2020                	.insn	2, 0x2020
8000183a:	2020                	.insn	2, 0x2020
8000183c:	2020                	.insn	2, 0x2020
8000183e:	2020                	.insn	2, 0x2020
80001840:	2520                	.insn	2, 0x2520
80001842:	0a64                	.insn	2, 0x0a64
80001844:	0000                	.insn	2, 0x0000
80001846:	0000                	.insn	2, 0x0000
80001848:	6e45                	.insn	2, 0x6e45
8000184a:	6d75                	.insn	2, 0x6d75
8000184c:	4c5f 636f 203a      	.insn	6, 0x203a636f4c5f
80001852:	2020                	.insn	2, 0x2020
80001854:	2020                	.insn	2, 0x2020
80001856:	2020                	.insn	2, 0x2020
80001858:	2020                	.insn	2, 0x2020
8000185a:	2020                	.insn	2, 0x2020
8000185c:	2520                	.insn	2, 0x2520
8000185e:	0a64                	.insn	2, 0x0a64
80001860:	0000                	.insn	2, 0x0000
80001862:	0000                	.insn	2, 0x0000
80001864:	5f727453          	.insn	4, 0x5f727453
80001868:	5f31                	.insn	2, 0x5f31
8000186a:	6f4c                	.insn	2, 0x6f4c
8000186c:	20203a63          	.insn	4, 0x20203a63
80001870:	2020                	.insn	2, 0x2020
80001872:	2020                	.insn	2, 0x2020
80001874:	2020                	.insn	2, 0x2020
80001876:	2020                	.insn	2, 0x2020
80001878:	2520                	.insn	2, 0x2520
8000187a:	00000a73          	.insn	4, 0x0a73
8000187e:	0000                	.insn	2, 0x0000
80001880:	2020                	.insn	2, 0x2020
80001882:	2020                	.insn	2, 0x2020
80001884:	2020                	.insn	2, 0x2020
80001886:	2020                	.insn	2, 0x2020
80001888:	756f6873          	.insn	4, 0x756f6873
8000188c:	646c                	.insn	2, 0x646c
8000188e:	6220                	.insn	2, 0x6220
80001890:	3a65                	.insn	2, 0x3a65
80001892:	2020                	.insn	2, 0x2020
80001894:	4420                	.insn	2, 0x4420
80001896:	5248                	.insn	2, 0x5248
80001898:	5359                	.insn	2, 0x5359
8000189a:	4f54                	.insn	2, 0x4f54
8000189c:	454e                	.insn	2, 0x454e
8000189e:	5020                	.insn	2, 0x5020
800018a0:	4f52                	.insn	2, 0x4f52
800018a2:	4d415247          	.insn	4, 0x4d415247
800018a6:	202c                	.insn	2, 0x202c
800018a8:	2731                	.insn	2, 0x2731
800018aa:	53205453          	.insn	4, 0x53205453
800018ae:	5254                	.insn	2, 0x5254
800018b0:	4e49                	.insn	2, 0x4e49
800018b2:	00000a47          	.insn	4, 0x0a47
800018b6:	0000                	.insn	2, 0x0000
800018b8:	5f727453          	.insn	4, 0x5f727453
800018bc:	5f32                	.insn	2, 0x5f32
800018be:	6f4c                	.insn	2, 0x6f4c
800018c0:	20203a63          	.insn	4, 0x20203a63
800018c4:	2020                	.insn	2, 0x2020
800018c6:	2020                	.insn	2, 0x2020
800018c8:	2020                	.insn	2, 0x2020
800018ca:	2020                	.insn	2, 0x2020
800018cc:	2520                	.insn	2, 0x2520
800018ce:	00000a73          	.insn	4, 0x0a73
800018d2:	0000                	.insn	2, 0x0000
800018d4:	2020                	.insn	2, 0x2020
800018d6:	2020                	.insn	2, 0x2020
800018d8:	2020                	.insn	2, 0x2020
800018da:	2020                	.insn	2, 0x2020
800018dc:	756f6873          	.insn	4, 0x756f6873
800018e0:	646c                	.insn	2, 0x646c
800018e2:	6220                	.insn	2, 0x6220
800018e4:	3a65                	.insn	2, 0x3a65
800018e6:	2020                	.insn	2, 0x2020
800018e8:	4420                	.insn	2, 0x4420
800018ea:	5248                	.insn	2, 0x5248
800018ec:	5359                	.insn	2, 0x5359
800018ee:	4f54                	.insn	2, 0x4f54
800018f0:	454e                	.insn	2, 0x454e
800018f2:	5020                	.insn	2, 0x5020
800018f4:	4f52                	.insn	2, 0x4f52
800018f6:	4d415247          	.insn	4, 0x4d415247
800018fa:	202c                	.insn	2, 0x202c
800018fc:	2732                	.insn	2, 0x2732
800018fe:	444e                	.insn	2, 0x444e
80001900:	5320                	.insn	2, 0x5320
80001902:	5254                	.insn	2, 0x5254
80001904:	4e49                	.insn	2, 0x4e49
80001906:	00000a47          	.insn	4, 0x0a47
8000190a:	0000                	.insn	2, 0x0000
8000190c:	694d                	.insn	2, 0x694d
8000190e:	736f7263          	bgeu	t5,s6,80002032 <Arr_2_Glob+0x53a>
80001912:	6365                	.insn	2, 0x6365
80001914:	73646e6f          	jal	t3,8004804a <__global_pointer+0x43602>
80001918:	6620                	.insn	2, 0x6620
8000191a:	6f20726f          	jal	tp,8000900c <__global_pointer+0x45c4>
8000191e:	656e                	.insn	2, 0x656e
80001920:	7220                	.insn	2, 0x7220
80001922:	6e75                	.insn	2, 0x6e75
80001924:	7420                	.insn	2, 0x7420
80001926:	7268                	.insn	2, 0x7268
80001928:	6867756f          	jal	a0,80078fae <__global_pointer+0x74566>
8000192c:	4420                	.insn	2, 0x4420
8000192e:	7268                	.insn	2, 0x7268
80001930:	7379                	.insn	2, 0x7379
80001932:	6f74                	.insn	2, 0x6f74
80001934:	656e                	.insn	2, 0x656e
80001936:	203a                	.insn	2, 0x203a
80001938:	6c25                	.insn	2, 0x6c25
8000193a:	0a64                	.insn	2, 0x0a64
8000193c:	0000                	.insn	2, 0x0000
8000193e:	0000                	.insn	2, 0x0000
80001940:	6844                	.insn	2, 0x6844
80001942:	7972                	.insn	2, 0x7972
80001944:	6e6f7473          	.insn	4, 0x6e6f7473
80001948:	7365                	.insn	2, 0x7365
8000194a:	7020                	.insn	2, 0x7020
8000194c:	7265                	.insn	2, 0x7265
8000194e:	5320                	.insn	2, 0x5320
80001950:	6365                	.insn	2, 0x6365
80001952:	3a646e6f          	jal	t3,80047cf8 <__global_pointer+0x432b0>
80001956:	2020                	.insn	2, 0x2020
80001958:	2020                	.insn	2, 0x2020
8000195a:	2020                	.insn	2, 0x2020
8000195c:	2020                	.insn	2, 0x2020
8000195e:	2020                	.insn	2, 0x2020
80001960:	2020                	.insn	2, 0x2020
80001962:	2020                	.insn	2, 0x2020
80001964:	2020                	.insn	2, 0x2020
80001966:	2020                	.insn	2, 0x2020
80001968:	2020                	.insn	2, 0x2020
8000196a:	2020                	.insn	2, 0x2020
8000196c:	6c25                	.insn	2, 0x6c25
8000196e:	0a64                	.insn	2, 0x0a64
80001970:	0000                	.insn	2, 0x0000
80001972:	0000                	.insn	2, 0x0000
80001974:	4844                	.insn	2, 0x4844
80001976:	5952                	.insn	2, 0x5952
80001978:	4e4f5453          	.insn	4, 0x4e4f5453
8000197c:	2045                	.insn	2, 0x2045
8000197e:	5250                	.insn	2, 0x5250
80001980:	4152474f          	.insn	4, 0x4152474f
80001984:	2c4d                	.insn	2, 0x2c4d
80001986:	3120                	.insn	2, 0x3120
80001988:	20545327          	.insn	4, 0x20545327
8000198c:	49525453          	.insn	4, 0x49525453
80001990:	474e                	.insn	2, 0x474e
80001992:	0000                	.insn	2, 0x0000
80001994:	4844                	.insn	2, 0x4844
80001996:	5952                	.insn	2, 0x5952
80001998:	4e4f5453          	.insn	4, 0x4e4f5453
8000199c:	2045                	.insn	2, 0x2045
8000199e:	5250                	.insn	2, 0x5250
800019a0:	4152474f          	.insn	4, 0x4152474f
800019a4:	2c4d                	.insn	2, 0x2c4d
800019a6:	3220                	.insn	2, 0x3220
800019a8:	20444e27          	.insn	4, 0x20444e27
800019ac:	49525453          	.insn	4, 0x49525453
800019b0:	474e                	.insn	2, 0x474e
800019b2:	0000                	.insn	2, 0x0000
800019b4:	4844                	.insn	2, 0x4844
800019b6:	5952                	.insn	2, 0x5952
800019b8:	4e4f5453          	.insn	4, 0x4e4f5453
800019bc:	2045                	.insn	2, 0x2045
800019be:	5250                	.insn	2, 0x5250
800019c0:	4152474f          	.insn	4, 0x4152474f
800019c4:	2c4d                	.insn	2, 0x2c4d
800019c6:	3320                	.insn	2, 0x3320
800019c8:	20445227          	.insn	4, 0x20445227
800019cc:	49525453          	.insn	4, 0x49525453
800019d0:	474e                	.insn	2, 0x474e
	...

Disassembly of section .rodata:

800019d4 <.rodata>:
800019d4:	1070                	.insn	2, 0x1070
800019d6:	8000                	.insn	2, 0x8000
800019d8:	1048                	.insn	2, 0x1048
800019da:	8000                	.insn	2, 0x8000
800019dc:	0e9c                	.insn	2, 0x0e9c
800019de:	8000                	.insn	2, 0x8000
800019e0:	0e80                	.insn	2, 0x0e80
800019e2:	8000                	.insn	2, 0x8000
800019e4:	0e80                	.insn	2, 0x0e80
800019e6:	8000                	.insn	2, 0x8000
800019e8:	0e80                	.insn	2, 0x0e80
800019ea:	8000                	.insn	2, 0x8000
800019ec:	0e80                	.insn	2, 0x0e80
800019ee:	8000                	.insn	2, 0x8000
800019f0:	0e80                	.insn	2, 0x0e80
800019f2:	8000                	.insn	2, 0x8000
800019f4:	0e80                	.insn	2, 0x0e80
800019f6:	8000                	.insn	2, 0x8000
800019f8:	0e80                	.insn	2, 0x0e80
800019fa:	8000                	.insn	2, 0x8000
800019fc:	0e80                	.insn	2, 0x0e80
800019fe:	8000                	.insn	2, 0x8000
80001a00:	0e80                	.insn	2, 0x0e80
80001a02:	8000                	.insn	2, 0x8000
80001a04:	0e80                	.insn	2, 0x0e80
80001a06:	8000                	.insn	2, 0x8000
80001a08:	1028                	.insn	2, 0x1028
80001a0a:	8000                	.insn	2, 0x8000
80001a0c:	0e80                	.insn	2, 0x0e80
80001a0e:	8000                	.insn	2, 0x8000
80001a10:	0e80                	.insn	2, 0x0e80
80001a12:	8000                	.insn	2, 0x8000
80001a14:	0e80                	.insn	2, 0x0e80
80001a16:	8000                	.insn	2, 0x8000
80001a18:	10a8                	.insn	2, 0x10a8
80001a1a:	8000                	.insn	2, 0x8000
80001a1c:	0e80                	.insn	2, 0x0e80
80001a1e:	8000                	.insn	2, 0x8000
80001a20:	0e9c                	.insn	2, 0x0e9c
80001a22:	8000                	.insn	2, 0x8000
80001a24:	0e80                	.insn	2, 0x0e80
80001a26:	8000                	.insn	2, 0x8000
80001a28:	0e80                	.insn	2, 0x0e80
80001a2a:	8000                	.insn	2, 0x8000
80001a2c:	108c                	.insn	2, 0x108c
80001a2e:	8000                	.insn	2, 0x8000

Disassembly of section .riscv.attributes:

00000000 <.riscv.attributes>:
   0:	5341                	.insn	2, 0x5341
   2:	0000                	.insn	2, 0x0000
   4:	7200                	.insn	2, 0x7200
   6:	7369                	.insn	2, 0x7369
   8:	01007663          	bgeu	zero,a6,14 <__stack_size-0x1ffffec>
   c:	0049                	.insn	2, 0x0049
   e:	0000                	.insn	2, 0x0000
  10:	1004                	.insn	2, 0x1004
  12:	7205                	.insn	2, 0x7205
  14:	3376                	.insn	2, 0x3376
  16:	6932                	.insn	2, 0x6932
  18:	7032                	.insn	2, 0x7032
  1a:	5f31                	.insn	2, 0x5f31
  1c:	326d                	.insn	2, 0x326d
  1e:	3070                	.insn	2, 0x3070
  20:	615f 7032 5f31      	.insn	6, 0x5f317032615f
  26:	697a                	.insn	2, 0x697a
  28:	32727363          	bgeu	tp,t2,34e <__stack_size-0x1fffcb2>
  2c:	3070                	.insn	2, 0x3070
  2e:	7a5f 6d6d 6c75      	.insn	6, 0x6c756d6d7a5f
  34:	7031                	.insn	2, 0x7031
  36:	5f30                	.insn	2, 0x5f30
  38:	617a                	.insn	2, 0x617a
  3a:	6d61                	.insn	2, 0x6d61
  3c:	3070316f          	jal	sp,3b42 <__stack_size-0x1ffc4be>
  40:	7a5f 6c61 7372      	.insn	6, 0x73726c617a5f
  46:	30703163          	.insn	4, 0x30703163
  4a:	7a5f 6966 786e      	.insn	6, 0x786e69667a5f
  50:	7031                	.insn	2, 0x7031
  52:	0030                	.insn	2, 0x0030

Disassembly of section .comment:

00000000 <.comment>:
   0:	3a434347          	.insn	4, 0x3a434347
   4:	2820                	.insn	2, 0x2820
   6:	33623167          	.insn	4, 0x33623167
   a:	3630                	.insn	2, 0x3630
   c:	3330                	.insn	2, 0x3330
   e:	6139                	.insn	2, 0x6139
  10:	2029                	.insn	2, 0x2029
  12:	3531                	.insn	2, 0x3531
  14:	312e                	.insn	2, 0x312e
  16:	302e                	.insn	2, 0x302e
	...

Disassembly of section .debug_line:

00000000 <.debug_line>:
       0:	005c                	.insn	2, 0x005c
       2:	0000                	.insn	2, 0x0000
       4:	0005                	.insn	2, 0x0005
       6:	0004                	.insn	2, 0x0004
       8:	002e                	.insn	2, 0x002e
       a:	0000                	.insn	2, 0x0000
       c:	0101                	.insn	2, 0x0101
       e:	fb01                	.insn	2, 0xfb01
      10:	0d0e                	.insn	2, 0x0d0e
      12:	0100                	.insn	2, 0x0100
      14:	0101                	.insn	2, 0x0101
      16:	0001                	.insn	2, 0x0001
      18:	0000                	.insn	2, 0x0000
      1a:	0001                	.insn	2, 0x0001
      1c:	0100                	.insn	2, 0x0100
      1e:	0101                	.insn	2, 0x0101
      20:	021f 0000 0000      	.insn	6, 0x021f
      26:	0036                	.insn	2, 0x0036
      28:	0000                	.insn	2, 0x0000
      2a:	0102                	.insn	2, 0x0102
      2c:	021f 020f 0039      	.insn	6, 0x0039020f021f
      32:	0000                	.insn	2, 0x0000
      34:	3901                	.insn	2, 0x3901
      36:	0000                	.insn	2, 0x0000
      38:	0100                	.insn	2, 0x0100
      3a:	0500                	.insn	2, 0x0500
      3c:	0002                	.insn	2, 0x0002
      3e:	0000                	.insn	2, 0x0000
      40:	1a80                	.insn	2, 0x1a80
      42:	08090103          	lb	sp,128(s2)
      46:	0100                	.insn	2, 0x0100
      48:	08090203          	lb	tp,128(s2)
      4c:	0100                	.insn	2, 0x0100
      4e:	04090103          	lb	sp,64(s2)
      52:	0100                	.insn	2, 0x0100
      54:	04090303          	lb	t1,64(s2)
      58:	0100                	.insn	2, 0x0100
      5a:	0409                	.insn	2, 0x0409
      5c:	0000                	.insn	2, 0x0000
      5e:	0101                	.insn	2, 0x0101
      60:	09c8                	.insn	2, 0x09c8
      62:	0000                	.insn	2, 0x0000
      64:	0005                	.insn	2, 0x0005
      66:	0004                	.insn	2, 0x0004
      68:	0038                	.insn	2, 0x0038
      6a:	0000                	.insn	2, 0x0000
      6c:	0101                	.insn	2, 0x0101
      6e:	f601                	.insn	2, 0xf601
      70:	0df2                	.insn	2, 0x0df2
      72:	0100                	.insn	2, 0x0100
      74:	0101                	.insn	2, 0x0101
      76:	0001                	.insn	2, 0x0001
      78:	0000                	.insn	2, 0x0000
      7a:	0001                	.insn	2, 0x0001
      7c:	0100                	.insn	2, 0x0100
      7e:	0101                	.insn	2, 0x0101
      80:	021f 0000 0000      	.insn	6, 0x021f
      86:	00f6                	.insn	2, 0x00f6
      88:	0000                	.insn	2, 0x0000
      8a:	0102                	.insn	2, 0x0102
      8c:	021f 040b 0057      	.insn	6, 0x0057040b021f
      92:	0000                	.insn	2, 0x0000
      94:	5700                	.insn	2, 0x5700
      96:	0000                	.insn	2, 0x0000
      98:	0000                	.insn	2, 0x0000
      9a:	0041                	.insn	2, 0x0041
      9c:	0000                	.insn	2, 0x0000
      9e:	4d00                	.insn	2, 0x4d00
      a0:	0000                	.insn	2, 0x0000
      a2:	0100                	.insn	2, 0x0100
      a4:	0500                	.insn	2, 0x0500
      a6:	1c02                	.insn	2, 0x1c02
      a8:	0000                	.insn	2, 0x0000
      aa:	4c80                	.insn	2, 0x4c80
      ac:	0105                	.insn	2, 0x0105
      ae:	0009                	.insn	2, 0x0009
      b0:	1800                	.insn	2, 0x1800
      b2:	0305                	.insn	2, 0x0305
      b4:	0009                	.insn	2, 0x0009
      b6:	0600                	.insn	2, 0x0600
      b8:	0516                	.insn	2, 0x0516
      ba:	0901                	.insn	2, 0x0901
      bc:	003c                	.insn	2, 0x003c
      be:	0518                	.insn	2, 0x0518
      c0:	00040903          	lb	s2,0(s0)
      c4:	1806                	.insn	2, 0x1806
      c6:	0305                	.insn	2, 0x0305
      c8:	0009                	.insn	2, 0x0009
      ca:	1800                	.insn	2, 0x1800
      cc:	0705                	.insn	2, 0x0705
      ce:	0009                	.insn	2, 0x0009
      d0:	1800                	.insn	2, 0x1800
      d2:	0305                	.insn	2, 0x0305
      d4:	0009                	.insn	2, 0x0009
      d6:	1800                	.insn	2, 0x1800
      d8:	0705                	.insn	2, 0x0705
      da:	0009                	.insn	2, 0x0009
      dc:	1800                	.insn	2, 0x1800
      de:	0305                	.insn	2, 0x0305
      e0:	0009                	.insn	2, 0x0009
      e2:	1800                	.insn	2, 0x1800
      e4:	0305                	.insn	2, 0x0305
      e6:	0009                	.insn	2, 0x0009
      e8:	1800                	.insn	2, 0x1800
      ea:	0305                	.insn	2, 0x0305
      ec:	0009                	.insn	2, 0x0009
      ee:	1800                	.insn	2, 0x1800
      f0:	0705                	.insn	2, 0x0705
      f2:	0009                	.insn	2, 0x0009
      f4:	1800                	.insn	2, 0x1800
      f6:	0705                	.insn	2, 0x0705
      f8:	0009                	.insn	2, 0x0009
      fa:	1a00                	.insn	2, 0x1a00
      fc:	0305                	.insn	2, 0x0305
      fe:	0009                	.insn	2, 0x0009
     100:	1b00                	.insn	2, 0x1b00
     102:	0305                	.insn	2, 0x0305
     104:	0009                	.insn	2, 0x0009
     106:	0600                	.insn	2, 0x0600
     108:	051e                	.insn	2, 0x051e
     10a:	00040903          	lb	s2,0(s0)
     10e:	0510                	.insn	2, 0x0510
     110:	0920                	.insn	2, 0x0920
     112:	0004                	.insn	2, 0x0004
     114:	051e                	.insn	2, 0x051e
     116:	00280903          	lb	s2,2(a6)
     11a:	0510                	.insn	2, 0x0510
     11c:	0920                	.insn	2, 0x0920
     11e:	0004                	.insn	2, 0x0004
     120:	051f 0903 0004      	.insn	6, 0x00040903051f
     126:	0510                	.insn	2, 0x0510
     128:	0004091b          	.insn	4, 0x0004091b
     12c:	051e                	.insn	2, 0x051e
     12e:	00040903          	lb	s2,0(s0)
     132:	0510                	.insn	2, 0x0510
     134:	0008091b          	.insn	4, 0x0008091b
     138:	051e                	.insn	2, 0x051e
     13a:	00040903          	lb	s2,0(s0)
     13e:	0920050f          	.insn	4, 0x0920050f
     142:	0004                	.insn	2, 0x0004
     144:	051c                	.insn	2, 0x051c
     146:	0925                	.insn	2, 0x0925
     148:	0004                	.insn	2, 0x0004
     14a:	0518                	.insn	2, 0x0518
     14c:	0924                	.insn	2, 0x0924
     14e:	0004                	.insn	2, 0x0004
     150:	0200                	.insn	2, 0x0200
     152:	0104                	.insn	2, 0x0104
     154:	0512                	.insn	2, 0x0512
     156:	090c                	.insn	2, 0x090c
     158:	0004                	.insn	2, 0x0004
     15a:	0200                	.insn	2, 0x0200
     15c:	0004                	.insn	2, 0x0004
     15e:	0925051b          	.insn	4, 0x0925051b
     162:	0004                	.insn	2, 0x0004
     164:	0518                	.insn	2, 0x0518
     166:	0924                	.insn	2, 0x0924
     168:	0004                	.insn	2, 0x0004
     16a:	0518                	.insn	2, 0x0518
     16c:	000c0903          	lb	s2,0(s8) # 80004000 <Arr_2_Glob+0x2508>
     170:	09160513          	addi	a0,a2,145
     174:	0004                	.insn	2, 0x0004
     176:	0903051b          	.insn	4, 0x0903051b
     17a:	0018                	.insn	2, 0x0018
     17c:	0514                	.insn	2, 0x0514
     17e:	00040913          	addi	s2,s0,0
     182:	0200                	.insn	2, 0x0200
     184:	0104                	.insn	2, 0x0104
     186:	0514                	.insn	2, 0x0514
     188:	090c                	.insn	2, 0x090c
     18a:	0004                	.insn	2, 0x0004
     18c:	0516                	.insn	2, 0x0516
     18e:	0911                	.insn	2, 0x0911
     190:	0008                	.insn	2, 0x0008
     192:	0200                	.insn	2, 0x0200
     194:	0004                	.insn	2, 0x0004
     196:	1806                	.insn	2, 0x1806
     198:	0305                	.insn	2, 0x0305
     19a:	0009                	.insn	2, 0x0009
     19c:	1900                	.insn	2, 0x1900
     19e:	0305                	.insn	2, 0x0305
     1a0:	0009                	.insn	2, 0x0009
     1a2:	1800                	.insn	2, 0x1800
     1a4:	0305                	.insn	2, 0x0305
     1a6:	0009                	.insn	2, 0x0009
     1a8:	1800                	.insn	2, 0x1800
     1aa:	0305                	.insn	2, 0x0305
     1ac:	0009                	.insn	2, 0x0009
     1ae:	1800                	.insn	2, 0x1800
     1b0:	0305                	.insn	2, 0x0305
     1b2:	0009                	.insn	2, 0x0009
     1b4:	1800                	.insn	2, 0x1800
     1b6:	0305                	.insn	2, 0x0305
     1b8:	0009                	.insn	2, 0x0009
     1ba:	1800                	.insn	2, 0x1800
     1bc:	0305                	.insn	2, 0x0305
     1be:	2409                	.insn	2, 0x2409
     1c0:	0600                	.insn	2, 0x0600
     1c2:	0519                	.insn	2, 0x0519
     1c4:	0914                	.insn	2, 0x0914
     1c6:	0004                	.insn	2, 0x0004
     1c8:	051d                	.insn	2, 0x051d
     1ca:	00040903          	lb	s2,0(s0)
     1ce:	0511                	.insn	2, 0x0511
     1d0:	0914                	.insn	2, 0x0914
     1d2:	0004                	.insn	2, 0x0004
     1d4:	051d                	.insn	2, 0x051d
     1d6:	00040903          	lb	s2,0(s0)
     1da:	0903050f          	.insn	4, 0x0903050f
     1de:	0004                	.insn	2, 0x0004
     1e0:	1906                	.insn	2, 0x1906
     1e2:	0305                	.insn	2, 0x0305
     1e4:	0009                	.insn	2, 0x0009
     1e6:	0600                	.insn	2, 0x0600
     1e8:	0501                	.insn	2, 0x0501
     1ea:	0914                	.insn	2, 0x0914
     1ec:	0008                	.insn	2, 0x0008
     1ee:	1d06                	.insn	2, 0x1d06
     1f0:	0305                	.insn	2, 0x0305
     1f2:	0009                	.insn	2, 0x0009
     1f4:	0600                	.insn	2, 0x0600
     1f6:	0903050f          	.insn	4, 0x0903050f
     1fa:	001c                	.insn	2, 0x001c
     1fc:	051f 0903 0004      	.insn	6, 0x00040903051f
     202:	1806                	.insn	2, 0x1806
     204:	0305                	.insn	2, 0x0305
     206:	1409                	.insn	2, 0x1409
     208:	1800                	.insn	2, 0x1800
     20a:	0305                	.insn	2, 0x0305
     20c:	0009                	.insn	2, 0x0009
     20e:	0600                	.insn	2, 0x0600
     210:	0501                	.insn	2, 0x0501
     212:	00040907          	.insn	4, 0x00040907
     216:	0501                	.insn	2, 0x0501
     218:	0906                	.insn	2, 0x0906
     21a:	0008                	.insn	2, 0x0008
     21c:	1806                	.insn	2, 0x1806
     21e:	0505                	.insn	2, 0x0505
     220:	0c09                	.insn	2, 0x0c09
     222:	1b00                	.insn	2, 0x1b00
     224:	0305                	.insn	2, 0x0305
     226:	1c09                	.insn	2, 0x1c09
     228:	1800                	.insn	2, 0x1800
     22a:	0305                	.insn	2, 0x0305
     22c:	0c09                	.insn	2, 0x0c09
     22e:	1900                	.insn	2, 0x1900
     230:	0305                	.insn	2, 0x0305
     232:	0009                	.insn	2, 0x0009
     234:	0600                	.insn	2, 0x0600
     236:	0519                	.insn	2, 0x0519
     238:	0905                	.insn	2, 0x0905
     23a:	0008                	.insn	2, 0x0008
     23c:	0515                	.insn	2, 0x0515
     23e:	0908                	.insn	2, 0x0908
     240:	0004                	.insn	2, 0x0004
     242:	0519                	.insn	2, 0x0519
     244:	0905                	.insn	2, 0x0905
     246:	0008                	.insn	2, 0x0008
     248:	0515                	.insn	2, 0x0515
     24a:	0908                	.insn	2, 0x0908
     24c:	0004                	.insn	2, 0x0004
     24e:	1806                	.insn	2, 0x1806
     250:	0305                	.insn	2, 0x0305
     252:	0009                	.insn	2, 0x0009
     254:	0100                	.insn	2, 0x0100
     256:	0a05                	.insn	2, 0x0a05
     258:	0009                	.insn	2, 0x0009
     25a:	1800                	.insn	2, 0x1800
     25c:	0505                	.insn	2, 0x0505
     25e:	0409                	.insn	2, 0x0409
     260:	1d00                	.insn	2, 0x1d00
     262:	0505                	.insn	2, 0x0505
     264:	0c09                	.insn	2, 0x0c09
     266:	0600                	.insn	2, 0x0600
     268:	090b0537          	lui	a0,0x90b0
     26c:	0004                	.insn	2, 0x0004
     26e:	05016003          	.insn	4, 0x05016003
     272:	0905                	.insn	2, 0x0905
     274:	0004                	.insn	2, 0x0004
     276:	1906                	.insn	2, 0x1906
     278:	0505                	.insn	2, 0x0505
     27a:	0009                	.insn	2, 0x0009
     27c:	0000                	.insn	2, 0x0000
     27e:	0402                	.insn	2, 0x0402
     280:	0101                	.insn	2, 0x0101
     282:	2305                	.insn	2, 0x2305
     284:	0409                	.insn	2, 0x0409
     286:	0000                	.insn	2, 0x0000
     288:	0402                	.insn	2, 0x0402
     28a:	0600                	.insn	2, 0x0600
     28c:	0501                	.insn	2, 0x0501
     28e:	0914                	.insn	2, 0x0914
     290:	000c                	.insn	2, 0x000c
     292:	0535                	.insn	2, 0x0535
     294:	0010090b          	.insn	4, 0x0010090b
     298:	0501                	.insn	2, 0x0501
     29a:	0000090b          	.insn	4, 0x090b
     29e:	0306                	.insn	2, 0x0306
     2a0:	0164                	.insn	2, 0x0164
     2a2:	0705                	.insn	2, 0x0705
     2a4:	0409                	.insn	2, 0x0409
     2a6:	1800                	.insn	2, 0x1800
     2a8:	0705                	.insn	2, 0x0705
     2aa:	0409                	.insn	2, 0x0409
     2ac:	1900                	.insn	2, 0x1900
     2ae:	0705                	.insn	2, 0x0705
     2b0:	0009                	.insn	2, 0x0009
     2b2:	1800                	.insn	2, 0x1800
     2b4:	0705                	.insn	2, 0x0705
     2b6:	0009                	.insn	2, 0x0009
     2b8:	1800                	.insn	2, 0x1800
     2ba:	0705                	.insn	2, 0x0705
     2bc:	4009                	.insn	2, 0x4009
     2be:	1800                	.insn	2, 0x1800
     2c0:	0705                	.insn	2, 0x0705
     2c2:	0009                	.insn	2, 0x0009
     2c4:	0600                	.insn	2, 0x0600
     2c6:	0518                	.insn	2, 0x0518
     2c8:	0914                	.insn	2, 0x0914
     2ca:	0004                	.insn	2, 0x0004
     2cc:	0516                	.insn	2, 0x0516
     2ce:	0910                	.insn	2, 0x0910
     2d0:	0004                	.insn	2, 0x0004
     2d2:	0518                	.insn	2, 0x0518
     2d4:	0914                	.insn	2, 0x0914
     2d6:	0004                	.insn	2, 0x0004
     2d8:	0515                	.insn	2, 0x0515
     2da:	00080907          	.insn	4, 0x00080907
     2de:	0518                	.insn	2, 0x0518
     2e0:	0910                	.insn	2, 0x0910
     2e2:	0004                	.insn	2, 0x0004
     2e4:	1806                	.insn	2, 0x1806
     2e6:	0705                	.insn	2, 0x0705
     2e8:	0009                	.insn	2, 0x0009
     2ea:	0600                	.insn	2, 0x0600
     2ec:	0501                	.insn	2, 0x0501
     2ee:	0914                	.insn	2, 0x0914
     2f0:	0004                	.insn	2, 0x0004
     2f2:	0200                	.insn	2, 0x0200
     2f4:	0104                	.insn	2, 0x0104
     2f6:	0501                	.insn	2, 0x0501
     2f8:	00040913          	addi	s2,s0,0
     2fc:	0200                	.insn	2, 0x0200
     2fe:	0004                	.insn	2, 0x0004
     300:	0913051b          	.insn	4, 0x0913051b
     304:	0004                	.insn	2, 0x0004
     306:	0200                	.insn	2, 0x0200
     308:	0104                	.insn	2, 0x0104
     30a:	09110513          	addi	a0,sp,145
     30e:	0004                	.insn	2, 0x0004
     310:	0200                	.insn	2, 0x0200
     312:	0004                	.insn	2, 0x0004
     314:	1906                	.insn	2, 0x1906
     316:	0705                	.insn	2, 0x0705
     318:	0009                	.insn	2, 0x0009
     31a:	0100                	.insn	2, 0x0100
     31c:	1805                	.insn	2, 0x1805
     31e:	0009                	.insn	2, 0x0009
     320:	1900                	.insn	2, 0x1900
     322:	0905                	.insn	2, 0x0905
     324:	0009                	.insn	2, 0x0009
     326:	0600                	.insn	2, 0x0600
     328:	0519                	.insn	2, 0x0519
     32a:	0909                	.insn	2, 0x0909
     32c:	000c                	.insn	2, 0x000c
     32e:	0515                	.insn	2, 0x0515
     330:	00040913          	addi	s2,s0,0
     334:	1906                	.insn	2, 0x1906
     336:	0905                	.insn	2, 0x0905
     338:	0409                	.insn	2, 0x0409
     33a:	1900                	.insn	2, 0x1900
     33c:	0905                	.insn	2, 0x0905
     33e:	0009                	.insn	2, 0x0009
     340:	1100                	.insn	2, 0x1100
     342:	1805                	.insn	2, 0x1805
     344:	0009                	.insn	2, 0x0009
     346:	2000                	.insn	2, 0x2000
     348:	0705                	.insn	2, 0x0705
     34a:	1409                	.insn	2, 0x1409
     34c:	1900                	.insn	2, 0x1900
     34e:	0705                	.insn	2, 0x0705
     350:	0809                	.insn	2, 0x0809
     352:	1800                	.insn	2, 0x1800
     354:	0705                	.insn	2, 0x0705
     356:	0009                	.insn	2, 0x0009
     358:	0000                	.insn	2, 0x0000
     35a:	0402                	.insn	2, 0x0402
     35c:	0101                	.insn	2, 0x0101
     35e:	2505                	.insn	2, 0x2505
     360:	0c09                	.insn	2, 0x0c09
     362:	0000                	.insn	2, 0x0000
     364:	0402                	.insn	2, 0x0402
     366:	0600                	.insn	2, 0x0600
     368:	0501                	.insn	2, 0x0501
     36a:	0915                	.insn	2, 0x0915
     36c:	0004                	.insn	2, 0x0004
     36e:	05016f03          	.insn	4, 0x05016f03
     372:	0911                	.insn	2, 0x0911
     374:	0008                	.insn	2, 0x0008
     376:	0200                	.insn	2, 0x0200
     378:	0204                	.insn	2, 0x0204
     37a:	2806                	.insn	2, 0x2806
     37c:	3305                	.insn	2, 0x3305
     37e:	0009                	.insn	2, 0x0009
     380:	0000                	.insn	2, 0x0000
     382:	0402                	.insn	2, 0x0402
     384:	0601                	.insn	2, 0x0601
     386:	0501                	.insn	2, 0x0501
     388:	0925                	.insn	2, 0x0925
     38a:	0004                	.insn	2, 0x0004
     38c:	0200                	.insn	2, 0x0200
     38e:	0204                	.insn	2, 0x0204
     390:	0501                	.insn	2, 0x0501
     392:	00080933          	add	s2,a6,zero
     396:	0200                	.insn	2, 0x0200
     398:	0104                	.insn	2, 0x0104
     39a:	0106                	.insn	2, 0x0106
     39c:	2505                	.insn	2, 0x2505
     39e:	0409                	.insn	2, 0x0409
     3a0:	0000                	.insn	2, 0x0000
     3a2:	0402                	.insn	2, 0x0402
     3a4:	1a00                	.insn	2, 0x1a00
     3a6:	0905                	.insn	2, 0x0905
     3a8:	0009                	.insn	2, 0x0009
     3aa:	0600                	.insn	2, 0x0600
     3ac:	0501                	.insn	2, 0x0501
     3ae:	0919                	.insn	2, 0x0919
     3b0:	000c                	.insn	2, 0x000c
     3b2:	0200                	.insn	2, 0x0200
     3b4:	0104                	.insn	2, 0x0104
     3b6:	0501                	.insn	2, 0x0501
     3b8:	090c                	.insn	2, 0x090c
     3ba:	0008                	.insn	2, 0x0008
     3bc:	0200                	.insn	2, 0x0200
     3be:	0004                	.insn	2, 0x0004
     3c0:	1a06                	.insn	2, 0x1a06
     3c2:	0b05                	.insn	2, 0x0b05
     3c4:	0c09                	.insn	2, 0x0c09
     3c6:	1800                	.insn	2, 0x1800
     3c8:	0b05                	.insn	2, 0x0b05
     3ca:	3409                	.insn	2, 0x3409
     3cc:	1800                	.insn	2, 0x1800
     3ce:	0b05                	.insn	2, 0x0b05
     3d0:	0009                	.insn	2, 0x0009
     3d2:	1800                	.insn	2, 0x1800
     3d4:	0b05                	.insn	2, 0x0b05
     3d6:	0009                	.insn	2, 0x0009
     3d8:	0000                	.insn	2, 0x0000
     3da:	0402                	.insn	2, 0x0402
     3dc:	0601                	.insn	2, 0x0601
     3de:	050e                	.insn	2, 0x050e
     3e0:	0925                	.insn	2, 0x0925
     3e2:	0004                	.insn	2, 0x0004
     3e4:	0200                	.insn	2, 0x0200
     3e6:	0204                	.insn	2, 0x0204
     3e8:	0501                	.insn	2, 0x0501
     3ea:	00040933          	add	s2,s0,zero
     3ee:	0200                	.insn	2, 0x0200
     3f0:	0004                	.insn	2, 0x0004
     3f2:	0520                	.insn	2, 0x0520
     3f4:	0914                	.insn	2, 0x0914
     3f6:	0004                	.insn	2, 0x0004
     3f8:	0515                	.insn	2, 0x0515
     3fa:	0014090b          	.insn	4, 0x0014090b
     3fe:	0200                	.insn	2, 0x0200
     400:	0204                	.insn	2, 0x0204
     402:	0510                	.insn	2, 0x0510
     404:	00040933          	add	s2,s0,zero
     408:	0200                	.insn	2, 0x0200
     40a:	0004                	.insn	2, 0x0004
     40c:	051f 0915 0004      	.insn	6, 0x00040915051f
     412:	0501                	.insn	2, 0x0501
     414:	0915                	.insn	2, 0x0915
     416:	0000                	.insn	2, 0x0000
     418:	0200                	.insn	2, 0x0200
     41a:	0204                	.insn	2, 0x0204
     41c:	0f06                	.insn	2, 0x0f06
     41e:	3305                	.insn	2, 0x3305
     420:	0009                	.insn	2, 0x0009
     422:	0000                	.insn	2, 0x0000
     424:	0402                	.insn	2, 0x0402
     426:	0101                	.insn	2, 0x0101
     428:	2505                	.insn	2, 0x2505
     42a:	0409                	.insn	2, 0x0409
     42c:	0000                	.insn	2, 0x0000
     42e:	0402                	.insn	2, 0x0402
     430:	0600                	.insn	2, 0x0600
     432:	0524                	.insn	2, 0x0524
     434:	0911                	.insn	2, 0x0911
     436:	0008                	.insn	2, 0x0008
     438:	0106                	.insn	2, 0x0106
     43a:	0705                	.insn	2, 0x0705
     43c:	0009                	.insn	2, 0x0009
     43e:	1800                	.insn	2, 0x1800
     440:	0705                	.insn	2, 0x0705
     442:	0009                	.insn	2, 0x0009
     444:	0600                	.insn	2, 0x0600
     446:	0501                	.insn	2, 0x0501
     448:	091d                	.insn	2, 0x091d
     44a:	0004                	.insn	2, 0x0004
     44c:	051a                	.insn	2, 0x051a
     44e:	00040907          	.insn	4, 0x00040907
     452:	0200                	.insn	2, 0x0200
     454:	0204                	.insn	2, 0x0204
     456:	05015803          	lhu	a6,80(sp)
     45a:	0936                	.insn	2, 0x0936
     45c:	0004                	.insn	2, 0x0004
     45e:	0200                	.insn	2, 0x0200
     460:	0004                	.insn	2, 0x0004
     462:	053c                	.insn	2, 0x053c
     464:	091d                	.insn	2, 0x091d
     466:	0004                	.insn	2, 0x0004
     468:	0501                	.insn	2, 0x0501
     46a:	0911                	.insn	2, 0x0911
     46c:	0004                	.insn	2, 0x0004
     46e:	1806                	.insn	2, 0x1806
     470:	0705                	.insn	2, 0x0705
     472:	0009                	.insn	2, 0x0009
     474:	1900                	.insn	2, 0x1900
     476:	0705                	.insn	2, 0x0705
     478:	0409                	.insn	2, 0x0409
     47a:	0000                	.insn	2, 0x0000
     47c:	0402                	.insn	2, 0x0402
     47e:	0302                	.insn	2, 0x0302
     480:	0158                	.insn	2, 0x0158
     482:	3605                	.insn	2, 0x3605
     484:	0009                	.insn	2, 0x0009
     486:	0000                	.insn	2, 0x0000
     488:	0402                	.insn	2, 0x0402
     48a:	0101                	.insn	2, 0x0101
     48c:	2305                	.insn	2, 0x2305
     48e:	0c09                	.insn	2, 0x0c09
     490:	0000                	.insn	2, 0x0000
     492:	0402                	.insn	2, 0x0402
     494:	0600                	.insn	2, 0x0600
     496:	054a                	.insn	2, 0x054a
     498:	091a                	.insn	2, 0x091a
     49a:	0008                	.insn	2, 0x0008
     49c:	05017303          	.insn	4, 0x05017303
     4a0:	0922                	.insn	2, 0x0922
     4a2:	0004                	.insn	2, 0x0004
     4a4:	0501                	.insn	2, 0x0501
     4a6:	0922                	.insn	2, 0x0922
     4a8:	0000                	.insn	2, 0x0000
     4aa:	0524                	.insn	2, 0x0524
     4ac:	0004090f          	.insn	4, 0x0004090f
     4b0:	05017303          	.insn	4, 0x05017303
     4b4:	0915                	.insn	2, 0x0915
     4b6:	0004                	.insn	2, 0x0004
     4b8:	0501                	.insn	2, 0x0501
     4ba:	0915                	.insn	2, 0x0915
     4bc:	0000                	.insn	2, 0x0000
     4be:	0524                	.insn	2, 0x0524
     4c0:	091a                	.insn	2, 0x091a
     4c2:	0004                	.insn	2, 0x0004
     4c4:	0521                	.insn	2, 0x0521
     4c6:	00040903          	lb	s2,0(s0)
     4ca:	05017403          	.insn	4, 0x05017403
     4ce:	0905                	.insn	2, 0x0905
     4d0:	0004                	.insn	2, 0x0004
     4d2:	0520                	.insn	2, 0x0520
     4d4:	090a                	.insn	2, 0x090a
     4d6:	0004                	.insn	2, 0x0004
     4d8:	0510                	.insn	2, 0x0510
     4da:	0004090f          	.insn	4, 0x0004090f
     4de:	05017303          	.insn	4, 0x05017303
     4e2:	0915                	.insn	2, 0x0915
     4e4:	0004                	.insn	2, 0x0004
     4e6:	090a052b          	.insn	4, 0x090a052b
     4ea:	0004                	.insn	2, 0x0004
     4ec:	051a                	.insn	2, 0x051a
     4ee:	00040903          	lb	s2,0(s0)
     4f2:	05017403          	.insn	4, 0x05017403
     4f6:	0905                	.insn	2, 0x0905
     4f8:	0004                	.insn	2, 0x0004
     4fa:	0520                	.insn	2, 0x0520
     4fc:	090a                	.insn	2, 0x090a
     4fe:	0004                	.insn	2, 0x0004
     500:	05016c03          	.insn	4, 0x05016c03
     504:	0911                	.insn	2, 0x0911
     506:	0004                	.insn	2, 0x0004
     508:	2206                	.insn	2, 0x2206
     50a:	0505                	.insn	2, 0x0505
     50c:	0009                	.insn	2, 0x0009
     50e:	1900                	.insn	2, 0x1900
     510:	0505                	.insn	2, 0x0505
     512:	0009                	.insn	2, 0x0009
     514:	1e00                	.insn	2, 0x1e00
     516:	0505                	.insn	2, 0x0505
     518:	0009                	.insn	2, 0x0009
     51a:	0300                	.insn	2, 0x0300
     51c:	7fbd                	.insn	2, 0x7fbd
     51e:	0501                	.insn	2, 0x0501
     520:	090a                	.insn	2, 0x090a
     522:	0000                	.insn	2, 0x0000
     524:	055d                	.insn	2, 0x055d
     526:	00040903          	lb	s2,0(s0)
     52a:	0518                	.insn	2, 0x0518
     52c:	00040903          	lb	s2,0(s0)
     530:	0106                	.insn	2, 0x0106
     532:	0305                	.insn	2, 0x0305
     534:	0809                	.insn	2, 0x0809
     536:	0600                	.insn	2, 0x0600
     538:	0518                	.insn	2, 0x0518
     53a:	000c0903          	lb	s2,0(s8)
     53e:	1806                	.insn	2, 0x1806
     540:	0305                	.insn	2, 0x0305
     542:	0409                	.insn	2, 0x0409
     544:	1600                	.insn	2, 0x1600
     546:	0305                	.insn	2, 0x0305
     548:	0409                	.insn	2, 0x0409
     54a:	0600                	.insn	2, 0x0600
     54c:	0518                	.insn	2, 0x0518
     54e:	000c0903          	lb	s2,0(s8)
     552:	0518                	.insn	2, 0x0518
     554:	00100903          	lb	s2,1(zero) # 1 <__stack_size-0x1ffffff>
     558:	0518                	.insn	2, 0x0518
     55a:	000c0903          	lb	s2,0(s8)
     55e:	0518                	.insn	2, 0x0518
     560:	00140903          	lb	s2,1(s0)
     564:	0518                	.insn	2, 0x0518
     566:	00100903          	lb	s2,1(zero) # 1 <__stack_size-0x1ffffff>
     56a:	0518                	.insn	2, 0x0518
     56c:	00100903          	lb	s2,1(zero) # 1 <__stack_size-0x1ffffff>
     570:	0518                	.insn	2, 0x0518
     572:	000c0903          	lb	s2,0(s8)
     576:	0518                	.insn	2, 0x0518
     578:	00100903          	lb	s2,1(zero) # 1 <__stack_size-0x1ffffff>
     57c:	1e06                	.insn	2, 0x1e06
     57e:	0305                	.insn	2, 0x0305
     580:	0409                	.insn	2, 0x0409
     582:	1900                	.insn	2, 0x1900
     584:	0305                	.insn	2, 0x0305
     586:	0409                	.insn	2, 0x0409
     588:	0e00                	.insn	2, 0x0e00
     58a:	0305                	.insn	2, 0x0305
     58c:	0409                	.insn	2, 0x0409
     58e:	0600                	.insn	2, 0x0600
     590:	0518                	.insn	2, 0x0518
     592:	000c0903          	lb	s2,0(s8)
     596:	0518                	.insn	2, 0x0518
     598:	00180903          	lb	s2,1(a6)
     59c:	0518                	.insn	2, 0x0518
     59e:	000c0903          	lb	s2,0(s8)
     5a2:	0518                	.insn	2, 0x0518
     5a4:	000c0903          	lb	s2,0(s8)
     5a8:	0518                	.insn	2, 0x0518
     5aa:	00000903          	lb	s2,0(zero) # 0 <__stack_size-0x2000000>
     5ae:	0106                	.insn	2, 0x0106
     5b0:	3b05                	.insn	2, 0x3b05
     5b2:	0409                	.insn	2, 0x0409
     5b4:	0100                	.insn	2, 0x0100
     5b6:	0305                	.insn	2, 0x0305
     5b8:	0c09                	.insn	2, 0x0c09
     5ba:	1d00                	.insn	2, 0x1d00
     5bc:	0305                	.insn	2, 0x0305
     5be:	0409                	.insn	2, 0x0409
     5c0:	1900                	.insn	2, 0x1900
     5c2:	0305                	.insn	2, 0x0305
     5c4:	0409                	.insn	2, 0x0409
     5c6:	0f00                	.insn	2, 0x0f00
     5c8:	0305                	.insn	2, 0x0305
     5ca:	0409                	.insn	2, 0x0409
     5cc:	0600                	.insn	2, 0x0600
     5ce:	0518                	.insn	2, 0x0518
     5d0:	000c0903          	lb	s2,0(s8)
     5d4:	0518                	.insn	2, 0x0518
     5d6:	00000903          	lb	s2,0(zero) # 0 <__stack_size-0x2000000>
     5da:	0106                	.insn	2, 0x0106
     5dc:	3505                	.insn	2, 0x3505
     5de:	0409                	.insn	2, 0x0409
     5e0:	0100                	.insn	2, 0x0100
     5e2:	0305                	.insn	2, 0x0305
     5e4:	0409                	.insn	2, 0x0409
     5e6:	1e00                	.insn	2, 0x1e00
     5e8:	0305                	.insn	2, 0x0305
     5ea:	0409                	.insn	2, 0x0409
     5ec:	1000                	.insn	2, 0x1000
     5ee:	0305                	.insn	2, 0x0305
     5f0:	0809                	.insn	2, 0x0809
     5f2:	0600                	.insn	2, 0x0600
     5f4:	0518                	.insn	2, 0x0518
     5f6:	000c0903          	lb	s2,0(s8)
     5fa:	0518                	.insn	2, 0x0518
     5fc:	00000903          	lb	s2,0(zero) # 0 <__stack_size-0x2000000>
     600:	0106                	.insn	2, 0x0106
     602:	4405                	.insn	2, 0x4405
     604:	0409                	.insn	2, 0x0409
     606:	0100                	.insn	2, 0x0100
     608:	0305                	.insn	2, 0x0305
     60a:	0c09                	.insn	2, 0x0c09
     60c:	0600                	.insn	2, 0x0600
     60e:	0518                	.insn	2, 0x0518
     610:	000c0903          	lb	s2,0(s8)
     614:	0518                	.insn	2, 0x0518
     616:	00100903          	lb	s2,1(zero) # 1 <__stack_size-0x1ffffff>
     61a:	0518                	.insn	2, 0x0518
     61c:	000c0903          	lb	s2,0(s8)
     620:	0518                	.insn	2, 0x0518
     622:	00000903          	lb	s2,0(zero) # 0 <__stack_size-0x2000000>
     626:	0106                	.insn	2, 0x0106
     628:	4405                	.insn	2, 0x4405
     62a:	0409                	.insn	2, 0x0409
     62c:	0100                	.insn	2, 0x0100
     62e:	0305                	.insn	2, 0x0305
     630:	0409                	.insn	2, 0x0409
     632:	1a00                	.insn	2, 0x1a00
     634:	4005                	.insn	2, 0x4005
     636:	0409                	.insn	2, 0x0409
     638:	1400                	.insn	2, 0x1400
     63a:	0305                	.insn	2, 0x0305
     63c:	0809                	.insn	2, 0x0809
     63e:	0600                	.insn	2, 0x0600
     640:	0518                	.insn	2, 0x0518
     642:	00080903          	lb	s2,0(a6)
     646:	0518                	.insn	2, 0x0518
     648:	000c0903          	lb	s2,0(s8)
     64c:	0518                	.insn	2, 0x0518
     64e:	00000903          	lb	s2,0(zero) # 0 <__stack_size-0x2000000>
     652:	0106                	.insn	2, 0x0106
     654:	4005                	.insn	2, 0x4005
     656:	0409                	.insn	2, 0x0409
     658:	0100                	.insn	2, 0x0100
     65a:	0305                	.insn	2, 0x0305
     65c:	1009                	.insn	2, 0x1009
     65e:	0600                	.insn	2, 0x0600
     660:	0518                	.insn	2, 0x0518
     662:	000c0903          	lb	s2,0(s8)
     666:	0519                	.insn	2, 0x0519
     668:	00000903          	lb	s2,0(zero) # 0 <__stack_size-0x2000000>
     66c:	0106                	.insn	2, 0x0106
     66e:	3a05                	.insn	2, 0x3a05
     670:	0409                	.insn	2, 0x0409
     672:	0100                	.insn	2, 0x0100
     674:	0305                	.insn	2, 0x0305
     676:	0c09                	.insn	2, 0x0c09
     678:	0600                	.insn	2, 0x0600
     67a:	0518                	.insn	2, 0x0518
     67c:	000c0903          	lb	s2,0(s8)
     680:	0518                	.insn	2, 0x0518
     682:	00000903          	lb	s2,0(zero) # 0 <__stack_size-0x2000000>
     686:	1806                	.insn	2, 0x1806
     688:	2c05                	.insn	2, 0x2c05
     68a:	0409                	.insn	2, 0x0409
     68c:	1600                	.insn	2, 0x1600
     68e:	0305                	.insn	2, 0x0305
     690:	0c09                	.insn	2, 0x0c09
     692:	0600                	.insn	2, 0x0600
     694:	0519                	.insn	2, 0x0519
     696:	000c0903          	lb	s2,0(s8)
     69a:	0518                	.insn	2, 0x0518
     69c:	00100903          	lb	s2,1(zero) # 1 <__stack_size-0x1ffffff>
     6a0:	0519                	.insn	2, 0x0519
     6a2:	000c0903          	lb	s2,0(s8)
     6a6:	0518                	.insn	2, 0x0518
     6a8:	00000903          	lb	s2,0(zero) # 0 <__stack_size-0x2000000>
     6ac:	1806                	.insn	2, 0x1806
     6ae:	2c05                	.insn	2, 0x2c05
     6b0:	0409                	.insn	2, 0x0409
     6b2:	1600                	.insn	2, 0x1600
     6b4:	0305                	.insn	2, 0x0305
     6b6:	0c09                	.insn	2, 0x0c09
     6b8:	0600                	.insn	2, 0x0600
     6ba:	0519                	.insn	2, 0x0519
     6bc:	00080903          	lb	s2,0(a6)
     6c0:	0518                	.insn	2, 0x0518
     6c2:	00100903          	lb	s2,1(zero) # 1 <__stack_size-0x1ffffff>
     6c6:	0518                	.insn	2, 0x0518
     6c8:	000c0903          	lb	s2,0(s8)
     6cc:	0518                	.insn	2, 0x0518
     6ce:	00100903          	lb	s2,1(zero) # 1 <__stack_size-0x1ffffff>
     6d2:	0518                	.insn	2, 0x0518
     6d4:	000c0903          	lb	s2,0(s8)
     6d8:	0518                	.insn	2, 0x0518
     6da:	00100903          	lb	s2,1(zero) # 1 <__stack_size-0x1ffffff>
     6de:	0518                	.insn	2, 0x0518
     6e0:	000c0903          	lb	s2,0(s8)
     6e4:	0518                	.insn	2, 0x0518
     6e6:	00100903          	lb	s2,1(zero) # 1 <__stack_size-0x1ffffff>
     6ea:	0518                	.insn	2, 0x0518
     6ec:	000c0903          	lb	s2,0(s8)
     6f0:	0518                	.insn	2, 0x0518
     6f2:	00100903          	lb	s2,1(zero) # 1 <__stack_size-0x1ffffff>
     6f6:	0518                	.insn	2, 0x0518
     6f8:	000c0903          	lb	s2,0(s8)
     6fc:	0518                	.insn	2, 0x0518
     6fe:	00100903          	lb	s2,1(zero) # 1 <__stack_size-0x1ffffff>
     702:	0518                	.insn	2, 0x0518
     704:	000c0903          	lb	s2,0(s8)
     708:	0518                	.insn	2, 0x0518
     70a:	00080903          	lb	s2,0(a6)
     70e:	0519                	.insn	2, 0x0519
     710:	00000903          	lb	s2,0(zero) # 0 <__stack_size-0x2000000>
     714:	0106                	.insn	2, 0x0106
     716:	4705                	.insn	2, 0x4705
     718:	0409                	.insn	2, 0x0409
     71a:	1800                	.insn	2, 0x1800
     71c:	3105                	.insn	2, 0x3105
     71e:	0c09                	.insn	2, 0x0c09
     720:	1600                	.insn	2, 0x1600
     722:	4705                	.insn	2, 0x4705
     724:	0c09                	.insn	2, 0x0c09
     726:	1a00                	.insn	2, 0x1a00
     728:	0305                	.insn	2, 0x0305
     72a:	0409                	.insn	2, 0x0409
     72c:	1400                	.insn	2, 0x1400
     72e:	1005                	.insn	2, 0x1005
     730:	0409                	.insn	2, 0x0409
     732:	1800                	.insn	2, 0x1800
     734:	1905                	.insn	2, 0x1905
     736:	0409                	.insn	2, 0x0409
     738:	1900                	.insn	2, 0x1900
     73a:	0305                	.insn	2, 0x0305
     73c:	0409                	.insn	2, 0x0409
     73e:	1400                	.insn	2, 0x1400
     740:	4705                	.insn	2, 0x4705
     742:	0409                	.insn	2, 0x0409
     744:	1800                	.insn	2, 0x1800
     746:	1905                	.insn	2, 0x1905
     748:	0409                	.insn	2, 0x0409
     74a:	1600                	.insn	2, 0x1600
     74c:	4705                	.insn	2, 0x4705
     74e:	0809                	.insn	2, 0x0809
     750:	0100                	.insn	2, 0x0100
     752:	1005                	.insn	2, 0x1005
     754:	0409                	.insn	2, 0x0409
     756:	0600                	.insn	2, 0x0600
     758:	0518                	.insn	2, 0x0518
     75a:	00000903          	lb	s2,0(zero) # 0 <__stack_size-0x2000000>
     75e:	0519                	.insn	2, 0x0519
     760:	00040903          	lb	s2,0(s0)
     764:	0518                	.insn	2, 0x0518
     766:	00100903          	lb	s2,1(zero) # 1 <__stack_size-0x1ffffff>
     76a:	051a                	.insn	2, 0x051a
     76c:	00000903          	lb	s2,0(zero) # 0 <__stack_size-0x2000000>
     770:	1806                	.insn	2, 0x1806
     772:	0105                	.insn	2, 0x0105
     774:	4409                	.insn	2, 0x4409
     776:	0000                	.insn	2, 0x0000
     778:	0402                	.insn	2, 0x0402
     77a:	0301                	.insn	2, 0x0301
     77c:	7f9c                	.insn	2, 0x7f9c
     77e:	0501                	.insn	2, 0x0501
     780:	0925                	.insn	2, 0x0925
     782:	0008                	.insn	2, 0x0008
     784:	0501                	.insn	2, 0x0501
     786:	0925                	.insn	2, 0x0925
     788:	0000                	.insn	2, 0x0000
     78a:	0200                	.insn	2, 0x0200
     78c:	0004                	.insn	2, 0x0004
     78e:	0306                	.insn	2, 0x0306
     790:	015a                	.insn	2, 0x015a
     792:	0505                	.insn	2, 0x0505
     794:	0500                	.insn	2, 0x0500
     796:	2802                	.insn	2, 0x2802
     798:	00800007          	.insn	4, 0x00800007
     79c:	0101                	.insn	2, 0x0101
     79e:	0500                	.insn	2, 0x0500
     7a0:	2802                	.insn	2, 0x2802
     7a2:	03800007          	.insn	4, 0x03800007
     7a6:	028c                	.insn	2, 0x028c
     7a8:	0501                	.insn	2, 0x0501
     7aa:	0901                	.insn	2, 0x0901
     7ac:	0000                	.insn	2, 0x0000
     7ae:	0518                	.insn	2, 0x0518
     7b0:	00000903          	lb	s2,0(zero) # 0 <__stack_size-0x2000000>
     7b4:	0518                	.insn	2, 0x0518
     7b6:	00000903          	lb	s2,0(zero) # 0 <__stack_size-0x2000000>
     7ba:	0519                	.insn	2, 0x0519
     7bc:	00000903          	lb	s2,0(zero) # 0 <__stack_size-0x2000000>
     7c0:	1906                	.insn	2, 0x1906
     7c2:	1305                	.insn	2, 0x1305
     7c4:	0409                	.insn	2, 0x0409
     7c6:	0100                	.insn	2, 0x0100
     7c8:	0805                	.insn	2, 0x0805
     7ca:	0809                	.insn	2, 0x0809
     7cc:	0600                	.insn	2, 0x0600
     7ce:	0516                	.insn	2, 0x0516
     7d0:	00000903          	lb	s2,0(zero) # 0 <__stack_size-0x2000000>
     7d4:	0518                	.insn	2, 0x0518
     7d6:	0905                	.insn	2, 0x0905
     7d8:	0000                	.insn	2, 0x0000
     7da:	0106                	.insn	2, 0x0106
     7dc:	0805                	.insn	2, 0x0805
     7de:	0409                	.insn	2, 0x0409
     7e0:	0600                	.insn	2, 0x0600
     7e2:	051e                	.insn	2, 0x051e
     7e4:	00000913          	addi	s2,zero,0
     7e8:	1806                	.insn	2, 0x1806
     7ea:	0105                	.insn	2, 0x0105
     7ec:	0409                	.insn	2, 0x0409
     7ee:	0600                	.insn	2, 0x0600
     7f0:	0512                	.insn	2, 0x0512
     7f2:	00000907          	.insn	4, 0x0907
     7f6:	0518                	.insn	2, 0x0518
     7f8:	00000907          	.insn	4, 0x0907
     7fc:	1606                	.insn	2, 0x1606
     7fe:	0f05                	.insn	2, 0x0f05
     800:	0409                	.insn	2, 0x0409
     802:	1800                	.insn	2, 0x1800
     804:	1e05                	.insn	2, 0x1e05
     806:	0809                	.insn	2, 0x0809
     808:	1600                	.insn	2, 0x1600
     80a:	0f05                	.insn	2, 0x0f05
     80c:	0409                	.insn	2, 0x0409
     80e:	1800                	.insn	2, 0x1800
     810:	1e05                	.insn	2, 0x1e05
     812:	0409                	.insn	2, 0x0409
     814:	0100                	.insn	2, 0x0100
     816:	1405                	.insn	2, 0x1405
     818:	0409                	.insn	2, 0x0409
     81a:	0600                	.insn	2, 0x0600
     81c:	0518                	.insn	2, 0x0518
     81e:	00000907          	.insn	4, 0x0907
     822:	0519                	.insn	2, 0x0519
     824:	00000913          	addi	s2,zero,0
     828:	1806                	.insn	2, 0x1806
     82a:	0105                	.insn	2, 0x0105
     82c:	0500                	.insn	2, 0x0500
     82e:	5802                	.insn	2, 0x5802
     830:	06800007          	.insn	4, 0x06800007
     834:	0520                	.insn	2, 0x0520
     836:	0901                	.insn	2, 0x0901
     838:	0000                	.insn	2, 0x0000
     83a:	0518                	.insn	2, 0x0518
     83c:	00000903          	lb	s2,0(zero) # 0 <__stack_size-0x2000000>
     840:	0106                	.insn	2, 0x0106
     842:	1005                	.insn	2, 0x1005
     844:	0809                	.insn	2, 0x0809
     846:	0100                	.insn	2, 0x0100
     848:	0605                	.insn	2, 0x0605
     84a:	0409                	.insn	2, 0x0409
     84c:	0600                	.insn	2, 0x0600
     84e:	0519                	.insn	2, 0x0519
     850:	0905                	.insn	2, 0x0905
     852:	0000                	.insn	2, 0x0000
     854:	0106                	.insn	2, 0x0106
     856:	1c05                	.insn	2, 0x1c05
     858:	0409                	.insn	2, 0x0409
     85a:	0100                	.insn	2, 0x0100
     85c:	1205                	.insn	2, 0x1205
     85e:	0409                	.insn	2, 0x0409
     860:	1800                	.insn	2, 0x1800
     862:	2105                	.insn	2, 0x2105
     864:	0409                	.insn	2, 0x0409
     866:	0600                	.insn	2, 0x0600
     868:	0501                	.insn	2, 0x0501
     86a:	00100903          	lb	s2,1(zero) # 1 <__stack_size-0x1ffffff>
     86e:	0106                	.insn	2, 0x0106
     870:	0305                	.insn	2, 0x0305
     872:	0500                	.insn	2, 0x0500
     874:	8402                	.insn	2, 0x8402
     876:	06800007          	.insn	4, 0x06800007
     87a:	05014503          	lbu	a0,80(sp)
     87e:	0901                	.insn	2, 0x0901
     880:	0000                	.insn	2, 0x0000
     882:	0518                	.insn	2, 0x0518
     884:	00000907          	.insn	4, 0x0907
     888:	1606                	.insn	2, 0x1606
     88a:	0105                	.insn	2, 0x0105
     88c:	0809                	.insn	2, 0x0809
     88e:	1d00                	.insn	2, 0x1d00
     890:	0305                	.insn	2, 0x0305
     892:	0809                	.insn	2, 0x0809
     894:	1100                	.insn	2, 0x1100
     896:	0105                	.insn	2, 0x0105
     898:	0c09                	.insn	2, 0x0c09
     89a:	1800                	.insn	2, 0x1800
     89c:	1305                	.insn	2, 0x1305
     89e:	0409                	.insn	2, 0x0409
     8a0:	0600                	.insn	2, 0x0600
     8a2:	051c                	.insn	2, 0x051c
     8a4:	00280903          	lb	s2,2(a6)
     8a8:	1106                	.insn	2, 0x1106
     8aa:	0105                	.insn	2, 0x0105
     8ac:	0409                	.insn	2, 0x0409
     8ae:	1d00                	.insn	2, 0x1d00
     8b0:	0305                	.insn	2, 0x0305
     8b2:	0409                	.insn	2, 0x0409
     8b4:	0100                	.insn	2, 0x0100
     8b6:	0305                	.insn	2, 0x0305
     8b8:	3009                	.insn	2, 0x3009
     8ba:	1800                	.insn	2, 0x1800
     8bc:	2705                	.insn	2, 0x2705
     8be:	0409                	.insn	2, 0x0409
     8c0:	1a00                	.insn	2, 0x1a00
     8c2:	0305                	.insn	2, 0x0305
     8c4:	0409                	.insn	2, 0x0409
     8c6:	1300                	.insn	2, 0x1300
     8c8:	0305                	.insn	2, 0x0305
     8ca:	0409                	.insn	2, 0x0409
     8cc:	0600                	.insn	2, 0x0600
     8ce:	0518                	.insn	2, 0x0518
     8d0:	00000903          	lb	s2,0(zero) # 0 <__stack_size-0x2000000>
     8d4:	0106                	.insn	2, 0x0106
     8d6:	2705                	.insn	2, 0x2705
     8d8:	0409                	.insn	2, 0x0409
     8da:	0600                	.insn	2, 0x0600
     8dc:	0518                	.insn	2, 0x0518
     8de:	00000903          	lb	s2,0(zero) # 0 <__stack_size-0x2000000>
     8e2:	0106                	.insn	2, 0x0106
     8e4:	2705                	.insn	2, 0x2705
     8e6:	0409                	.insn	2, 0x0409
     8e8:	0600                	.insn	2, 0x0600
     8ea:	0518                	.insn	2, 0x0518
     8ec:	00000903          	lb	s2,0(zero) # 0 <__stack_size-0x2000000>
     8f0:	0106                	.insn	2, 0x0106
     8f2:	2605                	.insn	2, 0x2605
     8f4:	0409                	.insn	2, 0x0409
     8f6:	0100                	.insn	2, 0x0100
     8f8:	1905                	.insn	2, 0x1905
     8fa:	0409                	.insn	2, 0x0409
     8fc:	0600                	.insn	2, 0x0600
     8fe:	0518                	.insn	2, 0x0518
     900:	00040903          	lb	s2,0(s0)
     904:	051a                	.insn	2, 0x051a
     906:	00000903          	lb	s2,0(zero) # 0 <__stack_size-0x2000000>
     90a:	0106                	.insn	2, 0x0106
     90c:	0605                	.insn	2, 0x0605
     90e:	0809                	.insn	2, 0x0809
     910:	0600                	.insn	2, 0x0600
     912:	0521                	.insn	2, 0x0521
     914:	0905                	.insn	2, 0x0905
     916:	0064                	.insn	2, 0x0064
     918:	1806                	.insn	2, 0x1806
     91a:	0105                	.insn	2, 0x0105
     91c:	0809                	.insn	2, 0x0809
     91e:	0100                	.insn	2, 0x0100
     920:	0105                	.insn	2, 0x0105
     922:	0409                	.insn	2, 0x0409
     924:	0100                	.insn	2, 0x0100
     926:	0105                	.insn	2, 0x0105
     928:	0c09                	.insn	2, 0x0c09
     92a:	0600                	.insn	2, 0x0600
     92c:	0905050f          	.insn	4, 0x0905050f
     930:	0000                	.insn	2, 0x0000
     932:	0106                	.insn	2, 0x0106
     934:	2905                	.insn	2, 0x2905
     936:	0809                	.insn	2, 0x0809
     938:	0600                	.insn	2, 0x0600
     93a:	0518                	.insn	2, 0x0518
     93c:	0905                	.insn	2, 0x0905
     93e:	000c                	.insn	2, 0x000c
     940:	0519                	.insn	2, 0x0519
     942:	0905                	.insn	2, 0x0905
     944:	0000                	.insn	2, 0x0000
     946:	0106                	.insn	2, 0x0106
     948:	2505                	.insn	2, 0x2505
     94a:	0409                	.insn	2, 0x0409
     94c:	1800                	.insn	2, 0x1800
     94e:	0505                	.insn	2, 0x0505
     950:	0809                	.insn	2, 0x0809
     952:	1600                	.insn	2, 0x1600
     954:	2505                	.insn	2, 0x2505
     956:	0409                	.insn	2, 0x0409
     958:	1c00                	.insn	2, 0x1c00
     95a:	0105                	.insn	2, 0x0105
     95c:	0809                	.insn	2, 0x0809
     95e:	1200                	.insn	2, 0x1200
     960:	1b05                	.insn	2, 0x1b05
     962:	0409                	.insn	2, 0x0409
     964:	0600                	.insn	2, 0x0600
     966:	0518                	.insn	2, 0x0518
     968:	0905                	.insn	2, 0x0905
     96a:	0000                	.insn	2, 0x0000
     96c:	1b06                	.insn	2, 0x1b06
     96e:	0105                	.insn	2, 0x0105
     970:	0409                	.insn	2, 0x0409
     972:	0100                	.insn	2, 0x0100
     974:	0105                	.insn	2, 0x0105
     976:	0409                	.insn	2, 0x0409
     978:	1300                	.insn	2, 0x1300
     97a:	0505                	.insn	2, 0x0505
     97c:	0409                	.insn	2, 0x0409
     97e:	1b00                	.insn	2, 0x1b00
     980:	0105                	.insn	2, 0x0105
     982:	0409                	.insn	2, 0x0409
     984:	1300                	.insn	2, 0x1300
     986:	0505                	.insn	2, 0x0505
     988:	0409                	.insn	2, 0x0409
     98a:	0100                	.insn	2, 0x0100
     98c:	0505                	.insn	2, 0x0505
     98e:	0500                	.insn	2, 0x0500
     990:	ec02                	.insn	2, 0xec02
     992:	0008                	.insn	2, 0x0008
     994:	0680                	.insn	2, 0x0680
     996:	0544                	.insn	2, 0x0544
     998:	0901                	.insn	2, 0x0901
     99a:	0000                	.insn	2, 0x0000
     99c:	0518                	.insn	2, 0x0518
     99e:	00000903          	lb	s2,0(zero) # 0 <__stack_size-0x2000000>
     9a2:	0519                	.insn	2, 0x0519
     9a4:	00000903          	lb	s2,0(zero) # 0 <__stack_size-0x2000000>
     9a8:	0518                	.insn	2, 0x0518
     9aa:	00000903          	lb	s2,0(zero) # 0 <__stack_size-0x2000000>
     9ae:	1606                	.insn	2, 0x1606
     9b0:	1805                	.insn	2, 0x1805
     9b2:	0809                	.insn	2, 0x0809
     9b4:	1800                	.insn	2, 0x1800
     9b6:	0d05                	.insn	2, 0x0d05
     9b8:	0409                	.insn	2, 0x0409
     9ba:	0100                	.insn	2, 0x0100
     9bc:	1805                	.insn	2, 0x1805
     9be:	0409                	.insn	2, 0x0409
     9c0:	1600                	.insn	2, 0x1600
     9c2:	1805                	.insn	2, 0x1805
     9c4:	0809                	.insn	2, 0x0809
     9c6:	1800                	.insn	2, 0x1800
     9c8:	1805                	.insn	2, 0x1805
     9ca:	0409                	.insn	2, 0x0409
     9cc:	1800                	.insn	2, 0x1800
     9ce:	0d05                	.insn	2, 0x0d05
     9d0:	0809                	.insn	2, 0x0809
     9d2:	1600                	.insn	2, 0x1600
     9d4:	0d05                	.insn	2, 0x0d05
     9d6:	0409                	.insn	2, 0x0409
     9d8:	0600                	.insn	2, 0x0600
     9da:	0518                	.insn	2, 0x0518
     9dc:	00000903          	lb	s2,0(zero) # 0 <__stack_size-0x2000000>
     9e0:	0106                	.insn	2, 0x0106
     9e2:	0d05                	.insn	2, 0x0d05
     9e4:	0409                	.insn	2, 0x0409
     9e6:	1800                	.insn	2, 0x1800
     9e8:	0105                	.insn	2, 0x0105
     9ea:	0500                	.insn	2, 0x0500
     9ec:	1c02                	.insn	2, 0x1c02
     9ee:	0009                	.insn	2, 0x0009
     9f0:	0680                	.insn	2, 0x0680
     9f2:	051c                	.insn	2, 0x051c
     9f4:	0901                	.insn	2, 0x0901
     9f6:	0000                	.insn	2, 0x0000
     9f8:	0518                	.insn	2, 0x0518
     9fa:	00000903          	lb	s2,0(zero) # 0 <__stack_size-0x2000000>
     9fe:	0106                	.insn	2, 0x0106
     a00:	0d05                	.insn	2, 0x0d05
     a02:	0809                	.insn	2, 0x0809
     a04:	1800                	.insn	2, 0x1800
     a06:	0d05                	.insn	2, 0x0d05
     a08:	0409                	.insn	2, 0x0409
     a0a:	1600                	.insn	2, 0x1600
     a0c:	0d05                	.insn	2, 0x0d05
     a0e:	0409                	.insn	2, 0x0409
     a10:	0600                	.insn	2, 0x0600
     a12:	0518                	.insn	2, 0x0518
     a14:	00000903          	lb	s2,0(zero) # 0 <__stack_size-0x2000000>
     a18:	0106                	.insn	2, 0x0106
     a1a:	0d05                	.insn	2, 0x0d05
     a1c:	0409                	.insn	2, 0x0409
     a1e:	1800                	.insn	2, 0x1800
     a20:	0105                	.insn	2, 0x0105
     a22:	0500                	.insn	2, 0x0500
     a24:	3402                	.insn	2, 0x3402
     a26:	0009                	.insn	2, 0x0009
     a28:	0080                	.insn	2, 0x0080
     a2a:	0101                	.insn	2, 0x0101
     a2c:	03da                	.insn	2, 0x03da
     a2e:	0000                	.insn	2, 0x0000
     a30:	0005                	.insn	2, 0x0005
     a32:	0004                	.insn	2, 0x0004
     a34:	0038                	.insn	2, 0x0038
     a36:	0000                	.insn	2, 0x0000
     a38:	0101                	.insn	2, 0x0101
     a3a:	f601                	.insn	2, 0xf601
     a3c:	0df2                	.insn	2, 0x0df2
     a3e:	0100                	.insn	2, 0x0100
     a40:	0101                	.insn	2, 0x0101
     a42:	0001                	.insn	2, 0x0001
     a44:	0000                	.insn	2, 0x0000
     a46:	0001                	.insn	2, 0x0001
     a48:	0100                	.insn	2, 0x0100
     a4a:	0101                	.insn	2, 0x0101
     a4c:	021f 0000 0000      	.insn	6, 0x021f
     a52:	0068                	.insn	2, 0x0068
     a54:	0000                	.insn	2, 0x0000
     a56:	0102                	.insn	2, 0x0102
     a58:	021f 040b 0091      	.insn	6, 0x0091040b021f
     a5e:	0000                	.insn	2, 0x0000
     a60:	9100                	.insn	2, 0x9100
     a62:	0000                	.insn	2, 0x0000
     a64:	0000                	.insn	2, 0x0000
     a66:	0041                	.insn	2, 0x0041
     a68:	0000                	.insn	2, 0x0000
     a6a:	9d00                	.insn	2, 0x9d00
     a6c:	0000                	.insn	2, 0x0000
     a6e:	0100                	.insn	2, 0x0100
     a70:	0500                	.insn	2, 0x0500
     a72:	3402                	.insn	2, 0x3402
     a74:	0009                	.insn	2, 0x0009
     a76:	5780                	.insn	2, 0x5780
     a78:	0105                	.insn	2, 0x0105
     a7a:	0009                	.insn	2, 0x0009
     a7c:	1800                	.insn	2, 0x1800
     a7e:	0305                	.insn	2, 0x0305
     a80:	0009                	.insn	2, 0x0009
     a82:	1900                	.insn	2, 0x1900
     a84:	0305                	.insn	2, 0x0305
     a86:	0009                	.insn	2, 0x0009
     a88:	1800                	.insn	2, 0x1800
     a8a:	0305                	.insn	2, 0x0305
     a8c:	0009                	.insn	2, 0x0009
     a8e:	0600                	.insn	2, 0x0600
     a90:	0516                	.insn	2, 0x0516
     a92:	0004090b          	.insn	4, 0x0004090b
     a96:	0518                	.insn	2, 0x0518
     a98:	0920                	.insn	2, 0x0920
     a9a:	0004                	.insn	2, 0x0004
     a9c:	0501                	.insn	2, 0x0501
     a9e:	0910                	.insn	2, 0x0910
     aa0:	0004                	.insn	2, 0x0004
     aa2:	0518                	.insn	2, 0x0518
     aa4:	0001                	.insn	2, 0x0001
     aa6:	0205                	.insn	2, 0x0205
     aa8:	0944                	.insn	2, 0x0944
     aaa:	8000                	.insn	2, 0x8000
     aac:	2206                	.insn	2, 0x2206
     aae:	0105                	.insn	2, 0x0105
     ab0:	0009                	.insn	2, 0x0009
     ab2:	1800                	.insn	2, 0x1800
     ab4:	0705                	.insn	2, 0x0705
     ab6:	0009                	.insn	2, 0x0009
     ab8:	1800                	.insn	2, 0x1800
     aba:	0705                	.insn	2, 0x0705
     abc:	0009                	.insn	2, 0x0009
     abe:	1900                	.insn	2, 0x1900
     ac0:	0305                	.insn	2, 0x0305
     ac2:	0009                	.insn	2, 0x0009
     ac4:	0600                	.insn	2, 0x0600
     ac6:	0501                	.insn	2, 0x0501
     ac8:	0004090b          	.insn	4, 0x0004090b
     acc:	1806                	.insn	2, 0x1806
     ace:	0305                	.insn	2, 0x0305
     ad0:	0009                	.insn	2, 0x0009
     ad2:	0600                	.insn	2, 0x0600
     ad4:	0912051b          	.insn	4, 0x0912051b
     ad8:	000c                	.insn	2, 0x000c
     ada:	09100513          	addi	a0,zero,145
     ade:	0008                	.insn	2, 0x0008
     ae0:	0501                	.insn	2, 0x0501
     ae2:	091a                	.insn	2, 0x091a
     ae4:	0004                	.insn	2, 0x0004
     ae6:	1806                	.insn	2, 0x1806
     ae8:	0305                	.insn	2, 0x0305
     aea:	0009                	.insn	2, 0x0009
     aec:	0600                	.insn	2, 0x0600
     aee:	0518                	.insn	2, 0x0518
     af0:	091f 0004 0516      	.insn	6, 0x05160004091f
     af6:	091e                	.insn	2, 0x091e
     af8:	0004                	.insn	2, 0x0004
     afa:	1806                	.insn	2, 0x1806
     afc:	0305                	.insn	2, 0x0305
     afe:	0009                	.insn	2, 0x0009
     b00:	1800                	.insn	2, 0x1800
     b02:	0305                	.insn	2, 0x0305
     b04:	0009                	.insn	2, 0x0009
     b06:	0000                	.insn	2, 0x0000
     b08:	0402                	.insn	2, 0x0402
     b0a:	0101                	.insn	2, 0x0101
     b0c:	2705                	.insn	2, 0x2705
     b0e:	0009                	.insn	2, 0x0009
     b10:	0000                	.insn	2, 0x0000
     b12:	0402                	.insn	2, 0x0402
     b14:	1800                	.insn	2, 0x1800
     b16:	0505                	.insn	2, 0x0505
     b18:	0809                	.insn	2, 0x0809
     b1a:	0600                	.insn	2, 0x0600
     b1c:	0518                	.insn	2, 0x0518
     b1e:	00040927          	.insn	4, 0x00040927
     b22:	0516                	.insn	2, 0x0516
     b24:	00040927          	.insn	4, 0x00040927
     b28:	0200                	.insn	2, 0x0200
     b2a:	0304                	.insn	2, 0x0304
     b2c:	1606                	.insn	2, 0x1606
     b2e:	3705                	.insn	2, 0x3705
     b30:	0009                	.insn	2, 0x0009
     b32:	0000                	.insn	2, 0x0000
     b34:	0402                	.insn	2, 0x0402
     b36:	0101                	.insn	2, 0x0101
     b38:	2705                	.insn	2, 0x2705
     b3a:	0009                	.insn	2, 0x0009
     b3c:	0000                	.insn	2, 0x0000
     b3e:	0402                	.insn	2, 0x0402
     b40:	1800                	.insn	2, 0x1800
     b42:	0505                	.insn	2, 0x0505
     b44:	0009                	.insn	2, 0x0009
     b46:	0600                	.insn	2, 0x0600
     b48:	0501                	.insn	2, 0x0501
     b4a:	00040927          	.insn	4, 0x00040927
     b4e:	0200                	.insn	2, 0x0200
     b50:	0304                	.insn	2, 0x0304
     b52:	1606                	.insn	2, 0x1606
     b54:	3705                	.insn	2, 0x3705
     b56:	0009                	.insn	2, 0x0009
     b58:	0000                	.insn	2, 0x0000
     b5a:	0402                	.insn	2, 0x0402
     b5c:	0101                	.insn	2, 0x0101
     b5e:	2705                	.insn	2, 0x2705
     b60:	0009                	.insn	2, 0x0009
     b62:	0000                	.insn	2, 0x0000
     b64:	0402                	.insn	2, 0x0402
     b66:	1900                	.insn	2, 0x1900
     b68:	0305                	.insn	2, 0x0305
     b6a:	0009                	.insn	2, 0x0009
     b6c:	0600                	.insn	2, 0x0600
     b6e:	0501                	.insn	2, 0x0501
     b70:	00040927          	.insn	4, 0x00040927
     b74:	0501                	.insn	2, 0x0501
     b76:	00040927          	.insn	4, 0x00040927
     b7a:	1806                	.insn	2, 0x1806
     b7c:	0305                	.insn	2, 0x0305
     b7e:	0009                	.insn	2, 0x0009
     b80:	0600                	.insn	2, 0x0600
     b82:	0501                	.insn	2, 0x0501
     b84:	00040937          	lui	s2,0x40
     b88:	0501                	.insn	2, 0x0501
     b8a:	0928                	.insn	2, 0x0928
     b8c:	0004                	.insn	2, 0x0004
     b8e:	0501                	.insn	2, 0x0501
     b90:	0928                	.insn	2, 0x0928
     b92:	0008                	.insn	2, 0x0008
     b94:	0518                	.insn	2, 0x0518
     b96:	090c                	.insn	2, 0x090c
     b98:	0004                	.insn	2, 0x0004
     b9a:	0501                	.insn	2, 0x0501
     b9c:	090c                	.insn	2, 0x090c
     b9e:	0004                	.insn	2, 0x0004
     ba0:	0516                	.insn	2, 0x0516
     ba2:	0928                	.insn	2, 0x0928
     ba4:	0004                	.insn	2, 0x0004
     ba6:	1806                	.insn	2, 0x1806
     ba8:	0305                	.insn	2, 0x0305
     baa:	0009                	.insn	2, 0x0009
     bac:	0600                	.insn	2, 0x0600
     bae:	0501                	.insn	2, 0x0501
     bb0:	090c                	.insn	2, 0x090c
     bb2:	0004                	.insn	2, 0x0004
     bb4:	0518                	.insn	2, 0x0518
     bb6:	0001                	.insn	2, 0x0001
     bb8:	0205                	.insn	2, 0x0205
     bba:	09a8                	.insn	2, 0x09a8
     bbc:	8000                	.insn	2, 0x8000
     bbe:	2206                	.insn	2, 0x2206
     bc0:	0105                	.insn	2, 0x0105
     bc2:	0009                	.insn	2, 0x0009
     bc4:	1800                	.insn	2, 0x1800
     bc6:	0305                	.insn	2, 0x0305
     bc8:	0009                	.insn	2, 0x0009
     bca:	1800                	.insn	2, 0x1800
     bcc:	0305                	.insn	2, 0x0305
     bce:	0009                	.insn	2, 0x0009
     bd0:	1900                	.insn	2, 0x1900
     bd2:	0305                	.insn	2, 0x0305
     bd4:	0009                	.insn	2, 0x0009
     bd6:	0600                	.insn	2, 0x0600
     bd8:	09010513          	addi	a0,sp,144
     bdc:	0004                	.insn	2, 0x0004
     bde:	1c06                	.insn	2, 0x1c06
     be0:	0305                	.insn	2, 0x0305
     be2:	0009                	.insn	2, 0x0009
     be4:	1800                	.insn	2, 0x1800
     be6:	0305                	.insn	2, 0x0305
     be8:	0009                	.insn	2, 0x0009
     bea:	0600                	.insn	2, 0x0600
     bec:	0511                	.insn	2, 0x0511
     bee:	0901                	.insn	2, 0x0901
     bf0:	0004                	.insn	2, 0x0004
     bf2:	051d                	.insn	2, 0x051d
     bf4:	0906                	.insn	2, 0x0906
     bf6:	0004                	.insn	2, 0x0004
     bf8:	0519                	.insn	2, 0x0519
     bfa:	090c                	.insn	2, 0x090c
     bfc:	0004                	.insn	2, 0x0004
     bfe:	051d                	.insn	2, 0x051d
     c00:	0901                	.insn	2, 0x0901
     c02:	0004                	.insn	2, 0x0004
     c04:	1406                	.insn	2, 0x1406
     c06:	0505                	.insn	2, 0x0505
     c08:	0009                	.insn	2, 0x0009
     c0a:	0600                	.insn	2, 0x0600
     c0c:	0501                	.insn	2, 0x0501
     c0e:	0008090f          	.insn	4, 0x0008090f
     c12:	1806                	.insn	2, 0x1806
     c14:	0505                	.insn	2, 0x0505
     c16:	0009                	.insn	2, 0x0009
     c18:	0600                	.insn	2, 0x0600
     c1a:	0501                	.insn	2, 0x0501
     c1c:	090c                	.insn	2, 0x090c
     c1e:	0004                	.insn	2, 0x0004
     c20:	0501                	.insn	2, 0x0501
     c22:	000c                	.insn	2, 0x000c
     c24:	0205                	.insn	2, 0x0205
     c26:	09cc                	.insn	2, 0x09cc
     c28:	8000                	.insn	2, 0x8000
     c2a:	2306                	.insn	2, 0x2306
     c2c:	0105                	.insn	2, 0x0105
     c2e:	0009                	.insn	2, 0x0009
     c30:	1800                	.insn	2, 0x1800
     c32:	0705                	.insn	2, 0x0705
     c34:	0009                	.insn	2, 0x0009
     c36:	1800                	.insn	2, 0x1800
     c38:	0305                	.insn	2, 0x0305
     c3a:	0009                	.insn	2, 0x0009
     c3c:	1900                	.insn	2, 0x1900
     c3e:	0305                	.insn	2, 0x0305
     c40:	0009                	.insn	2, 0x0009
     c42:	1800                	.insn	2, 0x1800
     c44:	0305                	.insn	2, 0x0305
     c46:	0009                	.insn	2, 0x0009
     c48:	0100                	.insn	2, 0x0100
     c4a:	1205                	.insn	2, 0x1205
     c4c:	0009                	.insn	2, 0x0009
     c4e:	0600                	.insn	2, 0x0600
     c50:	0512                	.insn	2, 0x0512
     c52:	0901                	.insn	2, 0x0901
     c54:	0014                	.insn	2, 0x0014
     c56:	0501                	.insn	2, 0x0501
     c58:	0901                	.insn	2, 0x0901
     c5a:	0008                	.insn	2, 0x0008
     c5c:	051c                	.insn	2, 0x051c
     c5e:	0912                	.insn	2, 0x0912
     c60:	0004                	.insn	2, 0x0004
     c62:	1806                	.insn	2, 0x1806
     c64:	0505                	.insn	2, 0x0505
     c66:	0009                	.insn	2, 0x0009
     c68:	0600                	.insn	2, 0x0600
     c6a:	0501                	.insn	2, 0x0501
     c6c:	0909                	.insn	2, 0x0909
     c6e:	000c                	.insn	2, 0x000c
     c70:	1606                	.insn	2, 0x1606
     c72:	1205                	.insn	2, 0x1205
     c74:	0409                	.insn	2, 0x0409
     c76:	1e00                	.insn	2, 0x1e00
     c78:	0305                	.insn	2, 0x0305
     c7a:	0009                	.insn	2, 0x0009
     c7c:	1a00                	.insn	2, 0x1a00
     c7e:	0305                	.insn	2, 0x0305
     c80:	0009                	.insn	2, 0x0009
     c82:	1c00                	.insn	2, 0x1c00
     c84:	0505                	.insn	2, 0x0505
     c86:	0009                	.insn	2, 0x0009
     c88:	0600                	.insn	2, 0x0600
     c8a:	0501                	.insn	2, 0x0501
     c8c:	0909                	.insn	2, 0x0909
     c8e:	000c                	.insn	2, 0x000c
     c90:	051e                	.insn	2, 0x051e
     c92:	090e                	.insn	2, 0x090e
     c94:	0004                	.insn	2, 0x0004
     c96:	0200                	.insn	2, 0x0200
     c98:	0104                	.insn	2, 0x0104
     c9a:	0510                	.insn	2, 0x0510
     c9c:	0908                	.insn	2, 0x0908
     c9e:	0004                	.insn	2, 0x0004
     ca0:	0200                	.insn	2, 0x0200
     ca2:	0004                	.insn	2, 0x0004
     ca4:	1a06                	.insn	2, 0x1a06
     ca6:	0705                	.insn	2, 0x0705
     ca8:	0009                	.insn	2, 0x0009
     caa:	1800                	.insn	2, 0x1800
     cac:	0705                	.insn	2, 0x0705
     cae:	0009                	.insn	2, 0x0009
     cb0:	0600                	.insn	2, 0x0600
     cb2:	0501                	.insn	2, 0x0501
     cb4:	0910                	.insn	2, 0x0910
     cb6:	000c                	.insn	2, 0x000c
     cb8:	1806                	.insn	2, 0x1806
     cba:	0705                	.insn	2, 0x0705
     cbc:	0009                	.insn	2, 0x0009
     cbe:	0600                	.insn	2, 0x0600
     cc0:	0501                	.insn	2, 0x0501
     cc2:	090e                	.insn	2, 0x090e
     cc4:	0004                	.insn	2, 0x0004
     cc6:	0901051b          	.insn	4, 0x0901051b
     cca:	0008                	.insn	2, 0x0008
     ccc:	0501                	.insn	2, 0x0501
     cce:	0901                	.insn	2, 0x0901
     cd0:	0004                	.insn	2, 0x0004
     cd2:	0501                	.insn	2, 0x0501
     cd4:	0001                	.insn	2, 0x0001
     cd6:	0205                	.insn	2, 0x0205
     cd8:	0a3c                	.insn	2, 0x0a3c
     cda:	8000                	.insn	2, 0x8000
     cdc:	1e06                	.insn	2, 0x1e06
     cde:	0105                	.insn	2, 0x0105
     ce0:	0009                	.insn	2, 0x0009
     ce2:	1800                	.insn	2, 0x1800
     ce4:	0305                	.insn	2, 0x0305
     ce6:	0009                	.insn	2, 0x0009
     ce8:	1900                	.insn	2, 0x1900
     cea:	0305                	.insn	2, 0x0305
     cec:	0009                	.insn	2, 0x0009
     cee:	1800                	.insn	2, 0x1800
     cf0:	0305                	.insn	2, 0x0305
     cf2:	0009                	.insn	2, 0x0009
     cf4:	0600                	.insn	2, 0x0600
     cf6:	0501                	.insn	2, 0x0501
     cf8:	0906                	.insn	2, 0x0906
     cfa:	0004                	.insn	2, 0x0004
     cfc:	051c                	.insn	2, 0x051c
     cfe:	0901                	.insn	2, 0x0901
     d00:	0004                	.insn	2, 0x0004
     d02:	0501                	.insn	2, 0x0501
     d04:	0001                	.insn	2, 0x0001
     d06:	0205                	.insn	2, 0x0205
     d08:	0a48                	.insn	2, 0x0a48
     d0a:	8000                	.insn	2, 0x8000
     d0c:	0306                	.insn	2, 0x0306
     d0e:	7eec                	.insn	2, 0x7eec
     d10:	0501                	.insn	2, 0x0501
     d12:	0901                	.insn	2, 0x0901
     d14:	0000                	.insn	2, 0x0000
     d16:	0518                	.insn	2, 0x0518
     d18:	00000903          	lb	s2,0(zero) # 0 <__stack_size-0x2000000>
     d1c:	0518                	.insn	2, 0x0518
     d1e:	00000903          	lb	s2,0(zero) # 0 <__stack_size-0x2000000>
     d22:	1506                	.insn	2, 0x1506
     d24:	0105                	.insn	2, 0x0105
     d26:	1009                	.insn	2, 0x1009
     d28:	0100                	.insn	2, 0x0100
     d2a:	0105                	.insn	2, 0x0105
     d2c:	0409                	.insn	2, 0x0409
     d2e:	1900                	.insn	2, 0x1900
     d30:	0805                	.insn	2, 0x0805
     d32:	0409                	.insn	2, 0x0409
     d34:	0000                	.insn	2, 0x0000
     d36:	0402                	.insn	2, 0x0402
     d38:	0101                	.insn	2, 0x0101
     d3a:	0605                	.insn	2, 0x0605
     d3c:	0409                	.insn	2, 0x0409
     d3e:	0000                	.insn	2, 0x0000
     d40:	0402                	.insn	2, 0x0402
     d42:	1900                	.insn	2, 0x1900
     d44:	1305                	.insn	2, 0x1305
     d46:	0409                	.insn	2, 0x0409
     d48:	0000                	.insn	2, 0x0000
     d4a:	0402                	.insn	2, 0x0402
     d4c:	1501                	.insn	2, 0x1501
     d4e:	0605                	.insn	2, 0x0605
     d50:	0809                	.insn	2, 0x0809
     d52:	0100                	.insn	2, 0x0100
     d54:	0605                	.insn	2, 0x0605
     d56:	0409                	.insn	2, 0x0409
     d58:	0000                	.insn	2, 0x0000
     d5a:	0402                	.insn	2, 0x0402
     d5c:	0600                	.insn	2, 0x0600
     d5e:	051a                	.insn	2, 0x051a
     d60:	00100903          	lb	s2,1(zero) # 1 <__stack_size-0x1ffffff>
     d64:	051c                	.insn	2, 0x051c
     d66:	0905                	.insn	2, 0x0905
     d68:	0000                	.insn	2, 0x0000
     d6a:	0106                	.insn	2, 0x0106
     d6c:	1205                	.insn	2, 0x1205
     d6e:	0409                	.insn	2, 0x0409
     d70:	0100                	.insn	2, 0x0100
     d72:	0805                	.insn	2, 0x0805
     d74:	0c09                	.insn	2, 0x0c09
     d76:	0600                	.insn	2, 0x0600
     d78:	0519                	.insn	2, 0x0519
     d7a:	00000907          	.insn	4, 0x0907
     d7e:	2406                	.insn	2, 0x2406
     d80:	0105                	.insn	2, 0x0105
     d82:	0809                	.insn	2, 0x0809
     d84:	0300                	.insn	2, 0x0300
     d86:	15050173          	.insn	4, 0x15050173
     d8a:	0409                	.insn	2, 0x0409
     d8c:	2400                	.insn	2, 0x2400
     d8e:	0105                	.insn	2, 0x0105
     d90:	0409                	.insn	2, 0x0409
     d92:	0100                	.insn	2, 0x0100
     d94:	0105                	.insn	2, 0x0105
     d96:	0409                	.insn	2, 0x0409
     d98:	0300                	.insn	2, 0x0300
     d9a:	016c                	.insn	2, 0x016c
     d9c:	0305                	.insn	2, 0x0305
     d9e:	0809                	.insn	2, 0x0809
     da0:	0600                	.insn	2, 0x0600
     da2:	0528                	.insn	2, 0x0528
     da4:	0905                	.insn	2, 0x0905
     da6:	0000                	.insn	2, 0x0000
     da8:	0106                	.insn	2, 0x0106
     daa:	1305                	.insn	2, 0x1305
     dac:	0409                	.insn	2, 0x0409
     dae:	0600                	.insn	2, 0x0600
     db0:	0518                	.insn	2, 0x0518
     db2:	0905                	.insn	2, 0x0905
     db4:	0000                	.insn	2, 0x0000
     db6:	1906                	.insn	2, 0x1906
     db8:	0105                	.insn	2, 0x0105
     dba:	0809                	.insn	2, 0x0809
     dbc:	0100                	.insn	2, 0x0100
     dbe:	0105                	.insn	2, 0x0105
     dc0:	0809                	.insn	2, 0x0809
     dc2:	0600                	.insn	2, 0x0600
     dc4:	0905050f          	.insn	4, 0x0905050f
     dc8:	0000                	.insn	2, 0x0000
     dca:	1f06                	.insn	2, 0x1f06
     dcc:	0105                	.insn	2, 0x0105
     dce:	0809                	.insn	2, 0x0809
     dd0:	0f00                	.insn	2, 0x0f00
     dd2:	1305                	.insn	2, 0x1305
     dd4:	0809                	.insn	2, 0x0809
     dd6:	0600                	.insn	2, 0x0600
     dd8:	0518                	.insn	2, 0x0518
     dda:	0905                	.insn	2, 0x0905
     ddc:	0000                	.insn	2, 0x0000
     dde:	1e06                	.insn	2, 0x1e06
     de0:	0105                	.insn	2, 0x0105
     de2:	0809                	.insn	2, 0x0809
     de4:	0600                	.insn	2, 0x0600
     de6:	05017503          	.insn	4, 0x05017503
     dea:	00000907          	.insn	4, 0x0907
     dee:	2206                	.insn	2, 0x2206
     df0:	0105                	.insn	2, 0x0105
     df2:	0809                	.insn	2, 0x0809
     df4:	0300                	.insn	2, 0x0300
     df6:	0175                	.insn	2, 0x0175
     df8:	1505                	.insn	2, 0x1505
     dfa:	0809                	.insn	2, 0x0809
     dfc:	2200                	.insn	2, 0x2200
     dfe:	0105                	.insn	2, 0x0105
     e00:	0500                	.insn	2, 0x0500
     e02:	f402                	.insn	2, 0xf402
     e04:	000a                	.insn	2, 0x000a
     e06:	0080                	.insn	2, 0x0080
     e08:	0101                	.insn	2, 0x0101
     e0a:	0000061b          	.insn	4, 0x061b
     e0e:	0005                	.insn	2, 0x0005
     e10:	0004                	.insn	2, 0x0004
     e12:	004e                	.insn	2, 0x004e
     e14:	0000                	.insn	2, 0x0000
     e16:	0101                	.insn	2, 0x0101
     e18:	f601                	.insn	2, 0xf601
     e1a:	0df2                	.insn	2, 0x0df2
     e1c:	0100                	.insn	2, 0x0100
     e1e:	0101                	.insn	2, 0x0101
     e20:	0001                	.insn	2, 0x0001
     e22:	0000                	.insn	2, 0x0000
     e24:	0001                	.insn	2, 0x0001
     e26:	0100                	.insn	2, 0x0100
     e28:	0101                	.insn	2, 0x0101
     e2a:	051f 0000 0000      	.insn	6, 0x051f
     e30:	000000ef          	jal	ra,e30 <__stack_size-0x1fff1d0>
     e34:	0101                	.insn	2, 0x0101
     e36:	0000                	.insn	2, 0x0000
     e38:	00be                	.insn	2, 0x00be
     e3a:	0000                	.insn	2, 0x0000
     e3c:	0108                	.insn	2, 0x0108
     e3e:	0000                	.insn	2, 0x0000
     e40:	0102                	.insn	2, 0x0102
     e42:	021f 060b 00b0      	.insn	6, 0x00b0060b021f
     e48:	0000                	.insn	2, 0x0000
     e4a:	b700                	.insn	2, 0xb700
     e4c:	0000                	.insn	2, 0x0000
     e4e:	0200                	.insn	2, 0x0200
     e50:	0146                	.insn	2, 0x0146
     e52:	0000                	.insn	2, 0x0000
     e54:	3501                	.insn	2, 0x3501
     e56:	0001                	.insn	2, 0x0001
     e58:	0300                	.insn	2, 0x0300
     e5a:	00a6                	.insn	2, 0x00a6
     e5c:	0000                	.insn	2, 0x0000
     e5e:	4d04                	.insn	2, 0x4d04
     e60:	0000                	.insn	2, 0x0000
     e62:	0100                	.insn	2, 0x0100
     e64:	0500                	.insn	2, 0x0500
     e66:	f402                	.insn	2, 0xf402
     e68:	000a                	.insn	2, 0x000a
     e6a:	4880                	.insn	2, 0x4880
     e6c:	0105                	.insn	2, 0x0105
     e6e:	0009                	.insn	2, 0x0009
     e70:	1b00                	.insn	2, 0x1b00
     e72:	0505                	.insn	2, 0x0505
     e74:	0009                	.insn	2, 0x0009
     e76:	0300                	.insn	2, 0x0300
     e78:	0174                	.insn	2, 0x0174
     e7a:	0d05                	.insn	2, 0x0d05
     e7c:	0009                	.insn	2, 0x0009
     e7e:	1900                	.insn	2, 0x1900
     e80:	0505                	.insn	2, 0x0505
     e82:	0009                	.insn	2, 0x0009
     e84:	1900                	.insn	2, 0x1900
     e86:	0505                	.insn	2, 0x0505
     e88:	0009                	.insn	2, 0x0009
     e8a:	0100                	.insn	2, 0x0100
     e8c:	0505                	.insn	2, 0x0505
     e8e:	0409                	.insn	2, 0x0409
     e90:	0100                	.insn	2, 0x0100
     e92:	0505                	.insn	2, 0x0505
     e94:	0009                	.insn	2, 0x0009
     e96:	0100                	.insn	2, 0x0100
     e98:	0505                	.insn	2, 0x0505
     e9a:	0009                	.insn	2, 0x0009
     e9c:	0400                	.insn	2, 0x0400
     e9e:	1902                	.insn	2, 0x1902
     ea0:	1405                	.insn	2, 0x1405
     ea2:	0009                	.insn	2, 0x0009
     ea4:	1800                	.insn	2, 0x1800
     ea6:	0305                	.insn	2, 0x0305
     ea8:	0009                	.insn	2, 0x0009
     eaa:	0400                	.insn	2, 0x0400
     eac:	0601                	.insn	2, 0x0601
     eae:	0514                	.insn	2, 0x0514
     eb0:	0905                	.insn	2, 0x0905
     eb2:	0004                	.insn	2, 0x0004
     eb4:	0204                	.insn	2, 0x0204
     eb6:	051a                	.insn	2, 0x051a
     eb8:	00080903          	lb	s2,0(a6)
     ebc:	0501                	.insn	2, 0x0501
     ebe:	00000903          	lb	s2,0(zero) # 0 <__stack_size-0x2000000>
     ec2:	0104                	.insn	2, 0x0104
     ec4:	0200                	.insn	2, 0x0200
     ec6:	0104                	.insn	2, 0x0104
     ec8:	1406                	.insn	2, 0x1406
     eca:	0505                	.insn	2, 0x0505
     ecc:	0009                	.insn	2, 0x0009
     ece:	0100                	.insn	2, 0x0100
     ed0:	0505                	.insn	2, 0x0505
     ed2:	0009                	.insn	2, 0x0009
     ed4:	0100                	.insn	2, 0x0100
     ed6:	0505                	.insn	2, 0x0505
     ed8:	0009                	.insn	2, 0x0009
     eda:	0600                	.insn	2, 0x0600
     edc:	0501                	.insn	2, 0x0501
     ede:	0905                	.insn	2, 0x0905
     ee0:	0000                	.insn	2, 0x0000
     ee2:	0200                	.insn	2, 0x0200
     ee4:	0004                	.insn	2, 0x0004
     ee6:	0520                	.insn	2, 0x0520
     ee8:	0001                	.insn	2, 0x0001
     eea:	0205                	.insn	2, 0x0205
     eec:	0b08                	.insn	2, 0x0b08
     eee:	8000                	.insn	2, 0x8000
     ef0:	1a06                	.insn	2, 0x1a06
     ef2:	0105                	.insn	2, 0x0105
     ef4:	0009                	.insn	2, 0x0009
     ef6:	1800                	.insn	2, 0x1800
     ef8:	0505                	.insn	2, 0x0505
     efa:	0009                	.insn	2, 0x0009
     efc:	0300                	.insn	2, 0x0300
     efe:	0168                	.insn	2, 0x0168
     f00:	0c05                	.insn	2, 0x0c05
     f02:	0009                	.insn	2, 0x0009
     f04:	1900                	.insn	2, 0x1900
     f06:	0505                	.insn	2, 0x0505
     f08:	0009                	.insn	2, 0x0009
     f0a:	1900                	.insn	2, 0x1900
     f0c:	0505                	.insn	2, 0x0505
     f0e:	0009                	.insn	2, 0x0009
     f10:	0100                	.insn	2, 0x0100
     f12:	0c05                	.insn	2, 0x0c05
     f14:	0009                	.insn	2, 0x0009
     f16:	0100                	.insn	2, 0x0100
     f18:	0c05                	.insn	2, 0x0c05
     f1a:	0009                	.insn	2, 0x0009
     f1c:	0100                	.insn	2, 0x0100
     f1e:	0c05                	.insn	2, 0x0c05
     f20:	0009                	.insn	2, 0x0009
     f22:	0100                	.insn	2, 0x0100
     f24:	0c05                	.insn	2, 0x0c05
     f26:	0009                	.insn	2, 0x0009
     f28:	0100                	.insn	2, 0x0100
     f2a:	0c05                	.insn	2, 0x0c05
     f2c:	0009                	.insn	2, 0x0009
     f2e:	0400                	.insn	2, 0x0400
     f30:	2402                	.insn	2, 0x2402
     f32:	1205                	.insn	2, 0x1205
     f34:	0009                	.insn	2, 0x0009
     f36:	1800                	.insn	2, 0x1800
     f38:	0305                	.insn	2, 0x0305
     f3a:	0009                	.insn	2, 0x0009
     f3c:	1900                	.insn	2, 0x1900
     f3e:	0305                	.insn	2, 0x0305
     f40:	0009                	.insn	2, 0x0009
     f42:	0400                	.insn	2, 0x0400
     f44:	0601                	.insn	2, 0x0601
     f46:	05016e03          	.insn	4, 0x05016e03
     f4a:	0916                	.insn	2, 0x0916
     f4c:	0004                	.insn	2, 0x0004
     f4e:	0501                	.insn	2, 0x0501
     f50:	0909                	.insn	2, 0x0909
     f52:	0004                	.insn	2, 0x0004
     f54:	0519                	.insn	2, 0x0519
     f56:	090c                	.insn	2, 0x090c
     f58:	0008                	.insn	2, 0x0008
     f5a:	0515                	.insn	2, 0x0515
     f5c:	0909                	.insn	2, 0x0909
     f5e:	0008                	.insn	2, 0x0008
     f60:	0519                	.insn	2, 0x0519
     f62:	090c                	.insn	2, 0x090c
     f64:	0004                	.insn	2, 0x0004
     f66:	0204                	.insn	2, 0x0204
     f68:	09030527          	.insn	4, 0x09030527
     f6c:	000c                	.insn	2, 0x000c
     f6e:	1806                	.insn	2, 0x1806
     f70:	0305                	.insn	2, 0x0305
     f72:	0009                	.insn	2, 0x0009
     f74:	0600                	.insn	2, 0x0600
     f76:	0501                	.insn	2, 0x0501
     f78:	00000903          	lb	s2,0(zero) # 0 <__stack_size-0x2000000>
     f7c:	0104                	.insn	2, 0x0104
     f7e:	0200                	.insn	2, 0x0200
     f80:	0104                	.insn	2, 0x0104
     f82:	0306                	.insn	2, 0x0306
     f84:	0c05016f          	jal	sp,51044 <__stack_size-0x1faefbc>
     f88:	0409                	.insn	2, 0x0409
     f8a:	0100                	.insn	2, 0x0100
     f8c:	0c05                	.insn	2, 0x0c05
     f8e:	0009                	.insn	2, 0x0009
     f90:	0100                	.insn	2, 0x0100
     f92:	0c05                	.insn	2, 0x0c05
     f94:	0009                	.insn	2, 0x0009
     f96:	0600                	.insn	2, 0x0600
     f98:	0501                	.insn	2, 0x0501
     f9a:	090c                	.insn	2, 0x090c
     f9c:	0000                	.insn	2, 0x0000
     f9e:	0908052b          	.insn	4, 0x0908052b
     fa2:	0008                	.insn	2, 0x0008
     fa4:	0200                	.insn	2, 0x0200
     fa6:	0004                	.insn	2, 0x0004
     fa8:	1806                	.insn	2, 0x1806
     faa:	0905                	.insn	2, 0x0905
     fac:	0009                	.insn	2, 0x0009
     fae:	0300                	.insn	2, 0x0300
     fb0:	0c050167          	jalr	sp,192(a0) # 90b00c0 <__stack_size+0x70b00c0>
     fb4:	0009                	.insn	2, 0x0009
     fb6:	1900                	.insn	2, 0x1900
     fb8:	0505                	.insn	2, 0x0505
     fba:	0009                	.insn	2, 0x0009
     fbc:	1900                	.insn	2, 0x1900
     fbe:	0505                	.insn	2, 0x0505
     fc0:	0009                	.insn	2, 0x0009
     fc2:	0100                	.insn	2, 0x0100
     fc4:	0c05                	.insn	2, 0x0c05
     fc6:	0009                	.insn	2, 0x0009
     fc8:	0100                	.insn	2, 0x0100
     fca:	0c05                	.insn	2, 0x0c05
     fcc:	0009                	.insn	2, 0x0009
     fce:	0100                	.insn	2, 0x0100
     fd0:	0c05                	.insn	2, 0x0c05
     fd2:	0009                	.insn	2, 0x0009
     fd4:	0100                	.insn	2, 0x0100
     fd6:	0c05                	.insn	2, 0x0c05
     fd8:	0009                	.insn	2, 0x0009
     fda:	0100                	.insn	2, 0x0100
     fdc:	0c05                	.insn	2, 0x0c05
     fde:	0009                	.insn	2, 0x0009
     fe0:	0400                	.insn	2, 0x0400
     fe2:	2402                	.insn	2, 0x2402
     fe4:	1205                	.insn	2, 0x1205
     fe6:	0009                	.insn	2, 0x0009
     fe8:	1800                	.insn	2, 0x1800
     fea:	0305                	.insn	2, 0x0305
     fec:	0009                	.insn	2, 0x0009
     fee:	1900                	.insn	2, 0x1900
     ff0:	0305                	.insn	2, 0x0305
     ff2:	0809                	.insn	2, 0x0809
     ff4:	1800                	.insn	2, 0x1800
     ff6:	0305                	.insn	2, 0x0305
     ff8:	0009                	.insn	2, 0x0009
     ffa:	0600                	.insn	2, 0x0600
     ffc:	0501                	.insn	2, 0x0501
     ffe:	00000903          	lb	s2,0(zero) # 0 <__stack_size-0x2000000>
    1002:	0104                	.insn	2, 0x0104
    1004:	0200                	.insn	2, 0x0200
    1006:	0104                	.insn	2, 0x0104
    1008:	0306                	.insn	2, 0x0306
    100a:	0c05016f          	jal	sp,510ca <__stack_size-0x1faef36>
    100e:	0409                	.insn	2, 0x0409
    1010:	0100                	.insn	2, 0x0100
    1012:	0c05                	.insn	2, 0x0c05
    1014:	0009                	.insn	2, 0x0009
    1016:	0100                	.insn	2, 0x0100
    1018:	0c05                	.insn	2, 0x0c05
    101a:	0009                	.insn	2, 0x0009
    101c:	0600                	.insn	2, 0x0600
    101e:	0501                	.insn	2, 0x0501
    1020:	090c                	.insn	2, 0x090c
    1022:	0000                	.insn	2, 0x0000
    1024:	052c                	.insn	2, 0x052c
    1026:	0910                	.insn	2, 0x0910
    1028:	0004                	.insn	2, 0x0004
    102a:	0501                	.insn	2, 0x0501
    102c:	0910                	.insn	2, 0x0910
    102e:	0004                	.insn	2, 0x0004
    1030:	0200                	.insn	2, 0x0200
    1032:	0004                	.insn	2, 0x0004
    1034:	0501                	.insn	2, 0x0501
    1036:	0910                	.insn	2, 0x0910
    1038:	0004                	.insn	2, 0x0004
    103a:	0518                	.insn	2, 0x0518
    103c:	090c                	.insn	2, 0x090c
    103e:	0004                	.insn	2, 0x0004
    1040:	0518                	.insn	2, 0x0518
    1042:	0001                	.insn	2, 0x0001
    1044:	0205                	.insn	2, 0x0205
    1046:	0b5c                	.insn	2, 0x0b5c
    1048:	8000                	.insn	2, 0x8000
    104a:	1a06                	.insn	2, 0x1a06
    104c:	0105                	.insn	2, 0x0105
    104e:	0009                	.insn	2, 0x0009
    1050:	1800                	.insn	2, 0x1800
    1052:	0505                	.insn	2, 0x0505
    1054:	0009                	.insn	2, 0x0009
    1056:	1900                	.insn	2, 0x1900
    1058:	0505                	.insn	2, 0x0505
    105a:	0009                	.insn	2, 0x0009
    105c:	0600                	.insn	2, 0x0600
    105e:	0501                	.insn	2, 0x0501
    1060:	000c0913          	addi	s2,s8,0
    1064:	1806                	.insn	2, 0x1806
    1066:	0505                	.insn	2, 0x0505
    1068:	0009                	.insn	2, 0x0009
    106a:	0600                	.insn	2, 0x0600
    106c:	0501                	.insn	2, 0x0501
    106e:	0918                	.insn	2, 0x0918
    1070:	0008                	.insn	2, 0x0008
    1072:	1806                	.insn	2, 0x1806
    1074:	0505                	.insn	2, 0x0505
    1076:	0009                	.insn	2, 0x0009
    1078:	1800                	.insn	2, 0x1800
    107a:	0505                	.insn	2, 0x0505
    107c:	0009                	.insn	2, 0x0009
    107e:	1900                	.insn	2, 0x1900
    1080:	0505                	.insn	2, 0x0505
    1082:	0009                	.insn	2, 0x0009
    1084:	1a00                	.insn	2, 0x1a00
    1086:	0505                	.insn	2, 0x0505
    1088:	0009                	.insn	2, 0x0009
    108a:	0300                	.insn	2, 0x0300
    108c:	015e                	.insn	2, 0x015e
    108e:	0d05                	.insn	2, 0x0d05
    1090:	0009                	.insn	2, 0x0009
    1092:	1900                	.insn	2, 0x1900
    1094:	0505                	.insn	2, 0x0505
    1096:	0009                	.insn	2, 0x0009
    1098:	1900                	.insn	2, 0x1900
    109a:	0505                	.insn	2, 0x0505
    109c:	0009                	.insn	2, 0x0009
    109e:	0100                	.insn	2, 0x0100
    10a0:	0505                	.insn	2, 0x0505
    10a2:	0409                	.insn	2, 0x0409
    10a4:	0100                	.insn	2, 0x0100
    10a6:	0505                	.insn	2, 0x0505
    10a8:	0009                	.insn	2, 0x0009
    10aa:	0100                	.insn	2, 0x0100
    10ac:	0505                	.insn	2, 0x0505
    10ae:	0009                	.insn	2, 0x0009
    10b0:	0400                	.insn	2, 0x0400
    10b2:	1902                	.insn	2, 0x1902
    10b4:	1405                	.insn	2, 0x1405
    10b6:	0009                	.insn	2, 0x0009
    10b8:	1800                	.insn	2, 0x1800
    10ba:	0305                	.insn	2, 0x0305
    10bc:	0009                	.insn	2, 0x0009
    10be:	0400                	.insn	2, 0x0400
    10c0:	0601                	.insn	2, 0x0601
    10c2:	0514                	.insn	2, 0x0514
    10c4:	0905                	.insn	2, 0x0905
    10c6:	0004                	.insn	2, 0x0004
    10c8:	0204                	.insn	2, 0x0204
    10ca:	051a                	.insn	2, 0x051a
    10cc:	00040903          	lb	s2,0(s0)
    10d0:	0104                	.insn	2, 0x0104
    10d2:	0514                	.insn	2, 0x0514
    10d4:	0905                	.insn	2, 0x0905
    10d6:	0004                	.insn	2, 0x0004
    10d8:	0204                	.insn	2, 0x0204
    10da:	051a                	.insn	2, 0x051a
    10dc:	00040903          	lb	s2,0(s0)
    10e0:	0501                	.insn	2, 0x0501
    10e2:	00000903          	lb	s2,0(zero) # 0 <__stack_size-0x2000000>
    10e6:	0104                	.insn	2, 0x0104
    10e8:	0200                	.insn	2, 0x0200
    10ea:	0104                	.insn	2, 0x0104
    10ec:	1406                	.insn	2, 0x1406
    10ee:	0505                	.insn	2, 0x0505
    10f0:	0009                	.insn	2, 0x0009
    10f2:	0100                	.insn	2, 0x0100
    10f4:	0505                	.insn	2, 0x0505
    10f6:	0009                	.insn	2, 0x0009
    10f8:	0100                	.insn	2, 0x0100
    10fa:	0505                	.insn	2, 0x0505
    10fc:	0009                	.insn	2, 0x0009
    10fe:	0600                	.insn	2, 0x0600
    1100:	0501                	.insn	2, 0x0501
    1102:	0905                	.insn	2, 0x0905
    1104:	0000                	.insn	2, 0x0000
    1106:	0200                	.insn	2, 0x0200
    1108:	0004                	.insn	2, 0x0004
    110a:	3706                	.insn	2, 0x3706
    110c:	0505                	.insn	2, 0x0505
    110e:	0009                	.insn	2, 0x0009
    1110:	0300                	.insn	2, 0x0300
    1112:	015c                	.insn	2, 0x015c
    1114:	0d05                	.insn	2, 0x0d05
    1116:	0009                	.insn	2, 0x0009
    1118:	1900                	.insn	2, 0x1900
    111a:	0505                	.insn	2, 0x0505
    111c:	0009                	.insn	2, 0x0009
    111e:	0600                	.insn	2, 0x0600
    1120:	0501                	.insn	2, 0x0501
    1122:	0909                	.insn	2, 0x0909
    1124:	000c                	.insn	2, 0x000c
    1126:	1906                	.insn	2, 0x1906
    1128:	0505                	.insn	2, 0x0505
    112a:	0009                	.insn	2, 0x0009
    112c:	0100                	.insn	2, 0x0100
    112e:	0505                	.insn	2, 0x0505
    1130:	0409                	.insn	2, 0x0409
    1132:	0100                	.insn	2, 0x0100
    1134:	0505                	.insn	2, 0x0505
    1136:	0009                	.insn	2, 0x0009
    1138:	0100                	.insn	2, 0x0100
    113a:	0505                	.insn	2, 0x0505
    113c:	0009                	.insn	2, 0x0009
    113e:	0400                	.insn	2, 0x0400
    1140:	1902                	.insn	2, 0x1902
    1142:	1405                	.insn	2, 0x1405
    1144:	0009                	.insn	2, 0x0009
    1146:	1800                	.insn	2, 0x1800
    1148:	0305                	.insn	2, 0x0305
    114a:	0009                	.insn	2, 0x0009
    114c:	0400                	.insn	2, 0x0400
    114e:	0601                	.insn	2, 0x0601
    1150:	0514                	.insn	2, 0x0514
    1152:	0905                	.insn	2, 0x0905
    1154:	0004                	.insn	2, 0x0004
    1156:	0204                	.insn	2, 0x0204
    1158:	051a                	.insn	2, 0x051a
    115a:	00040903          	lb	s2,0(s0)
    115e:	0104                	.insn	2, 0x0104
    1160:	0514                	.insn	2, 0x0514
    1162:	0905                	.insn	2, 0x0905
    1164:	0004                	.insn	2, 0x0004
    1166:	0204                	.insn	2, 0x0204
    1168:	051a                	.insn	2, 0x051a
    116a:	00040903          	lb	s2,0(s0)
    116e:	0501                	.insn	2, 0x0501
    1170:	00000903          	lb	s2,0(zero) # 0 <__stack_size-0x2000000>
    1174:	0104                	.insn	2, 0x0104
    1176:	0200                	.insn	2, 0x0200
    1178:	0104                	.insn	2, 0x0104
    117a:	1406                	.insn	2, 0x1406
    117c:	0505                	.insn	2, 0x0505
    117e:	0009                	.insn	2, 0x0009
    1180:	0100                	.insn	2, 0x0100
    1182:	0505                	.insn	2, 0x0505
    1184:	0009                	.insn	2, 0x0009
    1186:	0100                	.insn	2, 0x0100
    1188:	0505                	.insn	2, 0x0505
    118a:	0009                	.insn	2, 0x0009
    118c:	0600                	.insn	2, 0x0600
    118e:	0501                	.insn	2, 0x0501
    1190:	0905                	.insn	2, 0x0905
    1192:	0000                	.insn	2, 0x0000
    1194:	0200                	.insn	2, 0x0200
    1196:	0004                	.insn	2, 0x0004
    1198:	3b06                	.insn	2, 0x3b06
    119a:	0505                	.insn	2, 0x0505
    119c:	0009                	.insn	2, 0x0009
    119e:	0300                	.insn	2, 0x0300
    11a0:	0158                	.insn	2, 0x0158
    11a2:	0d05                	.insn	2, 0x0d05
    11a4:	0009                	.insn	2, 0x0009
    11a6:	1900                	.insn	2, 0x1900
    11a8:	0505                	.insn	2, 0x0505
    11aa:	0009                	.insn	2, 0x0009
    11ac:	0600                	.insn	2, 0x0600
    11ae:	0501                	.insn	2, 0x0501
    11b0:	0909                	.insn	2, 0x0909
    11b2:	000c                	.insn	2, 0x000c
    11b4:	1906                	.insn	2, 0x1906
    11b6:	0505                	.insn	2, 0x0505
    11b8:	0009                	.insn	2, 0x0009
    11ba:	0100                	.insn	2, 0x0100
    11bc:	0505                	.insn	2, 0x0505
    11be:	0409                	.insn	2, 0x0409
    11c0:	0100                	.insn	2, 0x0100
    11c2:	0505                	.insn	2, 0x0505
    11c4:	0009                	.insn	2, 0x0009
    11c6:	0100                	.insn	2, 0x0100
    11c8:	0505                	.insn	2, 0x0505
    11ca:	0009                	.insn	2, 0x0009
    11cc:	0400                	.insn	2, 0x0400
    11ce:	1902                	.insn	2, 0x1902
    11d0:	1405                	.insn	2, 0x1405
    11d2:	0009                	.insn	2, 0x0009
    11d4:	1800                	.insn	2, 0x1800
    11d6:	0305                	.insn	2, 0x0305
    11d8:	0009                	.insn	2, 0x0009
    11da:	0400                	.insn	2, 0x0400
    11dc:	0601                	.insn	2, 0x0601
    11de:	0514                	.insn	2, 0x0514
    11e0:	0905                	.insn	2, 0x0905
    11e2:	0008                	.insn	2, 0x0008
    11e4:	0204                	.insn	2, 0x0204
    11e6:	051a                	.insn	2, 0x051a
    11e8:	00040903          	lb	s2,0(s0)
    11ec:	0501                	.insn	2, 0x0501
    11ee:	00000903          	lb	s2,0(zero) # 0 <__stack_size-0x2000000>
    11f2:	0104                	.insn	2, 0x0104
    11f4:	0200                	.insn	2, 0x0200
    11f6:	0104                	.insn	2, 0x0104
    11f8:	1406                	.insn	2, 0x1406
    11fa:	0505                	.insn	2, 0x0505
    11fc:	0009                	.insn	2, 0x0009
    11fe:	0100                	.insn	2, 0x0100
    1200:	0505                	.insn	2, 0x0505
    1202:	0009                	.insn	2, 0x0009
    1204:	0100                	.insn	2, 0x0100
    1206:	0505                	.insn	2, 0x0505
    1208:	0009                	.insn	2, 0x0009
    120a:	0600                	.insn	2, 0x0600
    120c:	0501                	.insn	2, 0x0501
    120e:	0905                	.insn	2, 0x0905
    1210:	0000                	.insn	2, 0x0000
    1212:	0200                	.insn	2, 0x0200
    1214:	0004                	.insn	2, 0x0004
    1216:	3d06                	.insn	2, 0x3d06
    1218:	0505                	.insn	2, 0x0505
    121a:	0009                	.insn	2, 0x0009
    121c:	0300                	.insn	2, 0x0300
    121e:	0156                	.insn	2, 0x0156
    1220:	0d05                	.insn	2, 0x0d05
    1222:	0009                	.insn	2, 0x0009
    1224:	1900                	.insn	2, 0x1900
    1226:	0505                	.insn	2, 0x0505
    1228:	0009                	.insn	2, 0x0009
    122a:	0600                	.insn	2, 0x0600
    122c:	0501                	.insn	2, 0x0501
    122e:	0909                	.insn	2, 0x0909
    1230:	0008                	.insn	2, 0x0008
    1232:	1906                	.insn	2, 0x1906
    1234:	0505                	.insn	2, 0x0505
    1236:	0009                	.insn	2, 0x0009
    1238:	0100                	.insn	2, 0x0100
    123a:	0505                	.insn	2, 0x0505
    123c:	0409                	.insn	2, 0x0409
    123e:	0100                	.insn	2, 0x0100
    1240:	0505                	.insn	2, 0x0505
    1242:	0009                	.insn	2, 0x0009
    1244:	0100                	.insn	2, 0x0100
    1246:	0505                	.insn	2, 0x0505
    1248:	0009                	.insn	2, 0x0009
    124a:	0400                	.insn	2, 0x0400
    124c:	1902                	.insn	2, 0x1902
    124e:	1405                	.insn	2, 0x1405
    1250:	0009                	.insn	2, 0x0009
    1252:	1800                	.insn	2, 0x1800
    1254:	0305                	.insn	2, 0x0305
    1256:	0009                	.insn	2, 0x0009
    1258:	0400                	.insn	2, 0x0400
    125a:	0601                	.insn	2, 0x0601
    125c:	0514                	.insn	2, 0x0514
    125e:	0905                	.insn	2, 0x0905
    1260:	0008                	.insn	2, 0x0008
    1262:	0204                	.insn	2, 0x0204
    1264:	051a                	.insn	2, 0x051a
    1266:	00040903          	lb	s2,0(s0)
    126a:	0501                	.insn	2, 0x0501
    126c:	00000903          	lb	s2,0(zero) # 0 <__stack_size-0x2000000>
    1270:	0104                	.insn	2, 0x0104
    1272:	0200                	.insn	2, 0x0200
    1274:	0104                	.insn	2, 0x0104
    1276:	1406                	.insn	2, 0x1406
    1278:	0505                	.insn	2, 0x0505
    127a:	0009                	.insn	2, 0x0009
    127c:	0100                	.insn	2, 0x0100
    127e:	0505                	.insn	2, 0x0505
    1280:	0009                	.insn	2, 0x0009
    1282:	0100                	.insn	2, 0x0100
    1284:	0505                	.insn	2, 0x0505
    1286:	0009                	.insn	2, 0x0009
    1288:	0600                	.insn	2, 0x0600
    128a:	0501                	.insn	2, 0x0501
    128c:	0905                	.insn	2, 0x0905
    128e:	0000                	.insn	2, 0x0000
    1290:	0200                	.insn	2, 0x0200
    1292:	0004                	.insn	2, 0x0004
    1294:	3f06                	.insn	2, 0x3f06
    1296:	0505                	.insn	2, 0x0505
    1298:	0009                	.insn	2, 0x0009
    129a:	0300                	.insn	2, 0x0300
    129c:	0154                	.insn	2, 0x0154
    129e:	0d05                	.insn	2, 0x0d05
    12a0:	0009                	.insn	2, 0x0009
    12a2:	1900                	.insn	2, 0x1900
    12a4:	0505                	.insn	2, 0x0505
    12a6:	0009                	.insn	2, 0x0009
    12a8:	0600                	.insn	2, 0x0600
    12aa:	0501                	.insn	2, 0x0501
    12ac:	0909                	.insn	2, 0x0909
    12ae:	000c                	.insn	2, 0x000c
    12b0:	1906                	.insn	2, 0x1906
    12b2:	0505                	.insn	2, 0x0505
    12b4:	0009                	.insn	2, 0x0009
    12b6:	0100                	.insn	2, 0x0100
    12b8:	0505                	.insn	2, 0x0505
    12ba:	0409                	.insn	2, 0x0409
    12bc:	0100                	.insn	2, 0x0100
    12be:	0505                	.insn	2, 0x0505
    12c0:	0009                	.insn	2, 0x0009
    12c2:	0100                	.insn	2, 0x0100
    12c4:	0505                	.insn	2, 0x0505
    12c6:	0009                	.insn	2, 0x0009
    12c8:	0400                	.insn	2, 0x0400
    12ca:	1902                	.insn	2, 0x1902
    12cc:	1405                	.insn	2, 0x1405
    12ce:	0009                	.insn	2, 0x0009
    12d0:	1800                	.insn	2, 0x1800
    12d2:	0305                	.insn	2, 0x0305
    12d4:	0009                	.insn	2, 0x0009
    12d6:	0400                	.insn	2, 0x0400
    12d8:	0601                	.insn	2, 0x0601
    12da:	0514                	.insn	2, 0x0514
    12dc:	0905                	.insn	2, 0x0905
    12de:	0008                	.insn	2, 0x0008
    12e0:	0204                	.insn	2, 0x0204
    12e2:	051a                	.insn	2, 0x051a
    12e4:	00040903          	lb	s2,0(s0)
    12e8:	0501                	.insn	2, 0x0501
    12ea:	00000903          	lb	s2,0(zero) # 0 <__stack_size-0x2000000>
    12ee:	0104                	.insn	2, 0x0104
    12f0:	0200                	.insn	2, 0x0200
    12f2:	0104                	.insn	2, 0x0104
    12f4:	1406                	.insn	2, 0x1406
    12f6:	0505                	.insn	2, 0x0505
    12f8:	0009                	.insn	2, 0x0009
    12fa:	0100                	.insn	2, 0x0100
    12fc:	0505                	.insn	2, 0x0505
    12fe:	0009                	.insn	2, 0x0009
    1300:	0100                	.insn	2, 0x0100
    1302:	0505                	.insn	2, 0x0505
    1304:	0009                	.insn	2, 0x0009
    1306:	0600                	.insn	2, 0x0600
    1308:	0501                	.insn	2, 0x0501
    130a:	0905                	.insn	2, 0x0905
    130c:	0000                	.insn	2, 0x0000
    130e:	0200                	.insn	2, 0x0200
    1310:	0004                	.insn	2, 0x0004
    1312:	4106                	.insn	2, 0x4106
    1314:	0505                	.insn	2, 0x0505
    1316:	0009                	.insn	2, 0x0009
    1318:	0300                	.insn	2, 0x0300
    131a:	0152                	.insn	2, 0x0152
    131c:	0d05                	.insn	2, 0x0d05
    131e:	0009                	.insn	2, 0x0009
    1320:	1900                	.insn	2, 0x1900
    1322:	0505                	.insn	2, 0x0505
    1324:	0009                	.insn	2, 0x0009
    1326:	0600                	.insn	2, 0x0600
    1328:	0501                	.insn	2, 0x0501
    132a:	0909                	.insn	2, 0x0909
    132c:	000c                	.insn	2, 0x000c
    132e:	1906                	.insn	2, 0x1906
    1330:	0505                	.insn	2, 0x0505
    1332:	0009                	.insn	2, 0x0009
    1334:	0100                	.insn	2, 0x0100
    1336:	0505                	.insn	2, 0x0505
    1338:	0409                	.insn	2, 0x0409
    133a:	0100                	.insn	2, 0x0100
    133c:	0505                	.insn	2, 0x0505
    133e:	0009                	.insn	2, 0x0009
    1340:	0100                	.insn	2, 0x0100
    1342:	0505                	.insn	2, 0x0505
    1344:	0009                	.insn	2, 0x0009
    1346:	0400                	.insn	2, 0x0400
    1348:	1902                	.insn	2, 0x1902
    134a:	1405                	.insn	2, 0x1405
    134c:	0009                	.insn	2, 0x0009
    134e:	1800                	.insn	2, 0x1800
    1350:	0305                	.insn	2, 0x0305
    1352:	0009                	.insn	2, 0x0009
    1354:	0400                	.insn	2, 0x0400
    1356:	0601                	.insn	2, 0x0601
    1358:	0514                	.insn	2, 0x0514
    135a:	0905                	.insn	2, 0x0905
    135c:	0008                	.insn	2, 0x0008
    135e:	0204                	.insn	2, 0x0204
    1360:	051a                	.insn	2, 0x051a
    1362:	00040903          	lb	s2,0(s0)
    1366:	0501                	.insn	2, 0x0501
    1368:	00000903          	lb	s2,0(zero) # 0 <__stack_size-0x2000000>
    136c:	0104                	.insn	2, 0x0104
    136e:	0200                	.insn	2, 0x0200
    1370:	0104                	.insn	2, 0x0104
    1372:	1406                	.insn	2, 0x1406
    1374:	0505                	.insn	2, 0x0505
    1376:	0009                	.insn	2, 0x0009
    1378:	0100                	.insn	2, 0x0100
    137a:	0505                	.insn	2, 0x0505
    137c:	0009                	.insn	2, 0x0009
    137e:	0100                	.insn	2, 0x0100
    1380:	0505                	.insn	2, 0x0505
    1382:	0009                	.insn	2, 0x0009
    1384:	0600                	.insn	2, 0x0600
    1386:	0501                	.insn	2, 0x0501
    1388:	0905                	.insn	2, 0x0905
    138a:	0000                	.insn	2, 0x0000
    138c:	0200                	.insn	2, 0x0200
    138e:	0004                	.insn	2, 0x0004
    1390:	4706                	.insn	2, 0x4706
    1392:	0505                	.insn	2, 0x0505
    1394:	0009                	.insn	2, 0x0009
    1396:	0300                	.insn	2, 0x0300
    1398:	014c                	.insn	2, 0x014c
    139a:	0d05                	.insn	2, 0x0d05
    139c:	0009                	.insn	2, 0x0009
    139e:	1900                	.insn	2, 0x1900
    13a0:	0505                	.insn	2, 0x0505
    13a2:	0009                	.insn	2, 0x0009
    13a4:	0600                	.insn	2, 0x0600
    13a6:	0501                	.insn	2, 0x0501
    13a8:	0909                	.insn	2, 0x0909
    13aa:	000c                	.insn	2, 0x000c
    13ac:	1906                	.insn	2, 0x1906
    13ae:	0505                	.insn	2, 0x0505
    13b0:	0009                	.insn	2, 0x0009
    13b2:	0100                	.insn	2, 0x0100
    13b4:	0505                	.insn	2, 0x0505
    13b6:	0409                	.insn	2, 0x0409
    13b8:	0100                	.insn	2, 0x0100
    13ba:	0505                	.insn	2, 0x0505
    13bc:	0009                	.insn	2, 0x0009
    13be:	0100                	.insn	2, 0x0100
    13c0:	0505                	.insn	2, 0x0505
    13c2:	0009                	.insn	2, 0x0009
    13c4:	0400                	.insn	2, 0x0400
    13c6:	1902                	.insn	2, 0x1902
    13c8:	1405                	.insn	2, 0x1405
    13ca:	0009                	.insn	2, 0x0009
    13cc:	1800                	.insn	2, 0x1800
    13ce:	0305                	.insn	2, 0x0305
    13d0:	0009                	.insn	2, 0x0009
    13d2:	0400                	.insn	2, 0x0400
    13d4:	0601                	.insn	2, 0x0601
    13d6:	0514                	.insn	2, 0x0514
    13d8:	0905                	.insn	2, 0x0905
    13da:	0008                	.insn	2, 0x0008
    13dc:	0204                	.insn	2, 0x0204
    13de:	051a                	.insn	2, 0x051a
    13e0:	00040903          	lb	s2,0(s0)
    13e4:	0501                	.insn	2, 0x0501
    13e6:	00000903          	lb	s2,0(zero) # 0 <__stack_size-0x2000000>
    13ea:	0104                	.insn	2, 0x0104
    13ec:	0200                	.insn	2, 0x0200
    13ee:	0104                	.insn	2, 0x0104
    13f0:	1406                	.insn	2, 0x1406
    13f2:	0505                	.insn	2, 0x0505
    13f4:	0009                	.insn	2, 0x0009
    13f6:	0100                	.insn	2, 0x0100
    13f8:	0505                	.insn	2, 0x0505
    13fa:	0009                	.insn	2, 0x0009
    13fc:	0100                	.insn	2, 0x0100
    13fe:	0505                	.insn	2, 0x0505
    1400:	0009                	.insn	2, 0x0009
    1402:	0600                	.insn	2, 0x0600
    1404:	0501                	.insn	2, 0x0501
    1406:	0905                	.insn	2, 0x0905
    1408:	0000                	.insn	2, 0x0000
    140a:	0200                	.insn	2, 0x0200
    140c:	0004                	.insn	2, 0x0004
    140e:	4906                	.insn	2, 0x4906
    1410:	0505                	.insn	2, 0x0505
    1412:	1009                	.insn	2, 0x1009
    1414:	1800                	.insn	2, 0x1800
    1416:	0505                	.insn	2, 0x0505
    1418:	0009                	.insn	2, 0x0009
    141a:	0600                	.insn	2, 0x0600
    141c:	0518                	.insn	2, 0x0518
    141e:	0001                	.insn	2, 0x0001
    1420:	0205                	.insn	2, 0x0205
    1422:	0c44                	.insn	2, 0x0c44
    1424:	8000                	.insn	2, 0x8000
    1426:	0100                	.insn	2, 0x0100
    1428:	0001                	.insn	2, 0x0001
    142a:	0010                	.insn	2, 0x0010
    142c:	0500                	.insn	2, 0x0500
    142e:	0400                	.insn	2, 0x0400
    1430:	4000                	.insn	2, 0x4000
    1432:	0000                	.insn	2, 0x0000
    1434:	0100                	.insn	2, 0x0100
    1436:	0101                	.insn	2, 0x0101
    1438:	f2f6                	.insn	2, 0xf2f6
    143a:	000d                	.insn	2, 0x000d
    143c:	0101                	.insn	2, 0x0101
    143e:	0101                	.insn	2, 0x0101
    1440:	0000                	.insn	2, 0x0000
    1442:	0100                	.insn	2, 0x0100
    1444:	0000                	.insn	2, 0x0000
    1446:	0101                	.insn	2, 0x0101
    1448:	1f01                	.insn	2, 0x1f01
    144a:	0004                	.insn	2, 0x0004
    144c:	0000                	.insn	2, 0x0000
    144e:	ef00                	.insn	2, 0xef00
    1450:	0000                	.insn	2, 0x0000
    1452:	0100                	.insn	2, 0x0100
    1454:	0001                	.insn	2, 0x0001
    1456:	6700                	.insn	2, 0x6700
    1458:	0001                	.insn	2, 0x0001
    145a:	0200                	.insn	2, 0x0200
    145c:	1f01                	.insn	2, 0x1f01
    145e:	0b02                	.insn	2, 0x0b02
    1460:	5604                	.insn	2, 0x5604
    1462:	0001                	.insn	2, 0x0001
    1464:	0000                	.insn	2, 0x0000
    1466:	015d                	.insn	2, 0x015d
    1468:	0000                	.insn	2, 0x0000
    146a:	4d02                	.insn	2, 0x4d02
    146c:	0001                	.insn	2, 0x0001
    146e:	0300                	.insn	2, 0x0300
    1470:	004d                	.insn	2, 0x004d
    1472:	0000                	.insn	2, 0x0000
    1474:	0001                	.insn	2, 0x0001
    1476:	0205                	.insn	2, 0x0205
    1478:	0c44                	.insn	2, 0x0c44
    147a:	8000                	.insn	2, 0x8000
    147c:	0531                	.insn	2, 0x0531
    147e:	0901                	.insn	2, 0x0901
    1480:	0000                	.insn	2, 0x0000
    1482:	0518                	.insn	2, 0x0518
    1484:	0902                	.insn	2, 0x0902
    1486:	0000                	.insn	2, 0x0000
    1488:	0519                	.insn	2, 0x0519
    148a:	0902                	.insn	2, 0x0902
    148c:	0000                	.insn	2, 0x0000
    148e:	0106                	.insn	2, 0x0106
    1490:	0605                	.insn	2, 0x0605
    1492:	0809                	.insn	2, 0x0809
    1494:	0100                	.insn	2, 0x0100
    1496:	0505                	.insn	2, 0x0505
    1498:	0409                	.insn	2, 0x0409
    149a:	0600                	.insn	2, 0x0600
    149c:	0518                	.insn	2, 0x0518
    149e:	00000903          	lb	s2,0(zero) # 0 <__stack_size-0x2000000>
    14a2:	0106                	.insn	2, 0x0106
    14a4:	0a05                	.insn	2, 0x0a05
    14a6:	0409                	.insn	2, 0x0409
    14a8:	0100                	.insn	2, 0x0100
    14aa:	0d05                	.insn	2, 0x0d05
    14ac:	0409                	.insn	2, 0x0409
    14ae:	0600                	.insn	2, 0x0600
    14b0:	0518                	.insn	2, 0x0518
    14b2:	00000903          	lb	s2,0(zero) # 0 <__stack_size-0x2000000>
    14b6:	1606                	.insn	2, 0x1606
    14b8:	0a05                	.insn	2, 0x0a05
    14ba:	0409                	.insn	2, 0x0409
    14bc:	1800                	.insn	2, 0x1800
    14be:	0305                	.insn	2, 0x0305
    14c0:	0409                	.insn	2, 0x0409
    14c2:	0600                	.insn	2, 0x0600
    14c4:	0511                	.insn	2, 0x0511
    14c6:	0906                	.insn	2, 0x0906
    14c8:	0000                	.insn	2, 0x0000
    14ca:	0520                	.insn	2, 0x0520
    14cc:	0902                	.insn	2, 0x0902
    14ce:	0000                	.insn	2, 0x0000
    14d0:	0106                	.insn	2, 0x0106
    14d2:	0605                	.insn	2, 0x0605
    14d4:	0809                	.insn	2, 0x0809
    14d6:	0100                	.insn	2, 0x0100
    14d8:	0505                	.insn	2, 0x0505
    14da:	0409                	.insn	2, 0x0409
    14dc:	0000                	.insn	2, 0x0000
    14de:	0402                	.insn	2, 0x0402
    14e0:	0601                	.insn	2, 0x0601
    14e2:	0501                	.insn	2, 0x0501
    14e4:	0911                	.insn	2, 0x0911
    14e6:	0004                	.insn	2, 0x0004
    14e8:	0106                	.insn	2, 0x0106
    14ea:	1105                	.insn	2, 0x1105
    14ec:	0009                	.insn	2, 0x0009
    14ee:	0000                	.insn	2, 0x0000
    14f0:	0402                	.insn	2, 0x0402
    14f2:	1800                	.insn	2, 0x1800
    14f4:	0105                	.insn	2, 0x0105
    14f6:	0500                	.insn	2, 0x0500
    14f8:	7402                	.insn	2, 0x7402
    14fa:	000c                	.insn	2, 0x000c
    14fc:	0680                	.insn	2, 0x0680
    14fe:	0521                	.insn	2, 0x0521
    1500:	0901                	.insn	2, 0x0901
    1502:	0000                	.insn	2, 0x0000
    1504:	0518                	.insn	2, 0x0518
    1506:	0902                	.insn	2, 0x0902
    1508:	0000                	.insn	2, 0x0000
    150a:	1606                	.insn	2, 0x1606
    150c:	0105                	.insn	2, 0x0105
    150e:	1009                	.insn	2, 0x1009
    1510:	0600                	.insn	2, 0x0600
    1512:	0518                	.insn	2, 0x0518
    1514:	0909                	.insn	2, 0x0909
    1516:	0004                	.insn	2, 0x0004
    1518:	0106                	.insn	2, 0x0106
    151a:	0905                	.insn	2, 0x0905
    151c:	1009                	.insn	2, 0x1009
    151e:	0300                	.insn	2, 0x0300
    1520:	0174                	.insn	2, 0x0174
    1522:	0605                	.insn	2, 0x0605
    1524:	0809                	.insn	2, 0x0809
    1526:	0100                	.insn	2, 0x0100
    1528:	0605                	.insn	2, 0x0605
    152a:	0009                	.insn	2, 0x0009
    152c:	1300                	.insn	2, 0x1300
    152e:	0a05                	.insn	2, 0x0a05
    1530:	0409                	.insn	2, 0x0409
    1532:	0100                	.insn	2, 0x0100
    1534:	0d05                	.insn	2, 0x0d05
    1536:	0409                	.insn	2, 0x0409
    1538:	0600                	.insn	2, 0x0600
    153a:	0518                	.insn	2, 0x0518
    153c:	00000903          	lb	s2,0(zero) # 0 <__stack_size-0x2000000>
    1540:	0106                	.insn	2, 0x0106
    1542:	0305                	.insn	2, 0x0305
    1544:	0009                	.insn	2, 0x0009
    1546:	0600                	.insn	2, 0x0600
    1548:	0526                	.insn	2, 0x0526
    154a:	0909                	.insn	2, 0x0909
    154c:	0008                	.insn	2, 0x0008
    154e:	0518                	.insn	2, 0x0518
    1550:	00000903          	lb	s2,0(zero) # 0 <__stack_size-0x2000000>
    1554:	05016f03          	.insn	4, 0x05016f03
    1558:	00000903          	lb	s2,0(zero) # 0 <__stack_size-0x2000000>
    155c:	0512                	.insn	2, 0x0512
    155e:	0906                	.insn	2, 0x0906
    1560:	0000                	.insn	2, 0x0000
    1562:	0520                	.insn	2, 0x0520
    1564:	0902                	.insn	2, 0x0902
    1566:	0000                	.insn	2, 0x0000
    1568:	1206                	.insn	2, 0x1206
    156a:	0605                	.insn	2, 0x0605
    156c:	0409                	.insn	2, 0x0409
    156e:	2900                	.insn	2, 0x2900
    1570:	0d05                	.insn	2, 0x0d05
    1572:	0409                	.insn	2, 0x0409
    1574:	0600                	.insn	2, 0x0600
    1576:	05016a03          	.insn	4, 0x05016a03
    157a:	0906                	.insn	2, 0x0906
    157c:	0000                	.insn	2, 0x0000
    157e:	0519                	.insn	2, 0x0519
    1580:	0902                	.insn	2, 0x0902
    1582:	0000                	.insn	2, 0x0000
    1584:	0519                	.insn	2, 0x0519
    1586:	0902                	.insn	2, 0x0902
    1588:	0000                	.insn	2, 0x0000
    158a:	1806                	.insn	2, 0x1806
    158c:	0a05                	.insn	2, 0x0a05
    158e:	0409                	.insn	2, 0x0409
    1590:	1600                	.insn	2, 0x1600
    1592:	0505                	.insn	2, 0x0505
    1594:	0409                	.insn	2, 0x0409
    1596:	0000                	.insn	2, 0x0000
    1598:	0402                	.insn	2, 0x0402
    159a:	0601                	.insn	2, 0x0601
    159c:	051c                	.insn	2, 0x051c
    159e:	0911                	.insn	2, 0x0911
    15a0:	0000                	.insn	2, 0x0000
    15a2:	0200                	.insn	2, 0x0200
    15a4:	0004                	.insn	2, 0x0004
    15a6:	0106                	.insn	2, 0x0106
    15a8:	0605                	.insn	2, 0x0605
    15aa:	0409                	.insn	2, 0x0409
    15ac:	0100                	.insn	2, 0x0100
    15ae:	0505                	.insn	2, 0x0505
    15b0:	0409                	.insn	2, 0x0409
    15b2:	0000                	.insn	2, 0x0000
    15b4:	0402                	.insn	2, 0x0402
    15b6:	0101                	.insn	2, 0x0101
    15b8:	1105                	.insn	2, 0x1105
    15ba:	0409                	.insn	2, 0x0409
    15bc:	0100                	.insn	2, 0x0100
    15be:	1105                	.insn	2, 0x1105
    15c0:	0009                	.insn	2, 0x0009
    15c2:	0000                	.insn	2, 0x0000
    15c4:	0402                	.insn	2, 0x0402
    15c6:	0600                	.insn	2, 0x0600
    15c8:	09090523          	sb	a6,138(s2) # 4008a <__stack_size-0x1fbff76>
    15cc:	0010                	.insn	2, 0x0010
    15ce:	1906                	.insn	2, 0x1906
    15d0:	0105                	.insn	2, 0x0105
    15d2:	0809                	.insn	2, 0x0809
    15d4:	0100                	.insn	2, 0x0100
    15d6:	0105                	.insn	2, 0x0105
    15d8:	0500                	.insn	2, 0x0500
    15da:	ec02                	.insn	2, 0xec02
    15dc:	000c                	.insn	2, 0x000c
    15de:	0680                	.insn	2, 0x0680
    15e0:	057c                	.insn	2, 0x057c
    15e2:	0901                	.insn	2, 0x0901
    15e4:	0000                	.insn	2, 0x0000
    15e6:	0518                	.insn	2, 0x0518
    15e8:	0902                	.insn	2, 0x0902
    15ea:	0000                	.insn	2, 0x0000
    15ec:	051a                	.insn	2, 0x051a
    15ee:	0902                	.insn	2, 0x0902
    15f0:	0000                	.insn	2, 0x0000
    15f2:	1306                	.insn	2, 0x1306
    15f4:	0105                	.insn	2, 0x0105
    15f6:	3009                	.insn	2, 0x3009
    15f8:	0300                	.insn	2, 0x0300
    15fa:	05017fbb          	.insn	4, 0x05017fbb
    15fe:	0905                	.insn	2, 0x0905
    1600:	0004                	.insn	2, 0x0004
    1602:	0501                	.insn	2, 0x0501
    1604:	0905                	.insn	2, 0x0905
    1606:	0000                	.insn	2, 0x0000
    1608:	0560                	.insn	2, 0x0560
    160a:	0902                	.insn	2, 0x0902
    160c:	0008                	.insn	2, 0x0008
    160e:	1806                	.insn	2, 0x1806
    1610:	0205                	.insn	2, 0x0205
    1612:	0009                	.insn	2, 0x0009
    1614:	0300                	.insn	2, 0x0300
    1616:	05017fab          	.insn	4, 0x05017fab
    161a:	0906                	.insn	2, 0x0906
    161c:	0000                	.insn	2, 0x0000
    161e:	051c                	.insn	2, 0x051c
    1620:	0902                	.insn	2, 0x0902
    1622:	0000                	.insn	2, 0x0000
    1624:	0518                	.insn	2, 0x0518
    1626:	0902                	.insn	2, 0x0902
    1628:	0000                	.insn	2, 0x0000
    162a:	0518                	.insn	2, 0x0518
    162c:	0902                	.insn	2, 0x0902
    162e:	0000                	.insn	2, 0x0000
    1630:	051a                	.insn	2, 0x051a
    1632:	0902                	.insn	2, 0x0902
    1634:	0000                	.insn	2, 0x0000
    1636:	0518                	.insn	2, 0x0518
    1638:	00000903          	lb	s2,0(zero) # 0 <__stack_size-0x2000000>
    163c:	0518                	.insn	2, 0x0518
    163e:	00000903          	lb	s2,0(zero) # 0 <__stack_size-0x2000000>
    1642:	0106                	.insn	2, 0x0106
    1644:	0605                	.insn	2, 0x0605
    1646:	0809                	.insn	2, 0x0809
    1648:	2c00                	.insn	2, 0x2c00
    164a:	0305                	.insn	2, 0x0305
    164c:	2c09                	.insn	2, 0x2c09
    164e:	0100                	.insn	2, 0x0100
    1650:	0305                	.insn	2, 0x0305
    1652:	0409                	.insn	2, 0x0409
    1654:	0300                	.insn	2, 0x0300
    1656:	016a                	.insn	2, 0x016a
    1658:	0b05                	.insn	2, 0x0b05
    165a:	0409                	.insn	2, 0x0409
    165c:	1900                	.insn	2, 0x1900
    165e:	0605                	.insn	2, 0x0605
    1660:	0409                	.insn	2, 0x0409
    1662:	0000                	.insn	2, 0x0000
    1664:	0402                	.insn	2, 0x0402
    1666:	2301                	.insn	2, 0x2301
    1668:	1805                	.insn	2, 0x1805
    166a:	0409                	.insn	2, 0x0409
    166c:	0000                	.insn	2, 0x0000
    166e:	0402                	.insn	2, 0x0402
    1670:	0300                	.insn	2, 0x0300
    1672:	0144                	.insn	2, 0x0144
    1674:	0605                	.insn	2, 0x0605
    1676:	0409                	.insn	2, 0x0409
    1678:	0100                	.insn	2, 0x0100
    167a:	0605                	.insn	2, 0x0605
    167c:	0009                	.insn	2, 0x0009
    167e:	0600                	.insn	2, 0x0600
    1680:	09030547          	.insn	4, 0x09030547
    1684:	0000                	.insn	2, 0x0000
    1686:	0106                	.insn	2, 0x0106
    1688:	0605                	.insn	2, 0x0605
    168a:	0409                	.insn	2, 0x0409
    168c:	0600                	.insn	2, 0x0600
    168e:	0518                	.insn	2, 0x0518
    1690:	0904                	.insn	2, 0x0904
    1692:	0000                	.insn	2, 0x0000
    1694:	05014603          	lbu	a2,80(sp)
    1698:	0906                	.insn	2, 0x0906
    169a:	0000                	.insn	2, 0x0000
    169c:	0519                	.insn	2, 0x0519
    169e:	0902                	.insn	2, 0x0902
    16a0:	0000                	.insn	2, 0x0000
    16a2:	0519                	.insn	2, 0x0519
    16a4:	0902                	.insn	2, 0x0902
    16a6:	0000                	.insn	2, 0x0000
    16a8:	0106                	.insn	2, 0x0106
    16aa:	0605                	.insn	2, 0x0605
    16ac:	0809                	.insn	2, 0x0809
    16ae:	0100                	.insn	2, 0x0100
    16b0:	0505                	.insn	2, 0x0505
    16b2:	0409                	.insn	2, 0x0409
    16b4:	0600                	.insn	2, 0x0600
    16b6:	0518                	.insn	2, 0x0518
    16b8:	00000903          	lb	s2,0(zero) # 0 <__stack_size-0x2000000>
    16bc:	0106                	.insn	2, 0x0106
    16be:	0a05                	.insn	2, 0x0a05
    16c0:	0409                	.insn	2, 0x0409
    16c2:	0100                	.insn	2, 0x0100
    16c4:	0d05                	.insn	2, 0x0d05
    16c6:	0409                	.insn	2, 0x0409
    16c8:	0600                	.insn	2, 0x0600
    16ca:	0518                	.insn	2, 0x0518
    16cc:	00000903          	lb	s2,0(zero) # 0 <__stack_size-0x2000000>
    16d0:	1606                	.insn	2, 0x1606
    16d2:	0a05                	.insn	2, 0x0a05
    16d4:	0409                	.insn	2, 0x0409
    16d6:	0100                	.insn	2, 0x0100
    16d8:	0a05                	.insn	2, 0x0a05
    16da:	0009                	.insn	2, 0x0009
    16dc:	4900                	.insn	2, 0x4900
    16de:	0b05                	.insn	2, 0x0b05
    16e0:	0409                	.insn	2, 0x0409
    16e2:	0600                	.insn	2, 0x0600
    16e4:	0511                	.insn	2, 0x0511
    16e6:	0902                	.insn	2, 0x0902
    16e8:	0000                	.insn	2, 0x0000
    16ea:	0518                	.insn	2, 0x0518
    16ec:	0902                	.insn	2, 0x0902
    16ee:	0000                	.insn	2, 0x0000
    16f0:	0518                	.insn	2, 0x0518
    16f2:	0902                	.insn	2, 0x0902
    16f4:	0000                	.insn	2, 0x0000
    16f6:	051a                	.insn	2, 0x051a
    16f8:	0902                	.insn	2, 0x0902
    16fa:	0000                	.insn	2, 0x0000
    16fc:	0518                	.insn	2, 0x0518
    16fe:	00000903          	lb	s2,0(zero) # 0 <__stack_size-0x2000000>
    1702:	0106                	.insn	2, 0x0106
    1704:	0505                	.insn	2, 0x0505
    1706:	0409                	.insn	2, 0x0409
    1708:	0100                	.insn	2, 0x0100
    170a:	0b05                	.insn	2, 0x0b05
    170c:	0409                	.insn	2, 0x0409
    170e:	0600                	.insn	2, 0x0600
    1710:	0518                	.insn	2, 0x0518
    1712:	00000903          	lb	s2,0(zero) # 0 <__stack_size-0x2000000>
    1716:	0106                	.insn	2, 0x0106
    1718:	0605                	.insn	2, 0x0605
    171a:	0409                	.insn	2, 0x0409
    171c:	0100                	.insn	2, 0x0100
    171e:	0605                	.insn	2, 0x0605
    1720:	2809                	.insn	2, 0x2809
    1722:	0100                	.insn	2, 0x0100
    1724:	0605                	.insn	2, 0x0605
    1726:	0009                	.insn	2, 0x0009
    1728:	6200                	.insn	2, 0x6200
    172a:	0105                	.insn	2, 0x0105
    172c:	1409                	.insn	2, 0x1409
    172e:	0600                	.insn	2, 0x0600
    1730:	017fb903          	.insn	4, 0x017fb903
    1734:	0305                	.insn	2, 0x0305
    1736:	0009                	.insn	2, 0x0009
    1738:	1800                	.insn	2, 0x1800
    173a:	0305                	.insn	2, 0x0305
    173c:	0009                	.insn	2, 0x0009
    173e:	0600                	.insn	2, 0x0600
    1740:	0501                	.insn	2, 0x0501
    1742:	0905                	.insn	2, 0x0905
    1744:	0004                	.insn	2, 0x0004
    1746:	1806                	.insn	2, 0x1806
    1748:	0305                	.insn	2, 0x0305
    174a:	0009                	.insn	2, 0x0009
    174c:	0600                	.insn	2, 0x0600
    174e:	0501                	.insn	2, 0x0501
    1750:	0906                	.insn	2, 0x0906
    1752:	0008                	.insn	2, 0x0008
    1754:	1a06                	.insn	2, 0x1a06
    1756:	0405                	.insn	2, 0x0405
    1758:	0009                	.insn	2, 0x0009
    175a:	0600                	.insn	2, 0x0600
    175c:	0501                	.insn	2, 0x0501
    175e:	00080907          	.insn	4, 0x00080907
    1762:	090b0513          	addi	a0,s6,144
    1766:	0004                	.insn	2, 0x0004
    1768:	0516                	.insn	2, 0x0516
    176a:	0905                	.insn	2, 0x0905
    176c:	0004                	.insn	2, 0x0004
    176e:	2006                	.insn	2, 0x2006
    1770:	0305                	.insn	2, 0x0305
    1772:	0009                	.insn	2, 0x0009
    1774:	0000                	.insn	2, 0x0000
    1776:	0402                	.insn	2, 0x0402
    1778:	0101                	.insn	2, 0x0101
    177a:	1805                	.insn	2, 0x1805
    177c:	0809                	.insn	2, 0x0809
    177e:	0000                	.insn	2, 0x0000
    1780:	0402                	.insn	2, 0x0402
    1782:	0600                	.insn	2, 0x0600
    1784:	0501                	.insn	2, 0x0501
    1786:	090a                	.insn	2, 0x090a
    1788:	0004                	.insn	2, 0x0004
    178a:	0200                	.insn	2, 0x0200
    178c:	0104                	.insn	2, 0x0104
    178e:	0501                	.insn	2, 0x0501
    1790:	0918                	.insn	2, 0x0918
    1792:	0004                	.insn	2, 0x0004
    1794:	0200                	.insn	2, 0x0200
    1796:	0004                	.insn	2, 0x0004
    1798:	1806                	.insn	2, 0x1806
    179a:	0405                	.insn	2, 0x0405
    179c:	0009                	.insn	2, 0x0009
    179e:	0600                	.insn	2, 0x0600
    17a0:	0501                	.insn	2, 0x0501
    17a2:	090a                	.insn	2, 0x090a
    17a4:	0008                	.insn	2, 0x0008
    17a6:	0200                	.insn	2, 0x0200
    17a8:	0304                	.insn	2, 0x0304
    17aa:	0516                	.insn	2, 0x0516
    17ac:	092d                	.insn	2, 0x092d
    17ae:	0004                	.insn	2, 0x0004
    17b0:	0200                	.insn	2, 0x0200
    17b2:	0004                	.insn	2, 0x0004
    17b4:	0518                	.insn	2, 0x0518
    17b6:	090a                	.insn	2, 0x090a
    17b8:	0004                	.insn	2, 0x0004
    17ba:	0501                	.insn	2, 0x0501
    17bc:	0004090f          	.insn	4, 0x0004090f
    17c0:	0200                	.insn	2, 0x0200
    17c2:	0304                	.insn	2, 0x0304
    17c4:	0516                	.insn	2, 0x0516
    17c6:	00040927          	.insn	4, 0x00040927
    17ca:	0200                	.insn	2, 0x0200
    17cc:	0004                	.insn	2, 0x0004
    17ce:	0518                	.insn	2, 0x0518
    17d0:	0906                	.insn	2, 0x0906
    17d2:	0004                	.insn	2, 0x0004
    17d4:	0200                	.insn	2, 0x0200
    17d6:	0304                	.insn	2, 0x0304
    17d8:	1606                	.insn	2, 0x1606
    17da:	2705                	.insn	2, 0x2705
    17dc:	0009                	.insn	2, 0x0009
    17de:	0000                	.insn	2, 0x0000
    17e0:	0402                	.insn	2, 0x0402
    17e2:	0101                	.insn	2, 0x0101
    17e4:	1805                	.insn	2, 0x1805
    17e6:	0c09                	.insn	2, 0x0c09
    17e8:	0000                	.insn	2, 0x0000
    17ea:	0402                	.insn	2, 0x0402
    17ec:	1900                	.insn	2, 0x1900
    17ee:	0305                	.insn	2, 0x0305
    17f0:	0009                	.insn	2, 0x0009
    17f2:	0600                	.insn	2, 0x0600
    17f4:	0501                	.insn	2, 0x0501
    17f6:	0906                	.insn	2, 0x0906
    17f8:	000c                	.insn	2, 0x000c
    17fa:	1806                	.insn	2, 0x1806
    17fc:	0405                	.insn	2, 0x0405
    17fe:	0009                	.insn	2, 0x0009
    1800:	0600                	.insn	2, 0x0600
    1802:	0501                	.insn	2, 0x0501
    1804:	090e                	.insn	2, 0x090e
    1806:	0004                	.insn	2, 0x0004
    1808:	0501                	.insn	2, 0x0501
    180a:	0906                	.insn	2, 0x0906
    180c:	0004                	.insn	2, 0x0004
    180e:	0106                	.insn	2, 0x0106
    1810:	0c05                	.insn	2, 0x0c05
    1812:	0009                	.insn	2, 0x0009
    1814:	0600                	.insn	2, 0x0600
    1816:	0501                	.insn	2, 0x0501
    1818:	0914                	.insn	2, 0x0914
    181a:	0004                	.insn	2, 0x0004
    181c:	1906                	.insn	2, 0x1906
    181e:	0305                	.insn	2, 0x0305
    1820:	0009                	.insn	2, 0x0009
    1822:	0600                	.insn	2, 0x0600
    1824:	0501                	.insn	2, 0x0501
    1826:	0906                	.insn	2, 0x0906
    1828:	0004                	.insn	2, 0x0004
    182a:	1806                	.insn	2, 0x1806
    182c:	0305                	.insn	2, 0x0305
    182e:	0009                	.insn	2, 0x0009
    1830:	1800                	.insn	2, 0x1800
    1832:	0305                	.insn	2, 0x0305
    1834:	0009                	.insn	2, 0x0009
    1836:	0600                	.insn	2, 0x0600
    1838:	0501                	.insn	2, 0x0501
    183a:	0906                	.insn	2, 0x0906
    183c:	0004                	.insn	2, 0x0004
    183e:	0516                	.insn	2, 0x0516
    1840:	0905                	.insn	2, 0x0905
    1842:	0004                	.insn	2, 0x0004
    1844:	0518                	.insn	2, 0x0518
    1846:	0906                	.insn	2, 0x0906
    1848:	0004                	.insn	2, 0x0004
    184a:	0200                	.insn	2, 0x0200
    184c:	0104                	.insn	2, 0x0104
    184e:	0106                	.insn	2, 0x0106
    1850:	1105                	.insn	2, 0x1105
    1852:	0009                	.insn	2, 0x0009
    1854:	0600                	.insn	2, 0x0600
    1856:	0501                	.insn	2, 0x0501
    1858:	00080913          	addi	s2,a6,0
    185c:	0200                	.insn	2, 0x0200
    185e:	0004                	.insn	2, 0x0004
    1860:	1806                	.insn	2, 0x1806
    1862:	0305                	.insn	2, 0x0305
    1864:	2409                	.insn	2, 0x2409
    1866:	2b00                	.insn	2, 0x2b00
    1868:	0405                	.insn	2, 0x0405
    186a:	0009                	.insn	2, 0x0009
    186c:	0300                	.insn	2, 0x0300
    186e:	7f9f 0501 0906      	.insn	6, 0x090605017f9f
    1874:	0000                	.insn	2, 0x0000
    1876:	0519                	.insn	2, 0x0519
    1878:	0902                	.insn	2, 0x0902
    187a:	0000                	.insn	2, 0x0000
    187c:	0519                	.insn	2, 0x0519
    187e:	0902                	.insn	2, 0x0902
    1880:	0000                	.insn	2, 0x0000
    1882:	0106                	.insn	2, 0x0106
    1884:	0605                	.insn	2, 0x0605
    1886:	0409                	.insn	2, 0x0409
    1888:	0100                	.insn	2, 0x0100
    188a:	0605                	.insn	2, 0x0605
    188c:	0409                	.insn	2, 0x0409
    188e:	0100                	.insn	2, 0x0100
    1890:	0505                	.insn	2, 0x0505
    1892:	0409                	.insn	2, 0x0409
    1894:	0600                	.insn	2, 0x0600
    1896:	0518                	.insn	2, 0x0518
    1898:	00000903          	lb	s2,0(zero) # 0 <__stack_size-0x2000000>
    189c:	0106                	.insn	2, 0x0106
    189e:	0a05                	.insn	2, 0x0a05
    18a0:	0409                	.insn	2, 0x0409
    18a2:	0100                	.insn	2, 0x0100
    18a4:	0d05                	.insn	2, 0x0d05
    18a6:	0409                	.insn	2, 0x0409
    18a8:	0600                	.insn	2, 0x0600
    18aa:	0518                	.insn	2, 0x0518
    18ac:	00000903          	lb	s2,0(zero) # 0 <__stack_size-0x2000000>
    18b0:	1606                	.insn	2, 0x1606
    18b2:	0a05                	.insn	2, 0x0a05
    18b4:	0409                	.insn	2, 0x0409
    18b6:	1800                	.insn	2, 0x1800
    18b8:	0305                	.insn	2, 0x0305
    18ba:	0409                	.insn	2, 0x0409
    18bc:	0100                	.insn	2, 0x0100
    18be:	0305                	.insn	2, 0x0305
    18c0:	0009                	.insn	2, 0x0009
    18c2:	0600                	.insn	2, 0x0600
    18c4:	056e                	.insn	2, 0x056e
    18c6:	0904                	.insn	2, 0x0904
    18c8:	0000                	.insn	2, 0x0000
    18ca:	0501                	.insn	2, 0x0501
    18cc:	090c                	.insn	2, 0x090c
    18ce:	0000                	.insn	2, 0x0000
    18d0:	051f 0903 0000      	.insn	6, 0x0903051f
    18d6:	0106                	.insn	2, 0x0106
    18d8:	0a05                	.insn	2, 0x0a05
    18da:	0409                	.insn	2, 0x0409
    18dc:	0300                	.insn	2, 0x0300
    18de:	016a                	.insn	2, 0x016a
    18e0:	0605                	.insn	2, 0x0605
    18e2:	0409                	.insn	2, 0x0409
    18e4:	2d00                	.insn	2, 0x2d00
    18e6:	2305                	.insn	2, 0x2305
    18e8:	0409                	.insn	2, 0x0409
    18ea:	1800                	.insn	2, 0x1800
    18ec:	0905                	.insn	2, 0x0905
    18ee:	0409                	.insn	2, 0x0409
    18f0:	0300                	.insn	2, 0x0300
    18f2:	0169                	.insn	2, 0x0169
    18f4:	0605                	.insn	2, 0x0605
    18f6:	0409                	.insn	2, 0x0409
    18f8:	0600                	.insn	2, 0x0600
    18fa:	052e                	.insn	2, 0x052e
    18fc:	00000903          	lb	s2,0(zero) # 0 <__stack_size-0x2000000>
    1900:	0106                	.insn	2, 0x0106
    1902:	0605                	.insn	2, 0x0605
    1904:	0809                	.insn	2, 0x0809
    1906:	0600                	.insn	2, 0x0600
    1908:	0518                	.insn	2, 0x0518
    190a:	0904                	.insn	2, 0x0904
    190c:	0000                	.insn	2, 0x0000
    190e:	0106                	.insn	2, 0x0106
    1910:	0605                	.insn	2, 0x0605
    1912:	0409                	.insn	2, 0x0409
    1914:	0600                	.insn	2, 0x0600
    1916:	0518                	.insn	2, 0x0518
    1918:	0904                	.insn	2, 0x0904
    191a:	0000                	.insn	2, 0x0000
    191c:	0106                	.insn	2, 0x0106
    191e:	0605                	.insn	2, 0x0605
    1920:	0409                	.insn	2, 0x0409
    1922:	0100                	.insn	2, 0x0100
    1924:	0605                	.insn	2, 0x0605
    1926:	0c09                	.insn	2, 0x0c09
    1928:	0600                	.insn	2, 0x0600
    192a:	0519                	.insn	2, 0x0519
    192c:	00000903          	lb	s2,0(zero) # 0 <__stack_size-0x2000000>
    1930:	0106                	.insn	2, 0x0106
    1932:	0305                	.insn	2, 0x0305
    1934:	0409                	.insn	2, 0x0409
    1936:	0100                	.insn	2, 0x0100
    1938:	0305                	.insn	2, 0x0305
    193a:	0809                	.insn	2, 0x0809
    193c:	0100                	.insn	2, 0x0100
    193e:	0305                	.insn	2, 0x0305
    1940:	0409                	.insn	2, 0x0409
    1942:	0100                	.insn	2, 0x0100
    1944:	0505                	.insn	2, 0x0505
    1946:	0c09                	.insn	2, 0x0c09
    1948:	1b00                	.insn	2, 0x1b00
    194a:	0705                	.insn	2, 0x0705
    194c:	0409                	.insn	2, 0x0409
    194e:	0600                	.insn	2, 0x0600
    1950:	0514                	.insn	2, 0x0514
    1952:	00000903          	lb	s2,0(zero) # 0 <__stack_size-0x2000000>
    1956:	0518                	.insn	2, 0x0518
    1958:	0904                	.insn	2, 0x0904
    195a:	0000                	.insn	2, 0x0000
    195c:	0106                	.insn	2, 0x0106
    195e:	1105                	.insn	2, 0x1105
    1960:	0809                	.insn	2, 0x0809
    1962:	0600                	.insn	2, 0x0600
    1964:	0501                	.insn	2, 0x0501
    1966:	00000917          	auipc	s2,0x0
    196a:	0106                	.insn	2, 0x0106
    196c:	1905                	.insn	2, 0x1905
    196e:	0409                	.insn	2, 0x0409
    1970:	0600                	.insn	2, 0x0600
    1972:	0518                	.insn	2, 0x0518
    1974:	0904                	.insn	2, 0x0904
    1976:	0000                	.insn	2, 0x0000
    1978:	0106                	.insn	2, 0x0106
    197a:	0705                	.insn	2, 0x0705
    197c:	0409                	.insn	2, 0x0409
    197e:	0000                	.insn	2, 0x0000
    1980:	0402                	.insn	2, 0x0402
    1982:	0601                	.insn	2, 0x0601
    1984:	0501                	.insn	2, 0x0501
    1986:	0000090f          	.insn	4, 0x090f
    198a:	0200                	.insn	2, 0x0200
    198c:	0504                	.insn	2, 0x0504
    198e:	0106                	.insn	2, 0x0106
    1990:	1105                	.insn	2, 0x1105
    1992:	0409                	.insn	2, 0x0409
    1994:	0000                	.insn	2, 0x0000
    1996:	0402                	.insn	2, 0x0402
    1998:	0600                	.insn	2, 0x0600
    199a:	0518                	.insn	2, 0x0518
    199c:	0904                	.insn	2, 0x0904
    199e:	0000                	.insn	2, 0x0000
    19a0:	0106                	.insn	2, 0x0106
    19a2:	0705                	.insn	2, 0x0705
    19a4:	0409                	.insn	2, 0x0409
    19a6:	0100                	.insn	2, 0x0100
    19a8:	0f05                	.insn	2, 0x0f05
    19aa:	0409                	.insn	2, 0x0409
    19ac:	0100                	.insn	2, 0x0100
    19ae:	0b05                	.insn	2, 0x0b05
    19b0:	0809                	.insn	2, 0x0809
    19b2:	0600                	.insn	2, 0x0600
    19b4:	0518                	.insn	2, 0x0518
    19b6:	090e                	.insn	2, 0x090e
    19b8:	0004                	.insn	2, 0x0004
    19ba:	0106                	.insn	2, 0x0106
    19bc:	1305                	.insn	2, 0x1305
    19be:	0409                	.insn	2, 0x0409
    19c0:	0100                	.insn	2, 0x0100
    19c2:	0e05                	.insn	2, 0x0e05
    19c4:	0409                	.insn	2, 0x0409
    19c6:	0600                	.insn	2, 0x0600
    19c8:	0518                	.insn	2, 0x0518
    19ca:	00000903          	lb	s2,0(zero) # 0 <__stack_size-0x2000000>
    19ce:	0106                	.insn	2, 0x0106
    19d0:	0605                	.insn	2, 0x0605
    19d2:	0409                	.insn	2, 0x0409
    19d4:	0000                	.insn	2, 0x0000
    19d6:	0402                	.insn	2, 0x0402
    19d8:	0601                	.insn	2, 0x0601
    19da:	0501                	.insn	2, 0x0501
    19dc:	090e                	.insn	2, 0x090e
    19de:	0000                	.insn	2, 0x0000
    19e0:	0106                	.insn	2, 0x0106
    19e2:	1505                	.insn	2, 0x1505
    19e4:	0809                	.insn	2, 0x0809
    19e6:	0100                	.insn	2, 0x0100
    19e8:	1105                	.insn	2, 0x1105
    19ea:	0409                	.insn	2, 0x0409
    19ec:	0100                	.insn	2, 0x0100
    19ee:	1505                	.insn	2, 0x1505
    19f0:	0409                	.insn	2, 0x0409
    19f2:	0000                	.insn	2, 0x0000
    19f4:	0402                	.insn	2, 0x0402
    19f6:	0600                	.insn	2, 0x0600
    19f8:	0518                	.insn	2, 0x0518
    19fa:	00000903          	lb	s2,0(zero) # 0 <__stack_size-0x2000000>
    19fe:	0501                	.insn	2, 0x0501
    1a00:	090a                	.insn	2, 0x090a
    1a02:	0000                	.insn	2, 0x0000
    1a04:	0200                	.insn	2, 0x0200
    1a06:	0204                	.insn	2, 0x0204
    1a08:	0106                	.insn	2, 0x0106
    1a0a:	0c05                	.insn	2, 0x0c05
    1a0c:	0809                	.insn	2, 0x0809
    1a0e:	0100                	.insn	2, 0x0100
    1a10:	0c05                	.insn	2, 0x0c05
    1a12:	0409                	.insn	2, 0x0409
    1a14:	0000                	.insn	2, 0x0000
    1a16:	0402                	.insn	2, 0x0402
    1a18:	0300                	.insn	2, 0x0300
    1a1a:	05017f93          	andi	t6,sp,80
    1a1e:	0906                	.insn	2, 0x0906
    1a20:	0004                	.insn	2, 0x0004
    1a22:	0200                	.insn	2, 0x0200
    1a24:	0204                	.insn	2, 0x0204
    1a26:	0585                	.insn	2, 0x0585
    1a28:	090e                	.insn	2, 0x090e
    1a2a:	0004                	.insn	2, 0x0004
    1a2c:	0501                	.insn	2, 0x0501
    1a2e:	00040913          	addi	s2,s0,0
    1a32:	0200                	.insn	2, 0x0200
    1a34:	0004                	.insn	2, 0x0004
    1a36:	017f9203          	lh	tp,23(t6)
    1a3a:	0605                	.insn	2, 0x0605
    1a3c:	0409                	.insn	2, 0x0409
    1a3e:	0000                	.insn	2, 0x0000
    1a40:	0402                	.insn	2, 0x0402
    1a42:	8402                	.insn	2, 0x8402
    1a44:	0c05                	.insn	2, 0x0c05
    1a46:	0409                	.insn	2, 0x0409
    1a48:	0600                	.insn	2, 0x0600
    1a4a:	0518                	.insn	2, 0x0518
    1a4c:	00100913          	addi	s2,zero,1
    1a50:	0200                	.insn	2, 0x0200
    1a52:	0304                	.insn	2, 0x0304
    1a54:	0106                	.insn	2, 0x0106
    1a56:	1705                	.insn	2, 0x1705
    1a58:	0409                	.insn	2, 0x0409
    1a5a:	0100                	.insn	2, 0x0100
    1a5c:	1305                	.insn	2, 0x1305
    1a5e:	0409                	.insn	2, 0x0409
    1a60:	0000                	.insn	2, 0x0000
    1a62:	0402                	.insn	2, 0x0402
    1a64:	0604                	.insn	2, 0x0604
    1a66:	0501                	.insn	2, 0x0501
    1a68:	091f 0000 0200      	.insn	6, 0x02000000091f
    1a6e:	0004                	.insn	2, 0x0004
    1a70:	017f8e03          	lb	t3,23(t6)
    1a74:	0605                	.insn	2, 0x0605
    1a76:	0009                	.insn	2, 0x0009
    1a78:	1900                	.insn	2, 0x1900
    1a7a:	0205                	.insn	2, 0x0205
    1a7c:	0009                	.insn	2, 0x0009
    1a7e:	1900                	.insn	2, 0x1900
    1a80:	0205                	.insn	2, 0x0205
    1a82:	0009                	.insn	2, 0x0009
    1a84:	0600                	.insn	2, 0x0600
    1a86:	0501                	.insn	2, 0x0501
    1a88:	0905                	.insn	2, 0x0905
    1a8a:	0004                	.insn	2, 0x0004
    1a8c:	1306                	.insn	2, 0x1306
    1a8e:	0605                	.insn	2, 0x0605
    1a90:	0009                	.insn	2, 0x0009
    1a92:	2000                	.insn	2, 0x2000
    1a94:	0205                	.insn	2, 0x0205
    1a96:	0009                	.insn	2, 0x0009
    1a98:	0600                	.insn	2, 0x0600
    1a9a:	0501                	.insn	2, 0x0501
    1a9c:	0906                	.insn	2, 0x0906
    1a9e:	0004                	.insn	2, 0x0004
    1aa0:	0501                	.insn	2, 0x0501
    1aa2:	0905                	.insn	2, 0x0905
    1aa4:	0004                	.insn	2, 0x0004
    1aa6:	0200                	.insn	2, 0x0200
    1aa8:	0104                	.insn	2, 0x0104
    1aaa:	0106                	.insn	2, 0x0106
    1aac:	1105                	.insn	2, 0x1105
    1aae:	0809                	.insn	2, 0x0809
    1ab0:	0000                	.insn	2, 0x0000
    1ab2:	0402                	.insn	2, 0x0402
    1ab4:	0600                	.insn	2, 0x0600
    1ab6:	0512                	.insn	2, 0x0512
    1ab8:	0906                	.insn	2, 0x0906
    1aba:	0004                	.insn	2, 0x0004
    1abc:	0501                	.insn	2, 0x0501
    1abe:	0906                	.insn	2, 0x0906
    1ac0:	0000                	.insn	2, 0x0000
    1ac2:	0200                	.insn	2, 0x0200
    1ac4:	0204                	.insn	2, 0x0204
    1ac6:	8506                	.insn	2, 0x8506
    1ac8:	1305                	.insn	2, 0x1305
    1aca:	0009                	.insn	2, 0x0009
    1acc:	0000                	.insn	2, 0x0000
    1ace:	0402                	.insn	2, 0x0402
    1ad0:	05010603          	lb	a2,80(sp)
    1ad4:	00040913          	addi	s2,s0,0
    1ad8:	0501                	.insn	2, 0x0501
    1ada:	00040913          	addi	s2,s0,0
    1ade:	0200                	.insn	2, 0x0200
    1ae0:	0404                	.insn	2, 0x0404
    1ae2:	0106                	.insn	2, 0x0106
    1ae4:	1f05                	.insn	2, 0x1f05
    1ae6:	0009                	.insn	2, 0x0009
    1ae8:	0000                	.insn	2, 0x0000
    1aea:	0402                	.insn	2, 0x0402
    1aec:	0300                	.insn	2, 0x0300
    1aee:	7f8e                	.insn	2, 0x7f8e
    1af0:	0501                	.insn	2, 0x0501
    1af2:	0906                	.insn	2, 0x0906
    1af4:	0000                	.insn	2, 0x0000
    1af6:	0519                	.insn	2, 0x0519
    1af8:	0902                	.insn	2, 0x0902
    1afa:	0000                	.insn	2, 0x0000
    1afc:	0519                	.insn	2, 0x0519
    1afe:	0902                	.insn	2, 0x0902
    1b00:	0000                	.insn	2, 0x0000
    1b02:	0106                	.insn	2, 0x0106
    1b04:	0505                	.insn	2, 0x0505
    1b06:	0409                	.insn	2, 0x0409
    1b08:	0600                	.insn	2, 0x0600
    1b0a:	0518                	.insn	2, 0x0518
    1b0c:	00040903          	lb	s2,0(s0)
    1b10:	0106                	.insn	2, 0x0106
    1b12:	0a05                	.insn	2, 0x0a05
    1b14:	0409                	.insn	2, 0x0409
    1b16:	0000                	.insn	2, 0x0000
    1b18:	0402                	.insn	2, 0x0402
    1b1a:	17058403          	lb	s0,368(a1)
    1b1e:	0409                	.insn	2, 0x0409
    1b20:	0000                	.insn	2, 0x0000
    1b22:	0402                	.insn	2, 0x0402
    1b24:	0300                	.insn	2, 0x0300
    1b26:	05017f93          	andi	t6,sp,80
    1b2a:	090d                	.insn	2, 0x090d
    1b2c:	0004                	.insn	2, 0x0004
    1b2e:	1806                	.insn	2, 0x1806
    1b30:	0305                	.insn	2, 0x0305
    1b32:	0009                	.insn	2, 0x0009
    1b34:	0600                	.insn	2, 0x0600
    1b36:	0501                	.insn	2, 0x0501
    1b38:	00000903          	lb	s2,0(zero) # 0 <__stack_size-0x2000000>
    1b3c:	0200                	.insn	2, 0x0200
    1b3e:	0204                	.insn	2, 0x0204
    1b40:	8306                	.insn	2, 0x8306
    1b42:	1305                	.insn	2, 0x1305
    1b44:	0009                	.insn	2, 0x0009
    1b46:	0000                	.insn	2, 0x0000
    1b48:	0402                	.insn	2, 0x0402
    1b4a:	0600                	.insn	2, 0x0600
    1b4c:	017f9303          	lh	t1,23(t6)
    1b50:	0a05                	.insn	2, 0x0a05
    1b52:	0409                	.insn	2, 0x0409
    1b54:	0000                	.insn	2, 0x0000
    1b56:	0402                	.insn	2, 0x0402
    1b58:	13058403          	lb	s0,304(a1)
    1b5c:	0409                	.insn	2, 0x0409
    1b5e:	0100                	.insn	2, 0x0100
    1b60:	1305                	.insn	2, 0x1305
    1b62:	0409                	.insn	2, 0x0409
    1b64:	0100                	.insn	2, 0x0100
    1b66:	1305                	.insn	2, 0x1305
    1b68:	0409                	.insn	2, 0x0409
    1b6a:	0000                	.insn	2, 0x0000
    1b6c:	0402                	.insn	2, 0x0402
    1b6e:	0600                	.insn	2, 0x0600
    1b70:	017f9303          	lh	t1,23(t6)
    1b74:	0305                	.insn	2, 0x0305
    1b76:	0009                	.insn	2, 0x0009
    1b78:	0600                	.insn	2, 0x0600
    1b7a:	0501                	.insn	2, 0x0501
    1b7c:	090a                	.insn	2, 0x090a
    1b7e:	0004                	.insn	2, 0x0004
    1b80:	0501                	.insn	2, 0x0501
    1b82:	090d                	.insn	2, 0x090d
    1b84:	0004                	.insn	2, 0x0004
    1b86:	1806                	.insn	2, 0x1806
    1b88:	0305                	.insn	2, 0x0305
    1b8a:	0009                	.insn	2, 0x0009
    1b8c:	0600                	.insn	2, 0x0600
    1b8e:	0516                	.insn	2, 0x0516
    1b90:	090a                	.insn	2, 0x090a
    1b92:	0004                	.insn	2, 0x0004
    1b94:	0501                	.insn	2, 0x0501
    1b96:	090a                	.insn	2, 0x090a
    1b98:	0000                	.insn	2, 0x0000
    1b9a:	0200                	.insn	2, 0x0200
    1b9c:	0204                	.insn	2, 0x0204
    1b9e:	8506                	.insn	2, 0x8506
    1ba0:	1b05                	.insn	2, 0x1b05
    1ba2:	0409                	.insn	2, 0x0409
    1ba4:	0600                	.insn	2, 0x0600
    1ba6:	0501                	.insn	2, 0x0501
    1ba8:	0004091b          	.insn	4, 0x0004091b
    1bac:	0200                	.insn	2, 0x0200
    1bae:	0004                	.insn	2, 0x0004
    1bb0:	017f9103          	lh	sp,23(t6)
    1bb4:	0605                	.insn	2, 0x0605
    1bb6:	0409                	.insn	2, 0x0409
    1bb8:	0100                	.insn	2, 0x0100
    1bba:	0605                	.insn	2, 0x0605
    1bbc:	0009                	.insn	2, 0x0009
    1bbe:	0000                	.insn	2, 0x0000
    1bc0:	0402                	.insn	2, 0x0402
    1bc2:	0602                	.insn	2, 0x0602
    1bc4:	0586                	.insn	2, 0x0586
    1bc6:	00000903          	lb	s2,0(zero) # 0 <__stack_size-0x2000000>
    1bca:	0501                	.insn	2, 0x0501
    1bcc:	0906                	.insn	2, 0x0906
    1bce:	0000                	.insn	2, 0x0000
    1bd0:	0106                	.insn	2, 0x0106
    1bd2:	0605                	.insn	2, 0x0605
    1bd4:	0409                	.insn	2, 0x0409
    1bd6:	0000                	.insn	2, 0x0000
    1bd8:	0402                	.insn	2, 0x0402
    1bda:	0600                	.insn	2, 0x0600
    1bdc:	017f8d03          	lb	s10,23(t6)
    1be0:	0605                	.insn	2, 0x0605
    1be2:	0009                	.insn	2, 0x0009
    1be4:	1900                	.insn	2, 0x1900
    1be6:	0205                	.insn	2, 0x0205
    1be8:	0009                	.insn	2, 0x0009
    1bea:	1900                	.insn	2, 0x1900
    1bec:	0205                	.insn	2, 0x0205
    1bee:	0009                	.insn	2, 0x0009
    1bf0:	0600                	.insn	2, 0x0600
    1bf2:	0501                	.insn	2, 0x0501
    1bf4:	0905                	.insn	2, 0x0905
    1bf6:	0004                	.insn	2, 0x0004
    1bf8:	1306                	.insn	2, 0x1306
    1bfa:	0605                	.insn	2, 0x0605
    1bfc:	0009                	.insn	2, 0x0009
    1bfe:	2000                	.insn	2, 0x2000
    1c00:	0205                	.insn	2, 0x0205
    1c02:	0009                	.insn	2, 0x0009
    1c04:	0600                	.insn	2, 0x0600
    1c06:	0501                	.insn	2, 0x0501
    1c08:	0906                	.insn	2, 0x0906
    1c0a:	0004                	.insn	2, 0x0004
    1c0c:	0501                	.insn	2, 0x0501
    1c0e:	0905                	.insn	2, 0x0905
    1c10:	0004                	.insn	2, 0x0004
    1c12:	0200                	.insn	2, 0x0200
    1c14:	0104                	.insn	2, 0x0104
    1c16:	0106                	.insn	2, 0x0106
    1c18:	1105                	.insn	2, 0x1105
    1c1a:	0009                	.insn	2, 0x0009
    1c1c:	0000                	.insn	2, 0x0000
    1c1e:	0402                	.insn	2, 0x0402
    1c20:	0602                	.insn	2, 0x0602
    1c22:	0581                	.insn	2, 0x0581
    1c24:	0004091b          	.insn	4, 0x0004091b
    1c28:	0200                	.insn	2, 0x0200
    1c2a:	0104                	.insn	2, 0x0104
    1c2c:	017f9603          	lh	a2,23(t6)
    1c30:	1105                	.insn	2, 0x1105
    1c32:	0409                	.insn	2, 0x0409
    1c34:	0100                	.insn	2, 0x0100
    1c36:	1105                	.insn	2, 0x1105
    1c38:	0009                	.insn	2, 0x0009
    1c3a:	0000                	.insn	2, 0x0000
    1c3c:	0402                	.insn	2, 0x0402
    1c3e:	0602                	.insn	2, 0x0602
    1c40:	0581                	.insn	2, 0x0581
    1c42:	0004091b          	.insn	4, 0x0004091b
    1c46:	0518                	.insn	2, 0x0518
    1c48:	090e                	.insn	2, 0x090e
    1c4a:	0000                	.insn	2, 0x0000
    1c4c:	0106                	.insn	2, 0x0106
    1c4e:	0e05                	.insn	2, 0x0e05
    1c50:	0809                	.insn	2, 0x0809
    1c52:	0100                	.insn	2, 0x0100
    1c54:	0b05                	.insn	2, 0x0b05
    1c56:	0409                	.insn	2, 0x0409
    1c58:	0000                	.insn	2, 0x0000
    1c5a:	0402                	.insn	2, 0x0402
    1c5c:	0300                	.insn	2, 0x0300
    1c5e:	7f90                	.insn	2, 0x7f90
    1c60:	0501                	.insn	2, 0x0501
    1c62:	0906                	.insn	2, 0x0906
    1c64:	0004                	.insn	2, 0x0004
    1c66:	0200                	.insn	2, 0x0200
    1c68:	0104                	.insn	2, 0x0104
    1c6a:	051c                	.insn	2, 0x051c
    1c6c:	0911                	.insn	2, 0x0911
    1c6e:	0004                	.insn	2, 0x0004
    1c70:	0501                	.insn	2, 0x0501
    1c72:	0911                	.insn	2, 0x0911
    1c74:	0000                	.insn	2, 0x0000
    1c76:	0200                	.insn	2, 0x0200
    1c78:	0304                	.insn	2, 0x0304
    1c7a:	8206                	.insn	2, 0x8206
    1c7c:	1305                	.insn	2, 0x1305
    1c7e:	0009                	.insn	2, 0x0009
    1c80:	0000                	.insn	2, 0x0000
    1c82:	0402                	.insn	2, 0x0402
    1c84:	0300                	.insn	2, 0x0300
    1c86:	7f8c                	.insn	2, 0x7f8c
    1c88:	0501                	.insn	2, 0x0501
    1c8a:	0906                	.insn	2, 0x0906
    1c8c:	0000                	.insn	2, 0x0000
    1c8e:	0519                	.insn	2, 0x0519
    1c90:	0902                	.insn	2, 0x0902
    1c92:	0000                	.insn	2, 0x0000
    1c94:	0519                	.insn	2, 0x0519
    1c96:	0902                	.insn	2, 0x0902
    1c98:	0000                	.insn	2, 0x0000
    1c9a:	0106                	.insn	2, 0x0106
    1c9c:	0505                	.insn	2, 0x0505
    1c9e:	0409                	.insn	2, 0x0409
    1ca0:	0600                	.insn	2, 0x0600
    1ca2:	0518                	.insn	2, 0x0518
    1ca4:	00000903          	lb	s2,0(zero) # 0 <__stack_size-0x2000000>
    1ca8:	0106                	.insn	2, 0x0106
    1caa:	0a05                	.insn	2, 0x0a05
    1cac:	0409                	.insn	2, 0x0409
    1cae:	0100                	.insn	2, 0x0100
    1cb0:	0d05                	.insn	2, 0x0d05
    1cb2:	0409                	.insn	2, 0x0409
    1cb4:	0600                	.insn	2, 0x0600
    1cb6:	0518                	.insn	2, 0x0518
    1cb8:	00000903          	lb	s2,0(zero) # 0 <__stack_size-0x2000000>
    1cbc:	1606                	.insn	2, 0x1606
    1cbe:	0a05                	.insn	2, 0x0a05
    1cc0:	0409                	.insn	2, 0x0409
    1cc2:	0100                	.insn	2, 0x0100
    1cc4:	0a05                	.insn	2, 0x0a05
    1cc6:	0009                	.insn	2, 0x0009
    1cc8:	0000                	.insn	2, 0x0000
    1cca:	0402                	.insn	2, 0x0402
    1ccc:	0602                	.insn	2, 0x0602
    1cce:	0586                	.insn	2, 0x0586
    1cd0:	090e                	.insn	2, 0x090e
    1cd2:	0000                	.insn	2, 0x0000
    1cd4:	0106                	.insn	2, 0x0106
    1cd6:	0e05                	.insn	2, 0x0e05
    1cd8:	0409                	.insn	2, 0x0409
    1cda:	0000                	.insn	2, 0x0000
    1cdc:	0402                	.insn	2, 0x0402
    1cde:	0300                	.insn	2, 0x0300
    1ce0:	7f90                	.insn	2, 0x7f90
    1ce2:	0501                	.insn	2, 0x0501
    1ce4:	0906                	.insn	2, 0x0906
    1ce6:	0008                	.insn	2, 0x0008
    1ce8:	0200                	.insn	2, 0x0200
    1cea:	0304                	.insn	2, 0x0304
    1cec:	8706                	.insn	2, 0x8706
    1cee:	1305                	.insn	2, 0x1305
    1cf0:	0009                	.insn	2, 0x0009
    1cf2:	0000                	.insn	2, 0x0000
    1cf4:	0402                	.insn	2, 0x0402
    1cf6:	0300                	.insn	2, 0x0300
    1cf8:	7f8c                	.insn	2, 0x7f8c
    1cfa:	0501                	.insn	2, 0x0501
    1cfc:	0906                	.insn	2, 0x0906
    1cfe:	0000                	.insn	2, 0x0000
    1d00:	0519                	.insn	2, 0x0519
    1d02:	0902                	.insn	2, 0x0902
    1d04:	0000                	.insn	2, 0x0000
    1d06:	0519                	.insn	2, 0x0519
    1d08:	0902                	.insn	2, 0x0902
    1d0a:	0000                	.insn	2, 0x0000
    1d0c:	0106                	.insn	2, 0x0106
    1d0e:	0505                	.insn	2, 0x0505
    1d10:	0409                	.insn	2, 0x0409
    1d12:	0600                	.insn	2, 0x0600
    1d14:	09060513          	addi	a0,a2,144
    1d18:	0000                	.insn	2, 0x0000
    1d1a:	0520                	.insn	2, 0x0520
    1d1c:	0902                	.insn	2, 0x0902
    1d1e:	0000                	.insn	2, 0x0000
    1d20:	0106                	.insn	2, 0x0106
    1d22:	0605                	.insn	2, 0x0605
    1d24:	0409                	.insn	2, 0x0409
    1d26:	0100                	.insn	2, 0x0100
    1d28:	0505                	.insn	2, 0x0505
    1d2a:	0409                	.insn	2, 0x0409
    1d2c:	0000                	.insn	2, 0x0000
    1d2e:	0402                	.insn	2, 0x0402
    1d30:	0601                	.insn	2, 0x0601
    1d32:	0501                	.insn	2, 0x0501
    1d34:	0911                	.insn	2, 0x0911
    1d36:	000c                	.insn	2, 0x000c
    1d38:	0106                	.insn	2, 0x0106
    1d3a:	1105                	.insn	2, 0x1105
    1d3c:	0009                	.insn	2, 0x0009
    1d3e:	0000                	.insn	2, 0x0000
    1d40:	0402                	.insn	2, 0x0402
    1d42:	0600                	.insn	2, 0x0600
    1d44:	0568                	.insn	2, 0x0568
    1d46:	0904                	.insn	2, 0x0904
    1d48:	0000                	.insn	2, 0x0000
    1d4a:	0501                	.insn	2, 0x0501
    1d4c:	0000090b          	.insn	4, 0x090b
    1d50:	0522                	.insn	2, 0x0522
    1d52:	00000903          	lb	s2,0(zero) # 0 <__stack_size-0x2000000>
    1d56:	0106                	.insn	2, 0x0106
    1d58:	0a05                	.insn	2, 0x0a05
    1d5a:	0409                	.insn	2, 0x0409
    1d5c:	0100                	.insn	2, 0x0100
    1d5e:	2305                	.insn	2, 0x2305
    1d60:	0409                	.insn	2, 0x0409
    1d62:	0300                	.insn	2, 0x0300
    1d64:	0175                	.insn	2, 0x0175
    1d66:	0605                	.insn	2, 0x0605
    1d68:	0809                	.insn	2, 0x0809
    1d6a:	0000                	.insn	2, 0x0000
    1d6c:	0402                	.insn	2, 0x0402
    1d6e:	2205                	.insn	2, 0x2205
    1d70:	0505                	.insn	2, 0x0505
    1d72:	0409                	.insn	2, 0x0409
    1d74:	0000                	.insn	2, 0x0000
    1d76:	0402                	.insn	2, 0x0402
    1d78:	0600                	.insn	2, 0x0600
    1d7a:	0518                	.insn	2, 0x0518
    1d7c:	00000903          	lb	s2,0(zero) # 0 <__stack_size-0x2000000>
    1d80:	0200                	.insn	2, 0x0200
    1d82:	0504                	.insn	2, 0x0504
    1d84:	1606                	.insn	2, 0x1606
    1d86:	0505                	.insn	2, 0x0505
    1d88:	0c09                	.insn	2, 0x0c09
    1d8a:	0000                	.insn	2, 0x0000
    1d8c:	0402                	.insn	2, 0x0402
    1d8e:	0600                	.insn	2, 0x0600
    1d90:	05017103          	.insn	4, 0x05017103
    1d94:	0904                	.insn	2, 0x0904
    1d96:	0000                	.insn	2, 0x0000
    1d98:	0306                	.insn	2, 0x0306
    1d9a:	7fae                	.insn	2, 0x7fae
    1d9c:	0501                	.insn	2, 0x0501
    1d9e:	0906                	.insn	2, 0x0906
    1da0:	0004                	.insn	2, 0x0004
    1da2:	0501                	.insn	2, 0x0501
    1da4:	0906                	.insn	2, 0x0906
    1da6:	0004                	.insn	2, 0x0004
    1da8:	0200                	.insn	2, 0x0200
    1daa:	0104                	.insn	2, 0x0104
    1dac:	0569                	.insn	2, 0x0569
    1dae:	0904                	.insn	2, 0x0904
    1db0:	0004                	.insn	2, 0x0004
    1db2:	0200                	.insn	2, 0x0200
    1db4:	0004                	.insn	2, 0x0004
    1db6:	0501                	.insn	2, 0x0501
    1db8:	0910                	.insn	2, 0x0910
    1dba:	0004                	.insn	2, 0x0004
    1dbc:	0306                	.insn	2, 0x0306
    1dbe:	7faa                	.insn	2, 0x7faa
    1dc0:	0501                	.insn	2, 0x0501
    1dc2:	0906                	.insn	2, 0x0906
    1dc4:	0000                	.insn	2, 0x0000
    1dc6:	0519                	.insn	2, 0x0519
    1dc8:	0902                	.insn	2, 0x0902
    1dca:	0000                	.insn	2, 0x0000
    1dcc:	0519                	.insn	2, 0x0519
    1dce:	0902                	.insn	2, 0x0902
    1dd0:	0000                	.insn	2, 0x0000
    1dd2:	0106                	.insn	2, 0x0106
    1dd4:	0505                	.insn	2, 0x0505
    1dd6:	0409                	.insn	2, 0x0409
    1dd8:	0600                	.insn	2, 0x0600
    1dda:	0518                	.insn	2, 0x0518
    1ddc:	00000903          	lb	s2,0(zero) # 0 <__stack_size-0x2000000>
    1de0:	0106                	.insn	2, 0x0106
    1de2:	0a05                	.insn	2, 0x0a05
    1de4:	0409                	.insn	2, 0x0409
    1de6:	0100                	.insn	2, 0x0100
    1de8:	0d05                	.insn	2, 0x0d05
    1dea:	0409                	.insn	2, 0x0409
    1dec:	0600                	.insn	2, 0x0600
    1dee:	0518                	.insn	2, 0x0518
    1df0:	00000903          	lb	s2,0(zero) # 0 <__stack_size-0x2000000>
    1df4:	1606                	.insn	2, 0x1606
    1df6:	0a05                	.insn	2, 0x0a05
    1df8:	0409                	.insn	2, 0x0409
    1dfa:	0100                	.insn	2, 0x0100
    1dfc:	0a05                	.insn	2, 0x0a05
    1dfe:	0009                	.insn	2, 0x0009
    1e00:	6800                	.insn	2, 0x6800
    1e02:	1005                	.insn	2, 0x1005
    1e04:	0809                	.insn	2, 0x0809
    1e06:	0600                	.insn	2, 0x0600
    1e08:	0526                	.insn	2, 0x0526
    1e0a:	00000903          	lb	s2,0(zero) # 0 <__stack_size-0x2000000>
    1e0e:	0106                	.insn	2, 0x0106
    1e10:	0a05                	.insn	2, 0x0a05
    1e12:	0409                	.insn	2, 0x0409
    1e14:	0100                	.insn	2, 0x0100
    1e16:	2305                	.insn	2, 0x2305
    1e18:	0409                	.insn	2, 0x0409
    1e1a:	0300                	.insn	2, 0x0300
    1e1c:	016a                	.insn	2, 0x016a
    1e1e:	0605                	.insn	2, 0x0605
    1e20:	0409                	.insn	2, 0x0409
    1e22:	0000                	.insn	2, 0x0000
    1e24:	0402                	.insn	2, 0x0402
    1e26:	05052d03          	lw	s10,80(a0)
    1e2a:	0409                	.insn	2, 0x0409
    1e2c:	0000                	.insn	2, 0x0000
    1e2e:	0402                	.insn	2, 0x0402
    1e30:	0300                	.insn	2, 0x0300
    1e32:	016a                	.insn	2, 0x016a
    1e34:	0605                	.insn	2, 0x0605
    1e36:	0409                	.insn	2, 0x0409
    1e38:	0600                	.insn	2, 0x0600
    1e3a:	052e                	.insn	2, 0x052e
    1e3c:	00000903          	lb	s2,0(zero) # 0 <__stack_size-0x2000000>
    1e40:	0306                	.insn	2, 0x0306
    1e42:	0172                	.insn	2, 0x0172
    1e44:	0605                	.insn	2, 0x0605
    1e46:	0809                	.insn	2, 0x0809
    1e48:	0600                	.insn	2, 0x0600
    1e4a:	051e                	.insn	2, 0x051e
    1e4c:	0904                	.insn	2, 0x0904
    1e4e:	0000                	.insn	2, 0x0000
    1e50:	0501                	.insn	2, 0x0501
    1e52:	090c                	.insn	2, 0x090c
    1e54:	0000                	.insn	2, 0x0000
    1e56:	051d                	.insn	2, 0x051d
    1e58:	00000903          	lb	s2,0(zero) # 0 <__stack_size-0x2000000>
    1e5c:	0106                	.insn	2, 0x0106
    1e5e:	0a05                	.insn	2, 0x0a05
    1e60:	0409                	.insn	2, 0x0409
    1e62:	0100                	.insn	2, 0x0100
    1e64:	2305                	.insn	2, 0x2305
    1e66:	0409                	.insn	2, 0x0409
    1e68:	0300                	.insn	2, 0x0300
    1e6a:	016a                	.insn	2, 0x016a
    1e6c:	0605                	.insn	2, 0x0605
    1e6e:	0409                	.insn	2, 0x0409
    1e70:	0000                	.insn	2, 0x0000
    1e72:	0402                	.insn	2, 0x0402
    1e74:	05052d03          	lw	s10,80(a0)
    1e78:	0409                	.insn	2, 0x0409
    1e7a:	0000                	.insn	2, 0x0000
    1e7c:	0402                	.insn	2, 0x0402
    1e7e:	0300                	.insn	2, 0x0300
    1e80:	016a                	.insn	2, 0x016a
    1e82:	0605                	.insn	2, 0x0605
    1e84:	0409                	.insn	2, 0x0409
    1e86:	0600                	.insn	2, 0x0600
    1e88:	052e                	.insn	2, 0x052e
    1e8a:	00000903          	lb	s2,0(zero) # 0 <__stack_size-0x2000000>
    1e8e:	1006                	.insn	2, 0x1006
    1e90:	0605                	.insn	2, 0x0605
    1e92:	0809                	.insn	2, 0x0809
    1e94:	0600                	.insn	2, 0x0600
    1e96:	05017003          	.insn	4, 0x05017003
    1e9a:	0904                	.insn	2, 0x0904
    1e9c:	0000                	.insn	2, 0x0000
    1e9e:	0106                	.insn	2, 0x0106
    1ea0:	0605                	.insn	2, 0x0605
    1ea2:	0409                	.insn	2, 0x0409
    1ea4:	0000                	.insn	2, 0x0000
    1ea6:	0402                	.insn	2, 0x0402
    1ea8:	1902                	.insn	2, 0x1902
    1eaa:	0f05                	.insn	2, 0x0f05
    1eac:	0409                	.insn	2, 0x0409
    1eae:	0000                	.insn	2, 0x0000
    1eb0:	0402                	.insn	2, 0x0402
    1eb2:	1500                	.insn	2, 0x1500
    1eb4:	0605                	.insn	2, 0x0605
    1eb6:	0409                	.insn	2, 0x0409
    1eb8:	0600                	.insn	2, 0x0600
    1eba:	0518                	.insn	2, 0x0518
    1ebc:	0904                	.insn	2, 0x0904
    1ebe:	0000                	.insn	2, 0x0000
    1ec0:	0200                	.insn	2, 0x0200
    1ec2:	0104                	.insn	2, 0x0104
    1ec4:	0501                	.insn	2, 0x0501
    1ec6:	0910                	.insn	2, 0x0910
    1ec8:	0000                	.insn	2, 0x0000
    1eca:	0106                	.insn	2, 0x0106
    1ecc:	1105                	.insn	2, 0x1105
    1ece:	0409                	.insn	2, 0x0409
    1ed0:	0100                	.insn	2, 0x0100
    1ed2:	1005                	.insn	2, 0x1005
    1ed4:	0409                	.insn	2, 0x0409
    1ed6:	0000                	.insn	2, 0x0000
    1ed8:	0402                	.insn	2, 0x0402
    1eda:	0100                	.insn	2, 0x0100
    1edc:	0b05                	.insn	2, 0x0b05
    1ede:	0409                	.insn	2, 0x0409
    1ee0:	0000                	.insn	2, 0x0000
    1ee2:	0402                	.insn	2, 0x0402
    1ee4:	05010603          	lb	a2,80(sp)
    1ee8:	00080917          	auipc	s2,0x80
    1eec:	0200                	.insn	2, 0x0200
    1eee:	0104                	.insn	2, 0x0104
    1ef0:	0501                	.insn	2, 0x0501
    1ef2:	0910                	.insn	2, 0x0910
    1ef4:	0000                	.insn	2, 0x0000
    1ef6:	0106                	.insn	2, 0x0106
    1ef8:	1105                	.insn	2, 0x1105
    1efa:	0409                	.insn	2, 0x0409
    1efc:	0100                	.insn	2, 0x0100
    1efe:	1005                	.insn	2, 0x1005
    1f00:	0809                	.insn	2, 0x0809
    1f02:	0000                	.insn	2, 0x0000
    1f04:	0402                	.insn	2, 0x0402
    1f06:	0602                	.insn	2, 0x0602
    1f08:	0518                	.insn	2, 0x0518
    1f0a:	0914                	.insn	2, 0x0914
    1f0c:	0004                	.insn	2, 0x0004
    1f0e:	1906                	.insn	2, 0x1906
    1f10:	0c05                	.insn	2, 0x0c05
    1f12:	0809                	.insn	2, 0x0809
    1f14:	0000                	.insn	2, 0x0000
    1f16:	0402                	.insn	2, 0x0402
    1f18:	0300                	.insn	2, 0x0300
    1f1a:	7fb6                	.insn	2, 0x7fb6
    1f1c:	0501                	.insn	2, 0x0501
    1f1e:	0906                	.insn	2, 0x0906
    1f20:	0008                	.insn	2, 0x0008
    1f22:	0501                	.insn	2, 0x0501
    1f24:	0906                	.insn	2, 0x0906
    1f26:	0000                	.insn	2, 0x0000
    1f28:	1306                	.insn	2, 0x1306
    1f2a:	0305                	.insn	2, 0x0305
    1f2c:	0009                	.insn	2, 0x0009
    1f2e:	0600                	.insn	2, 0x0600
    1f30:	0501                	.insn	2, 0x0501
    1f32:	090a                	.insn	2, 0x090a
    1f34:	0004                	.insn	2, 0x0004
    1f36:	0501                	.insn	2, 0x0501
    1f38:	090d                	.insn	2, 0x090d
    1f3a:	0004                	.insn	2, 0x0004
    1f3c:	1806                	.insn	2, 0x1806
    1f3e:	0305                	.insn	2, 0x0305
    1f40:	0009                	.insn	2, 0x0009
    1f42:	0600                	.insn	2, 0x0600
    1f44:	0516                	.insn	2, 0x0516
    1f46:	090a                	.insn	2, 0x090a
    1f48:	0004                	.insn	2, 0x0004
    1f4a:	0501                	.insn	2, 0x0501
    1f4c:	090a                	.insn	2, 0x090a
    1f4e:	0000                	.insn	2, 0x0000
    1f50:	2706                	.insn	2, 0x2706
    1f52:	0905                	.insn	2, 0x0905
    1f54:	0809                	.insn	2, 0x0809
    1f56:	1800                	.insn	2, 0x1800
    1f58:	0305                	.insn	2, 0x0305
    1f5a:	0009                	.insn	2, 0x0009
    1f5c:	0600                	.insn	2, 0x0600
    1f5e:	05016e03          	.insn	4, 0x05016e03
    1f62:	0906                	.insn	2, 0x0906
    1f64:	0004                	.insn	2, 0x0004
    1f66:	0529                	.insn	2, 0x0529
    1f68:	090d                	.insn	2, 0x090d
    1f6a:	0004                	.insn	2, 0x0004
    1f6c:	0306                	.insn	2, 0x0306
    1f6e:	016a                	.insn	2, 0x016a
    1f70:	0605                	.insn	2, 0x0605
    1f72:	0009                	.insn	2, 0x0009
    1f74:	1900                	.insn	2, 0x1900
    1f76:	0205                	.insn	2, 0x0205
    1f78:	0009                	.insn	2, 0x0009
    1f7a:	1900                	.insn	2, 0x1900
    1f7c:	0205                	.insn	2, 0x0205
    1f7e:	0009                	.insn	2, 0x0009
    1f80:	0600                	.insn	2, 0x0600
    1f82:	0501                	.insn	2, 0x0501
    1f84:	0905                	.insn	2, 0x0905
    1f86:	0004                	.insn	2, 0x0004
    1f88:	1306                	.insn	2, 0x1306
    1f8a:	0605                	.insn	2, 0x0605
    1f8c:	0009                	.insn	2, 0x0009
    1f8e:	2000                	.insn	2, 0x2000
    1f90:	0205                	.insn	2, 0x0205
    1f92:	0009                	.insn	2, 0x0009
    1f94:	0600                	.insn	2, 0x0600
    1f96:	0501                	.insn	2, 0x0501
    1f98:	0906                	.insn	2, 0x0906
    1f9a:	0004                	.insn	2, 0x0004
    1f9c:	0501                	.insn	2, 0x0501
    1f9e:	0905                	.insn	2, 0x0905
    1fa0:	0004                	.insn	2, 0x0004
    1fa2:	0200                	.insn	2, 0x0200
    1fa4:	0104                	.insn	2, 0x0104
    1fa6:	0106                	.insn	2, 0x0106
    1fa8:	1105                	.insn	2, 0x1105
    1faa:	0409                	.insn	2, 0x0409
    1fac:	0600                	.insn	2, 0x0600
    1fae:	0501                	.insn	2, 0x0501
    1fb0:	0911                	.insn	2, 0x0911
    1fb2:	0000                	.insn	2, 0x0000
    1fb4:	0200                	.insn	2, 0x0200
    1fb6:	0004                	.insn	2, 0x0004
    1fb8:	2306                	.insn	2, 0x2306
    1fba:	0905                	.insn	2, 0x0905
    1fbc:	0809                	.insn	2, 0x0809
    1fbe:	0600                	.insn	2, 0x0600
    1fc0:	0501                	.insn	2, 0x0501
    1fc2:	0909                	.insn	2, 0x0909
    1fc4:	0000                	.insn	2, 0x0000
    1fc6:	0200                	.insn	2, 0x0200
    1fc8:	0204                	.insn	2, 0x0204
    1fca:	5506                	.insn	2, 0x5506
    1fcc:	0f05                	.insn	2, 0x0f05
    1fce:	0009                	.insn	2, 0x0009
    1fd0:	0600                	.insn	2, 0x0600
    1fd2:	0501                	.insn	2, 0x0501
    1fd4:	0004090f          	.insn	4, 0x0004090f
    1fd8:	0200                	.insn	2, 0x0200
    1fda:	0004                	.insn	2, 0x0004
    1fdc:	017fb603          	.insn	4, 0x017fb603
    1fe0:	0605                	.insn	2, 0x0605
    1fe2:	0409                	.insn	2, 0x0409
    1fe4:	0000                	.insn	2, 0x0000
    1fe6:	0402                	.insn	2, 0x0402
    1fe8:	0101                	.insn	2, 0x0101
    1fea:	1105                	.insn	2, 0x1105
    1fec:	0409                	.insn	2, 0x0409
    1fee:	0000                	.insn	2, 0x0000
    1ff0:	0402                	.insn	2, 0x0402
    1ff2:	6102                	.insn	2, 0x6102
    1ff4:	0f05                	.insn	2, 0x0f05
    1ff6:	0409                	.insn	2, 0x0409
    1ff8:	0000                	.insn	2, 0x0000
    1ffa:	0402                	.insn	2, 0x0402
    1ffc:	05010603          	lb	a2,80(sp)
    2000:	0914                	.insn	2, 0x0914
    2002:	0000                	.insn	2, 0x0000
    2004:	0200                	.insn	2, 0x0200
    2006:	0004                	.insn	2, 0x0004
    2008:	017fad03          	lw	s10,23(t6)
    200c:	0605                	.insn	2, 0x0605
    200e:	0009                	.insn	2, 0x0009
    2010:	1900                	.insn	2, 0x1900
    2012:	0205                	.insn	2, 0x0205
    2014:	0009                	.insn	2, 0x0009
    2016:	1900                	.insn	2, 0x1900
    2018:	0205                	.insn	2, 0x0205
    201a:	0009                	.insn	2, 0x0009
    201c:	0600                	.insn	2, 0x0600
    201e:	0501                	.insn	2, 0x0501
    2020:	0906                	.insn	2, 0x0906
    2022:	0004                	.insn	2, 0x0004
    2024:	0501                	.insn	2, 0x0501
    2026:	0905                	.insn	2, 0x0905
    2028:	0004                	.insn	2, 0x0004
    202a:	1806                	.insn	2, 0x1806
    202c:	0305                	.insn	2, 0x0305
    202e:	0009                	.insn	2, 0x0009
    2030:	0600                	.insn	2, 0x0600
    2032:	0501                	.insn	2, 0x0501
    2034:	090a                	.insn	2, 0x090a
    2036:	0004                	.insn	2, 0x0004
    2038:	0501                	.insn	2, 0x0501
    203a:	090d                	.insn	2, 0x090d
    203c:	0004                	.insn	2, 0x0004
    203e:	1806                	.insn	2, 0x1806
    2040:	0305                	.insn	2, 0x0305
    2042:	0009                	.insn	2, 0x0009
    2044:	0600                	.insn	2, 0x0600
    2046:	0516                	.insn	2, 0x0516
    2048:	090a                	.insn	2, 0x090a
    204a:	0004                	.insn	2, 0x0004
    204c:	0501                	.insn	2, 0x0501
    204e:	090a                	.insn	2, 0x090a
    2050:	0000                	.insn	2, 0x0000
    2052:	0200                	.insn	2, 0x0200
    2054:	0204                	.insn	2, 0x0204
    2056:	6506                	.insn	2, 0x6506
    2058:	0f05                	.insn	2, 0x0f05
    205a:	0009                	.insn	2, 0x0009
    205c:	0600                	.insn	2, 0x0600
    205e:	0501                	.insn	2, 0x0501
    2060:	0004090f          	.insn	4, 0x0004090f
    2064:	0200                	.insn	2, 0x0200
    2066:	0004                	.insn	2, 0x0004
    2068:	017fb103          	.insn	4, 0x017fb103
    206c:	0605                	.insn	2, 0x0605
    206e:	0809                	.insn	2, 0x0809
    2070:	0000                	.insn	2, 0x0000
    2072:	0402                	.insn	2, 0x0402
    2074:	05660603          	lb	a2,86(a2)
    2078:	0914                	.insn	2, 0x0914
    207a:	0000                	.insn	2, 0x0000
    207c:	0200                	.insn	2, 0x0200
    207e:	0004                	.insn	2, 0x0004
    2080:	017fad03          	lw	s10,23(t6)
    2084:	0605                	.insn	2, 0x0605
    2086:	0009                	.insn	2, 0x0009
    2088:	1900                	.insn	2, 0x1900
    208a:	0205                	.insn	2, 0x0205
    208c:	0009                	.insn	2, 0x0009
    208e:	1900                	.insn	2, 0x1900
    2090:	0205                	.insn	2, 0x0205
    2092:	0009                	.insn	2, 0x0009
    2094:	0600                	.insn	2, 0x0600
    2096:	0501                	.insn	2, 0x0501
    2098:	0905                	.insn	2, 0x0905
    209a:	0004                	.insn	2, 0x0004
    209c:	1306                	.insn	2, 0x1306
    209e:	0605                	.insn	2, 0x0605
    20a0:	0009                	.insn	2, 0x0009
    20a2:	2000                	.insn	2, 0x2000
    20a4:	0205                	.insn	2, 0x0205
    20a6:	0009                	.insn	2, 0x0009
    20a8:	0600                	.insn	2, 0x0600
    20aa:	0501                	.insn	2, 0x0501
    20ac:	0906                	.insn	2, 0x0906
    20ae:	0004                	.insn	2, 0x0004
    20b0:	0501                	.insn	2, 0x0501
    20b2:	0905                	.insn	2, 0x0905
    20b4:	0004                	.insn	2, 0x0004
    20b6:	0200                	.insn	2, 0x0200
    20b8:	0104                	.insn	2, 0x0104
    20ba:	0106                	.insn	2, 0x0106
    20bc:	1105                	.insn	2, 0x1105
    20be:	0c09                	.insn	2, 0x0c09
    20c0:	0600                	.insn	2, 0x0600
    20c2:	0501                	.insn	2, 0x0501
    20c4:	0911                	.insn	2, 0x0911
    20c6:	0000                	.insn	2, 0x0000
    20c8:	0200                	.insn	2, 0x0200
    20ca:	0204                	.insn	2, 0x0204
    20cc:	8006                	.insn	2, 0x8006
    20ce:	1305                	.insn	2, 0x1305
    20d0:	0009                	.insn	2, 0x0009
    20d2:	0000                	.insn	2, 0x0000
    20d4:	0402                	.insn	2, 0x0402
    20d6:	05010603          	lb	a2,80(sp)
    20da:	00040913          	addi	s2,s0,0
    20de:	0501                	.insn	2, 0x0501
    20e0:	00040917          	auipc	s2,0x40
    20e4:	0501                	.insn	2, 0x0501
    20e6:	00040917          	auipc	s2,0x40
    20ea:	0200                	.insn	2, 0x0200
    20ec:	0004                	.insn	2, 0x0004
    20ee:	0306                	.insn	2, 0x0306
    20f0:	7f8e                	.insn	2, 0x7f8e
    20f2:	0501                	.insn	2, 0x0501
    20f4:	0906                	.insn	2, 0x0906
    20f6:	0000                	.insn	2, 0x0000
    20f8:	0520                	.insn	2, 0x0520
    20fa:	0902                	.insn	2, 0x0902
    20fc:	0000                	.insn	2, 0x0000
    20fe:	0106                	.insn	2, 0x0106
    2100:	0605                	.insn	2, 0x0605
    2102:	0409                	.insn	2, 0x0409
    2104:	0100                	.insn	2, 0x0100
    2106:	0505                	.insn	2, 0x0505
    2108:	0409                	.insn	2, 0x0409
    210a:	0000                	.insn	2, 0x0000
    210c:	0402                	.insn	2, 0x0402
    210e:	0601                	.insn	2, 0x0601
    2110:	0501                	.insn	2, 0x0501
    2112:	0911                	.insn	2, 0x0911
    2114:	0004                	.insn	2, 0x0004
    2116:	0106                	.insn	2, 0x0106
    2118:	1105                	.insn	2, 0x1105
    211a:	0409                	.insn	2, 0x0409
    211c:	0100                	.insn	2, 0x0100
    211e:	1105                	.insn	2, 0x1105
    2120:	0009                	.insn	2, 0x0009
    2122:	0000                	.insn	2, 0x0000
    2124:	0402                	.insn	2, 0x0402
    2126:	0600                	.insn	2, 0x0600
    2128:	054d                	.insn	2, 0x054d
    212a:	0904                	.insn	2, 0x0904
    212c:	0000                	.insn	2, 0x0000
    212e:	0501                	.insn	2, 0x0501
    2130:	0000090b          	.insn	4, 0x090b
    2134:	0106                	.insn	2, 0x0106
    2136:	0d05                	.insn	2, 0x0d05
    2138:	0409                	.insn	2, 0x0409
    213a:	0100                	.insn	2, 0x0100
    213c:	0605                	.insn	2, 0x0605
    213e:	0409                	.insn	2, 0x0409
    2140:	0100                	.insn	2, 0x0100
    2142:	1305                	.insn	2, 0x1305
    2144:	0409                	.insn	2, 0x0409
    2146:	0100                	.insn	2, 0x0100
    2148:	1305                	.insn	2, 0x1305
    214a:	0409                	.insn	2, 0x0409
    214c:	0600                	.insn	2, 0x0600
    214e:	051a                	.insn	2, 0x051a
    2150:	0905                	.insn	2, 0x0905
    2152:	0000                	.insn	2, 0x0000
    2154:	0501                	.insn	2, 0x0501
    2156:	090c                	.insn	2, 0x090c
    2158:	0000                	.insn	2, 0x0000
    215a:	0106                	.insn	2, 0x0106
    215c:	0e05                	.insn	2, 0x0e05
    215e:	0409                	.insn	2, 0x0409
    2160:	0100                	.insn	2, 0x0100
    2162:	0705                	.insn	2, 0x0705
    2164:	0409                	.insn	2, 0x0409
    2166:	0100                	.insn	2, 0x0100
    2168:	1405                	.insn	2, 0x1405
    216a:	0409                	.insn	2, 0x0409
    216c:	0100                	.insn	2, 0x0100
    216e:	1405                	.insn	2, 0x1405
    2170:	0409                	.insn	2, 0x0409
    2172:	2400                	.insn	2, 0x2400
    2174:	0605                	.insn	2, 0x0605
    2176:	0409                	.insn	2, 0x0409
    2178:	0000                	.insn	2, 0x0000
    217a:	0402                	.insn	2, 0x0402
    217c:	05052d03          	lw	s10,80(a0)
    2180:	0409                	.insn	2, 0x0409
    2182:	0000                	.insn	2, 0x0000
    2184:	0402                	.insn	2, 0x0402
    2186:	0300                	.insn	2, 0x0300
    2188:	016a                	.insn	2, 0x016a
    218a:	0605                	.insn	2, 0x0605
    218c:	0409                	.insn	2, 0x0409
    218e:	0600                	.insn	2, 0x0600
    2190:	052e                	.insn	2, 0x052e
    2192:	00000903          	lb	s2,0(zero) # 0 <__stack_size-0x2000000>
    2196:	0306                	.insn	2, 0x0306
    2198:	0174                	.insn	2, 0x0174
    219a:	0605                	.insn	2, 0x0605
    219c:	0809                	.insn	2, 0x0809
    219e:	0000                	.insn	2, 0x0000
    21a0:	0402                	.insn	2, 0x0402
    21a2:	2202                	.insn	2, 0x2202
    21a4:	2305                	.insn	2, 0x2305
    21a6:	1009                	.insn	2, 0x1009
    21a8:	0000                	.insn	2, 0x0000
    21aa:	0402                	.insn	2, 0x0402
    21ac:	1100                	.insn	2, 0x1100
    21ae:	0605                	.insn	2, 0x0605
    21b0:	0c09                	.insn	2, 0x0c09
    21b2:	1000                	.insn	2, 0x1000
    21b4:	0605                	.insn	2, 0x0605
    21b6:	0c09                	.insn	2, 0x0c09
    21b8:	0600                	.insn	2, 0x0600
    21ba:	017fa803          	lw	a6,23(t6)
    21be:	0605                	.insn	2, 0x0605
    21c0:	0009                	.insn	2, 0x0009
    21c2:	2000                	.insn	2, 0x2000
    21c4:	0205                	.insn	2, 0x0205
    21c6:	0009                	.insn	2, 0x0009
    21c8:	0600                	.insn	2, 0x0600
    21ca:	0501                	.insn	2, 0x0501
    21cc:	0906                	.insn	2, 0x0906
    21ce:	0008                	.insn	2, 0x0008
    21d0:	0501                	.insn	2, 0x0501
    21d2:	0905                	.insn	2, 0x0905
    21d4:	0004                	.insn	2, 0x0004
    21d6:	0200                	.insn	2, 0x0200
    21d8:	0104                	.insn	2, 0x0104
    21da:	0106                	.insn	2, 0x0106
    21dc:	1105                	.insn	2, 0x1105
    21de:	0409                	.insn	2, 0x0409
    21e0:	0600                	.insn	2, 0x0600
    21e2:	0501                	.insn	2, 0x0501
    21e4:	0911                	.insn	2, 0x0911
    21e6:	0004                	.insn	2, 0x0004
    21e8:	0501                	.insn	2, 0x0501
    21ea:	0911                	.insn	2, 0x0911
    21ec:	0000                	.insn	2, 0x0000
    21ee:	0200                	.insn	2, 0x0200
    21f0:	0004                	.insn	2, 0x0004
    21f2:	0e06                	.insn	2, 0x0e06
    21f4:	0605                	.insn	2, 0x0605
    21f6:	0009                	.insn	2, 0x0009
    21f8:	2000                	.insn	2, 0x2000
    21fa:	0205                	.insn	2, 0x0205
    21fc:	0009                	.insn	2, 0x0009
    21fe:	0600                	.insn	2, 0x0600
    2200:	0501                	.insn	2, 0x0501
    2202:	0906                	.insn	2, 0x0906
    2204:	0008                	.insn	2, 0x0008
    2206:	0501                	.insn	2, 0x0501
    2208:	0905                	.insn	2, 0x0905
    220a:	0004                	.insn	2, 0x0004
    220c:	0200                	.insn	2, 0x0200
    220e:	0104                	.insn	2, 0x0104
    2210:	0106                	.insn	2, 0x0106
    2212:	1105                	.insn	2, 0x1105
    2214:	0409                	.insn	2, 0x0409
    2216:	0600                	.insn	2, 0x0600
    2218:	0501                	.insn	2, 0x0501
    221a:	0911                	.insn	2, 0x0911
    221c:	0000                	.insn	2, 0x0000
    221e:	0200                	.insn	2, 0x0200
    2220:	0004                	.insn	2, 0x0004
    2222:	0564                	.insn	2, 0x0564
    2224:	0910                	.insn	2, 0x0910
    2226:	0008                	.insn	2, 0x0008
    2228:	0200                	.insn	2, 0x0200
    222a:	0204                	.insn	2, 0x0204
    222c:	0514                	.insn	2, 0x0514
    222e:	090c                	.insn	2, 0x090c
    2230:	0004                	.insn	2, 0x0004
    2232:	0200                	.insn	2, 0x0200
    2234:	0304                	.insn	2, 0x0304
    2236:	0515                	.insn	2, 0x0515
    2238:	0914                	.insn	2, 0x0914
    223a:	0004                	.insn	2, 0x0004
    223c:	0501                	.insn	2, 0x0501
    223e:	0914                	.insn	2, 0x0914
    2240:	0004                	.insn	2, 0x0004
    2242:	0200                	.insn	2, 0x0200
    2244:	0004                	.insn	2, 0x0004
    2246:	017fb303          	.insn	4, 0x017fb303
    224a:	0605                	.insn	2, 0x0605
    224c:	0409                	.insn	2, 0x0409
    224e:	0000                	.insn	2, 0x0000
    2250:	0402                	.insn	2, 0x0402
    2252:	18056403          	.insn	4, 0x18056403
    2256:	0409                	.insn	2, 0x0409
    2258:	0000                	.insn	2, 0x0000
    225a:	0402                	.insn	2, 0x0402
    225c:	0300                	.insn	2, 0x0300
    225e:	7fb8                	.insn	2, 0x7fb8
    2260:	0501                	.insn	2, 0x0501
    2262:	0906                	.insn	2, 0x0906
    2264:	0004                	.insn	2, 0x0004
    2266:	0200                	.insn	2, 0x0200
    2268:	0104                	.insn	2, 0x0104
    226a:	0501                	.insn	2, 0x0501
    226c:	0911                	.insn	2, 0x0911
    226e:	0004                	.insn	2, 0x0004
    2270:	0501                	.insn	2, 0x0501
    2272:	0911                	.insn	2, 0x0911
    2274:	0000                	.insn	2, 0x0000
    2276:	0200                	.insn	2, 0x0200
    2278:	0404                	.insn	2, 0x0404
    227a:	5f06                	.insn	2, 0x5f06
    227c:	2005                	.insn	2, 0x2005
    227e:	0009                	.insn	2, 0x0009
    2280:	0000                	.insn	2, 0x0000
    2282:	0402                	.insn	2, 0x0402
    2284:	0300                	.insn	2, 0x0300
    2286:	05017faf          	.insn	4, 0x05017faf
    228a:	0906                	.insn	2, 0x0906
    228c:	0000                	.insn	2, 0x0000
    228e:	0519                	.insn	2, 0x0519
    2290:	0902                	.insn	2, 0x0902
    2292:	0000                	.insn	2, 0x0000
    2294:	0519                	.insn	2, 0x0519
    2296:	0902                	.insn	2, 0x0902
    2298:	0000                	.insn	2, 0x0000
    229a:	0106                	.insn	2, 0x0106
    229c:	0505                	.insn	2, 0x0505
    229e:	0409                	.insn	2, 0x0409
    22a0:	0600                	.insn	2, 0x0600
    22a2:	0518                	.insn	2, 0x0518
    22a4:	00000903          	lb	s2,0(zero) # 0 <__stack_size-0x2000000>
    22a8:	0106                	.insn	2, 0x0106
    22aa:	0a05                	.insn	2, 0x0a05
    22ac:	0409                	.insn	2, 0x0409
    22ae:	0100                	.insn	2, 0x0100
    22b0:	0d05                	.insn	2, 0x0d05
    22b2:	0409                	.insn	2, 0x0409
    22b4:	0600                	.insn	2, 0x0600
    22b6:	0518                	.insn	2, 0x0518
    22b8:	00000903          	lb	s2,0(zero) # 0 <__stack_size-0x2000000>
    22bc:	1606                	.insn	2, 0x1606
    22be:	0a05                	.insn	2, 0x0a05
    22c0:	0409                	.insn	2, 0x0409
    22c2:	0100                	.insn	2, 0x0100
    22c4:	0a05                	.insn	2, 0x0a05
    22c6:	0009                	.insn	2, 0x0009
    22c8:	0000                	.insn	2, 0x0000
    22ca:	0402                	.insn	2, 0x0402
    22cc:	0602                	.insn	2, 0x0602
    22ce:	09140563          	beq	s0,a7,2358 <__stack_size-0x1ffdca8>
    22d2:	0000                	.insn	2, 0x0000
    22d4:	0200                	.insn	2, 0x0200
    22d6:	0304                	.insn	2, 0x0304
    22d8:	0106                	.insn	2, 0x0106
    22da:	1405                	.insn	2, 0x1405
    22dc:	0409                	.insn	2, 0x0409
    22de:	0000                	.insn	2, 0x0000
    22e0:	0402                	.insn	2, 0x0402
    22e2:	0300                	.insn	2, 0x0300
    22e4:	05017fb3          	.insn	4, 0x05017fb3
    22e8:	0906                	.insn	2, 0x0906
    22ea:	0008                	.insn	2, 0x0008
    22ec:	0200                	.insn	2, 0x0200
    22ee:	0404                	.insn	2, 0x0404
    22f0:	6406                	.insn	2, 0x6406
    22f2:	2005                	.insn	2, 0x2005
    22f4:	0009                	.insn	2, 0x0009
    22f6:	0000                	.insn	2, 0x0000
    22f8:	0402                	.insn	2, 0x0402
    22fa:	0300                	.insn	2, 0x0300
    22fc:	05017faf          	.insn	4, 0x05017faf
    2300:	0906                	.insn	2, 0x0906
    2302:	0000                	.insn	2, 0x0000
    2304:	0519                	.insn	2, 0x0519
    2306:	0902                	.insn	2, 0x0902
    2308:	0000                	.insn	2, 0x0000
    230a:	0519                	.insn	2, 0x0519
    230c:	0902                	.insn	2, 0x0902
    230e:	0000                	.insn	2, 0x0000
    2310:	0106                	.insn	2, 0x0106
    2312:	0505                	.insn	2, 0x0505
    2314:	0409                	.insn	2, 0x0409
    2316:	0600                	.insn	2, 0x0600
    2318:	09060513          	addi	a0,a2,144
    231c:	0000                	.insn	2, 0x0000
    231e:	0520                	.insn	2, 0x0520
    2320:	0902                	.insn	2, 0x0902
    2322:	0000                	.insn	2, 0x0000
    2324:	0106                	.insn	2, 0x0106
    2326:	0605                	.insn	2, 0x0605
    2328:	0409                	.insn	2, 0x0409
    232a:	0100                	.insn	2, 0x0100
    232c:	0505                	.insn	2, 0x0505
    232e:	0409                	.insn	2, 0x0409
    2330:	0000                	.insn	2, 0x0000
    2332:	0402                	.insn	2, 0x0402
    2334:	0601                	.insn	2, 0x0601
    2336:	0501                	.insn	2, 0x0501
    2338:	0911                	.insn	2, 0x0911
    233a:	0008                	.insn	2, 0x0008
    233c:	0106                	.insn	2, 0x0106
    233e:	1105                	.insn	2, 0x1105
    2340:	0009                	.insn	2, 0x0009
    2342:	0000                	.insn	2, 0x0000
    2344:	0402                	.insn	2, 0x0402
    2346:	0602                	.insn	2, 0x0602
    2348:	055f 0914 0000      	.insn	6, 0x0914055f
    234e:	0200                	.insn	2, 0x0200
    2350:	0304                	.insn	2, 0x0304
    2352:	0106                	.insn	2, 0x0106
    2354:	1405                	.insn	2, 0x1405
    2356:	0409                	.insn	2, 0x0409
    2358:	0100                	.insn	2, 0x0100
    235a:	1405                	.insn	2, 0x1405
    235c:	0809                	.insn	2, 0x0809
    235e:	0000                	.insn	2, 0x0000
    2360:	0402                	.insn	2, 0x0402
    2362:	0300                	.insn	2, 0x0300
    2364:	0144                	.insn	2, 0x0144
    2366:	0905                	.insn	2, 0x0905
    2368:	0809                	.insn	2, 0x0809
    236a:	0000                	.insn	2, 0x0000
    236c:	0402                	.insn	2, 0x0402
    236e:	5502                	.insn	2, 0x5502
    2370:	0c05                	.insn	2, 0x0c05
    2372:	0c09                	.insn	2, 0x0c09
    2374:	0000                	.insn	2, 0x0000
    2376:	0402                	.insn	2, 0x0402
    2378:	0600                	.insn	2, 0x0600
    237a:	0516                	.insn	2, 0x0516
    237c:	0904                	.insn	2, 0x0904
    237e:	0000                	.insn	2, 0x0000
    2380:	017fbf03          	.insn	4, 0x017fbf03
    2384:	0605                	.insn	2, 0x0605
    2386:	0009                	.insn	2, 0x0009
    2388:	1b00                	.insn	2, 0x1b00
    238a:	0205                	.insn	2, 0x0205
    238c:	0009                	.insn	2, 0x0009
    238e:	0100                	.insn	2, 0x0100
    2390:	0905                	.insn	2, 0x0905
    2392:	0809                	.insn	2, 0x0809
    2394:	0600                	.insn	2, 0x0600
    2396:	0501                	.insn	2, 0x0501
    2398:	0909                	.insn	2, 0x0909
    239a:	000c                	.insn	2, 0x000c
    239c:	0200                	.insn	2, 0x0200
    239e:	0204                	.insn	2, 0x0204
    23a0:	0555                	.insn	2, 0x0555
    23a2:	090c                	.insn	2, 0x090c
    23a4:	000c                	.insn	2, 0x000c
    23a6:	0200                	.insn	2, 0x0200
    23a8:	0004                	.insn	2, 0x0004
    23aa:	1606                	.insn	2, 0x1606
    23ac:	0405                	.insn	2, 0x0405
    23ae:	0009                	.insn	2, 0x0009
    23b0:	0300                	.insn	2, 0x0300
    23b2:	05017fbf 00000906 	.insn	8, 0x090605017fbf
    23ba:	0902051b          	.insn	4, 0x0902051b
    23be:	0000                	.insn	2, 0x0000
    23c0:	0501                	.insn	2, 0x0501
    23c2:	0909                	.insn	2, 0x0909
    23c4:	0008                	.insn	2, 0x0008
    23c6:	0106                	.insn	2, 0x0106
    23c8:	0905                	.insn	2, 0x0905
    23ca:	0009                	.insn	2, 0x0009
    23cc:	0000                	.insn	2, 0x0000
    23ce:	0402                	.insn	2, 0x0402
    23d0:	17057403          	.insn	4, 0x17057403
    23d4:	0809                	.insn	2, 0x0809
    23d6:	0000                	.insn	2, 0x0000
    23d8:	0402                	.insn	2, 0x0402
    23da:	0602                	.insn	2, 0x0602
    23dc:	05015f03          	lhu	t5,80(sp)
    23e0:	0914                	.insn	2, 0x0914
    23e2:	0008                	.insn	2, 0x0008
    23e4:	0200                	.insn	2, 0x0200
    23e6:	0004                	.insn	2, 0x0004
    23e8:	1606                	.insn	2, 0x1606
    23ea:	0b05                	.insn	2, 0x0b05
    23ec:	0809                	.insn	2, 0x0809
    23ee:	0000                	.insn	2, 0x0000
    23f0:	0402                	.insn	2, 0x0402
    23f2:	14051803          	lh	a6,320(a0)
    23f6:	0c09                	.insn	2, 0x0c09
    23f8:	0100                	.insn	2, 0x0100
    23fa:	1805                	.insn	2, 0x1805
    23fc:	0809                	.insn	2, 0x0809
    23fe:	0000                	.insn	2, 0x0000
    2400:	0402                	.insn	2, 0x0402
    2402:	0600                	.insn	2, 0x0600
    2404:	0518                	.insn	2, 0x0518
    2406:	0904                	.insn	2, 0x0904
    2408:	0000                	.insn	2, 0x0000
    240a:	017fbf03          	.insn	4, 0x017fbf03
    240e:	0605                	.insn	2, 0x0605
    2410:	0009                	.insn	2, 0x0009
    2412:	1b00                	.insn	2, 0x1b00
    2414:	0205                	.insn	2, 0x0205
    2416:	0009                	.insn	2, 0x0009
    2418:	0100                	.insn	2, 0x0100
    241a:	0905                	.insn	2, 0x0905
    241c:	0809                	.insn	2, 0x0809
    241e:	0600                	.insn	2, 0x0600
    2420:	0501                	.insn	2, 0x0501
    2422:	0009                	.insn	2, 0x0009
    2424:	0205                	.insn	2, 0x0205
    2426:	12e0                	.insn	2, 0x12e0
    2428:	8000                	.insn	2, 0x8000
    242a:	0100                	.insn	2, 0x0100
    242c:	01                	.byte	0x01

Disassembly of section .debug_line_str:

00000000 <.debug_line_str>:
   0:	6d6f682f          	.insn	4, 0x6d6f682f
   4:	2f65                	.insn	2, 0x2f65
   6:	7574                	.insn	2, 0x7574
   8:	7574                	.insn	2, 0x7574
   a:	7574                	.insn	2, 0x7574
   c:	6d69712f          	.insn	4, 0x6d69712f
  10:	6e65                	.insn	2, 0x6e65
  12:	69732f67          	.insn	4, 0x69732f67
  16:	756d                	.insn	2, 0x756d
  18:	616c                	.insn	2, 0x616c
  1a:	6f74                	.insn	2, 0x6f74
  1c:	2f72                	.insn	2, 0x2f72
  1e:	6162                	.insn	2, 0x6162
  20:	6572                	.insn	2, 0x6572
  22:	656d                	.insn	2, 0x656d
  24:	6174                	.insn	2, 0x6174
  26:	2f6c                	.insn	2, 0x2f6c
  28:	656e                	.insn	2, 0x656e
  2a:	68645f77          	.insn	4, 0x68645f77
  2e:	7972                	.insn	2, 0x7972
  30:	6e6f7473          	.insn	4, 0x6e6f7473
  34:	0065                	.insn	2, 0x0065
  36:	2e2e                	.insn	2, 0x2e2e
  38:	7300                	.insn	2, 0x7300
  3a:	6174                	.insn	2, 0x6174
  3c:	7472                	.insn	2, 0x7472
  3e:	532e                	.insn	2, 0x532e
  40:	6400                	.insn	2, 0x6400
  42:	7268                	.insn	2, 0x7268
  44:	7379                	.insn	2, 0x7379
  46:	6f74                	.insn	2, 0x6f74
  48:	656e                	.insn	2, 0x656e
  4a:	682e                	.insn	2, 0x682e
  4c:	7800                	.insn	2, 0x7800
  4e:	7270                	.insn	2, 0x7270
  50:	6e69                	.insn	2, 0x6e69
  52:	6674                	.insn	2, 0x6674
  54:	682e                	.insn	2, 0x682e
  56:	6400                	.insn	2, 0x6400
  58:	7268                	.insn	2, 0x7268
  5a:	7379                	.insn	2, 0x7379
  5c:	6f74                	.insn	2, 0x6f74
  5e:	656e                	.insn	2, 0x656e
  60:	6d5f 6961 2e6e      	.insn	6, 0x2e6e69616d5f
  66:	6f2f0063          	beq	t5,s2,746 <__stack_size-0x1fff8ba>
  6a:	7470                	.insn	2, 0x7470
  6c:	7369722f          	.insn	4, 0x7369722f
  70:	32337663          	bgeu	t1,gp,39c <__stack_size-0x1fffc64>
  74:	7369722f          	.insn	4, 0x7369722f
  78:	32337663          	bgeu	t1,gp,3a4 <__stack_size-0x1fffc5c>
  7c:	752d                	.insn	2, 0x752d
  7e:	6b6e                	.insn	2, 0x6b6e
  80:	6f6e                	.insn	2, 0x6f6e
  82:	652d6e77          	.insn	4, 0x652d6e77
  86:	666c                	.insn	2, 0x666c
  88:	636e692f          	.insn	4, 0x636e692f
  8c:	756c                	.insn	2, 0x756c
  8e:	6564                	.insn	2, 0x6564
  90:	6400                	.insn	2, 0x6400
  92:	7268                	.insn	2, 0x7268
  94:	7379                	.insn	2, 0x7379
  96:	6f74                	.insn	2, 0x6f74
  98:	656e                	.insn	2, 0x656e
  9a:	632e                	.insn	2, 0x632e
  9c:	7300                	.insn	2, 0x7300
  9e:	7274                	.insn	2, 0x7274
  a0:	6e69                	.insn	2, 0x6e69
  a2:	00682e67          	.insn	4, 0x00682e67
  a6:	735f 6474 6e69      	.insn	6, 0x6e696474735f
  ac:	2e74                	.insn	2, 0x2e74
  ae:	0068                	.insn	2, 0x0068
  b0:	2e2e                	.insn	2, 0x2e2e
  b2:	62696c2f          	.insn	4, 0x62696c2f
  b6:	7261752f          	.insn	4, 0x7261752f
  ba:	2e74                	.insn	2, 0x2e74
  bc:	6f2f0063          	beq	t5,s2,79c <__stack_size-0x1fff864>
  c0:	7470                	.insn	2, 0x7470
  c2:	7369722f          	.insn	4, 0x7369722f
  c6:	32337663          	bgeu	t1,gp,3f2 <__stack_size-0x1fffc0e>
  ca:	7369722f          	.insn	4, 0x7369722f
  ce:	32337663          	bgeu	t1,gp,3fa <__stack_size-0x1fffc06>
  d2:	752d                	.insn	2, 0x752d
  d4:	6b6e                	.insn	2, 0x6b6e
  d6:	6f6e                	.insn	2, 0x6f6e
  d8:	652d6e77          	.insn	4, 0x652d6e77
  dc:	666c                	.insn	2, 0x666c
  de:	636e692f          	.insn	4, 0x636e692f
  e2:	756c                	.insn	2, 0x756c
  e4:	6564                	.insn	2, 0x6564
  e6:	63616d2f          	.insn	4, 0x63616d2f
  ea:	6968                	.insn	2, 0x6968
  ec:	656e                	.insn	2, 0x656e
  ee:	2e00                	.insn	2, 0x2e00
  f0:	2f2e                	.insn	2, 0x2f2e
  f2:	696c                	.insn	2, 0x696c
  f4:	2f62                	.insn	2, 0x2f62
  f6:	2e2e                	.insn	2, 0x2e2e
  f8:	636e692f          	.insn	4, 0x636e692f
  fc:	756c                	.insn	2, 0x756c
  fe:	6564                	.insn	2, 0x6564
 100:	2e00                	.insn	2, 0x2e00
 102:	2f2e                	.insn	2, 0x2f2e
 104:	696c                	.insn	2, 0x696c
 106:	0062                	.insn	2, 0x0062
 108:	74706f2f          	.insn	4, 0x74706f2f
 10c:	7369722f          	.insn	4, 0x7369722f
 110:	32337663          	bgeu	t1,gp,43c <__stack_size-0x1fffbc4>
 114:	7369722f          	.insn	4, 0x7369722f
 118:	32337663          	bgeu	t1,gp,444 <__stack_size-0x1fffbbc>
 11c:	752d                	.insn	2, 0x752d
 11e:	6b6e                	.insn	2, 0x6b6e
 120:	6f6e                	.insn	2, 0x6f6e
 122:	652d6e77          	.insn	4, 0x652d6e77
 126:	666c                	.insn	2, 0x666c
 128:	636e692f          	.insn	4, 0x636e692f
 12c:	756c                	.insn	2, 0x756c
 12e:	6564                	.insn	2, 0x6564
 130:	7379732f          	.insn	4, 0x7379732f
 134:	5f00                	.insn	2, 0x5f00
 136:	6564                	.insn	2, 0x6564
 138:	6166                	.insn	2, 0x6166
 13a:	6c75                	.insn	2, 0x6c75
 13c:	5f74                	.insn	2, 0x5f74
 13e:	7974                	.insn	2, 0x7974
 140:	6570                	.insn	2, 0x6570
 142:	00682e73          	.insn	4, 0x00682e73
 146:	6175                	.insn	2, 0x6175
 148:	7472                	.insn	2, 0x7472
 14a:	682e                	.insn	2, 0x682e
 14c:	7300                	.insn	2, 0x7300
 14e:	6474                	.insn	2, 0x6474
 150:	7261                	.insn	2, 0x7261
 152:	00682e67          	.insn	4, 0x00682e67
 156:	2e2e                	.insn	2, 0x2e2e
 158:	62696c2f          	.insn	4, 0x62696c2f
 15c:	7270782f          	.insn	4, 0x7270782f
 160:	6e69                	.insn	2, 0x6e69
 162:	6674                	.insn	2, 0x6674
 164:	632e                	.insn	2, 0x632e
 166:	2f00                	.insn	2, 0x2f00
 168:	2f74706f          	jal	zero,47c5e <__stack_size-0x1fb83a2>
 16c:	6972                	.insn	2, 0x6972
 16e:	33766373          	.insn	4, 0x33766373
 172:	2f32                	.insn	2, 0x2f32
 174:	696c                	.insn	2, 0x696c
 176:	2f62                	.insn	2, 0x2f62
 178:	2f636367          	.insn	4, 0x2f636367
 17c:	6972                	.insn	2, 0x6972
 17e:	33766373          	.insn	4, 0x33766373
 182:	2d32                	.insn	2, 0x2d32
 184:	6e75                	.insn	2, 0x6e75
 186:	776f6e6b          	.insn	4, 0x776f6e6b
 18a:	2d6e                	.insn	2, 0x2d6e
 18c:	6c65                	.insn	2, 0x6c65
 18e:	2f66                	.insn	2, 0x2f66
 190:	3531                	.insn	2, 0x3531
 192:	312e                	.insn	2, 0x312e
 194:	302e                	.insn	2, 0x302e
 196:	636e692f          	.insn	4, 0x636e692f
 19a:	756c                	.insn	2, 0x756c
 19c:	6564                	.insn	2, 0x6564
	...

Disassembly of section .debug_info:

00000000 <.debug_info>:
       0:	0020                	.insn	2, 0x0020
       2:	0000                	.insn	2, 0x0000
       4:	0005                	.insn	2, 0x0005
       6:	0401                	.insn	2, 0x0401
       8:	0000                	.insn	2, 0x0000
       a:	0000                	.insn	2, 0x0000
       c:	0001                	.insn	2, 0x0001
       e:	0000                	.insn	2, 0x0000
      10:	0000                	.insn	2, 0x0000
      12:	0000                	.insn	2, 0x0000
      14:	2080                	.insn	2, 0x2080
      16:	0000                	.insn	2, 0x0000
      18:	0000                	.insn	2, 0x0000
      1a:	0000000b          	.insn	4, 0x000b
      1e:	0041                	.insn	2, 0x0041
      20:	0000                	.insn	2, 0x0000
      22:	8001                	.insn	2, 0x8001
      24:	0d20                	.insn	2, 0x0d20
      26:	0000                	.insn	2, 0x0000
      28:	0005                	.insn	2, 0x0005
      2a:	0401                	.insn	2, 0x0401
      2c:	0014                	.insn	2, 0x0014
      2e:	0000                	.insn	2, 0x0000
      30:	8019                	.insn	2, 0x8019
      32:	0002                	.insn	2, 0x0002
      34:	0100                	.insn	2, 0x0100
      36:	00000057          	.insn	4, 0x0057
      3a:	0000                	.insn	2, 0x0000
      3c:	0000                	.insn	2, 0x0000
      3e:	0070                	.insn	2, 0x0070
      40:	0000                	.insn	2, 0x0000
      42:	0000                	.insn	2, 0x0000
      44:	0000                	.insn	2, 0x0000
      46:	0060                	.insn	2, 0x0060
      48:	0000                	.insn	2, 0x0000
      4a:	0806                	.insn	2, 0x0806
      4c:	00008107          	.insn	4, 0x8107
      50:	0600                	.insn	2, 0x0600
      52:	0704                	.insn	2, 0x0704
      54:	0000008b          	.insn	4, 0x008b
      58:	071a                	.insn	2, 0x071a
      5a:	2d04                	.insn	2, 0x2d04
      5c:	0000                	.insn	2, 0x0000
      5e:	0200                	.insn	2, 0x0200
      60:	620e01b3          	.insn	4, 0x620e01b3
      64:	0000                	.insn	2, 0x0000
      66:	0900                	.insn	2, 0x0900
      68:	015f 0000 0900      	.insn	6, 0x09000000015f
      6e:	00000167          	jalr	sp,0(zero) # 0 <__stack_size-0x2000000>
      72:	0901                	.insn	2, 0x0901
      74:	0000016f          	jal	sp,74 <__stack_size-0x1ffff8c>
      78:	0902                	.insn	2, 0x0902
      7a:	00000177          	.insn	4, 0x0177
      7e:	017f0903          	lb	s2,23(t5)
      82:	0000                	.insn	2, 0x0000
      84:	0004                	.insn	2, 0x0004
      86:	fa0a                	.insn	2, 0xfa0a
      88:	0000                	.insn	2, 0x0000
      8a:	b300                	.insn	2, 0xb300
      8c:	3e01                	.insn	2, 0x3e01
      8e:	0034                	.insn	2, 0x0034
      90:	0000                	.insn	2, 0x0000
      92:	0106                	.insn	2, 0x0106
      94:	4008                	.insn	2, 0x4008
      96:	0002                	.insn	2, 0x0002
      98:	0600                	.insn	2, 0x0600
      9a:	0601                	.insn	2, 0x0601
      9c:	0242                	.insn	2, 0x0242
      9e:	0000                	.insn	2, 0x0000
      a0:	0206                	.insn	2, 0x0206
      a2:	6405                	.insn	2, 0x6405
      a4:	0002                	.insn	2, 0x0002
      a6:	0600                	.insn	2, 0x0600
      a8:	0702                	.insn	2, 0x0702
      aa:	0000012b          	.insn	4, 0x012b
      ae:	0406                	.insn	2, 0x0406
      b0:	c205                	.insn	2, 0xc205
      b2:	0000                	.insn	2, 0x0000
      b4:	0600                	.insn	2, 0x0600
      b6:	0704                	.insn	2, 0x0704
      b8:	0086                	.insn	2, 0x0086
      ba:	0000                	.insn	2, 0x0000
      bc:	0806                	.insn	2, 0x0806
      be:	bd05                	.insn	2, 0xbd05
      c0:	0000                	.insn	2, 0x0000
      c2:	1b00                	.insn	2, 0x1b00
      c4:	0504                	.insn	2, 0x0504
      c6:	6e69                	.insn	2, 0x6e69
      c8:	0074                	.insn	2, 0x0074
      ca:	0106                	.insn	2, 0x0106
      cc:	4908                	.insn	2, 0x4908
      ce:	0002                	.insn	2, 0x0002
      d0:	1c00                	.insn	2, 0x1c00
      d2:	00a6                	.insn	2, 0x00a6
      d4:	0000                	.insn	2, 0x0000
      d6:	a608                	.insn	2, 0xa608
      d8:	0000                	.insn	2, 0x0000
      da:	0800                	.insn	2, 0x0800
      dc:	00ad                	.insn	2, 0x00ad
      de:	0000                	.insn	2, 0x0000
      e0:	070a                	.insn	2, 0x070a
      e2:	0002                	.insn	2, 0x0002
      e4:	c500                	.insn	2, 0xc500
      e6:	0d01                	.insn	2, 0x0d01
      e8:	009f 0000 6e0a      	.insn	6, 0x6e0a0000009f
      ee:	0002                	.insn	2, 0x0002
      f0:	c700                	.insn	2, 0xc700
      f2:	0d01                	.insn	2, 0x0d01
      f4:	009f 0000 560a      	.insn	6, 0x560a0000009f
      fa:	0000                	.insn	2, 0x0000
      fc:	c800                	.insn	2, 0xc800
      fe:	0e01                	.insn	2, 0x0e01
     100:	00e0                	.insn	2, 0x00e0
     102:	0000                	.insn	2, 0x0000
     104:	a611                	.insn	2, 0xa611
     106:	0000                	.insn	2, 0x0000
     108:	f000                	.insn	2, 0xf000
     10a:	0000                	.insn	2, 0x0000
     10c:	0d00                	.insn	2, 0x0d00
     10e:	002d                	.insn	2, 0x002d
     110:	0000                	.insn	2, 0x0000
     112:	001e                	.insn	2, 0x001e
     114:	9f11                	.insn	2, 0x9f11
     116:	0000                	.insn	2, 0x0000
     118:	0000                	.insn	2, 0x0000
     11a:	0001                	.insn	2, 0x0001
     11c:	0d00                	.insn	2, 0x0d00
     11e:	002d                	.insn	2, 0x002d
     120:	0000                	.insn	2, 0x0000
     122:	0031                	.insn	2, 0x0031
     124:	9f11                	.insn	2, 0x9f11
     126:	0000                	.insn	2, 0x0000
     128:	1600                	.insn	2, 0x1600
     12a:	0001                	.insn	2, 0x0001
     12c:	0d00                	.insn	2, 0x0d00
     12e:	002d                	.insn	2, 0x002d
     130:	0000                	.insn	2, 0x0000
     132:	0d31                	.insn	2, 0x0d31
     134:	002d                	.insn	2, 0x002d
     136:	0000                	.insn	2, 0x0000
     138:	0031                	.insn	2, 0x0031
     13a:	2812                	.insn	2, 0x2812
     13c:	01d0                	.insn	2, 0x01d0
     13e:	0146                	.insn	2, 0x0146
     140:	0000                	.insn	2, 0x0000
     142:	00031707          	.insn	4, 0x00031707
     146:	d100                	.insn	2, 0xd100
     148:	1301                	.insn	2, 0x1301
     14a:	0062                	.insn	2, 0x0062
     14c:	0000                	.insn	2, 0x0000
     14e:	0700                	.insn	2, 0x0700
     150:	037f 0000 01d2 9f0b 	.insn	10, 0x9f0b01d20000037f
     158:	0000 
     15a:	0400                	.insn	2, 0x0400
     15c:	0000a007          	.insn	4, 0xa007
     160:	d300                	.insn	2, 0xd300
     162:	0c01                	.insn	2, 0x0c01
     164:	00e0                	.insn	2, 0x00e0
     166:	0000                	.insn	2, 0x0000
     168:	0008                	.insn	2, 0x0008
     16a:	2412                	.insn	2, 0x2412
     16c:	01d5                	.insn	2, 0x01d5
     16e:	0169                	.insn	2, 0x0169
     170:	0000                	.insn	2, 0x0000
     172:	00036507          	.insn	4, 0x00036507
     176:	d600                	.insn	2, 0xd600
     178:	1301                	.insn	2, 0x1301
     17a:	0062                	.insn	2, 0x0062
     17c:	0000                	.insn	2, 0x0000
     17e:	0700                	.insn	2, 0x0700
     180:	00000333          	add	t1,zero,zero
     184:	e00c01d7          	.insn	4, 0xe00c01d7
     188:	0000                	.insn	2, 0x0000
     18a:	0400                	.insn	2, 0x0400
     18c:	1200                	.insn	2, 0x1200
     18e:	d902                	.insn	2, 0xd902
     190:	8c01                	.insn	2, 0x8c01
     192:	0001                	.insn	2, 0x0001
     194:	0700                	.insn	2, 0x0700
     196:	014c                	.insn	2, 0x014c
     198:	0000                	.insn	2, 0x0000
     19a:	01da                	.insn	2, 0x01da
     19c:	a60c                	.insn	2, 0xa60c
     19e:	0000                	.insn	2, 0x0000
     1a0:	0000                	.insn	2, 0x0000
     1a2:	00019e07          	.insn	4, 0x00019e07
     1a6:	db00                	.insn	2, 0xdb00
     1a8:	0c01                	.insn	2, 0x0c01
     1aa:	00a6                	.insn	2, 0x00a6
     1ac:	0000                	.insn	2, 0x0000
     1ae:	0001                	.insn	2, 0x0001
     1b0:	281d                	.insn	2, 0x281d
     1b2:	cf02                	.insn	2, 0xcf02
     1b4:	0301                	.insn	2, 0x0301
     1b6:	01b8                	.insn	2, 0x01b8
     1b8:	0000                	.insn	2, 0x0000
     1ba:	0000d413          	srli	s0,ra,0x0
     1be:	d400                	.insn	2, 0xd400
     1c0:	1601                	.insn	2, 0x1601
     1c2:	0001                	.insn	2, 0x0001
     1c4:	1300                	.insn	2, 0x1300
     1c6:	00da                	.insn	2, 0x00da
     1c8:	0000                	.insn	2, 0x0000
     1ca:	01d8                	.insn	2, 0x01d8
     1cc:	0146                	.insn	2, 0x0146
     1ce:	0000                	.insn	2, 0x0000
     1d0:	0000e013          	ori	zero,ra,0
     1d4:	dc00                	.insn	2, 0xdc00
     1d6:	6901                	.insn	2, 0x6901
     1d8:	0001                	.insn	2, 0x0001
     1da:	0000                	.insn	2, 0x0000
     1dc:	001e                	.insn	2, 0x001e
     1de:	0002                	.insn	2, 0x0002
     1e0:	3000                	.insn	2, 0x3000
     1e2:	cc02                	.insn	2, 0xcc02
     1e4:	1001                	.insn	2, 0x1001
     1e6:	01ee                	.insn	2, 0x01ee
     1e8:	0000                	.insn	2, 0x0000
     1ea:	00004d07          	.insn	4, 0x4d07
     1ee:	cd00                	.insn	2, 0xcd00
     1f0:	1201                	.insn	2, 0x1201
     1f2:	01ee                	.insn	2, 0x01ee
     1f4:	0000                	.insn	2, 0x0000
     1f6:	0700                	.insn	2, 0x0700
     1f8:	0000007b          	.insn	4, 0x007b
     1fc:	01ce                	.insn	2, 0x01ce
     1fe:	0000620f          	.insn	4, 0x620f
     202:	0400                	.insn	2, 0x0400
     204:	0000a907          	.insn	4, 0xa907
     208:	dd00                	.insn	2, 0xdd00
     20a:	0501                	.insn	2, 0x0501
     20c:	018c                	.insn	2, 0x018c
     20e:	0000                	.insn	2, 0x0000
     210:	0008                	.insn	2, 0x0008
     212:	b808                	.insn	2, 0xb808
     214:	0001                	.insn	2, 0x0001
     216:	0a00                	.insn	2, 0x0a00
     218:	00b1                	.insn	2, 0x00b1
     21a:	0000                	.insn	2, 0x0000
     21c:	01de                	.insn	2, 0x01de
     21e:	ee0e                	.insn	2, 0xee0e
     220:	0001                	.insn	2, 0x0001
     222:	0500                	.insn	2, 0x0500
     224:	0115                	.insn	2, 0x0115
     226:	0000                	.insn	2, 0x0000
     228:	0d16                	.insn	2, 0x0d16
     22a:	000001f3          	.insn	4, 0x01f3
     22e:	0305                	.insn	2, 0x0305
     230:	4234                	.insn	2, 0x4234
     232:	8000                	.insn	2, 0x8000
     234:	1005                	.insn	2, 0x1005
     236:	0001                	.insn	2, 0x0001
     238:	1600                	.insn	2, 0x1600
     23a:	0001f317          	auipc	t1,0x1f
     23e:	0500                	.insn	2, 0x0500
     240:	00423003          	.insn	4, 0x00423003
     244:	0580                	.insn	2, 0x0580
     246:	000000cb          	.insn	4, 0x00cb
     24a:	009f0517          	auipc	a0,0x9f0
     24e:	0000                	.insn	2, 0x0000
     250:	0305                	.insn	2, 0x0305
     252:	422c                	.insn	2, 0x422c
     254:	8000                	.insn	2, 0x8000
     256:	e605                	.insn	2, 0xe605
     258:	0000                	.insn	2, 0x0000
     25a:	1800                	.insn	2, 0x1800
     25c:	c809                	.insn	2, 0xc809
     25e:	0000                	.insn	2, 0x0000
     260:	0500                	.insn	2, 0x0500
     262:	00422803          	lw	a6,4(tp) # 4 <__stack_size-0x1fffffc>
     266:	0580                	.insn	2, 0x0580
     268:	0276                	.insn	2, 0x0276
     26a:	0000                	.insn	2, 0x0000
     26c:	0619                	.insn	2, 0x0619
     26e:	00a6                	.insn	2, 0x00a6
     270:	0000                	.insn	2, 0x0000
     272:	0305                	.insn	2, 0x0305
     274:	4225                	.insn	2, 0x4225
     276:	8000                	.insn	2, 0x8000
     278:	0d05                	.insn	2, 0x0d05
     27a:	19000003          	lb	zero,400(zero) # 190 <__stack_size-0x1fffe70>
     27e:	a611                	.insn	2, 0xa611
     280:	0000                	.insn	2, 0x0000
     282:	0500                	.insn	2, 0x0500
     284:	00422403          	lw	s0,4(tp) # 4 <__stack_size-0x1fffffc>
     288:	0580                	.insn	2, 0x0580
     28a:	0066                	.insn	2, 0x0066
     28c:	0000                	.insn	2, 0x0000
     28e:	051a                	.insn	2, 0x051a
     290:	00f0                	.insn	2, 0x00f0
     292:	0000                	.insn	2, 0x0000
     294:	0305                	.insn	2, 0x0305
     296:	1a30                	.insn	2, 0x1a30
     298:	8000                	.insn	2, 0x8000
     29a:	9305                	.insn	2, 0x9305
     29c:	0001                	.insn	2, 0x0001
     29e:	1b00                	.insn	2, 0x1b00
     2a0:	0005                	.insn	2, 0x0005
     2a2:	0001                	.insn	2, 0x0001
     2a4:	0500                	.insn	2, 0x0500
     2a6:	001af803          	.insn	4, 0x001af803
     2aa:	1f80                	.insn	2, 0x1f80
     2ac:	6552                	.insn	2, 0x6552
     2ae:	21010067          	jalr	zero,528(sp)
     2b2:	c809                	.insn	2, 0xc809
     2b4:	0000                	.insn	2, 0x0000
     2b6:	0500                	.insn	2, 0x0500
     2b8:	00422003          	lw	zero,4(tp) # 4 <__stack_size-0x1fffffc>
     2bc:	0580                	.insn	2, 0x0580
     2be:	0211                	.insn	2, 0x0211
     2c0:	0000                	.insn	2, 0x0000
     2c2:	00c8092b          	.insn	4, 0x00c8092b
     2c6:	0000                	.insn	2, 0x0000
     2c8:	0305                	.insn	2, 0x0305
     2ca:	421c                	.insn	2, 0x421c
     2cc:	8000                	.insn	2, 0x8000
     2ce:	3505                	.insn	2, 0x3505
     2d0:	0002                	.insn	2, 0x0002
     2d2:	2d00                	.insn	2, 0x2d00
     2d4:	8a06                	.insn	2, 0x8a06
     2d6:	0000                	.insn	2, 0x0000
     2d8:	0500                	.insn	2, 0x0500
     2da:	00421803          	lh	a6,4(tp) # 4 <__stack_size-0x1fffffc>
     2de:	0580                	.insn	2, 0x0580
     2e0:	033e                	.insn	2, 0x033e
     2e2:	0000                	.insn	2, 0x0000
     2e4:	122d                	.insn	2, 0x122d
     2e6:	008a                	.insn	2, 0x008a
     2e8:	0000                	.insn	2, 0x0000
     2ea:	0305                	.insn	2, 0x0305
     2ec:	4214                	.insn	2, 0x4214
     2ee:	8000                	.insn	2, 0x8000
     2f0:	2b05                	.insn	2, 0x2b05
     2f2:	0002                	.insn	2, 0x0002
     2f4:	2d00                	.insn	2, 0x2d00
     2f6:	8a1c                	.insn	2, 0x8a1c
     2f8:	0000                	.insn	2, 0x0000
     2fa:	0500                	.insn	2, 0x0500
     2fc:	00421003          	lh	zero,4(tp) # 4 <__stack_size-0x1fffffc>
     300:	0580                	.insn	2, 0x0580
     302:	011e                	.insn	2, 0x011e
     304:	0000                	.insn	2, 0x0000
     306:	062e                	.insn	2, 0x062e
     308:	008a                	.insn	2, 0x008a
     30a:	0000                	.insn	2, 0x0000
     30c:	0305                	.insn	2, 0x0305
     30e:	420c                	.insn	2, 0x420c
     310:	8000                	.insn	2, 0x8000
     312:	4e05                	.insn	2, 0x4e05
     314:	0002                	.insn	2, 0x0002
     316:	2e00                	.insn	2, 0x2e00
     318:	8a14                	.insn	2, 0x8a14
     31a:	0000                	.insn	2, 0x0000
     31c:	0500                	.insn	2, 0x0500
     31e:	00420803          	lb	a6,4(tp) # 4 <__stack_size-0x1fffffc>
     322:	0480                	.insn	2, 0x0480
     324:	000001cb          	.insn	4, 0x01cb
     328:	0b88                	.insn	2, 0x0b88
     32a:	009f 0000 0310      	.insn	6, 0x03100000009f
     330:	0000                	.insn	2, 0x0000
     332:	3e040003          	lb	zero,992(s0)
     336:	0001                	.insn	2, 0x0001
     338:	1d00                	.insn	2, 0x1d00
     33a:	620d                	.insn	2, 0x620d
     33c:	0000                	.insn	2, 0x0000
     33e:	2100                	.insn	2, 0x2100
     340:	03000003          	lb	zero,48(zero) # 30 <__stack_size-0x1ffffd0>
     344:	0400                	.insn	2, 0x0400
     346:	01d9                	.insn	2, 0x01d9
     348:	0000                	.insn	2, 0x0000
     34a:	077f 009f 0000 0332 	.insn	10, 0x03320000009f077f
     352:	0000 
     354:	d2040003          	lb	zero,-736(s0)
     358:	0001                	.insn	2, 0x0001
     35a:	7a00                	.insn	2, 0x7a00
     35c:	9f09                	.insn	2, 0x9f09
     35e:	0000                	.insn	2, 0x0000
     360:	4300                	.insn	2, 0x4300
     362:	03000003          	lb	zero,48(zero) # 30 <__stack_size-0x1ffffd0>
     366:	0400                	.insn	2, 0x0400
     368:	0145                	.insn	2, 0x0145
     36a:	0000                	.insn	2, 0x0000
     36c:	1474                	.insn	2, 0x1474
     36e:	009f 0000 0354      	.insn	6, 0x03540000009f
     374:	0000                	.insn	2, 0x0000
     376:	2b200003          	lb	zero,690(zero) # 2b2 <__stack_size-0x1fffd4e>
     37a:	03000003          	lb	zero,48(zero) # 30 <__stack_size-0x1ffffd0>
     37e:	060e                	.insn	2, 0x060e
     380:	00000367          	jalr	t1,0(zero) # 0 <__stack_size-0x2000000>
     384:	b721                	.insn	2, 0xb721
     386:	0000                	.insn	2, 0x0000
     388:	0300                	.insn	2, 0x0300
     38a:	0400                	.insn	2, 0x0400
     38c:	0071                	.insn	2, 0x0071
     38e:	0000                	.insn	2, 0x0000
     390:	009f0337          	lui	t1,0x9f0
     394:	0000                	.insn	2, 0x0000
     396:	0378                	.insn	2, 0x0378
     398:	0000                	.insn	2, 0x0000
     39a:	c4220003          	lb	zero,-958(tp) # fffffc42 <_sp+0x77fffc42>
     39e:	0001                	.insn	2, 0x0001
     3a0:	0100                	.insn	2, 0x0100
     3a2:	0136                	.insn	2, 0x0136
     3a4:	9f01                	.insn	2, 0x9f01
     3a6:	0000                	.insn	2, 0x0000
     3a8:	1c00                	.insn	2, 0x1c00
     3aa:	0009                	.insn	2, 0x0009
     3ac:	1880                	.insn	2, 0x1880
     3ae:	0000                	.insn	2, 0x0000
     3b0:	0100                	.insn	2, 0x0100
     3b2:	149c                	.insn	2, 0x149c
     3b4:	01bd                	.insn	2, 0x01bd
     3b6:	0000                	.insn	2, 0x0000
     3b8:	009f012b          	.insn	4, 0x009f012b
     3bc:	0000                	.insn	2, 0x0000
     3be:	08ec                	.insn	2, 0x08ec
     3c0:	8000                	.insn	2, 0x8000
     3c2:	0030                	.insn	2, 0x0030
     3c4:	0000                	.insn	2, 0x0000
     3c6:	9c01                	.insn	2, 0x9c01
     3c8:	03bd                	.insn	2, 0x03bd
     3ca:	0000                	.insn	2, 0x0000
     3cc:	5d15                	.insn	2, 0x5d15
     3ce:	0000                	.insn	2, 0x0000
     3d0:	2f00                	.insn	2, 0x2f00
     3d2:	0b01                	.insn	2, 0x0b01
     3d4:	00c8                	.insn	2, 0x00c8
     3d6:	0000                	.insn	2, 0x0000
     3d8:	000e                	.insn	2, 0x000e
     3da:	0000                	.insn	2, 0x0000
     3dc:	000c                	.insn	2, 0x000c
     3de:	0000                	.insn	2, 0x0000
     3e0:	1400                	.insn	2, 0x1400
     3e2:	01b6                	.insn	2, 0x01b6
     3e4:	0000                	.insn	2, 0x0000
     3e6:	011d                	.insn	2, 0x011d
     3e8:	009f 0000 0758      	.insn	6, 0x07580000009f
     3ee:	8000                	.insn	2, 0x8000
     3f0:	002c                	.insn	2, 0x002c
     3f2:	0000                	.insn	2, 0x0000
     3f4:	9c01                	.insn	2, 0x9c01
     3f6:	0000040b          	.insn	4, 0x040b
     3fa:	0001f417          	auipc	s0,0x1f
     3fe:	2200                	.insn	2, 0x2200
     400:	1201                	.insn	2, 0x1201
     402:	0000040b          	.insn	4, 0x040b
     406:	0028                	.insn	2, 0x0028
     408:	0000                	.insn	2, 0x0000
     40a:	0024                	.insn	2, 0x0024
     40c:	0000                	.insn	2, 0x0000
     40e:	d204                	.insn	2, 0xd204
     410:	0001                	.insn	2, 0x0001
     412:	7a00                	.insn	2, 0x7a00
     414:	9f09                	.insn	2, 0x9f09
     416:	0000                	.insn	2, 0x0000
     418:	fb00                	.insn	2, 0xfb00
     41a:	03000003          	lb	zero,48(zero) # 30 <__stack_size-0x1ffffd0>
     41e:	1800                	.insn	2, 0x1800
     420:	0784                	.insn	2, 0x0784
     422:	8000                	.insn	2, 0x8000
     424:	0332                	.insn	2, 0x0332
     426:	0000                	.insn	2, 0x0000
     428:	0101                	.insn	2, 0x0101
     42a:	015a                	.insn	2, 0x015a
     42c:	003a                	.insn	2, 0x003a
     42e:	0800                	.insn	2, 0x0800
     430:	000001f3          	.insn	4, 0x01f3
     434:	af14                	.insn	2, 0xaf14
     436:	0001                	.insn	2, 0x0001
     438:	0700                	.insn	2, 0x0700
     43a:	9f01                	.insn	2, 0x9f01
     43c:	0000                	.insn	2, 0x0000
     43e:	2800                	.insn	2, 0x2800
     440:	30800007          	.insn	4, 0x30800007
     444:	0000                	.insn	2, 0x0000
     446:	0100                	.insn	2, 0x0100
     448:	669c                	.insn	2, 0x669c
     44a:	0004                	.insn	2, 0x0004
     44c:	1700                	.insn	2, 0x1700
     44e:	00000373          	.insn	4, 0x0373
     452:	010c                	.insn	2, 0x010c
     454:	6610                	.insn	2, 0x6610
     456:	0004                	.insn	2, 0x0004
     458:	4900                	.insn	2, 0x4900
     45a:	0000                	.insn	2, 0x0000
     45c:	4100                	.insn	2, 0x4100
     45e:	0000                	.insn	2, 0x0000
     460:	1500                	.insn	2, 0x1500
     462:	0098                	.insn	2, 0x0098
     464:	0000                	.insn	2, 0x0000
     466:	010e                	.insn	2, 0x010e
     468:	bc0d                	.insn	2, 0xbc0d
     46a:	0000                	.insn	2, 0x0000
     46c:	7f00                	.insn	2, 0x7f00
     46e:	0000                	.insn	2, 0x0000
     470:	7500                	.insn	2, 0x7500
     472:	0000                	.insn	2, 0x0000
     474:	1500                	.insn	2, 0x1500
     476:	0216                	.insn	2, 0x0216
     478:	0000                	.insn	2, 0x0000
     47a:	620f010f          	.insn	4, 0x620f010f
     47e:	0000                	.insn	2, 0x0000
     480:	b600                	.insn	2, 0xb600
     482:	0000                	.insn	2, 0x0000
     484:	b200                	.insn	2, 0xb200
     486:	0000                	.insn	2, 0x0000
     488:	0000                	.insn	2, 0x0000
     48a:	bc08                	.insn	2, 0xbc08
     48c:	0000                	.insn	2, 0x0000
     48e:	2300                	.insn	2, 0x2300
     490:	01a8                	.insn	2, 0x01a8
     492:	0000                	.insn	2, 0x0000
     494:	e801                	.insn	2, 0xe801
     496:	9f01                	.insn	2, 0x9f01
     498:	0000                	.insn	2, 0x0000
     49a:	8400                	.insn	2, 0x8400
     49c:	68800007          	.insn	4, 0x68800007
     4a0:	0001                	.insn	2, 0x0001
     4a2:	0100                	.insn	2, 0x0100
     4a4:	1c9c                	.insn	2, 0x1c9c
     4a6:	0005                	.insn	2, 0x0005
     4a8:	1600                	.insn	2, 0x1600
     4aa:	021f 0000 15eb      	.insn	6, 0x15eb0000021f
     4b0:	000001f3          	.insn	4, 0x01f3
     4b4:	00d2                	.insn	2, 0x00d2
     4b6:	0000                	.insn	2, 0x0000
     4b8:	00c8                	.insn	2, 0x00c8
     4ba:	0000                	.insn	2, 0x0000
     4bc:	870e                	.insn	2, 0x870e
     4be:	0001                	.insn	2, 0x0001
     4c0:	ee00                	.insn	2, 0xee00
     4c2:	0001f313          	andi	t1,gp,0
     4c6:	1000                	.insn	2, 0x1000
     4c8:	0001                	.insn	2, 0x0001
     4ca:	0a00                	.insn	2, 0x0a00
     4cc:	0001                	.insn	2, 0x0001
     4ce:	0400                	.insn	2, 0x0400
     4d0:	01b6                	.insn	2, 0x01b6
     4d2:	0000                	.insn	2, 0x0000
     4d4:	009f03f7          	.insn	4, 0x009f03f7
     4d8:	0000                	.insn	2, 0x0000
     4da:	04bc                	.insn	2, 0x04bc
     4dc:	0000                	.insn	2, 0x0000
     4de:	0c0f0003          	lb	zero,192(t5)
     4e2:	0000                	.insn	2, 0x0000
     4e4:	0b00                	.insn	2, 0x0b00
     4e6:	0005                	.insn	2, 0x0005
     4e8:	0400                	.insn	2, 0x0400
     4ea:	000001cb          	.insn	4, 0x01cb
     4ee:	0b88                	.insn	2, 0x0b88
     4f0:	009f 0000 04d6      	.insn	6, 0x04d60000009f
     4f6:	0000                	.insn	2, 0x0000
     4f8:	d2040003          	lb	zero,-736(s0) # 1f11a <__stack_size-0x1fe0ee6>
     4fc:	0001                	.insn	2, 0x0001
     4fe:	7a00                	.insn	2, 0x7a00
     500:	9f09                	.insn	2, 0x9f09
     502:	0000                	.insn	2, 0x0000
     504:	e700                	.insn	2, 0xe700
     506:	0004                	.insn	2, 0x0004
     508:	0300                	.insn	2, 0x0300
     50a:	0200                	.insn	2, 0x0200
     50c:	08bc                	.insn	2, 0x08bc
     50e:	8000                	.insn	2, 0x8000
     510:	02ff 0000 04fb 0000 	.insn	10, 0x0101000004fb000002ff
     518:	0101 
     51a:	0878025b          	.insn	4, 0x0878025b
     51e:	1800                	.insn	2, 0x1800
     520:	08ec                	.insn	2, 0x08ec
     522:	8000                	.insn	2, 0x8000
     524:	0332                	.insn	2, 0x0332
     526:	0000                	.insn	2, 0x0000
     528:	0101                	.insn	2, 0x0101
     52a:	003a015b          	.insn	4, 0x003a015b
     52e:	0b00                	.insn	2, 0x0b00
     530:	0824                	.insn	2, 0x0824
     532:	8000                	.insn	2, 0x8000
     534:	03bd                	.insn	2, 0x03bd
     536:	0000                	.insn	2, 0x0000
     538:	0101                	.insn	2, 0x0101
     53a:	025a                	.insn	2, 0x025a
     53c:	0078                	.insn	2, 0x0078
     53e:	0000                	.insn	2, 0x0000
     540:	6e24                	.insn	2, 0x6e24
     542:	01000003          	lb	zero,16(zero) # 10 <__stack_size-0x1fffff0>
     546:	0532                	.insn	2, 0x0532
     548:	009f 0000 001c      	.insn	6, 0x001c0000009f
     54e:	8000                	.insn	2, 0x8000
     550:	070c                	.insn	2, 0x070c
     552:	0000                	.insn	2, 0x0000
     554:	9c01                	.insn	2, 0x9c01
     556:	0d1e                	.insn	2, 0x0d1e
     558:	0000                	.insn	2, 0x0000
     55a:	4716                	.insn	2, 0x4716
     55c:	32000003          	lb	zero,800(zero) # 320 <__stack_size-0x1fffce0>
     560:	9f0e                	.insn	2, 0x9f0e
     562:	0000                	.insn	2, 0x0000
     564:	3000                	.insn	2, 0x3000
     566:	0001                	.insn	2, 0x0001
     568:	2c00                	.insn	2, 0x2c00
     56a:	0001                	.insn	2, 0x0001
     56c:	1600                	.insn	2, 0x1600
     56e:	0308                	.insn	2, 0x0308
     570:	0000                	.insn	2, 0x0000
     572:	1b32                	.insn	2, 0x1b32
     574:	0d1e                	.insn	2, 0x0d1e
     576:	0000                	.insn	2, 0x0000
     578:	014e                	.insn	2, 0x014e
     57a:	0000                	.insn	2, 0x0000
     57c:	014a                	.insn	2, 0x014a
     57e:	0000                	.insn	2, 0x0000
     580:	7104                	.insn	2, 0x7104
     582:	0000                	.insn	2, 0x0000
     584:	3700                	.insn	2, 0x3700
     586:	00009f03          	lh	t5,0(ra)
     58a:	6d00                	.insn	2, 0x6d00
     58c:	0005                	.insn	2, 0x0005
     58e:	0300                	.insn	2, 0x0300
     590:	0c00                	.insn	2, 0x0c00
     592:	0106                	.insn	2, 0x0106
     594:	0000                	.insn	2, 0x0000
     596:	0d38                	.insn	2, 0x0d38
     598:	00bc                	.insn	2, 0x00bc
     59a:	0000                	.insn	2, 0x0000
     59c:	7ef49103          	lh	sp,2031(s1)
     5a0:	4c0e                	.insn	2, 0x4c0e
     5a2:	39000003          	lb	zero,912(zero) # 390 <__stack_size-0x1fffc70>
     5a6:	bc11                	.insn	2, 0xbc11
     5a8:	0000                	.insn	2, 0x0000
     5aa:	7c00                	.insn	2, 0x7c00
     5ac:	0001                	.insn	2, 0x0001
     5ae:	6800                	.insn	2, 0x6800
     5b0:	0001                	.insn	2, 0x0001
     5b2:	0c00                	.insn	2, 0x0c00
     5b4:	01e0                	.insn	2, 0x01e0
     5b6:	0000                	.insn	2, 0x0000
     5b8:	0d3a                	.insn	2, 0x0d3a
     5ba:	00bc                	.insn	2, 0x00bc
     5bc:	0000                	.insn	2, 0x0000
     5be:	7ef89103          	lh	sp,2031(a7)
     5c2:	560e                	.insn	2, 0x560e
     5c4:	0001                	.insn	2, 0x0001
     5c6:	3b00                	.insn	2, 0x3b00
     5c8:	a60c                	.insn	2, 0xa60c
     5ca:	0000                	.insn	2, 0x0000
     5cc:	d100                	.insn	2, 0xd100
     5ce:	0001                	.insn	2, 0x0001
     5d0:	c500                	.insn	2, 0xc500
     5d2:	0001                	.insn	2, 0x0001
     5d4:	0c00                	.insn	2, 0x0c00
     5d6:	0216                	.insn	2, 0x0216
     5d8:	0000                	.insn	2, 0x0000
     5da:	0f3c                	.insn	2, 0x0f3c
     5dc:	0062                	.insn	2, 0x0062
     5de:	0000                	.insn	2, 0x0000
     5e0:	7efc9103          	lh	sp,2031(s9)
     5e4:	f00c                	.insn	2, 0xf00c
     5e6:	0000                	.insn	2, 0x0000
     5e8:	3d00                	.insn	2, 0x3d00
     5ea:	d40a                	.insn	2, 0xd40a
     5ec:	0000                	.insn	2, 0x0000
     5ee:	0300                	.insn	2, 0x0300
     5f0:	8091                	.insn	2, 0x8091
     5f2:	0c7f 0321 0000 0a3e 	.insn	10, 0x00d40a3e000003210c7f
     5fa:	00d4 
     5fc:	0000                	.insn	2, 0x0000
     5fe:	7fa09103          	lh	sp,2042(ra)
     602:	ea0e                	.insn	2, 0xea0e
     604:	0001                	.insn	2, 0x0001
     606:	3f00                	.insn	2, 0x3f00
     608:	00009f0b          	.insn	4, 0x9f0b
     60c:	0e00                	.insn	2, 0x0e00
     60e:	0002                	.insn	2, 0x0002
     610:	fd00                	.insn	2, 0xfd00
     612:	0001                	.insn	2, 0x0001
     614:	2500                	.insn	2, 0x2500
     616:	0356                	.insn	2, 0x0356
     618:	0000                	.insn	2, 0x0000
     61a:	4001                	.insn	2, 0x4001
     61c:	00009f0b          	.insn	4, 0x9f0b
     620:	1000                	.insn	2, 0x1000
     622:	001e0f27          	.insn	4, 0x001e0f27
     626:	0000                	.insn	2, 0x0000
     628:	075c                	.insn	2, 0x075c
     62a:	0000                	.insn	2, 0x0000
     62c:	c404                	.insn	2, 0xc404
     62e:	0001                	.insn	2, 0x0001
     630:	6d00                	.insn	2, 0x6d00
     632:	00009f07          	.insn	4, 0x9f07
     636:	1900                	.insn	2, 0x1900
     638:	0006                	.insn	2, 0x0006
     63a:	0300                	.insn	2, 0x0300
     63c:	0400                	.insn	2, 0x0400
     63e:	01bd                	.insn	2, 0x01bd
     640:	0000                	.insn	2, 0x0000
     642:	076e                	.insn	2, 0x076e
     644:	009f 0000 062a      	.insn	6, 0x062a0000009f
     64a:	0000                	.insn	2, 0x0000
     64c:	45040003          	lb	zero,1104(s0)
     650:	0001                	.insn	2, 0x0001
     652:	7400                	.insn	2, 0x7400
     654:	9f14                	.insn	2, 0x9f14
     656:	0000                	.insn	2, 0x0000
     658:	3b00                	.insn	2, 0x3b00
     65a:	0006                	.insn	2, 0x0006
     65c:	0300                	.insn	2, 0x0300
     65e:	0400                	.insn	2, 0x0400
     660:	01d9                	.insn	2, 0x01d9
     662:	0000                	.insn	2, 0x0000
     664:	077f 009f 0000 064c 	.insn	10, 0x064c0000009f077f
     66c:	0000 
     66e:	a8040003          	lb	zero,-1408(s0)
     672:	0001                	.insn	2, 0x0001
     674:	8100                	.insn	2, 0x8100
     676:	00009f07          	.insn	4, 0x9f07
     67a:	5d00                	.insn	2, 0x5d00
     67c:	0006                	.insn	2, 0x0006
     67e:	0300                	.insn	2, 0x0300
     680:	0400                	.insn	2, 0x0400
     682:	000001af          	.insn	4, 0x01af
     686:	009f0793          	addi	a5,t5,9
     68a:	0000                	.insn	2, 0x0000
     68c:	066e                	.insn	2, 0x066e
     68e:	0000                	.insn	2, 0x0000
     690:	640f0003          	lb	zero,1600(t5)
     694:	0000                	.insn	2, 0x0000
     696:	a400                	.insn	2, 0xa400
     698:	0006                	.insn	2, 0x0006
     69a:	0400                	.insn	2, 0x0400
     69c:	01d2                	.insn	2, 0x01d2
     69e:	0000                	.insn	2, 0x0000
     6a0:	097a                	.insn	2, 0x097a
     6a2:	009f 0000 0688      	.insn	6, 0x06880000009f
     6a8:	0000                	.insn	2, 0x0000
     6aa:	800b0003          	lb	zero,-2048(s6)
     6ae:	0002                	.insn	2, 0x0002
     6b0:	3280                	.insn	2, 0x3280
     6b2:	01000003          	lb	zero,16(zero) # 10 <__stack_size-0x1fffff0>
     6b6:	5a01                	.insn	2, 0x5a01
     6b8:	3201                	.insn	2, 0x3201
     6ba:	0101                	.insn	2, 0x0101
     6bc:	0133015b          	.insn	4, 0x0133015b
     6c0:	5c01                	.insn	2, 0x5c01
     6c2:	7ef87803          	.insn	4, 0x7ef87803
     6c6:	0000                	.insn	2, 0x0000
     6c8:	0000490f          	.insn	4, 0x490f
     6cc:	d500                	.insn	2, 0xd500
     6ce:	0006                	.insn	2, 0x0006
     6d0:	0400                	.insn	2, 0x0400
     6d2:	000001cb          	.insn	4, 0x01cb
     6d6:	0b88                	.insn	2, 0x0b88
     6d8:	009f 0000 06be      	.insn	6, 0x06be0000009f
     6de:	0000                	.insn	2, 0x0000
     6e0:	e40b0003          	lb	zero,-448(s6)
     6e4:	0002                	.insn	2, 0x0002
     6e6:	ff80                	.insn	2, 0xff80
     6e8:	0002                	.insn	2, 0x0002
     6ea:	0100                	.insn	2, 0x0100
     6ec:	5a01                	.insn	2, 0x5a01
     6ee:	3001                	.insn	2, 0x3001
     6f0:	0101                	.insn	2, 0x0101
     6f2:	fc78035b          	.insn	4, 0xfc78035b
     6f6:	007e                	.insn	2, 0x007e
     6f8:	1000                	.insn	2, 0x1000
     6fa:	0200                	.insn	2, 0x0200
     6fc:	8000                	.insn	2, 0x8000
     6fe:	0378                	.insn	2, 0x0378
     700:	0000                	.insn	2, 0x0000
     702:	0410                	.insn	2, 0x0410
     704:	0002                	.insn	2, 0x0002
     706:	8f80                	.insn	2, 0x8f80
     708:	02000003          	lb	zero,32(zero) # 20 <__stack_size-0x1ffffe0>
     70c:	0260                	.insn	2, 0x0260
     70e:	8000                	.insn	2, 0x8000
     710:	00000343          	.insn	4, 0x0343
     714:	00000703          	lb	a4,0(zero) # 0 <__stack_size-0x2000000>
     718:	0101                	.insn	2, 0x0101
     71a:	035a                	.insn	2, 0x035a
     71c:	8078                	.insn	2, 0x8078
     71e:	017f 5b01 7803 7fa0 	.insn	10, 0x02007fa078035b01017f
     726:	0200 
     728:	0294                	.insn	2, 0x0294
     72a:	8000                	.insn	2, 0x8000
     72c:	0321                	.insn	2, 0x0321
     72e:	0000                	.insn	2, 0x0000
     730:	00000727          	.insn	4, 0x0727
     734:	0101                	.insn	2, 0x0101
     736:	045a                	.insn	2, 0x045a
     738:	ec78                	.insn	2, 0xec78
     73a:	067e                	.insn	2, 0x067e
     73c:	0101                	.insn	2, 0x0101
     73e:	f803055b          	.insn	4, 0xf803055b
     742:	001a                	.insn	2, 0x001a
     744:	0180                	.insn	2, 0x0180
     746:	5c01                	.insn	2, 0x5c01
     748:	3301                	.insn	2, 0x3301
     74a:	1000                	.insn	2, 0x1000
     74c:	029c                	.insn	2, 0x029c
     74e:	8000                	.insn	2, 0x8000
     750:	0000046b          	.insn	4, 0x046b
     754:	d002                	.insn	2, 0xd002
     756:	0002                	.insn	2, 0x0002
     758:	1080                	.insn	2, 0x1080
     75a:	4a000003          	lb	zero,1184(zero) # 4a0 <__stack_size-0x1fffb60>
     75e:	01000007          	.insn	4, 0x01000007
     762:	5a01                	.insn	2, 0x5a01
     764:	8702                	.insn	2, 0x8702
     766:	0100                	.insn	2, 0x0100
     768:	5b01                	.insn	2, 0x5b01
     76a:	0802                	.insn	2, 0x0802
     76c:	640b0043          	.insn	4, 0x640b0043
     770:	10800003          	lb	zero,264(zero) # 108 <__stack_size-0x1fffef8>
     774:	0004                	.insn	2, 0x0004
     776:	0100                	.insn	2, 0x0100
     778:	5a01                	.insn	2, 0x5a01
     77a:	7ef47803          	.insn	4, 0x7ef47803
     77e:	0000                	.insn	2, 0x0000
     780:	5c10                	.insn	2, 0x5c10
     782:	0000                	.insn	2, 0x0000
     784:	6780                	.insn	2, 0x6780
     786:	02000003          	lb	zero,32(zero) # 20 <__stack_size-0x1ffffe0>
     78a:	0158                	.insn	2, 0x0158
     78c:	8000                	.insn	2, 0x8000
     78e:	0354                	.insn	2, 0x0354
     790:	0000                	.insn	2, 0x0000
     792:	077c                	.insn	2, 0x077c
     794:	0000                	.insn	2, 0x0000
     796:	0101                	.insn	2, 0x0101
     798:	055a                	.insn	2, 0x055a
     79a:	00148003          	lb	zero,1(s1)
     79e:	0080                	.insn	2, 0x0080
     7a0:	6c02                	.insn	2, 0x6c02
     7a2:	0001                	.insn	2, 0x0001
     7a4:	5480                	.insn	2, 0x5480
     7a6:	9c000003          	lb	zero,-1600(zero) # fffff9c0 <_sp+0x77fff9c0>
     7aa:	01000007          	.insn	4, 0x01000007
     7ae:	5a01                	.insn	2, 0x5a01
     7b0:	0305                	.insn	2, 0x0305
     7b2:	1494                	.insn	2, 0x1494
     7b4:	8000                	.insn	2, 0x8000
     7b6:	0101                	.insn	2, 0x0101
     7b8:	8403055b          	.insn	4, 0x8403055b
     7bc:	0014                	.insn	2, 0x0014
     7be:	0080                	.insn	2, 0x0080
     7c0:	8402                	.insn	2, 0x8402
     7c2:	0001                	.insn	2, 0x0001
     7c4:	5480                	.insn	2, 0x5480
     7c6:	b3000003          	lb	zero,-1232(zero) # fffffb30 <_sp+0x77fffb30>
     7ca:	01000007          	.insn	4, 0x01000007
     7ce:	5a01                	.insn	2, 0x5a01
     7d0:	0305                	.insn	2, 0x0305
     7d2:	14b8                	.insn	2, 0x14b8
     7d4:	8000                	.insn	2, 0x8000
     7d6:	0200                	.insn	2, 0x0200
     7d8:	01a0                	.insn	2, 0x01a0
     7da:	8000                	.insn	2, 0x8000
     7dc:	0354                	.insn	2, 0x0354
     7de:	0000                	.insn	2, 0x0000
     7e0:	07dc                	.insn	2, 0x07dc
     7e2:	0000                	.insn	2, 0x0000
     7e4:	0101                	.insn	2, 0x0101
     7e6:	055a                	.insn	2, 0x055a
     7e8:	00152003          	lw	zero,1(a0) # 9f024b <__stack_size-0x160fdb5>
     7ec:	0180                	.insn	2, 0x0180
     7ee:	5b01                	.insn	2, 0x5b01
     7f0:	0305                	.insn	2, 0x0305
     7f2:	1514                	.insn	2, 0x1514
     7f4:	8000                	.insn	2, 0x8000
     7f6:	0101                	.insn	2, 0x0101
     7f8:	055c                	.insn	2, 0x055c
     7fa:	400c                	.insn	2, 0x400c
     7fc:	0f42                	.insn	2, 0x0f42
     7fe:	0000                	.insn	2, 0x0000
     800:	ac02                	.insn	2, 0xac02
     802:	0001                	.insn	2, 0x0001
     804:	5480                	.insn	2, 0x5480
     806:	f3000003          	lb	zero,-208(zero) # ffffff30 <_sp+0x77ffff30>
     80a:	01000007          	.insn	4, 0x01000007
     80e:	5a01                	.insn	2, 0x5a01
     810:	0305                	.insn	2, 0x0305
     812:	1480                	.insn	2, 0x1480
     814:	8000                	.insn	2, 0x8000
     816:	0200                	.insn	2, 0x0200
     818:	01c8                	.insn	2, 0x01c8
     81a:	8000                	.insn	2, 0x8000
     81c:	0354                	.insn	2, 0x0354
     81e:	0000                	.insn	2, 0x0000
     820:	0811                	.insn	2, 0x0811
     822:	0000                	.insn	2, 0x0000
     824:	0101                	.insn	2, 0x0101
     826:	055a                	.insn	2, 0x055a
     828:	00153403          	.insn	4, 0x00153403
     82c:	0180                	.insn	2, 0x0180
     82e:	5b01                	.insn	2, 0x5b01
     830:	27100a03          	lb	s4,625(zero) # 271 <__stack_size-0x1fffd8f>
     834:	0200                	.insn	2, 0x0200
     836:	03b4                	.insn	2, 0x03b4
     838:	8000                	.insn	2, 0x8000
     83a:	0354                	.insn	2, 0x0354
     83c:	0000                	.insn	2, 0x0000
     83e:	0828                	.insn	2, 0x0828
     840:	0000                	.insn	2, 0x0000
     842:	0101                	.insn	2, 0x0101
     844:	055a                	.insn	2, 0x055a
     846:	00155803          	lhu	a6,1(a0)
     84a:	0080                	.insn	2, 0x0080
     84c:	c002                	.insn	2, 0xc002
     84e:	54800003          	lb	zero,1352(zero) # 548 <__stack_size-0x1fffab8>
     852:	3f000003          	lb	zero,1008(zero) # 3f0 <__stack_size-0x1fffc10>
     856:	0008                	.insn	2, 0x0008
     858:	0100                	.insn	2, 0x0100
     85a:	5a01                	.insn	2, 0x5a01
     85c:	0305                	.insn	2, 0x0305
     85e:	1480                	.insn	2, 0x1480
     860:	8000                	.insn	2, 0x8000
     862:	0200                	.insn	2, 0x0200
     864:	03d4                	.insn	2, 0x03d4
     866:	8000                	.insn	2, 0x8000
     868:	0354                	.insn	2, 0x0354
     86a:	0000                	.insn	2, 0x0000
     86c:	0856                	.insn	2, 0x0856
     86e:	0000                	.insn	2, 0x0000
     870:	0101                	.insn	2, 0x0101
     872:	055a                	.insn	2, 0x055a
     874:	00159003          	lh	zero,1(a1)
     878:	0080                	.insn	2, 0x0080
     87a:	e002                	.insn	2, 0xe002
     87c:	54800003          	lb	zero,1352(zero) # 548 <__stack_size-0x1fffab8>
     880:	72000003          	lb	zero,1824(zero) # 720 <__stack_size-0x1fff8e0>
     884:	0008                	.insn	2, 0x0008
     886:	0100                	.insn	2, 0x0100
     888:	5a01                	.insn	2, 0x5a01
     88a:	0305                	.insn	2, 0x0305
     88c:	15ac                	.insn	2, 0x15ac
     88e:	8000                	.insn	2, 0x8000
     890:	0101                	.insn	2, 0x0101
     892:	0035015b          	.insn	4, 0x0035015b
     896:	f002                	.insn	2, 0xf002
     898:	54800003          	lb	zero,1352(zero) # 548 <__stack_size-0x1fffab8>
     89c:	89000003          	lb	zero,-1904(zero) # fffff890 <_sp+0x77fff890>
     8a0:	0008                	.insn	2, 0x0008
     8a2:	0100                	.insn	2, 0x0100
     8a4:	5a01                	.insn	2, 0x5a01
     8a6:	0305                	.insn	2, 0x0305
     8a8:	15c8                	.insn	2, 0x15c8
     8aa:	8000                	.insn	2, 0x8000
     8ac:	0200                	.insn	2, 0x0200
     8ae:	03fc                	.insn	2, 0x03fc
     8b0:	8000                	.insn	2, 0x8000
     8b2:	0354                	.insn	2, 0x0354
     8b4:	0000                	.insn	2, 0x0000
     8b6:	08a6                	.insn	2, 0x08a6
     8b8:	0000                	.insn	2, 0x0000
     8ba:	0101                	.insn	2, 0x0101
     8bc:	055a                	.insn	2, 0x055a
     8be:	0015ac03          	lw	s8,1(a1)
     8c2:	0180                	.insn	2, 0x0180
     8c4:	5b01                	.insn	2, 0x5b01
     8c6:	8202                	.insn	2, 0x8202
     8c8:	0000                	.insn	2, 0x0000
     8ca:	1002                	.insn	2, 0x1002
     8cc:	0004                	.insn	2, 0x0004
     8ce:	5480                	.insn	2, 0x5480
     8d0:	bd000003          	lb	zero,-1072(zero) # fffffbd0 <_sp+0x77fffbd0>
     8d4:	0008                	.insn	2, 0x0008
     8d6:	0100                	.insn	2, 0x0100
     8d8:	5a01                	.insn	2, 0x5a01
     8da:	0305                	.insn	2, 0x0305
     8dc:	15e4                	.insn	2, 0x15e4
     8de:	8000                	.insn	2, 0x8000
     8e0:	0200                	.insn	2, 0x0200
     8e2:	0420                	.insn	2, 0x0420
     8e4:	8000                	.insn	2, 0x8000
     8e6:	0354                	.insn	2, 0x0354
     8e8:	0000                	.insn	2, 0x0000
     8ea:	08da                	.insn	2, 0x08da
     8ec:	0000                	.insn	2, 0x0000
     8ee:	0101                	.insn	2, 0x0101
     8f0:	055a                	.insn	2, 0x055a
     8f2:	00160003          	lb	zero,1(a2)
     8f6:	0180                	.insn	2, 0x0180
     8f8:	5b01                	.insn	2, 0x5b01
     8fa:	0802                	.insn	2, 0x0802
     8fc:	0041                	.insn	2, 0x0041
     8fe:	3002                	.insn	2, 0x3002
     900:	0004                	.insn	2, 0x0004
     902:	5480                	.insn	2, 0x5480
     904:	f1000003          	lb	zero,-240(zero) # ffffff10 <_sp+0x77ffff10>
     908:	0008                	.insn	2, 0x0008
     90a:	0100                	.insn	2, 0x0100
     90c:	5a01                	.insn	2, 0x5a01
     90e:	0305                	.insn	2, 0x0305
     910:	161c                	.insn	2, 0x161c
     912:	8000                	.insn	2, 0x8000
     914:	0200                	.insn	2, 0x0200
     916:	043c                	.insn	2, 0x043c
     918:	8000                	.insn	2, 0x8000
     91a:	0354                	.insn	2, 0x0354
     91c:	0000                	.insn	2, 0x0000
     91e:	090e                	.insn	2, 0x090e
     920:	0000                	.insn	2, 0x0000
     922:	0101                	.insn	2, 0x0101
     924:	055a                	.insn	2, 0x055a
     926:	00160003          	lb	zero,1(a2)
     92a:	0180                	.insn	2, 0x0180
     92c:	5b01                	.insn	2, 0x5b01
     92e:	0802                	.insn	2, 0x0802
     930:	0042                	.insn	2, 0x0042
     932:	5802                	.insn	2, 0x5802
     934:	0004                	.insn	2, 0x0004
     936:	5480                	.insn	2, 0x5480
     938:	25000003          	lb	zero,592(zero) # 250 <__stack_size-0x1fffdb0>
     93c:	0009                	.insn	2, 0x0009
     93e:	0100                	.insn	2, 0x0100
     940:	5a01                	.insn	2, 0x5a01
     942:	0305                	.insn	2, 0x0305
     944:	1638                	.insn	2, 0x1638
     946:	8000                	.insn	2, 0x8000
     948:	0200                	.insn	2, 0x0200
     94a:	0464                	.insn	2, 0x0464
     94c:	8000                	.insn	2, 0x8000
     94e:	0354                	.insn	2, 0x0354
     950:	0000                	.insn	2, 0x0000
     952:	0941                	.insn	2, 0x0941
     954:	0000                	.insn	2, 0x0000
     956:	0101                	.insn	2, 0x0101
     958:	055a                	.insn	2, 0x055a
     95a:	0015ac03          	lw	s8,1(a1)
     95e:	0180                	.insn	2, 0x0180
     960:	5b01                	.insn	2, 0x5b01
     962:	3701                	.insn	2, 0x3701
     964:	0200                	.insn	2, 0x0200
     966:	047c                	.insn	2, 0x047c
     968:	8000                	.insn	2, 0x8000
     96a:	0354                	.insn	2, 0x0354
     96c:	0000                	.insn	2, 0x0000
     96e:	0958                	.insn	2, 0x0958
     970:	0000                	.insn	2, 0x0000
     972:	0101                	.insn	2, 0x0101
     974:	055a                	.insn	2, 0x055a
     976:	00165403          	lhu	s0,1(a2)
     97a:	0080                	.insn	2, 0x0080
     97c:	8802                	.insn	2, 0x8802
     97e:	0004                	.insn	2, 0x0004
     980:	5480                	.insn	2, 0x5480
     982:	6f000003          	lb	zero,1776(zero) # 6f0 <__stack_size-0x1fff910>
     986:	0009                	.insn	2, 0x0009
     988:	0100                	.insn	2, 0x0100
     98a:	5a01                	.insn	2, 0x5a01
     98c:	0305                	.insn	2, 0x0305
     98e:	1670                	.insn	2, 0x1670
     990:	8000                	.insn	2, 0x8000
     992:	0200                	.insn	2, 0x0200
     994:	0494                	.insn	2, 0x0494
     996:	8000                	.insn	2, 0x8000
     998:	0354                	.insn	2, 0x0354
     99a:	0000                	.insn	2, 0x0000
     99c:	0986                	.insn	2, 0x0986
     99e:	0000                	.insn	2, 0x0000
     9a0:	0101                	.insn	2, 0x0101
     9a2:	055a                	.insn	2, 0x055a
     9a4:	00169c03          	lh	s8,1(a3)
     9a8:	0080                	.insn	2, 0x0080
     9aa:	b002                	.insn	2, 0xb002
     9ac:	0004                	.insn	2, 0x0004
     9ae:	5480                	.insn	2, 0x5480
     9b0:	9d000003          	lb	zero,-1584(zero) # fffff9d0 <_sp+0x77fff9d0>
     9b4:	0009                	.insn	2, 0x0009
     9b6:	0100                	.insn	2, 0x0100
     9b8:	5a01                	.insn	2, 0x5a01
     9ba:	0305                	.insn	2, 0x0305
     9bc:	16a8                	.insn	2, 0x16a8
     9be:	8000                	.insn	2, 0x8000
     9c0:	0200                	.insn	2, 0x0200
     9c2:	04bc                	.insn	2, 0x04bc
     9c4:	8000                	.insn	2, 0x8000
     9c6:	0354                	.insn	2, 0x0354
     9c8:	0000                	.insn	2, 0x0000
     9ca:	09b4                	.insn	2, 0x09b4
     9cc:	0000                	.insn	2, 0x0000
     9ce:	0101                	.insn	2, 0x0101
     9d0:	055a                	.insn	2, 0x055a
     9d2:	0016c403          	lbu	s0,1(a3)
     9d6:	0080                	.insn	2, 0x0080
     9d8:	d002                	.insn	2, 0xd002
     9da:	0004                	.insn	2, 0x0004
     9dc:	5480                	.insn	2, 0x5480
     9de:	cb000003          	lb	zero,-848(zero) # fffffcb0 <_sp+0x77fffcb0>
     9e2:	0009                	.insn	2, 0x0009
     9e4:	0100                	.insn	2, 0x0100
     9e6:	5a01                	.insn	2, 0x5a01
     9e8:	0305                	.insn	2, 0x0305
     9ea:	16f8                	.insn	2, 0x16f8
     9ec:	8000                	.insn	2, 0x8000
     9ee:	0200                	.insn	2, 0x0200
     9f0:	04dc                	.insn	2, 0x04dc
     9f2:	8000                	.insn	2, 0x8000
     9f4:	0354                	.insn	2, 0x0354
     9f6:	0000                	.insn	2, 0x0000
     9f8:	000009e7          	jalr	s3,0(zero) # 0 <__stack_size-0x2000000>
     9fc:	0101                	.insn	2, 0x0101
     9fe:	055a                	.insn	2, 0x055a
     a00:	0015ac03          	lw	s8,1(a1)
     a04:	0180                	.insn	2, 0x0180
     a06:	5b01                	.insn	2, 0x5b01
     a08:	3001                	.insn	2, 0x3001
     a0a:	0200                	.insn	2, 0x0200
     a0c:	04ec                	.insn	2, 0x04ec
     a0e:	8000                	.insn	2, 0x8000
     a10:	0354                	.insn	2, 0x0354
     a12:	0000                	.insn	2, 0x0000
     a14:	09fe                	.insn	2, 0x09fe
     a16:	0000                	.insn	2, 0x0000
     a18:	0101                	.insn	2, 0x0101
     a1a:	055a                	.insn	2, 0x055a
     a1c:	00171403          	lh	s0,1(a4)
     a20:	0080                	.insn	2, 0x0080
     a22:	f802                	.insn	2, 0xf802
     a24:	0004                	.insn	2, 0x0004
     a26:	5480                	.insn	2, 0x5480
     a28:	1a000003          	lb	zero,416(zero) # 1a0 <__stack_size-0x1fffe60>
     a2c:	000a                	.insn	2, 0x000a
     a2e:	0100                	.insn	2, 0x0100
     a30:	5a01                	.insn	2, 0x5a01
     a32:	0305                	.insn	2, 0x0305
     a34:	15ac                	.insn	2, 0x15ac
     a36:	8000                	.insn	2, 0x8000
     a38:	0101                	.insn	2, 0x0101
     a3a:	0032015b          	.insn	4, 0x0032015b
     a3e:	0802                	.insn	2, 0x0802
     a40:	0005                	.insn	2, 0x0005
     a42:	5480                	.insn	2, 0x5480
     a44:	31000003          	lb	zero,784(zero) # 310 <__stack_size-0x1fffcf0>
     a48:	000a                	.insn	2, 0x000a
     a4a:	0100                	.insn	2, 0x0100
     a4c:	5a01                	.insn	2, 0x5a01
     a4e:	0305                	.insn	2, 0x0305
     a50:	1730                	.insn	2, 0x1730
     a52:	8000                	.insn	2, 0x8000
     a54:	0200                	.insn	2, 0x0200
     a56:	0514                	.insn	2, 0x0514
     a58:	8000                	.insn	2, 0x8000
     a5a:	0354                	.insn	2, 0x0354
     a5c:	0000                	.insn	2, 0x0000
     a5e:	0a4d                	.insn	2, 0x0a4d
     a60:	0000                	.insn	2, 0x0000
     a62:	0101                	.insn	2, 0x0101
     a64:	055a                	.insn	2, 0x055a
     a66:	0015ac03          	lw	s8,1(a1)
     a6a:	0180                	.insn	2, 0x0180
     a6c:	5b01                	.insn	2, 0x5b01
     a6e:	4101                	.insn	2, 0x4101
     a70:	0200                	.insn	2, 0x0200
     a72:	0528                	.insn	2, 0x0528
     a74:	8000                	.insn	2, 0x8000
     a76:	0354                	.insn	2, 0x0354
     a78:	0000                	.insn	2, 0x0000
     a7a:	0a64                	.insn	2, 0x0a64
     a7c:	0000                	.insn	2, 0x0000
     a7e:	0101                	.insn	2, 0x0101
     a80:	055a                	.insn	2, 0x055a
     a82:	00174c03          	lbu	s8,1(a4)
     a86:	0080                	.insn	2, 0x0080
     a88:	3002                	.insn	2, 0x3002
     a8a:	0005                	.insn	2, 0x0005
     a8c:	5480                	.insn	2, 0x5480
     a8e:	7b000003          	lb	zero,1968(zero) # 7b0 <__stack_size-0x1fff850>
     a92:	000a                	.insn	2, 0x000a
     a94:	0100                	.insn	2, 0x0100
     a96:	5a01                	.insn	2, 0x5a01
     a98:	0305                	.insn	2, 0x0305
     a9a:	1768                	.insn	2, 0x1768
     a9c:	8000                	.insn	2, 0x8000
     a9e:	0200                	.insn	2, 0x0200
     aa0:	053c                	.insn	2, 0x053c
     aa2:	8000                	.insn	2, 0x8000
     aa4:	0354                	.insn	2, 0x0354
     aa6:	0000                	.insn	2, 0x0000
     aa8:	0a92                	.insn	2, 0x0a92
     aaa:	0000                	.insn	2, 0x0000
     aac:	0101                	.insn	2, 0x0101
     aae:	055a                	.insn	2, 0x055a
     ab0:	0017a003          	lw	zero,1(a5)
     ab4:	0080                	.insn	2, 0x0080
     ab6:	5002                	.insn	2, 0x5002
     ab8:	0005                	.insn	2, 0x0005
     aba:	5480                	.insn	2, 0x5480
     abc:	a9000003          	lb	zero,-1392(zero) # fffffa90 <_sp+0x77fffa90>
     ac0:	000a                	.insn	2, 0x000a
     ac2:	0100                	.insn	2, 0x0100
     ac4:	5a01                	.insn	2, 0x5a01
     ac6:	0305                	.insn	2, 0x0305
     ac8:	16a8                	.insn	2, 0x16a8
     aca:	8000                	.insn	2, 0x8000
     acc:	0200                	.insn	2, 0x0200
     ace:	055c                	.insn	2, 0x055c
     ad0:	8000                	.insn	2, 0x8000
     ad2:	0354                	.insn	2, 0x0354
     ad4:	0000                	.insn	2, 0x0000
     ad6:	0ac0                	.insn	2, 0x0ac0
     ad8:	0000                	.insn	2, 0x0000
     ada:	0101                	.insn	2, 0x0101
     adc:	055a                	.insn	2, 0x055a
     ade:	0017b403          	.insn	4, 0x0017b403
     ae2:	0080                	.insn	2, 0x0080
     ae4:	6c02                	.insn	2, 0x6c02
     ae6:	0005                	.insn	2, 0x0005
     ae8:	5480                	.insn	2, 0x5480
     aea:	d7000003          	lb	zero,-656(zero) # fffffd70 <_sp+0x77fffd70>
     aee:	000a                	.insn	2, 0x000a
     af0:	0100                	.insn	2, 0x0100
     af2:	5a01                	.insn	2, 0x5a01
     af4:	0305                	.insn	2, 0x0305
     af6:	16f8                	.insn	2, 0x16f8
     af8:	8000                	.insn	2, 0x8000
     afa:	0200                	.insn	2, 0x0200
     afc:	0578                	.insn	2, 0x0578
     afe:	8000                	.insn	2, 0x8000
     b00:	0354                	.insn	2, 0x0354
     b02:	0000                	.insn	2, 0x0000
     b04:	00000af3          	.insn	4, 0x0af3
     b08:	0101                	.insn	2, 0x0101
     b0a:	055a                	.insn	2, 0x055a
     b0c:	0015ac03          	lw	s8,1(a1)
     b10:	0180                	.insn	2, 0x0180
     b12:	5b01                	.insn	2, 0x5b01
     b14:	3001                	.insn	2, 0x3001
     b16:	0200                	.insn	2, 0x0200
     b18:	0588                	.insn	2, 0x0588
     b1a:	8000                	.insn	2, 0x8000
     b1c:	0354                	.insn	2, 0x0354
     b1e:	0000                	.insn	2, 0x0000
     b20:	0b0a                	.insn	2, 0x0b0a
     b22:	0000                	.insn	2, 0x0000
     b24:	0101                	.insn	2, 0x0101
     b26:	055a                	.insn	2, 0x055a
     b28:	00171403          	lh	s0,1(a4)
     b2c:	0080                	.insn	2, 0x0080
     b2e:	9402                	.insn	2, 0x9402
     b30:	0005                	.insn	2, 0x0005
     b32:	5480                	.insn	2, 0x5480
     b34:	27000003          	lb	zero,624(zero) # 270 <__stack_size-0x1fffd90>
     b38:	0100000b          	.insn	4, 0x0100000b
     b3c:	5a01                	.insn	2, 0x5a01
     b3e:	0305                	.insn	2, 0x0305
     b40:	15ac                	.insn	2, 0x15ac
     b42:	8000                	.insn	2, 0x8000
     b44:	0101                	.insn	2, 0x0101
     b46:	0082025b          	.insn	4, 0x0082025b
     b4a:	0200                	.insn	2, 0x0200
     b4c:	05a4                	.insn	2, 0x05a4
     b4e:	8000                	.insn	2, 0x8000
     b50:	0354                	.insn	2, 0x0354
     b52:	0000                	.insn	2, 0x0000
     b54:	0b3e                	.insn	2, 0x0b3e
     b56:	0000                	.insn	2, 0x0000
     b58:	0101                	.insn	2, 0x0101
     b5a:	055a                	.insn	2, 0x055a
     b5c:	00173003          	.insn	4, 0x00173003
     b60:	0080                	.insn	2, 0x0080
     b62:	b002                	.insn	2, 0xb002
     b64:	0005                	.insn	2, 0x0005
     b66:	5480                	.insn	2, 0x5480
     b68:	5a000003          	lb	zero,1440(zero) # 5a0 <__stack_size-0x1fffa60>
     b6c:	0100000b          	.insn	4, 0x0100000b
     b70:	5a01                	.insn	2, 0x5a01
     b72:	0305                	.insn	2, 0x0305
     b74:	15ac                	.insn	2, 0x15ac
     b76:	8000                	.insn	2, 0x8000
     b78:	0101                	.insn	2, 0x0101
     b7a:	0042015b          	.insn	4, 0x0042015b
     b7e:	c002                	.insn	2, 0xc002
     b80:	0005                	.insn	2, 0x0005
     b82:	5480                	.insn	2, 0x5480
     b84:	71000003          	lb	zero,1808(zero) # 710 <__stack_size-0x1fff8f0>
     b88:	0100000b          	.insn	4, 0x0100000b
     b8c:	5a01                	.insn	2, 0x5a01
     b8e:	0305                	.insn	2, 0x0305
     b90:	174c                	.insn	2, 0x174c
     b92:	8000                	.insn	2, 0x8000
     b94:	0200                	.insn	2, 0x0200
     b96:	05c8                	.insn	2, 0x05c8
     b98:	8000                	.insn	2, 0x8000
     b9a:	0354                	.insn	2, 0x0354
     b9c:	0000                	.insn	2, 0x0000
     b9e:	0b88                	.insn	2, 0x0b88
     ba0:	0000                	.insn	2, 0x0000
     ba2:	0101                	.insn	2, 0x0101
     ba4:	055a                	.insn	2, 0x055a
     ba6:	00176803          	.insn	4, 0x00176803
     baa:	0080                	.insn	2, 0x0080
     bac:	d802                	.insn	2, 0xd802
     bae:	0005                	.insn	2, 0x0005
     bb0:	5480                	.insn	2, 0x5480
     bb2:	9f000003          	lb	zero,-1552(zero) # fffff9f0 <_sp+0x77fff9f0>
     bb6:	0100000b          	.insn	4, 0x0100000b
     bba:	5a01                	.insn	2, 0x5a01
     bbc:	0305                	.insn	2, 0x0305
     bbe:	17f4                	.insn	2, 0x17f4
     bc0:	8000                	.insn	2, 0x8000
     bc2:	0200                	.insn	2, 0x0200
     bc4:	05e4                	.insn	2, 0x05e4
     bc6:	8000                	.insn	2, 0x8000
     bc8:	0354                	.insn	2, 0x0354
     bca:	0000                	.insn	2, 0x0000
     bcc:	00000bbb          	.insn	4, 0x0bbb
     bd0:	0101                	.insn	2, 0x0101
     bd2:	055a                	.insn	2, 0x055a
     bd4:	0015ac03          	lw	s8,1(a1)
     bd8:	0180                	.insn	2, 0x0180
     bda:	5b01                	.insn	2, 0x5b01
     bdc:	3501                	.insn	2, 0x3501
     bde:	0200                	.insn	2, 0x0200
     be0:	05f4                	.insn	2, 0x05f4
     be2:	8000                	.insn	2, 0x8000
     be4:	0354                	.insn	2, 0x0354
     be6:	0000                	.insn	2, 0x0000
     be8:	0bd8                	.insn	2, 0x0bd8
     bea:	0000                	.insn	2, 0x0000
     bec:	0101                	.insn	2, 0x0101
     bee:	055a                	.insn	2, 0x055a
     bf0:	00181003          	lh	zero,1(a6)
     bf4:	0180                	.insn	2, 0x0180
     bf6:	5b01                	.insn	2, 0x5b01
     bf8:	8302                	.insn	2, 0x8302
     bfa:	0000                	.insn	2, 0x0000
     bfc:	0002                	.insn	2, 0x0002
     bfe:	0006                	.insn	2, 0x0006
     c00:	5480                	.insn	2, 0x5480
     c02:	f4000003          	lb	zero,-192(zero) # ffffff40 <_sp+0x77ffff40>
     c06:	0100000b          	.insn	4, 0x0100000b
     c0a:	5a01                	.insn	2, 0x5a01
     c0c:	0305                	.insn	2, 0x0305
     c0e:	15ac                	.insn	2, 0x15ac
     c10:	8000                	.insn	2, 0x8000
     c12:	0101                	.insn	2, 0x0101
     c14:	003d015b          	.insn	4, 0x003d015b
     c18:	1002                	.insn	2, 0x1002
     c1a:	0006                	.insn	2, 0x0006
     c1c:	5480                	.insn	2, 0x5480
     c1e:	0b000003          	lb	zero,176(zero) # b0 <__stack_size-0x1ffff50>
     c22:	000c                	.insn	2, 0x000c
     c24:	0100                	.insn	2, 0x0100
     c26:	5a01                	.insn	2, 0x5a01
     c28:	0305                	.insn	2, 0x0305
     c2a:	182c                	.insn	2, 0x182c
     c2c:	8000                	.insn	2, 0x8000
     c2e:	0200                	.insn	2, 0x0200
     c30:	061c                	.insn	2, 0x061c
     c32:	8000                	.insn	2, 0x8000
     c34:	0354                	.insn	2, 0x0354
     c36:	0000                	.insn	2, 0x0000
     c38:	00000c27          	.insn	4, 0x0c27
     c3c:	0101                	.insn	2, 0x0101
     c3e:	055a                	.insn	2, 0x055a
     c40:	0015ac03          	lw	s8,1(a1)
     c44:	0180                	.insn	2, 0x0180
     c46:	5b01                	.insn	2, 0x5b01
     c48:	3701                	.insn	2, 0x3701
     c4a:	0200                	.insn	2, 0x0200
     c4c:	062c                	.insn	2, 0x062c
     c4e:	8000                	.insn	2, 0x8000
     c50:	0354                	.insn	2, 0x0354
     c52:	0000                	.insn	2, 0x0000
     c54:	0c3e                	.insn	2, 0x0c3e
     c56:	0000                	.insn	2, 0x0000
     c58:	0101                	.insn	2, 0x0101
     c5a:	055a                	.insn	2, 0x055a
     c5c:	00184803          	lbu	a6,1(a6)
     c60:	0080                	.insn	2, 0x0080
     c62:	3802                	.insn	2, 0x3802
     c64:	0006                	.insn	2, 0x0006
     c66:	5480                	.insn	2, 0x5480
     c68:	5b000003          	lb	zero,1456(zero) # 5b0 <__stack_size-0x1fffa50>
     c6c:	000c                	.insn	2, 0x000c
     c6e:	0100                	.insn	2, 0x0100
     c70:	5a01                	.insn	2, 0x5a01
     c72:	0305                	.insn	2, 0x0305
     c74:	15ac                	.insn	2, 0x15ac
     c76:	8000                	.insn	2, 0x8000
     c78:	0101                	.insn	2, 0x0101
     c7a:	0082025b          	.insn	4, 0x0082025b
     c7e:	0200                	.insn	2, 0x0200
     c80:	0648                	.insn	2, 0x0648
     c82:	8000                	.insn	2, 0x8000
     c84:	0354                	.insn	2, 0x0354
     c86:	0000                	.insn	2, 0x0000
     c88:	0c79                	.insn	2, 0x0c79
     c8a:	0000                	.insn	2, 0x0000
     c8c:	0101                	.insn	2, 0x0101
     c8e:	055a                	.insn	2, 0x055a
     c90:	00186403          	.insn	4, 0x00186403
     c94:	0180                	.insn	2, 0x0180
     c96:	5b01                	.insn	2, 0x5b01
     c98:	7f807803          	.insn	4, 0x7f807803
     c9c:	0200                	.insn	2, 0x0200
     c9e:	0654                	.insn	2, 0x0654
     ca0:	8000                	.insn	2, 0x8000
     ca2:	0354                	.insn	2, 0x0354
     ca4:	0000                	.insn	2, 0x0000
     ca6:	0c90                	.insn	2, 0x0c90
     ca8:	0000                	.insn	2, 0x0000
     caa:	0101                	.insn	2, 0x0101
     cac:	055a                	.insn	2, 0x055a
     cae:	00188003          	lb	zero,1(a7)
     cb2:	0080                	.insn	2, 0x0080
     cb4:	6402                	.insn	2, 0x6402
     cb6:	0006                	.insn	2, 0x0006
     cb8:	5480                	.insn	2, 0x5480
     cba:	ae000003          	lb	zero,-1312(zero) # fffffae0 <_sp+0x77fffae0>
     cbe:	000c                	.insn	2, 0x000c
     cc0:	0100                	.insn	2, 0x0100
     cc2:	5a01                	.insn	2, 0x5a01
     cc4:	0305                	.insn	2, 0x0305
     cc6:	18b8                	.insn	2, 0x18b8
     cc8:	8000                	.insn	2, 0x8000
     cca:	0101                	.insn	2, 0x0101
     ccc:	a078035b          	.insn	4, 0xa078035b
     cd0:	007f 7002 0006 5480 	.insn	10, 0x0003548000067002007f
     cd8:	0003 
     cda:	c500                	.insn	2, 0xc500
     cdc:	000c                	.insn	2, 0x000c
     cde:	0100                	.insn	2, 0x0100
     ce0:	5a01                	.insn	2, 0x5a01
     ce2:	0305                	.insn	2, 0x0305
     ce4:	18d4                	.insn	2, 0x18d4
     ce6:	8000                	.insn	2, 0x8000
     ce8:	0200                	.insn	2, 0x0200
     cea:	0678                	.insn	2, 0x0678
     cec:	8000                	.insn	2, 0x8000
     cee:	0354                	.insn	2, 0x0354
     cf0:	0000                	.insn	2, 0x0000
     cf2:	0cdc                	.insn	2, 0x0cdc
     cf4:	0000                	.insn	2, 0x0000
     cf6:	0101                	.insn	2, 0x0101
     cf8:	055a                	.insn	2, 0x055a
     cfa:	00148003          	lb	zero,1(s1)
     cfe:	0080                	.insn	2, 0x0080
     d00:	bc02                	.insn	2, 0xbc02
     d02:	0006                	.insn	2, 0x0006
     d04:	5480                	.insn	2, 0x5480
     d06:	f3000003          	lb	zero,-208(zero) # ffffff30 <_sp+0x77ffff30>
     d0a:	000c                	.insn	2, 0x000c
     d0c:	0100                	.insn	2, 0x0100
     d0e:	5a01                	.insn	2, 0x5a01
     d10:	0305                	.insn	2, 0x0305
     d12:	190c                	.insn	2, 0x190c
     d14:	8000                	.insn	2, 0x8000
     d16:	0200                	.insn	2, 0x0200
     d18:	06cc                	.insn	2, 0x06cc
     d1a:	8000                	.insn	2, 0x8000
     d1c:	0354                	.insn	2, 0x0354
     d1e:	0000                	.insn	2, 0x0000
     d20:	0d0a                	.insn	2, 0x0d0a
     d22:	0000                	.insn	2, 0x0000
     d24:	0101                	.insn	2, 0x0101
     d26:	055a                	.insn	2, 0x055a
     d28:	00194003          	lbu	zero,1(s2) # 420e7 <__stack_size-0x1fbdf19>
     d2c:	0080                	.insn	2, 0x0080
     d2e:	0007240b          	.insn	4, 0x0007240b
     d32:	5480                	.insn	2, 0x5480
     d34:	01000003          	lb	zero,16(zero) # 10 <__stack_size-0x1fffff0>
     d38:	5a01                	.insn	2, 0x5a01
     d3a:	0305                	.insn	2, 0x0305
     d3c:	14e4                	.insn	2, 0x14e4
     d3e:	8000                	.insn	2, 0x8000
     d40:	0000                	.insn	2, 0x0000
     d42:	b208                	.insn	2, 0xb208
     d44:	0000                	.insn	2, 0x0000
     d46:	0000                	.insn	2, 0x0000
     d48:	03a5                	.insn	2, 0x03a5
     d4a:	0000                	.insn	2, 0x0000
     d4c:	0005                	.insn	2, 0x0005
     d4e:	0401                	.insn	2, 0x0401
     d50:	025f 0000 800d      	.insn	6, 0x800d0000025f
     d56:	0002                	.insn	2, 0x0002
     d58:	0100                	.insn	2, 0x0100
     d5a:	0091                	.insn	2, 0x0091
     d5c:	0000                	.insn	2, 0x0000
     d5e:	0000                	.insn	2, 0x0000
     d60:	0000                	.insn	2, 0x0000
     d62:	0934                	.insn	2, 0x0934
     d64:	8000                	.insn	2, 0x8000
     d66:	01c0                	.insn	2, 0x01c0
     d68:	0000                	.insn	2, 0x0000
     d6a:	0a2c                	.insn	2, 0x0a2c
     d6c:	0000                	.insn	2, 0x0000
     d6e:	0802                	.insn	2, 0x0802
     d70:	00008107          	.insn	4, 0x8107
     d74:	0200                	.insn	2, 0x0200
     d76:	0704                	.insn	2, 0x0704
     d78:	0000008b          	.insn	4, 0x008b
     d7c:	0102                	.insn	2, 0x0102
     d7e:	4008                	.insn	2, 0x4008
     d80:	0002                	.insn	2, 0x0002
     d82:	0e00                	.insn	2, 0x0e00
     d84:	002d0407          	.insn	4, 0x002d0407
     d88:	0000                	.insn	2, 0x0000
     d8a:	b302                	.insn	2, 0xb302
     d8c:	0e01                	.insn	2, 0x0e01
     d8e:	0069                	.insn	2, 0x0069
     d90:	0000                	.insn	2, 0x0000
     d92:	5f06                	.insn	2, 0x5f06
     d94:	0001                	.insn	2, 0x0001
     d96:	0000                	.insn	2, 0x0000
     d98:	6706                	.insn	2, 0x6706
     d9a:	0001                	.insn	2, 0x0001
     d9c:	0100                	.insn	2, 0x0100
     d9e:	6f06                	.insn	2, 0x6f06
     da0:	0001                	.insn	2, 0x0001
     da2:	0200                	.insn	2, 0x0200
     da4:	7706                	.insn	2, 0x7706
     da6:	0001                	.insn	2, 0x0001
     da8:	0300                	.insn	2, 0x0300
     daa:	7f06                	.insn	2, 0x7f06
     dac:	0001                	.insn	2, 0x0001
     dae:	0400                	.insn	2, 0x0400
     db0:	0700                	.insn	2, 0x0700
     db2:	00fa                	.insn	2, 0x00fa
     db4:	0000                	.insn	2, 0x0000
     db6:	3b3e01b3          	.insn	4, 0x3b3e01b3
     dba:	0000                	.insn	2, 0x0000
     dbc:	0200                	.insn	2, 0x0200
     dbe:	0601                	.insn	2, 0x0601
     dc0:	0242                	.insn	2, 0x0242
     dc2:	0000                	.insn	2, 0x0000
     dc4:	0202                	.insn	2, 0x0202
     dc6:	6405                	.insn	2, 0x6405
     dc8:	0002                	.insn	2, 0x0002
     dca:	0200                	.insn	2, 0x0200
     dcc:	0702                	.insn	2, 0x0702
     dce:	0000012b          	.insn	4, 0x012b
     dd2:	0402                	.insn	2, 0x0402
     dd4:	c205                	.insn	2, 0xc205
     dd6:	0000                	.insn	2, 0x0000
     dd8:	0200                	.insn	2, 0x0200
     dda:	0704                	.insn	2, 0x0704
     ddc:	0086                	.insn	2, 0x0086
     dde:	0000                	.insn	2, 0x0000
     de0:	0802                	.insn	2, 0x0802
     de2:	bd05                	.insn	2, 0xbd05
     de4:	0000                	.insn	2, 0x0000
     de6:	0f00                	.insn	2, 0x0f00
     de8:	0504                	.insn	2, 0x0504
     dea:	6e69                	.insn	2, 0x6e69
     dec:	0074                	.insn	2, 0x0074
     dee:	0102                	.insn	2, 0x0102
     df0:	4908                	.insn	2, 0x4908
     df2:	0002                	.insn	2, 0x0002
     df4:	1000                	.insn	2, 0x1000
     df6:	00a6                	.insn	2, 0x00a6
     df8:	0000                	.insn	2, 0x0000
     dfa:	a604                	.insn	2, 0xa604
     dfc:	0000                	.insn	2, 0x0000
     dfe:	0400                	.insn	2, 0x0400
     e00:	00ad                	.insn	2, 0x00ad
     e02:	0000                	.insn	2, 0x0000
     e04:	0003e107          	.insn	4, 0x0003e107
     e08:	c400                	.insn	2, 0xc400
     e0a:	0d01                	.insn	2, 0x0d01
     e0c:	009f 0000 0707      	.insn	6, 0x07070000009f
     e12:	0002                	.insn	2, 0x0002
     e14:	c500                	.insn	2, 0xc500
     e16:	0d01                	.insn	2, 0x0d01
     e18:	009f 0000 9c07      	.insn	6, 0x9c070000009f
     e1e:	c6000003          	lb	zero,-928(zero) # fffffc60 <_sp+0x77fffc60>
     e22:	0e01                	.insn	2, 0x0e01
     e24:	00a6                	.insn	2, 0x00a6
     e26:	0000                	.insn	2, 0x0000
     e28:	00026e07          	.insn	4, 0x00026e07
     e2c:	c700                	.insn	2, 0xc700
     e2e:	0d01                	.insn	2, 0x0d01
     e30:	009f 0000 9f11      	.insn	6, 0x9f110000009f
     e36:	0000                	.insn	2, 0x0000
     e38:	fc00                	.insn	2, 0xfc00
     e3a:	0000                	.insn	2, 0x0000
     e3c:	1200                	.insn	2, 0x1200
     e3e:	002d                	.insn	2, 0x002d
     e40:	0000                	.insn	2, 0x0000
     e42:	0031                	.insn	2, 0x0031
     e44:	cb0a                	.insn	2, 0xcb0a
     e46:	0000                	.insn	2, 0x0000
     e48:	1000                	.insn	2, 0x1000
     e4a:	9f0c                	.insn	2, 0x9f0c
     e4c:	0000                	.insn	2, 0x0000
     e4e:	0a00                	.insn	2, 0x0a00
     e50:	0276                	.insn	2, 0x0276
     e52:	0000                	.insn	2, 0x0000
     e54:	0d11                	.insn	2, 0x0d11
     e56:	00a6                	.insn	2, 0x00a6
     e58:	0000                	.insn	2, 0x0000
     e5a:	00043d13          	sltiu	s10,s0,0
     e5e:	0300                	.insn	2, 0x0300
     e60:	0624                	.insn	2, 0x0624
     e62:	009f 0000 012d      	.insn	6, 0x012d0000009f
     e68:	0000                	.insn	2, 0x0000
     e6a:	0000b70b          	.insn	4, 0xb70b
     e6e:	0b00                	.insn	2, 0x0b00
     e70:	000000b7          	lui	ra,0x0
     e74:	0500                	.insn	2, 0x0500
     e76:	0388                	.insn	2, 0x0388
     e78:	0000                	.insn	2, 0x0000
     e7a:	09a0                	.insn	2, 0x09a0
     e7c:	00e0                	.insn	2, 0x00e0
     e7e:	0000                	.insn	2, 0x0000
     e80:	0a3c                	.insn	2, 0x0a3c
     e82:	8000                	.insn	2, 0x8000
     e84:	000c                	.insn	2, 0x000c
     e86:	0000                	.insn	2, 0x0000
     e88:	9c01                	.insn	2, 0x9c01
     e8a:	016d                	.insn	2, 0x016d
     e8c:	0000                	.insn	2, 0x0000
     e8e:	f901                	.insn	2, 0xf901
     e90:	a4000003          	lb	zero,-1472(zero) # fffffa40 <_sp+0x77fffa40>
     e94:	690d                	.insn	2, 0x690d
     e96:	0000                	.insn	2, 0x0000
     e98:	4900                	.insn	2, 0x4900
     e9a:	0002                	.insn	2, 0x0002
     e9c:	4300                	.insn	2, 0x4300
     e9e:	0002                	.insn	2, 0x0002
     ea0:	0300                	.insn	2, 0x0300
     ea2:	0216                	.insn	2, 0x0216
     ea4:	0000                	.insn	2, 0x0000
     ea6:	0fa6                	.insn	2, 0x0fa6
     ea8:	0069                	.insn	2, 0x0069
     eaa:	0000                	.insn	2, 0x0000
     eac:	0270                	.insn	2, 0x0270
     eae:	0000                	.insn	2, 0x0000
     eb0:	026a                	.insn	2, 0x026a
     eb2:	0000                	.insn	2, 0x0000
     eb4:	0500                	.insn	2, 0x0500
     eb6:	0145                	.insn	2, 0x0145
     eb8:	0000                	.insn	2, 0x0000
     eba:	0979                	.insn	2, 0x0979
     ebc:	00e0                	.insn	2, 0x00e0
     ebe:	0000                	.insn	2, 0x0000
     ec0:	09cc                	.insn	2, 0x09cc
     ec2:	8000                	.insn	2, 0x8000
     ec4:	0070                	.insn	2, 0x0070
     ec6:	0000                	.insn	2, 0x0000
     ec8:	9c01                	.insn	2, 0x9c01
     eca:	01ec                	.insn	2, 0x01ec
     ecc:	0000                	.insn	2, 0x0000
     ece:	c901                	.insn	2, 0xc901
     ed0:	7f000003          	lb	zero,2032(zero) # 7f0 <__stack_size-0x1fff810>
     ed4:	b208                	.insn	2, 0xb208
     ed6:	0000                	.insn	2, 0x0000
     ed8:	9700                	.insn	2, 0x9700
     eda:	0002                	.insn	2, 0x0002
     edc:	9100                	.insn	2, 0x9100
     ede:	0002                	.insn	2, 0x0002
     ee0:	0100                	.insn	2, 0x0100
     ee2:	0000042f          	.insn	4, 0x042f
     ee6:	0880                	.insn	2, 0x0880
     ee8:	00b2                	.insn	2, 0x00b2
     eea:	0000                	.insn	2, 0x0000
     eec:	02bc                	.insn	2, 0x02bc
     eee:	0000                	.insn	2, 0x0000
     ef0:	02b6                	.insn	2, 0x02b6
     ef2:	0000                	.insn	2, 0x0000
     ef4:	00009803          	lh	a6,0(ra) # 0 <__stack_size-0x2000000>
     ef8:	8200                	.insn	2, 0x8200
     efa:	bc12                	.insn	2, 0xbc12
     efc:	0000                	.insn	2, 0x0000
     efe:	e300                	.insn	2, 0xe300
     f00:	0002                	.insn	2, 0x0002
     f02:	db00                	.insn	2, 0xdb00
     f04:	0002                	.insn	2, 0x0002
     f06:	1400                	.insn	2, 0x1400
     f08:	03c2                	.insn	2, 0x03c2
     f0a:	0000                	.insn	2, 0x0000
     f0c:	8301                	.insn	2, 0x8301
     f0e:	d412                	.insn	2, 0xd412
     f10:	0000                	.insn	2, 0x0000
     f12:	4100                	.insn	2, 0x4100
     f14:	f815                	.insn	2, 0xf815
     f16:	0009                	.insn	2, 0x0009
     f18:	ec80                	.insn	2, 0xec80
     f1a:	0001                	.insn	2, 0x0001
     f1c:	0c00                	.insn	2, 0x0c00
     f1e:	0a08                	.insn	2, 0x0a08
     f20:	8000                	.insn	2, 0x8000
     f22:	0112                	.insn	2, 0x0112
     f24:	0000                	.insn	2, 0x0000
     f26:	0108                	.insn	2, 0x0108
     f28:	025a                	.insn	2, 0x025a
     f2a:	0078                	.insn	2, 0x0078
     f2c:	0108                	.insn	2, 0x0108
     f2e:	0079025b          	.insn	4, 0x0079025b
     f32:	0000                	.insn	2, 0x0000
     f34:	3e05                	.insn	2, 0x3e05
     f36:	0001                	.insn	2, 0x0001
     f38:	6000                	.insn	2, 0x6000
     f3a:	690d                	.insn	2, 0x690d
     f3c:	0000                	.insn	2, 0x0000
     f3e:	a800                	.insn	2, 0xa800
     f40:	0009                	.insn	2, 0x0009
     f42:	2480                	.insn	2, 0x2480
     f44:	0000                	.insn	2, 0x0000
     f46:	0100                	.insn	2, 0x0100
     f48:	4c9c                	.insn	2, 0x4c9c
     f4a:	0002                	.insn	2, 0x0002
     f4c:	0100                	.insn	2, 0x0100
     f4e:	03ec                	.insn	2, 0x03ec
     f50:	0000                	.insn	2, 0x0000
     f52:	00d41067          	.insn	4, 0x00d41067
     f56:	0000                	.insn	2, 0x0000
     f58:	0000030b          	.insn	4, 0x030b
     f5c:	00000307          	.insn	4, 0x0307
     f60:	4409                	.insn	2, 0x4409
     f62:	0004                	.insn	2, 0x0004
     f64:	6800                	.insn	2, 0x6800
     f66:	d410                	.insn	2, 0xd410
     f68:	0000                	.insn	2, 0x0000
     f6a:	0100                	.insn	2, 0x0100
     f6c:	045f035b          	.insn	4, 0x045f035b
     f70:	0000                	.insn	2, 0x0000
     f72:	126a                	.insn	2, 0x126a
     f74:	00d4                	.insn	2, 0x00d4
     f76:	0000                	.insn	2, 0x0000
     f78:	0328                	.insn	2, 0x0328
     f7a:	0000                	.insn	2, 0x0000
     f7c:	0322                	.insn	2, 0x0322
     f7e:	0000                	.insn	2, 0x0000
     f80:	0003b903          	.insn	4, 0x0003b903
     f84:	6b00                	.insn	2, 0x6b00
     f86:	d412                	.insn	2, 0xd412
     f88:	0000                	.insn	2, 0x0000
     f8a:	4c00                	.insn	2, 0x4c00
     f8c:	46000003          	lb	zero,1120(zero) # 460 <__stack_size-0x1fffba0>
     f90:	00000003          	lb	zero,0(zero) # 0 <__stack_size-0x2000000>
     f94:	d905                	.insn	2, 0xd905
     f96:	0001                	.insn	2, 0x0001
     f98:	4800                	.insn	2, 0x4800
     f9a:	9f01                	.insn	2, 0x9f01
     f9c:	0000                	.insn	2, 0x0000
     f9e:	4400                	.insn	2, 0x4400
     fa0:	0009                	.insn	2, 0x0009
     fa2:	6480                	.insn	2, 0x6480
     fa4:	0000                	.insn	2, 0x0000
     fa6:	0100                	.insn	2, 0x0100
     fa8:	d89c                	.insn	2, 0xd89c
     faa:	0002                	.insn	2, 0x0002
     fac:	0100                	.insn	2, 0x0100
     fae:	000003ab          	.insn	4, 0x03ab
     fb2:	0f4d                	.insn	2, 0x0f4d
     fb4:	02d8                	.insn	2, 0x02d8
     fb6:	0000                	.insn	2, 0x0000
     fb8:	036e                	.insn	2, 0x036e
     fba:	0000                	.insn	2, 0x0000
     fbc:	036a                	.insn	2, 0x036a
     fbe:	0000                	.insn	2, 0x0000
     fc0:	0601                	.insn	2, 0x0601
     fc2:	0004                	.insn	2, 0x0004
     fc4:	4e00                	.insn	2, 0x4e00
     fc6:	0002dd0b          	.insn	4, 0x0002dd0b
     fca:	8600                	.insn	2, 0x8600
     fcc:	82000003          	lb	zero,-2016(zero) # fffff820 <_sp+0x77fff820>
     fd0:	01000003          	lb	zero,16(zero) # 10 <__stack_size-0x1fffff0>
     fd4:	0414                	.insn	2, 0x0414
     fd6:	0000                	.insn	2, 0x0000
     fd8:	009f054f          	.insn	4, 0x009f054f
     fdc:	0000                	.insn	2, 0x0000
     fde:	03a4                	.insn	2, 0x03a4
     fe0:	0000                	.insn	2, 0x0000
     fe2:	039a                	.insn	2, 0x039a
     fe4:	0000                	.insn	2, 0x0000
     fe6:	5101                	.insn	2, 0x5101
     fe8:	0004                	.insn	2, 0x0004
     fea:	5000                	.insn	2, 0x5000
     fec:	9f05                	.insn	2, 0x9f05
     fee:	0000                	.insn	2, 0x0000
     ff0:	e800                	.insn	2, 0xe800
     ff2:	e2000003          	lb	zero,-480(zero) # fffffe20 <_sp+0x77fffe20>
     ff6:	03000003          	lb	zero,48(zero) # 30 <__stack_size-0x1ffffd0>
     ffa:	000003d7          	.insn	4, 0x03d7
     ffe:	1152                	.insn	2, 0x1152
    1000:	00c8                	.insn	2, 0x00c8
    1002:	0000                	.insn	2, 0x0000
    1004:	040e                	.insn	2, 0x040e
    1006:	0000                	.insn	2, 0x0000
    1008:	0402                	.insn	2, 0x0402
    100a:	0000                	.insn	2, 0x0000
    100c:	00009803          	lh	a6,0(ra)
    1010:	5300                	.insn	2, 0x5300
    1012:	c811                	.insn	2, 0xc811
    1014:	0000                	.insn	2, 0x0000
    1016:	5d00                	.insn	2, 0x5d00
    1018:	0004                	.insn	2, 0x0004
    101a:	5500                	.insn	2, 0x5500
    101c:	0004                	.insn	2, 0x0004
    101e:	0000                	.insn	2, 0x0000
    1020:	9f04                	.insn	2, 0x9f04
    1022:	0000                	.insn	2, 0x0000
    1024:	0400                	.insn	2, 0x0400
    1026:	00ec                	.insn	2, 0x00ec
    1028:	0000                	.insn	2, 0x0000
    102a:	d205                	.insn	2, 0xd205
    102c:	0001                	.insn	2, 0x0001
    102e:	3500                	.insn	2, 0x3500
    1030:	9f01                	.insn	2, 0x9f01
    1032:	0000                	.insn	2, 0x0000
    1034:	3400                	.insn	2, 0x3400
    1036:	0009                	.insn	2, 0x0009
    1038:	1080                	.insn	2, 0x1080
    103a:	0000                	.insn	2, 0x0000
    103c:	0100                	.insn	2, 0x0100
    103e:	3c9c                	.insn	2, 0x3c9c
    1040:	01000003          	lb	zero,16(zero) # 10 <__stack_size-0x1fffff0>
    1044:	0414                	.insn	2, 0x0414
    1046:	0000                	.insn	2, 0x0000
    1048:	0f3e                	.insn	2, 0x0f3e
    104a:	00c8                	.insn	2, 0x00c8
    104c:	0000                	.insn	2, 0x0000
    104e:	0494                	.insn	2, 0x0494
    1050:	0000                	.insn	2, 0x0000
    1052:	048e                	.insn	2, 0x048e
    1054:	0000                	.insn	2, 0x0000
    1056:	5109                	.insn	2, 0x5109
    1058:	0004                	.insn	2, 0x0004
    105a:	3f00                	.insn	2, 0x3f00
    105c:	0000c80b          	.insn	4, 0xc80b
    1060:	0100                	.insn	2, 0x0100
    1062:	0373095b          	.insn	4, 0x0373095b
    1066:	0000                	.insn	2, 0x0000
    1068:	0c40                	.insn	2, 0x0c40
    106a:	033c                	.insn	2, 0x033c
    106c:	0000                	.insn	2, 0x0000
    106e:	5c01                	.insn	2, 0x5c01
    1070:	00009803          	lh	a6,0(ra)
    1074:	4200                	.insn	2, 0x4200
    1076:	c80d                	.insn	2, 0xc80d
    1078:	0000                	.insn	2, 0x0000
    107a:	b500                	.insn	2, 0xb500
    107c:	0004                	.insn	2, 0x0004
    107e:	af00                	.insn	2, 0xaf00
    1080:	0004                	.insn	2, 0x0004
    1082:	0000                	.insn	2, 0x0000
    1084:	c804                	.insn	2, 0xc804
    1086:	0000                	.insn	2, 0x0000
    1088:	0500                	.insn	2, 0x0500
    108a:	000001cb          	.insn	4, 0x01cb
    108e:	009f0113          	addi	sp,t5,9
    1092:	0000                	.insn	2, 0x0000
    1094:	0a48                	.insn	2, 0x0a48
    1096:	8000                	.insn	2, 0x8000
    1098:	00ac                	.insn	2, 0x00ac
    109a:	0000                	.insn	2, 0x0000
    109c:	9c01                	.insn	2, 0x9c01
    109e:	000003a3          	sb	zero,7(zero) # 7 <__stack_size-0x1fffff9>
    10a2:	2201                	.insn	2, 0x2201
    10a4:	0004                	.insn	2, 0x0004
    10a6:	1800                	.insn	2, 0x1800
    10a8:	6911                	.insn	2, 0x6911
    10aa:	0000                	.insn	2, 0x0000
    10ac:	e400                	.insn	2, 0xe400
    10ae:	0004                	.insn	2, 0x0004
    10b0:	d200                	.insn	2, 0xd200
    10b2:	0004                	.insn	2, 0x0004
    10b4:	0100                	.insn	2, 0x0100
    10b6:	0000038f          	.insn	4, 0x038f
    10ba:	0e19                	.insn	2, 0x0e19
    10bc:	000003a3          	sb	zero,7(zero) # 7 <__stack_size-0x1fffff9>
    10c0:	054e                	.insn	2, 0x054e
    10c2:	0000                	.insn	2, 0x0000
    10c4:	0548                	.insn	2, 0x0548
    10c6:	0000                	.insn	2, 0x0000
    10c8:	8816                	.insn	2, 0x8816
    10ca:	01000003          	lb	zero,16(zero) # 10 <__stack_size-0x1fffff0>
    10ce:	081c                	.insn	2, 0x081c
    10d0:	009f 0000 0392      	.insn	6, 0x03920000009f
    10d6:	0000                	.insn	2, 0x0000
    10d8:	600c0017          	auipc	zero,0x600c0
    10dc:	000a                	.insn	2, 0x000a
    10de:	2d80                	.insn	2, 0x2d80
    10e0:	0001                	.insn	2, 0x0001
    10e2:	0800                	.insn	2, 0x0800
    10e4:	5a01                	.insn	2, 0x5a01
    10e6:	7802                	.insn	2, 0x7802
    10e8:	0000                	.insn	2, 0x0000
    10ea:	0400                	.insn	2, 0x0400
    10ec:	0069                	.insn	2, 0x0069
    10ee:	0000                	.insn	2, 0x0000
    10f0:	4500                	.insn	2, 0x4500
    10f2:	0006                	.insn	2, 0x0006
    10f4:	0500                	.insn	2, 0x0500
    10f6:	0100                	.insn	2, 0x0100
    10f8:	a804                	.insn	2, 0xa804
    10fa:	10000003          	lb	zero,256(zero) # 100 <__stack_size-0x1ffff00>
    10fe:	0280                	.insn	2, 0x0280
    1100:	0000                	.insn	2, 0x0000
    1102:	b001                	.insn	2, 0xb001
    1104:	0000                	.insn	2, 0x0000
    1106:	0000                	.insn	2, 0x0000
    1108:	0000                	.insn	2, 0x0000
    110a:	f400                	.insn	2, 0xf400
    110c:	000a                	.insn	2, 0x000a
    110e:	5080                	.insn	2, 0x5080
    1110:	0001                	.insn	2, 0x0001
    1112:	0a00                	.insn	2, 0x0a00
    1114:	000e                	.insn	2, 0x000e
    1116:	0300                	.insn	2, 0x0300
    1118:	0601                	.insn	2, 0x0601
    111a:	0242                	.insn	2, 0x0242
    111c:	0000                	.insn	2, 0x0000
    111e:	40080103          	lb	sp,1024(a6)
    1122:	0002                	.insn	2, 0x0002
    1124:	0300                	.insn	2, 0x0300
    1126:	0502                	.insn	2, 0x0502
    1128:	0264                	.insn	2, 0x0264
    112a:	0000                	.insn	2, 0x0000
    112c:	af06                	.insn	2, 0xaf06
    112e:	0004                	.insn	2, 0x0004
    1130:	0300                	.insn	2, 0x0300
    1132:	1939                	.insn	2, 0x1939
    1134:	00000047          	.insn	4, 0x0047
    1138:	2b070203          	lb	tp,688(a4)
    113c:	0001                	.insn	2, 0x0001
    113e:	0300                	.insn	2, 0x0300
    1140:	0504                	.insn	2, 0x0504
    1142:	00c2                	.insn	2, 0x00c2
    1144:	0000                	.insn	2, 0x0000
    1146:	ba06                	.insn	2, 0xba06
    1148:	0004                	.insn	2, 0x0004
    114a:	0300                	.insn	2, 0x0300
    114c:	0061194f          	.insn	4, 0x0061194f
    1150:	0000                	.insn	2, 0x0000
    1152:	86070403          	lb	s0,-1952(a4)
    1156:	0000                	.insn	2, 0x0000
    1158:	0300                	.insn	2, 0x0300
    115a:	0508                	.insn	2, 0x0508
    115c:	00bd                	.insn	2, 0x00bd
    115e:	0000                	.insn	2, 0x0000
    1160:	81070803          	lb	a6,-2032(a4)
    1164:	0000                	.insn	2, 0x0000
    1166:	1100                	.insn	2, 0x1100
    1168:	0504                	.insn	2, 0x0504
    116a:	6e69                	.insn	2, 0x6e69
    116c:	0074                	.insn	2, 0x0074
    116e:	8b070403          	lb	s0,-1872(a4)
    1172:	0000                	.insn	2, 0x0000
    1174:	0600                	.insn	2, 0x0600
    1176:	04b1                	.insn	2, 0x04b1
    1178:	0000                	.insn	2, 0x0000
    117a:	2404                	.insn	2, 0x2404
    117c:	3b14                	.insn	2, 0x3b14
    117e:	0000                	.insn	2, 0x0000
    1180:	0600                	.insn	2, 0x0600
    1182:	04bc                	.insn	2, 0x04bc
    1184:	0000                	.insn	2, 0x0000
    1186:	3004                	.insn	2, 0x3004
    1188:	5514                	.insn	2, 0x5514
    118a:	0000                	.insn	2, 0x0000
    118c:	1200                	.insn	2, 0x1200
    118e:	000000a7          	.insn	4, 0x00a7
    1192:	00002d13          	slti	s10,zero,0
    1196:	0000                	.insn	2, 0x0000
    1198:	c514                	.insn	2, 0xc514
    119a:	0004                	.insn	2, 0x0004
    119c:	0500                	.insn	2, 0x0500
    119e:	00b30f0b          	.insn	4, 0x00b30f0b
    11a2:	0000                	.insn	2, 0x0000
    11a4:	9c0a                	.insn	2, 0x9c0a
    11a6:	0000                	.insn	2, 0x0000
    11a8:	0b00                	.insn	2, 0x0b00
    11aa:	050c                	.insn	2, 0x050c
    11ac:	0000                	.insn	2, 0x0000
    11ae:	171e                	.insn	2, 0x171e
    11b0:	00c9                	.insn	2, 0x00c9
    11b2:	0000                	.insn	2, 0x0000
    11b4:	0305                	.insn	2, 0x0305
    11b6:	423c                	.insn	2, 0x423c
    11b8:	8000                	.insn	2, 0x8000
    11ba:	ce0a                	.insn	2, 0xce0a
    11bc:	0000                	.insn	2, 0x0000
    11be:	1500                	.insn	2, 0x1500
    11c0:	ce16                	.insn	2, 0xce16
    11c2:	0000                	.insn	2, 0x0000
    11c4:	0700                	.insn	2, 0x0700
    11c6:	047f 0000 0c1f 0090 	.insn	10, 0x00900c1f0000047f
    11ce:	0000 
    11d0:	00046d07          	.insn	4, 0x00046d07
    11d4:	2000                	.insn	2, 0x2000
    11d6:	900c                	.insn	2, 0x900c
    11d8:	0000                	.insn	2, 0x0000
    11da:	0b00                	.insn	2, 0x0b00
    11dc:	04e8                	.insn	2, 0x04e8
    11de:	0000                	.insn	2, 0x0000
    11e0:	0c21                	.insn	2, 0x0c21
    11e2:	0090                	.insn	2, 0x0090
    11e4:	0000                	.insn	2, 0x0000
    11e6:	0305                	.insn	2, 0x0305
    11e8:	4238                	.insn	2, 0x4238
    11ea:	8000                	.insn	2, 0x8000
    11ec:	00007117          	auipc	sp,0x7
    11f0:	0100                	.insn	2, 0x0100
    11f2:	0540                	.insn	2, 0x0540
    11f4:	0076                	.insn	2, 0x0076
    11f6:	0000                	.insn	2, 0x0000
    11f8:	0b5c                	.insn	2, 0x0b5c
    11fa:	8000                	.insn	2, 0x8000
    11fc:	00e8                	.insn	2, 0x00e8
    11fe:	0000                	.insn	2, 0x0000
    1200:	9c01                	.insn	2, 0x9c01
    1202:	040c                	.insn	2, 0x040c
    1204:	0000                	.insn	2, 0x0000
    1206:	9018                	.insn	2, 0x9018
    1208:	0004                	.insn	2, 0x0004
    120a:	0100                	.insn	2, 0x0100
    120c:	0942                	.insn	2, 0x0942
    120e:	0084                	.insn	2, 0x0084
    1210:	0000                	.insn	2, 0x0000
    1212:	0591051b          	.insn	4, 0x0591051b
    1216:	0000                	.insn	2, 0x0000
    1218:	0b70                	.insn	2, 0x0b70
    121a:	8000                	.insn	2, 0x8000
    121c:	700a                	.insn	2, 0x700a
    121e:	1480000b          	.insn	4, 0x1480000b
    1222:	0000                	.insn	2, 0x0000
    1224:	4c00                	.insn	2, 0x4c00
    1226:	8d05                	.insn	2, 0x8d05
    1228:	0001                	.insn	2, 0x0001
    122a:	0100                	.insn	2, 0x0100
    122c:	059e                	.insn	2, 0x059e
    122e:	0000                	.insn	2, 0x0000
    1230:	00000573          	.insn	4, 0x0573
    1234:	0571                	.insn	2, 0x0571
    1236:	0000                	.insn	2, 0x0000
    1238:	aa01                	.insn	2, 0xaa01
    123a:	0005                	.insn	2, 0x0005
    123c:	7d00                	.insn	2, 0x7d00
    123e:	0005                	.insn	2, 0x0005
    1240:	7b00                	.insn	2, 0x7b00
    1242:	0005                	.insn	2, 0x0005
    1244:	0200                	.insn	2, 0x0200
    1246:	05b6                	.insn	2, 0x05b6
    1248:	0000                	.insn	2, 0x0000
    124a:	00000587          	.insn	4, 0x0587
    124e:	0585                	.insn	2, 0x0585
    1250:	0000                	.insn	2, 0x0000
    1252:	2704                	.insn	2, 0x2704
    1254:	0006                	.insn	2, 0x0006
    1256:	7400                	.insn	2, 0x7400
    1258:	1080000b          	.insn	4, 0x1080000b
    125c:	000000a3          	sb	zero,1(zero) # 1 <__stack_size-0x1ffffff>
    1260:	052e                	.insn	2, 0x052e
    1262:	3001                	.insn	2, 0x3001
    1264:	0006                	.insn	2, 0x0006
    1266:	9100                	.insn	2, 0x9100
    1268:	0005                	.insn	2, 0x0005
    126a:	8f00                	.insn	2, 0x8f00
    126c:	0005                	.insn	2, 0x0005
    126e:	0100                	.insn	2, 0x0100
    1270:	063c                	.insn	2, 0x063c
    1272:	0000                	.insn	2, 0x0000
    1274:	059e                	.insn	2, 0x059e
    1276:	0000                	.insn	2, 0x0000
    1278:	059a                	.insn	2, 0x059a
    127a:	0000                	.insn	2, 0x0000
    127c:	0000                	.insn	2, 0x0000
    127e:	9105                	.insn	2, 0x9105
    1280:	0005                	.insn	2, 0x0005
    1282:	8400                	.insn	2, 0x8400
    1284:	1c80000b          	.insn	4, 0x1c80000b
    1288:	0b84                	.insn	2, 0x0b84
    128a:	8000                	.insn	2, 0x8000
    128c:	0020                	.insn	2, 0x0020
    128e:	0000                	.insn	2, 0x0000
    1290:	054e                	.insn	2, 0x054e
    1292:	01f8                	.insn	2, 0x01f8
    1294:	0000                	.insn	2, 0x0000
    1296:	9e01                	.insn	2, 0x9e01
    1298:	0005                	.insn	2, 0x0005
    129a:	b700                	.insn	2, 0xb700
    129c:	0005                	.insn	2, 0x0005
    129e:	b500                	.insn	2, 0xb500
    12a0:	0005                	.insn	2, 0x0005
    12a2:	0100                	.insn	2, 0x0100
    12a4:	05aa                	.insn	2, 0x05aa
    12a6:	0000                	.insn	2, 0x0000
    12a8:	05c2                	.insn	2, 0x05c2
    12aa:	0000                	.insn	2, 0x0000
    12ac:	05c0                	.insn	2, 0x05c0
    12ae:	0000                	.insn	2, 0x0000
    12b0:	b602                	.insn	2, 0xb602
    12b2:	0005                	.insn	2, 0x0005
    12b4:	ce00                	.insn	2, 0xce00
    12b6:	0005                	.insn	2, 0x0005
    12b8:	cc00                	.insn	2, 0xcc00
    12ba:	0005                	.insn	2, 0x0005
    12bc:	0400                	.insn	2, 0x0400
    12be:	00000627          	.insn	4, 0x0627
    12c2:	0b94                	.insn	2, 0x0b94
    12c4:	8000                	.insn	2, 0x8000
    12c6:	0000b323          	.insn	4, 0xb323
    12ca:	2e00                	.insn	2, 0x2e00
    12cc:	0105                	.insn	2, 0x0105
    12ce:	0630                	.insn	2, 0x0630
    12d0:	0000                	.insn	2, 0x0000
    12d2:	05d8                	.insn	2, 0x05d8
    12d4:	0000                	.insn	2, 0x0000
    12d6:	05d6                	.insn	2, 0x05d6
    12d8:	0000                	.insn	2, 0x0000
    12da:	3c01                	.insn	2, 0x3c01
    12dc:	0006                	.insn	2, 0x0006
    12de:	e600                	.insn	2, 0xe600
    12e0:	0005                	.insn	2, 0x0005
    12e2:	e200                	.insn	2, 0xe200
    12e4:	0005                	.insn	2, 0x0005
    12e6:	0000                	.insn	2, 0x0000
    12e8:	0500                	.insn	2, 0x0500
    12ea:	0591                	.insn	2, 0x0591
    12ec:	0000                	.insn	2, 0x0000
    12ee:	0ba4                	.insn	2, 0x0ba4
    12f0:	8000                	.insn	2, 0x8000
    12f2:	000ba42f          	amoadd.w	s0,zero,(s7)
    12f6:	1c80                	.insn	2, 0x1c80
    12f8:	0000                	.insn	2, 0x0000
    12fa:	5200                	.insn	2, 0x5200
    12fc:	6305                	.insn	2, 0x6305
    12fe:	0002                	.insn	2, 0x0002
    1300:	0100                	.insn	2, 0x0100
    1302:	059e                	.insn	2, 0x059e
    1304:	0000                	.insn	2, 0x0000
    1306:	0600                	.insn	2, 0x0600
    1308:	0000                	.insn	2, 0x0000
    130a:	05fe                	.insn	2, 0x05fe
    130c:	0000                	.insn	2, 0x0000
    130e:	aa01                	.insn	2, 0xaa01
    1310:	0005                	.insn	2, 0x0005
    1312:	0b00                	.insn	2, 0x0b00
    1314:	0006                	.insn	2, 0x0006
    1316:	0900                	.insn	2, 0x0900
    1318:	0006                	.insn	2, 0x0006
    131a:	0200                	.insn	2, 0x0200
    131c:	05b6                	.insn	2, 0x05b6
    131e:	0000                	.insn	2, 0x0000
    1320:	0616                	.insn	2, 0x0616
    1322:	0000                	.insn	2, 0x0000
    1324:	0614                	.insn	2, 0x0614
    1326:	0000                	.insn	2, 0x0000
    1328:	2704                	.insn	2, 0x2704
    132a:	0006                	.insn	2, 0x0006
    132c:	b400                	.insn	2, 0xb400
    132e:	3680000b          	.insn	4, 0x3680000b
    1332:	000000c3          	.insn	4, 0x00c3
    1336:	052e                	.insn	2, 0x052e
    1338:	3001                	.insn	2, 0x3001
    133a:	0006                	.insn	2, 0x0006
    133c:	2000                	.insn	2, 0x2000
    133e:	0006                	.insn	2, 0x0006
    1340:	1e00                	.insn	2, 0x1e00
    1342:	0006                	.insn	2, 0x0006
    1344:	0100                	.insn	2, 0x0100
    1346:	063c                	.insn	2, 0x063c
    1348:	0000                	.insn	2, 0x0000
    134a:	062d                	.insn	2, 0x062d
    134c:	0000                	.insn	2, 0x0000
    134e:	0629                	.insn	2, 0x0629
    1350:	0000                	.insn	2, 0x0000
    1352:	0000                	.insn	2, 0x0000
    1354:	9105                	.insn	2, 0x9105
    1356:	0005                	.insn	2, 0x0005
    1358:	c000                	.insn	2, 0xc000
    135a:	4080000b          	.insn	4, 0x4080000b
    135e:	0bc0                	.insn	2, 0x0bc0
    1360:	8000                	.insn	2, 0x8000
    1362:	0018                	.insn	2, 0x0018
    1364:	0000                	.insn	2, 0x0000
    1366:	0554                	.insn	2, 0x0554
    1368:	02ce                	.insn	2, 0x02ce
    136a:	0000                	.insn	2, 0x0000
    136c:	9e01                	.insn	2, 0x9e01
    136e:	0005                	.insn	2, 0x0005
    1370:	4700                	.insn	2, 0x4700
    1372:	0006                	.insn	2, 0x0006
    1374:	4500                	.insn	2, 0x4500
    1376:	0006                	.insn	2, 0x0006
    1378:	0100                	.insn	2, 0x0100
    137a:	05aa                	.insn	2, 0x05aa
    137c:	0000                	.insn	2, 0x0000
    137e:	00000647          	.insn	4, 0x0647
    1382:	0645                	.insn	2, 0x0645
    1384:	0000                	.insn	2, 0x0000
    1386:	b602                	.insn	2, 0xb602
    1388:	0005                	.insn	2, 0x0005
    138a:	5200                	.insn	2, 0x5200
    138c:	0006                	.insn	2, 0x0006
    138e:	5000                	.insn	2, 0x5000
    1390:	0006                	.insn	2, 0x0006
    1392:	0400                	.insn	2, 0x0400
    1394:	00000627          	.insn	4, 0x0627
    1398:	0bcc                	.insn	2, 0x0bcc
    139a:	8000                	.insn	2, 0x8000
    139c:	0000ce47          	.insn	4, 0xce47
    13a0:	2e00                	.insn	2, 0x2e00
    13a2:	0105                	.insn	2, 0x0105
    13a4:	0630                	.insn	2, 0x0630
    13a6:	0000                	.insn	2, 0x0000
    13a8:	065c                	.insn	2, 0x065c
    13aa:	0000                	.insn	2, 0x0000
    13ac:	065a                	.insn	2, 0x065a
    13ae:	0000                	.insn	2, 0x0000
    13b0:	3c01                	.insn	2, 0x3c01
    13b2:	0006                	.insn	2, 0x0006
    13b4:	6900                	.insn	2, 0x6900
    13b6:	0006                	.insn	2, 0x0006
    13b8:	6500                	.insn	2, 0x6500
    13ba:	0006                	.insn	2, 0x0006
    13bc:	0000                	.insn	2, 0x0000
    13be:	0500                	.insn	2, 0x0500
    13c0:	0591                	.insn	2, 0x0591
    13c2:	0000                	.insn	2, 0x0000
    13c4:	0bd8                	.insn	2, 0x0bd8
    13c6:	8000                	.insn	2, 0x8000
    13c8:	d851                	.insn	2, 0xd851
    13ca:	1c80000b          	.insn	4, 0x1c80000b
    13ce:	0000                	.insn	2, 0x0000
    13d0:	5600                	.insn	2, 0x5600
    13d2:	3905                	.insn	2, 0x3905
    13d4:	01000003          	lb	zero,16(zero) # 10 <__stack_size-0x1fffff0>
    13d8:	059e                	.insn	2, 0x059e
    13da:	0000                	.insn	2, 0x0000
    13dc:	00000683          	lb	a3,0(zero) # 0 <__stack_size-0x2000000>
    13e0:	0681                	.insn	2, 0x0681
    13e2:	0000                	.insn	2, 0x0000
    13e4:	aa01                	.insn	2, 0xaa01
    13e6:	0005                	.insn	2, 0x0005
    13e8:	8e00                	.insn	2, 0x8e00
    13ea:	0006                	.insn	2, 0x0006
    13ec:	8c00                	.insn	2, 0x8c00
    13ee:	0006                	.insn	2, 0x0006
    13f0:	0200                	.insn	2, 0x0200
    13f2:	05b6                	.insn	2, 0x05b6
    13f4:	0000                	.insn	2, 0x0000
    13f6:	0699                	.insn	2, 0x0699
    13f8:	0000                	.insn	2, 0x0000
    13fa:	00000697          	auipc	a3,0x0
    13fe:	2704                	.insn	2, 0x2704
    1400:	0006                	.insn	2, 0x0006
    1402:	e800                	.insn	2, 0xe800
    1404:	5880000b          	.insn	4, 0x5880000b
    1408:	00d9                	.insn	2, 0x00d9
    140a:	0000                	.insn	2, 0x0000
    140c:	052e                	.insn	2, 0x052e
    140e:	3001                	.insn	2, 0x3001
    1410:	0006                	.insn	2, 0x0006
    1412:	a300                	.insn	2, 0xa300
    1414:	0006                	.insn	2, 0x0006
    1416:	a100                	.insn	2, 0xa100
    1418:	0006                	.insn	2, 0x0006
    141a:	0100                	.insn	2, 0x0100
    141c:	063c                	.insn	2, 0x063c
    141e:	0000                	.insn	2, 0x0000
    1420:	06b0                	.insn	2, 0x06b0
    1422:	0000                	.insn	2, 0x0000
    1424:	06ac                	.insn	2, 0x06ac
    1426:	0000                	.insn	2, 0x0000
    1428:	0000                	.insn	2, 0x0000
    142a:	9105                	.insn	2, 0x9105
    142c:	0005                	.insn	2, 0x0005
    142e:	f400                	.insn	2, 0xf400
    1430:	6280000b          	.insn	4, 0x6280000b
    1434:	0bf4                	.insn	2, 0x0bf4
    1436:	8000                	.insn	2, 0x8000
    1438:	001c                	.insn	2, 0x001c
    143a:	0000                	.insn	2, 0x0000
    143c:	0558                	.insn	2, 0x0558
    143e:	03a4                	.insn	2, 0x03a4
    1440:	0000                	.insn	2, 0x0000
    1442:	9e01                	.insn	2, 0x9e01
    1444:	0005                	.insn	2, 0x0005
    1446:	ca00                	.insn	2, 0xca00
    1448:	0006                	.insn	2, 0x0006
    144a:	c800                	.insn	2, 0xc800
    144c:	0006                	.insn	2, 0x0006
    144e:	0100                	.insn	2, 0x0100
    1450:	05aa                	.insn	2, 0x05aa
    1452:	0000                	.insn	2, 0x0000
    1454:	06d5                	.insn	2, 0x06d5
    1456:	0000                	.insn	2, 0x0000
    1458:	000006d3          	.insn	4, 0x06d3
    145c:	b602                	.insn	2, 0xb602
    145e:	0005                	.insn	2, 0x0005
    1460:	e000                	.insn	2, 0xe000
    1462:	0006                	.insn	2, 0x0006
    1464:	de00                	.insn	2, 0xde00
    1466:	0006                	.insn	2, 0x0006
    1468:	0400                	.insn	2, 0x0400
    146a:	00000627          	.insn	4, 0x0627
    146e:	0c04                	.insn	2, 0x0c04
    1470:	8000                	.insn	2, 0x8000
    1472:	e469                	.insn	2, 0xe469
    1474:	0000                	.insn	2, 0x0000
    1476:	2e00                	.insn	2, 0x2e00
    1478:	0105                	.insn	2, 0x0105
    147a:	0630                	.insn	2, 0x0630
    147c:	0000                	.insn	2, 0x0000
    147e:	06ea                	.insn	2, 0x06ea
    1480:	0000                	.insn	2, 0x0000
    1482:	06e8                	.insn	2, 0x06e8
    1484:	0000                	.insn	2, 0x0000
    1486:	3c01                	.insn	2, 0x3c01
    1488:	0006                	.insn	2, 0x0006
    148a:	f700                	.insn	2, 0xf700
    148c:	0006                	.insn	2, 0x0006
    148e:	f300                	.insn	2, 0xf300
    1490:	0006                	.insn	2, 0x0006
    1492:	0000                	.insn	2, 0x0000
    1494:	0800                	.insn	2, 0x0800
    1496:	0591                	.insn	2, 0x0591
    1498:	0000                	.insn	2, 0x0000
    149a:	0c10                	.insn	2, 0x0c10
    149c:	8000                	.insn	2, 0x8000
    149e:	000c1073          	.insn	4, 0x000c1073
    14a2:	1c80                	.insn	2, 0x1c80
    14a4:	0000                	.insn	2, 0x0000
    14a6:	5e00                	.insn	2, 0x5e00
    14a8:	0105                	.insn	2, 0x0105
    14aa:	059e                	.insn	2, 0x059e
    14ac:	0000                	.insn	2, 0x0000
    14ae:	0712                	.insn	2, 0x0712
    14b0:	0000                	.insn	2, 0x0000
    14b2:	0000070f          	.insn	4, 0x070f
    14b6:	aa01                	.insn	2, 0xaa01
    14b8:	0005                	.insn	2, 0x0005
    14ba:	1e00                	.insn	2, 0x1e00
    14bc:	1b000007          	.insn	4, 0x1b000007
    14c0:	02000007          	.insn	4, 0x02000007
    14c4:	05b6                	.insn	2, 0x05b6
    14c6:	0000                	.insn	2, 0x0000
    14c8:	072a                	.insn	2, 0x072a
    14ca:	0000                	.insn	2, 0x0000
    14cc:	00000727          	.insn	4, 0x0727
    14d0:	2704                	.insn	2, 0x2704
    14d2:	0006                	.insn	2, 0x0006
    14d4:	2000                	.insn	2, 0x2000
    14d6:	000c                	.insn	2, 0x000c
    14d8:	7a80                	.insn	2, 0x7a80
    14da:	000000ef          	jal	ra,14da <__stack_size-0x1ffeb26>
    14de:	052e                	.insn	2, 0x052e
    14e0:	3001                	.insn	2, 0x3001
    14e2:	0006                	.insn	2, 0x0006
    14e4:	3400                	.insn	2, 0x3400
    14e6:	32000007          	.insn	4, 0x32000007
    14ea:	01000007          	.insn	4, 0x01000007
    14ee:	063c                	.insn	2, 0x063c
    14f0:	0000                	.insn	2, 0x0000
    14f2:	0741                	.insn	2, 0x0741
    14f4:	0000                	.insn	2, 0x0000
    14f6:	073d                	.insn	2, 0x073d
    14f8:	0000                	.insn	2, 0x0000
    14fa:	0000                	.insn	2, 0x0000
    14fc:	1900                	.insn	2, 0x1900
    14fe:	04a5                	.insn	2, 0x04a5
    1500:	0000                	.insn	2, 0x0000
    1502:	3901                	.insn	2, 0x3901
    1504:	7605                	.insn	2, 0x7605
    1506:	0000                	.insn	2, 0x0000
    1508:	0800                	.insn	2, 0x0800
    150a:	5480000b          	.insn	4, 0x5480000b
    150e:	0000                	.insn	2, 0x0000
    1510:	0100                	.insn	2, 0x0100
    1512:	ff9c                	.insn	2, 0xff9c
    1514:	0004                	.insn	2, 0x0004
    1516:	0500                	.insn	2, 0x0500
    1518:	05c2                	.insn	2, 0x05c2
    151a:	0000                	.insn	2, 0x0000
    151c:	0b08                	.insn	2, 0x0b08
    151e:	8000                	.insn	2, 0x8000
    1520:	0802                	.insn	2, 0x0802
    1522:	2c80000b          	.insn	4, 0x2c80000b
    1526:	0000                	.insn	2, 0x0000
    1528:	3b00                	.insn	2, 0x3b00
    152a:	8d09                	.insn	2, 0x8d09
    152c:	0004                	.insn	2, 0x0004
    152e:	0100                	.insn	2, 0x0100
    1530:	000005d3          	.insn	4, 0x05d3
    1534:	0000075b          	.insn	4, 0x075b
    1538:	0759                	.insn	2, 0x0759
    153a:	0000                	.insn	2, 0x0000
    153c:	df02                	.insn	2, 0xdf02
    153e:	0005                	.insn	2, 0x0005
    1540:	6400                	.insn	2, 0x6400
    1542:	62000007          	.insn	4, 0x62000007
    1546:	1a000007          	.insn	4, 0x1a000007
    154a:	05ea                	.insn	2, 0x05ea
    154c:	0000                	.insn	2, 0x0000
    154e:	0092                	.insn	2, 0x0092
    1550:	0000                	.insn	2, 0x0000
    1552:	eb0c                	.insn	2, 0xeb0c
    1554:	0005                	.insn	2, 0x0005
    1556:	0400                	.insn	2, 0x0400
    1558:	05f9                	.insn	2, 0x05f9
    155a:	0000                	.insn	2, 0x0000
    155c:	0b08                	.insn	2, 0x0b08
    155e:	8000                	.insn	2, 0x8000
    1560:	9c0a                	.insn	2, 0x9c0a
    1562:	0000                	.insn	2, 0x0000
    1564:	2700                	.insn	2, 0x2700
    1566:	010c                	.insn	2, 0x010c
    1568:	060a                	.insn	2, 0x060a
    156a:	0000                	.insn	2, 0x0000
    156c:	0774                	.insn	2, 0x0774
    156e:	0000                	.insn	2, 0x0000
    1570:	0772                	.insn	2, 0x0772
    1572:	0000                	.insn	2, 0x0000
    1574:	0006151b          	.insn	4, 0x0006151b
    1578:	0100                	.insn	2, 0x0100
    157a:	005f 0000 c208      	.insn	6, 0xc2080000005f
    1580:	0005                	.insn	2, 0x0005
    1582:	3c00                	.insn	2, 0x3c00
    1584:	1b80000b          	.insn	4, 0x1b80000b
    1588:	0b3c                	.insn	2, 0x0b3c
    158a:	8000                	.insn	2, 0x8000
    158c:	000c                	.insn	2, 0x000c
    158e:	0000                	.insn	2, 0x0000
    1590:	103c                	.insn	2, 0x103c
    1592:	d301                	.insn	2, 0xd301
    1594:	0005                	.insn	2, 0x0005
    1596:	8b00                	.insn	2, 0x8b00
    1598:	89000007          	.insn	4, 0x89000007
    159c:	02000007          	.insn	4, 0x02000007
    15a0:	05df 0000 0794      	.insn	6, 0x0794000005df
    15a6:	0000                	.insn	2, 0x0000
    15a8:	0792                	.insn	2, 0x0792
    15aa:	0000                	.insn	2, 0x0000
    15ac:	ea1c                	.insn	2, 0xea1c
    15ae:	0005                	.insn	2, 0x0005
    15b0:	3c00                	.insn	2, 0x3c00
    15b2:	0c80000b          	.insn	4, 0x0c80000b
    15b6:	0000                	.insn	2, 0x0000
    15b8:	0200                	.insn	2, 0x0200
    15ba:	000005eb          	.insn	4, 0x05eb
    15be:	079d                	.insn	2, 0x079d
    15c0:	0000                	.insn	2, 0x0000
    15c2:	0000079b          	.insn	4, 0x079b
    15c6:	f908                	.insn	2, 0xf908
    15c8:	0005                	.insn	2, 0x0005
    15ca:	3c00                	.insn	2, 0x3c00
    15cc:	2380000b          	.insn	4, 0x2380000b
    15d0:	0b3c                	.insn	2, 0x0b3c
    15d2:	8000                	.insn	2, 0x8000
    15d4:	0008                	.insn	2, 0x0008
    15d6:	0000                	.insn	2, 0x0000
    15d8:	0a010c27          	.insn	4, 0x0a010c27
    15dc:	0006                	.insn	2, 0x0006
    15de:	a500                	.insn	2, 0xa500
    15e0:	a3000007          	.insn	4, 0xa3000007
    15e4:	0c000007          	.insn	4, 0x0c000007
    15e8:	0615                	.insn	2, 0x0615
    15ea:	0000                	.insn	2, 0x0000
    15ec:	0000                	.insn	2, 0x0000
    15ee:	0000                	.insn	2, 0x0000
    15f0:	021d                	.insn	2, 0x021d
    15f2:	0005                	.insn	2, 0x0005
    15f4:	0100                	.insn	2, 0x0100
    15f6:	0631                	.insn	2, 0x0631
    15f8:	0af4                	.insn	2, 0x0af4
    15fa:	8000                	.insn	2, 0x8000
    15fc:	0014                	.insn	2, 0x0014
    15fe:	0000                	.insn	2, 0x0000
    1600:	9c01                	.insn	2, 0x9c01
    1602:	058a                	.insn	2, 0x058a
    1604:	0000                	.insn	2, 0x0000
    1606:	631e                	.insn	2, 0x631e
    1608:	0068                	.insn	2, 0x0068
    160a:	3101                	.insn	2, 0x3101
    160c:	8a15                	.insn	2, 0x8a15
    160e:	0005                	.insn	2, 0x0005
    1610:	0100                	.insn	2, 0x0100
    1612:	085a                	.insn	2, 0x085a
    1614:	0591                	.insn	2, 0x0591
    1616:	0000                	.insn	2, 0x0000
    1618:	0af4                	.insn	2, 0x0af4
    161a:	8000                	.insn	2, 0x8000
    161c:	f402                	.insn	2, 0xf402
    161e:	000a                	.insn	2, 0x000a
    1620:	1080                	.insn	2, 0x1080
    1622:	0000                	.insn	2, 0x0000
    1624:	3600                	.insn	2, 0x3600
    1626:	0105                	.insn	2, 0x0105
    1628:	059e                	.insn	2, 0x059e
    162a:	0000                	.insn	2, 0x0000
    162c:	07b1                	.insn	2, 0x07b1
    162e:	0000                	.insn	2, 0x0000
    1630:	000007af          	.insn	4, 0x07af
    1634:	aa01                	.insn	2, 0xaa01
    1636:	0005                	.insn	2, 0x0005
    1638:	ba00                	.insn	2, 0xba00
    163a:	b8000007          	.insn	4, 0xb8000007
    163e:	02000007          	.insn	4, 0x02000007
    1642:	05b6                	.insn	2, 0x05b6
    1644:	0000                	.insn	2, 0x0000
    1646:	000007c7          	.insn	4, 0x07c7
    164a:	07c5                	.insn	2, 0x07c5
    164c:	0000                	.insn	2, 0x0000
    164e:	2704                	.insn	2, 0x2704
    1650:	0006                	.insn	2, 0x0006
    1652:	f800                	.insn	2, 0xf800
    1654:	000a                	.insn	2, 0x000a
    1656:	0880                	.insn	2, 0x0880
    1658:	0000008b          	.insn	4, 0x008b
    165c:	052e                	.insn	2, 0x052e
    165e:	3001                	.insn	2, 0x3001
    1660:	0006                	.insn	2, 0x0006
    1662:	d000                	.insn	2, 0xd000
    1664:	ce000007          	.insn	4, 0xce000007
    1668:	01000007          	.insn	4, 0x01000007
    166c:	063c                	.insn	2, 0x063c
    166e:	0000                	.insn	2, 0x0000
    1670:	07dd                	.insn	2, 0x07dd
    1672:	0000                	.insn	2, 0x0000
    1674:	000007db          	.insn	4, 0x07db
    1678:	0000                	.insn	2, 0x0000
    167a:	0300                	.insn	2, 0x0300
    167c:	0801                	.insn	2, 0x0801
    167e:	0249                	.insn	2, 0x0249
    1680:	0000                	.insn	2, 0x0000
    1682:	9d1f 0004 0100      	.insn	6, 0x010000049d1f
    1688:	0d2a                	.insn	2, 0x0d2a
    168a:	c201                	.insn	2, 0xc201
    168c:	0005                	.insn	2, 0x0005
    168e:	0900                	.insn	2, 0x0900
    1690:	756e                	.insn	2, 0x756e
    1692:	006d                	.insn	2, 0x006d
    1694:	2a01                	.insn	2, 0x2a01
    1696:	9019                	.insn	2, 0x9019
    1698:	0000                	.insn	2, 0x0000
    169a:	0900                	.insn	2, 0x0900
    169c:	6176                	.insn	2, 0x6176
    169e:	006c                	.insn	2, 0x006c
    16a0:	2a01                	.insn	2, 0x2a01
    16a2:	9022                	.insn	2, 0x9022
    16a4:	0000                	.insn	2, 0x0000
    16a6:	0700                	.insn	2, 0x0700
    16a8:	000004fb          	.insn	4, 0x04fb
    16ac:	092c                	.insn	2, 0x092c
    16ae:	0090                	.insn	2, 0x0090
    16b0:	0000                	.insn	2, 0x0000
    16b2:	0d00                	.insn	2, 0x0d00
    16b4:	0495                	.insn	2, 0x0495
    16b6:	0000                	.insn	2, 0x0000
    16b8:	2301                	.insn	2, 0x2301
    16ba:	900c                	.insn	2, 0x900c
    16bc:	0000                	.insn	2, 0x0000
    16be:	0100                	.insn	2, 0x0100
    16c0:	05f9                	.insn	2, 0x05f9
    16c2:	0000                	.insn	2, 0x0000
    16c4:	6e09                	.insn	2, 0x6e09
    16c6:	6d75                	.insn	2, 0x6d75
    16c8:	0100                	.insn	2, 0x0100
    16ca:	00901823          	sh	s1,16(zero) # 10 <__stack_size-0x1fffff0>
    16ce:	0000                	.insn	2, 0x0000
    16d0:	0004fb07          	.insn	4, 0x0004fb07
    16d4:	2500                	.insn	2, 0x2500
    16d6:	9009                	.insn	2, 0x9009
    16d8:	0000                	.insn	2, 0x0000
    16da:	2000                	.insn	2, 0x2000
    16dc:	5f0e                	.insn	2, 0x5f0e
    16de:	765f 0100 0c27      	.insn	6, 0x0c270100765f
    16e4:	0084                	.insn	2, 0x0084
    16e6:	0000                	.insn	2, 0x0000
    16e8:	0000                	.insn	2, 0x0000
    16ea:	cf0d                	.insn	2, 0xcf0d
    16ec:	0004                	.insn	2, 0x0004
    16ee:	0200                	.insn	2, 0x0200
    16f0:	1234                	.insn	2, 0x1234
    16f2:	0084                	.insn	2, 0x0084
    16f4:	0000                	.insn	2, 0x0000
    16f6:	00062203          	lw	tp,0(a2)
    16fa:	0f00                	.insn	2, 0x0f00
    16fc:	0468                	.insn	2, 0x0468
    16fe:	0000                	.insn	2, 0x0000
    1700:	3334                	.insn	2, 0x3334
    1702:	0622                	.insn	2, 0x0622
    1704:	0000                	.insn	2, 0x0000
    1706:	760e                	.insn	2, 0x760e
    1708:	6c61                	.insn	2, 0x6c61
    170a:	0200                	.insn	2, 0x0200
    170c:	0635                	.insn	2, 0x0635
    170e:	0084                	.insn	2, 0x0084
    1710:	0000                	.insn	2, 0x0000
    1712:	0a00                	.insn	2, 0x0a00
    1714:	000000cf          	.insn	4, 0x00cf
    1718:	db21                	.insn	2, 0xdb21
    171a:	0004                	.insn	2, 0x0004
    171c:	0200                	.insn	2, 0x0200
    171e:	1430                	.insn	2, 0x1430
    1720:	61760903          	lb	s2,1559(a2)
    1724:	006c                	.insn	2, 0x006c
    1726:	3002                	.insn	2, 0x3002
    1728:	8424                	.insn	2, 0x8424
    172a:	0000                	.insn	2, 0x0000
    172c:	0f00                	.insn	2, 0x0f00
    172e:	0468                	.insn	2, 0x0468
    1730:	0000                	.insn	2, 0x0000
    1732:	3830                	.insn	2, 0x3830
    1734:	00c9                	.insn	2, 0x00c9
    1736:	0000                	.insn	2, 0x0000
    1738:	0000                	.insn	2, 0x0000
    173a:	0000057b          	.insn	4, 0x057b
    173e:	0005                	.insn	2, 0x0005
    1740:	0401                	.insn	2, 0x0401
    1742:	059e                	.insn	2, 0x059e
    1744:	0000                	.insn	2, 0x0000
    1746:	8012                	.insn	2, 0x8012
    1748:	0002                	.insn	2, 0x0002
    174a:	0100                	.insn	2, 0x0100
    174c:	0156                	.insn	2, 0x0156
    174e:	0000                	.insn	2, 0x0000
    1750:	0000                	.insn	2, 0x0000
    1752:	0000                	.insn	2, 0x0000
    1754:	0c44                	.insn	2, 0x0c44
    1756:	8000                	.insn	2, 0x8000
    1758:	069c                	.insn	2, 0x069c
    175a:	0000                	.insn	2, 0x0000
    175c:	1429                	.insn	2, 0x1429
    175e:	0000                	.insn	2, 0x0000
    1760:	0804                	.insn	2, 0x0804
    1762:	00008107          	.insn	4, 0x8107
    1766:	0400                	.insn	2, 0x0400
    1768:	0704                	.insn	2, 0x0704
    176a:	0000008b          	.insn	4, 0x008b
    176e:	0104                	.insn	2, 0x0104
    1770:	4008                	.insn	2, 0x4008
    1772:	0002                	.insn	2, 0x0002
    1774:	1300                	.insn	2, 0x1300
    1776:	0046                	.insn	2, 0x0046
    1778:	0000                	.insn	2, 0x0000
    177a:	3414                	.insn	2, 0x3414
    177c:	0000                	.insn	2, 0x0000
    177e:	0000                	.insn	2, 0x0000
    1780:	c515                	.insn	2, 0xc515
    1782:	0004                	.insn	2, 0x0004
    1784:	0300                	.insn	2, 0x0300
    1786:	00520f0b          	.insn	4, 0x00520f0b
    178a:	0000                	.insn	2, 0x0000
    178c:	00003b0b          	.insn	4, 0x3b0b
    1790:	0e00                	.insn	2, 0x0e00
    1792:	053c                	.insn	2, 0x053c
    1794:	0000                	.insn	2, 0x0000
    1796:	1b28                	.insn	2, 0x1b28
    1798:	0062                	.insn	2, 0x0062
    179a:	0000                	.insn	2, 0x0000
    179c:	0416                	.insn	2, 0x0416
    179e:	051a                	.insn	2, 0x051a
    17a0:	0000                	.insn	2, 0x0000
    17a2:	430e                	.insn	2, 0x430e
    17a4:	0005                	.insn	2, 0x0005
    17a6:	6700                	.insn	2, 0x6700
    17a8:	5718                	.insn	2, 0x5718
    17aa:	0000                	.insn	2, 0x0000
    17ac:	1700                	.insn	2, 0x1700
    17ae:	0046                	.insn	2, 0x0046
    17b0:	0000                	.insn	2, 0x0000
    17b2:	1301                	.insn	2, 0x1301
    17b4:	0508                	.insn	2, 0x0508
    17b6:	00424403          	lbu	s0,4(tp) # 4 <__stack_size-0x1fffffc>
    17ba:	1880                	.insn	2, 0x1880
    17bc:	052c                	.insn	2, 0x052c
    17be:	0000                	.insn	2, 0x0000
    17c0:	1401                	.insn	2, 0x1401
    17c2:	930e                	.insn	2, 0x930e
    17c4:	0000                	.insn	2, 0x0000
    17c6:	0500                	.insn	2, 0x0500
    17c8:	00424003          	lbu	zero,4(tp) # 4 <__stack_size-0x1fffffc>
    17cc:	0b80                	.insn	2, 0x0b80
    17ce:	0098                	.insn	2, 0x0098
    17d0:	0000                	.insn	2, 0x0000
    17d2:	0104                	.insn	2, 0x0104
    17d4:	4908                	.insn	2, 0x4908
    17d6:	0002                	.insn	2, 0x0002
    17d8:	1900                	.insn	2, 0x1900
    17da:	0098                	.insn	2, 0x0098
    17dc:	0000                	.insn	2, 0x0000
    17de:	2b1a                	.insn	2, 0x2b1a
    17e0:	01000003          	lb	zero,16(zero) # 10 <__stack_size-0x1fffff0>
    17e4:	0692                	.insn	2, 0x0692
    17e6:	0cec                	.insn	2, 0x0cec
    17e8:	8000                	.insn	2, 0x8000
    17ea:	05f4                	.insn	2, 0x05f4
    17ec:	0000                	.insn	2, 0x0000
    17ee:	9c01                	.insn	2, 0x9c01
    17f0:	0420                	.insn	2, 0x0420
    17f2:	0000                	.insn	2, 0x0000
    17f4:	746d661b          	.insn	4, 0x746d661b
    17f8:	0100                	.insn	2, 0x0100
    17fa:	04200e93          	addi	t4,zero,66
    17fe:	0000                	.insn	2, 0x0000
    1800:	07f9                	.insn	2, 0x07f9
    1802:	0000                	.insn	2, 0x0000
    1804:	000007f3          	.insn	4, 0x07f3
    1808:	1d1c                	.insn	2, 0x1d1c
    180a:	7261                	.insn	2, 0x7261
    180c:	0070                	.insn	2, 0x0070
    180e:	9701                	.insn	2, 0x9701
    1810:	680a                	.insn	2, 0x680a
    1812:	0000                	.insn	2, 0x0000
    1814:	0300                	.insn	2, 0x0300
    1816:	8c91                	.insn	2, 0x8c91
    1818:	057f 0425 0000 0d28 	.insn	10, 0x80000d2800000425057f
    1820:	8000 
    1822:	1c08                	.insn	2, 0x1c08
    1824:	0001                	.insn	2, 0x0001
    1826:	9b00                	.insn	2, 0x9b00
    1828:	0102                	.insn	2, 0x0102
    182a:	0432                	.insn	2, 0x0432
    182c:	0000                	.insn	2, 0x0000
    182e:	084c                	.insn	2, 0x084c
    1830:	0000                	.insn	2, 0x0000
    1832:	0818                	.insn	2, 0x0818
    1834:	0000                	.insn	2, 0x0000
    1836:	3d01                	.insn	2, 0x3d01
    1838:	0004                	.insn	2, 0x0004
    183a:	0c00                	.insn	2, 0x0c00
    183c:	0009                	.insn	2, 0x0009
    183e:	e200                	.insn	2, 0xe200
    1840:	0008                	.insn	2, 0x0008
    1842:	0300                	.insn	2, 0x0300
    1844:	0448                	.insn	2, 0x0448
    1846:	0000                	.insn	2, 0x0000
    1848:	0988                	.insn	2, 0x0988
    184a:	0000                	.insn	2, 0x0000
    184c:	00000967          	jalr	s2,0(zero) # 0 <__stack_size-0x2000000>
    1850:	00045103          	lhu	sp,0(s0)
    1854:	f500                	.insn	2, 0xf500
    1856:	0009                	.insn	2, 0x0009
    1858:	d100                	.insn	2, 0xd100
    185a:	0009                	.insn	2, 0x0009
    185c:	0300                	.insn	2, 0x0300
    185e:	045a                	.insn	2, 0x045a
    1860:	0000                	.insn	2, 0x0000
    1862:	0add                	.insn	2, 0x0add
    1864:	0000                	.insn	2, 0x0000
    1866:	0a59                	.insn	2, 0x0a59
    1868:	0000                	.insn	2, 0x0000
    186a:	00046303          	.insn	4, 0x00046303
    186e:	e600                	.insn	2, 0xe600
    1870:	e200000b          	.insn	4, 0xe200000b
    1874:	0300000b          	.insn	4, 0x0300000b
    1878:	046c                	.insn	2, 0x046c
    187a:	0000                	.insn	2, 0x0000
    187c:	0c1a                	.insn	2, 0x0c1a
    187e:	0000                	.insn	2, 0x0000
    1880:	0bf6                	.insn	2, 0x0bf6
    1882:	0000                	.insn	2, 0x0000
    1884:	00047503          	.insn	4, 0x00047503
    1888:	7c00                	.insn	2, 0x7c00
    188a:	000c                	.insn	2, 0x000c
    188c:	6600                	.insn	2, 0x6600
    188e:	000c                	.insn	2, 0x000c
    1890:	0f00                	.insn	2, 0x0f00
    1892:	047e                	.insn	2, 0x047e
    1894:	0000                	.insn	2, 0x0000
    1896:	7f909103          	lh	sp,2041(ra)
    189a:	00048703          	lb	a4,0(s1)
    189e:	cf00                	.insn	2, 0xcf00
    18a0:	000c                	.insn	2, 0x000c
    18a2:	b200                	.insn	2, 0xb200
    18a4:	000c                	.insn	2, 0x000c
    18a6:	0300                	.insn	2, 0x0300
    18a8:	0490                	.insn	2, 0x0490
    18aa:	0000                	.insn	2, 0x0000
    18ac:	00000d63          	beq	zero,zero,18c6 <__stack_size-0x1ffe73a>
    18b0:	0d19                	.insn	2, 0x0d19
    18b2:	0000                	.insn	2, 0x0000
    18b4:	0004990f          	.insn	4, 0x0004990f
    18b8:	0100                	.insn	2, 0x0100
    18ba:	0664                	.insn	2, 0x0664
    18bc:	04d0                	.insn	2, 0x04d0
    18be:	0000                	.insn	2, 0x0000
    18c0:	0fc8                	.insn	2, 0x0fc8
    18c2:	8000                	.insn	2, 0x8000
    18c4:	2cca                	.insn	2, 0x2cca
    18c6:	0001                	.insn	2, 0x0001
    18c8:	8d00                	.insn	2, 0x8d00
    18ca:	c106                	.insn	2, 0xc106
    18cc:	0001                	.insn	2, 0x0001
    18ce:	0100                	.insn	2, 0x0100
    18d0:	04da                	.insn	2, 0x04da
    18d2:	0000                	.insn	2, 0x0000
    18d4:	0e08                	.insn	2, 0x0e08
    18d6:	0000                	.insn	2, 0x0000
    18d8:	0e00                	.insn	2, 0x0e00
    18da:	0000                	.insn	2, 0x0000
    18dc:	d005                	.insn	2, 0xd005
    18de:	0004                	.insn	2, 0x0004
    18e0:	cc00                	.insn	2, 0xcc00
    18e2:	ce80000f          	.insn	4, 0xce80000f
    18e6:	0146                	.insn	2, 0x0146
    18e8:	0000                	.insn	2, 0x0000
    18ea:	061a                	.insn	2, 0x061a
    18ec:	da01                	.insn	2, 0xda01
    18ee:	0004                	.insn	2, 0x0004
    18f0:	1b00                	.insn	2, 0x1b00
    18f2:	000e                	.insn	2, 0x000e
    18f4:	1700                	.insn	2, 0x1700
    18f6:	000e                	.insn	2, 0x000e
    18f8:	0000                	.insn	2, 0x0000
    18fa:	0600                	.insn	2, 0x0600
    18fc:	04d0                	.insn	2, 0x04d0
    18fe:	0000                	.insn	2, 0x0000
    1900:	0d74                	.insn	2, 0x0d74
    1902:	8000                	.insn	2, 0x8000
    1904:	561a                	.insn	2, 0x561a
    1906:	0001                	.insn	2, 0x0001
    1908:	5400                	.insn	2, 0x5400
    190a:	0404                	.insn	2, 0x0404
    190c:	0002                	.insn	2, 0x0002
    190e:	0100                	.insn	2, 0x0100
    1910:	04da                	.insn	2, 0x04da
    1912:	0000                	.insn	2, 0x0000
    1914:	0e29                	.insn	2, 0x0e29
    1916:	0000                	.insn	2, 0x0000
    1918:	00000e23          	sb	zero,28(zero) # 1c <__stack_size-0x1ffffe4>
    191c:	d00c                	.insn	2, 0xd00c
    191e:	0004                	.insn	2, 0x0004
    1920:	7000                	.insn	2, 0x7000
    1922:	0011                	.insn	2, 0x0011
    1924:	6b80                	.insn	2, 0x6b80
    1926:	7001                	.insn	2, 0x7001
    1928:	0011                	.insn	2, 0x0011
    192a:	1080                	.insn	2, 0x1080
    192c:	0000                	.insn	2, 0x0000
    192e:	0100                	.insn	2, 0x0100
    1930:	04da                	.insn	2, 0x04da
    1932:	0000                	.insn	2, 0x0000
    1934:	0e3c                	.insn	2, 0x0e3c
    1936:	0000                	.insn	2, 0x0000
    1938:	0e38                	.insn	2, 0x0e38
    193a:	0000                	.insn	2, 0x0000
    193c:	0000                	.insn	2, 0x0000
    193e:	d006                	.insn	2, 0xd006
    1940:	0004                	.insn	2, 0x0004
    1942:	8000                	.insn	2, 0x8000
    1944:	000e                	.insn	2, 0x000e
    1946:	5a80                	.insn	2, 0x5a80
    1948:	0000016b          	.insn	4, 0x016b
    194c:	0247047b          	.insn	4, 0x0247047b
    1950:	0000                	.insn	2, 0x0000
    1952:	da01                	.insn	2, 0xda01
    1954:	0004                	.insn	2, 0x0004
    1956:	4a00                	.insn	2, 0x4a00
    1958:	000e                	.insn	2, 0x000e
    195a:	4400                	.insn	2, 0x4400
    195c:	000e                	.insn	2, 0x000e
    195e:	0c00                	.insn	2, 0x0c00
    1960:	04d0                	.insn	2, 0x04d0
    1962:	0000                	.insn	2, 0x0000
    1964:	11dc                	.insn	2, 0x11dc
    1966:	8000                	.insn	2, 0x8000
    1968:	0186                	.insn	2, 0x0186
    196a:	11dc                	.insn	2, 0x11dc
    196c:	8000                	.insn	2, 0x8000
    196e:	0014                	.insn	2, 0x0014
    1970:	0000                	.insn	2, 0x0000
    1972:	da01                	.insn	2, 0xda01
    1974:	0004                	.insn	2, 0x0004
    1976:	5d00                	.insn	2, 0x5d00
    1978:	000e                	.insn	2, 0x000e
    197a:	5900                	.insn	2, 0x5900
    197c:	000e                	.insn	2, 0x000e
    197e:	0000                	.insn	2, 0x0000
    1980:	0600                	.insn	2, 0x0600
    1982:	04d0                	.insn	2, 0x04d0
    1984:	0000                	.insn	2, 0x0000
    1986:	0f68                	.insn	2, 0x0f68
    1988:	8000                	.insn	2, 0x8000
    198a:	769f 0001 8c00      	.insn	6, 0x8c000001769f
    1990:	951f 0002 0100      	.insn	6, 0x01000002951f
    1996:	04da                	.insn	2, 0x04da
    1998:	0000                	.insn	2, 0x0000
    199a:	0e6d                	.insn	2, 0x0e6d
    199c:	0000                	.insn	2, 0x0000
    199e:	0e65                	.insn	2, 0x0e65
    19a0:	0000                	.insn	2, 0x0000
    19a2:	d010                	.insn	2, 0xd010
    19a4:	0004                	.insn	2, 0x0004
    19a6:	6c00                	.insn	2, 0x6c00
    19a8:	a380000f          	.insn	4, 0xa380000f
    19ac:	0f6c                	.insn	2, 0x0f6c
    19ae:	8000                	.insn	2, 0x8000
    19b0:	0010                	.insn	2, 0x0010
    19b2:	0000                	.insn	2, 0x0000
    19b4:	da01                	.insn	2, 0xda01
    19b6:	0004                	.insn	2, 0x0004
    19b8:	8000                	.insn	2, 0x8000
    19ba:	000e                	.insn	2, 0x000e
    19bc:	7c00                	.insn	2, 0x7c00
    19be:	000e                	.insn	2, 0x000e
    19c0:	0800                	.insn	2, 0x0800
    19c2:	0f7c                	.insn	2, 0x0f7c
    19c4:	8000                	.insn	2, 0x8000
    19c6:	0109                	.insn	2, 0x0109
    19c8:	025a                	.insn	2, 0x025a
    19ca:	0089                	.insn	2, 0x0089
    19cc:	0000                	.insn	2, 0x0000
    19ce:	0600                	.insn	2, 0x0600
    19d0:	04d0                	.insn	2, 0x04d0
    19d2:	0000                	.insn	2, 0x0000
    19d4:	0ff4                	.insn	2, 0x0ff4
    19d6:	8000                	.insn	2, 0x8000
    19d8:	8bde                	.insn	2, 0x8bde
    19da:	0001                	.insn	2, 0x0001
    19dc:	8e00                	.insn	2, 0x8e00
    19de:	0002e113          	ori	sp,t0,0
    19e2:	0100                	.insn	2, 0x0100
    19e4:	04da                	.insn	2, 0x04da
    19e6:	0000                	.insn	2, 0x0000
    19e8:	0e90                	.insn	2, 0x0e90
    19ea:	0000                	.insn	2, 0x0000
    19ec:	0e88                	.insn	2, 0x0e88
    19ee:	0000                	.insn	2, 0x0000
    19f0:	d005                	.insn	2, 0xd005
    19f2:	0004                	.insn	2, 0x0004
    19f4:	1400                	.insn	2, 0x1400
    19f6:	0010                	.insn	2, 0x0010
    19f8:	f080                	.insn	2, 0xf080
    19fa:	01a5                	.insn	2, 0x01a5
    19fc:	0000                	.insn	2, 0x0000
    19fe:	061a                	.insn	2, 0x061a
    1a00:	da01                	.insn	2, 0xda01
    1a02:	0004                	.insn	2, 0x0004
    1a04:	a700                	.insn	2, 0xa700
    1a06:	000e                	.insn	2, 0x000e
    1a08:	a300                	.insn	2, 0xa300
    1a0a:	000e                	.insn	2, 0x000e
    1a0c:	0800                	.insn	2, 0x0800
    1a0e:	1024                	.insn	2, 0x1024
    1a10:	8000                	.insn	2, 0x8000
    1a12:	0109                	.insn	2, 0x0109
    1a14:	025a                	.insn	2, 0x025a
    1a16:	0085                	.insn	2, 0x0085
    1a18:	0000                	.insn	2, 0x0000
    1a1a:	0d00                	.insn	2, 0x0d00
    1a1c:	04d0                	.insn	2, 0x04d0
    1a1e:	0000                	.insn	2, 0x0000
    1a20:	1058                	.insn	2, 0x1058
    1a22:	8000                	.insn	2, 0x8000
    1a24:	0104                	.insn	2, 0x0104
    1a26:	01b0                	.insn	2, 0x01b0
    1a28:	0000                	.insn	2, 0x0000
    1a2a:	0470                	.insn	2, 0x0470
    1a2c:	0325                	.insn	2, 0x0325
    1a2e:	0000                	.insn	2, 0x0000
    1a30:	da01                	.insn	2, 0xda01
    1a32:	0004                	.insn	2, 0x0004
    1a34:	b900                	.insn	2, 0xb900
    1a36:	000e                	.insn	2, 0x000e
    1a38:	b100                	.insn	2, 0xb100
    1a3a:	000e                	.insn	2, 0x000e
    1a3c:	0c00                	.insn	2, 0x0c00
    1a3e:	04d0                	.insn	2, 0x04d0
    1a40:	0000                	.insn	2, 0x0000
    1a42:	11f0                	.insn	2, 0x11f0
    1a44:	8000                	.insn	2, 0x8000
    1a46:	018d                	.insn	2, 0x018d
    1a48:	11f0                	.insn	2, 0x11f0
    1a4a:	8000                	.insn	2, 0x8000
    1a4c:	0010                	.insn	2, 0x0010
    1a4e:	0000                	.insn	2, 0x0000
    1a50:	da01                	.insn	2, 0xda01
    1a52:	0004                	.insn	2, 0x0004
    1a54:	cc00                	.insn	2, 0xcc00
    1a56:	000e                	.insn	2, 0x000e
    1a58:	c800                	.insn	2, 0xc800
    1a5a:	000e                	.insn	2, 0x000e
    1a5c:	0000                	.insn	2, 0x0000
    1a5e:	0d00                	.insn	2, 0x0d00
    1a60:	04ba                	.insn	2, 0x04ba
    1a62:	0000                	.insn	2, 0x0000
    1a64:	1274                	.insn	2, 0x1274
    1a66:	8000                	.insn	2, 0x8000
    1a68:	01c001bb          	.insn	4, 0x01c001bb
    1a6c:	0000                	.insn	2, 0x0000
    1a6e:	046c                	.insn	2, 0x046c
    1a70:	0386                	.insn	2, 0x0386
    1a72:	0000                	.insn	2, 0x0000
    1a74:	c401                	.insn	2, 0xc401
    1a76:	0004                	.insn	2, 0x0004
    1a78:	e400                	.insn	2, 0xe400
    1a7a:	000e                	.insn	2, 0x000e
    1a7c:	d400                	.insn	2, 0xd400
    1a7e:	000e                	.insn	2, 0x000e
    1a80:	0700                	.insn	2, 0x0700
    1a82:	04d0                	.insn	2, 0x04d0
    1a84:	0000                	.insn	2, 0x0000
    1a86:	1104                	.insn	2, 0x1104
    1a88:	8000                	.insn	2, 0x8000
    1a8a:	013c                	.insn	2, 0x013c
    1a8c:	01da                	.insn	2, 0x01da
    1a8e:	0000                	.insn	2, 0x0000
    1a90:	0330                	.insn	2, 0x0330
    1a92:	da01                	.insn	2, 0xda01
    1a94:	0004                	.insn	2, 0x0004
    1a96:	0900                	.insn	2, 0x0900
    1a98:	0100000f          	fence	w,unknown
    1a9c:	0700000f          	fence	orw,unknown
    1aa0:	04d0                	.insn	2, 0x04d0
    1aa2:	0000                	.insn	2, 0x0000
    1aa4:	1108                	.insn	2, 0x1108
    1aa6:	8000                	.insn	2, 0x8000
    1aa8:	0140                	.insn	2, 0x0140
    1aaa:	01ea                	.insn	2, 0x01ea
    1aac:	0000                	.insn	2, 0x0000
    1aae:	061a                	.insn	2, 0x061a
    1ab0:	da01                	.insn	2, 0xda01
    1ab2:	0004                	.insn	2, 0x0004
    1ab4:	1c00                	.insn	2, 0x1c00
    1ab6:	1800000f          	.insn	4, 0x1800000f
    1aba:	0000000f          	fence	unknown,unknown
    1abe:	0000                	.insn	2, 0x0000
    1ac0:	d00d                	.insn	2, 0xd00d
    1ac2:	0004                	.insn	2, 0x0004
    1ac4:	2c00                	.insn	2, 0x2c00
    1ac6:	0011                	.insn	2, 0x0011
    1ac8:	4e80                	.insn	2, 0x4e80
    1aca:	f501                	.insn	2, 0xf501
    1acc:	0001                	.insn	2, 0x0001
    1ace:	6d00                	.insn	2, 0x6d00
    1ad0:	d414                	.insn	2, 0xd414
    1ad2:	01000003          	lb	zero,16(zero) # 10 <__stack_size-0x1fffff0>
    1ad6:	04da                	.insn	2, 0x04da
    1ad8:	0000                	.insn	2, 0x0000
    1ada:	0f2c                	.insn	2, 0x0f2c
    1adc:	0000                	.insn	2, 0x0000
    1ade:	0f24                	.insn	2, 0x0f24
    1ae0:	0000                	.insn	2, 0x0000
    1ae2:	0004d007          	.insn	4, 0x0004d007
    1ae6:	5000                	.insn	2, 0x5000
    1ae8:	0011                	.insn	2, 0x0011
    1aea:	6180                	.insn	2, 0x6180
    1aec:	0a01                	.insn	2, 0x0a01
    1aee:	0002                	.insn	2, 0x0002
    1af0:	1a00                	.insn	2, 0x1a00
    1af2:	0106                	.insn	2, 0x0106
    1af4:	04da                	.insn	2, 0x04da
    1af6:	0000                	.insn	2, 0x0000
    1af8:	00000f43          	.insn	4, 0x0f43
    1afc:	00000f3f 00116008 	.insn	8, 0x0011600800000f3f
    1b04:	0980                	.insn	2, 0x0980
    1b06:	5a01                	.insn	2, 0x5a01
    1b08:	8302                	.insn	2, 0x8302
    1b0a:	0000                	.insn	2, 0x0000
    1b0c:	0000                	.insn	2, 0x0000
    1b0e:	0004d007          	.insn	4, 0x0004d007
    1b12:	2400                	.insn	2, 0x2400
    1b14:	0012                	.insn	2, 0x0012
    1b16:	9d80                	.insn	2, 0x9d80
    1b18:	1501                	.insn	2, 0x1501
    1b1a:	0002                	.insn	2, 0x0002
    1b1c:	6b00                	.insn	2, 0x6b00
    1b1e:	0120                	.insn	2, 0x0120
    1b20:	04da                	.insn	2, 0x04da
    1b22:	0000                	.insn	2, 0x0000
    1b24:	0f55                	.insn	2, 0x0f55
    1b26:	0000                	.insn	2, 0x0000
    1b28:	0f4d                	.insn	2, 0x0f4d
    1b2a:	0000                	.insn	2, 0x0000
    1b2c:	0004d007          	.insn	4, 0x0004d007
    1b30:	4400                	.insn	2, 0x4400
    1b32:	0012                	.insn	2, 0x0012
    1b34:	af80                	.insn	2, 0xaf80
    1b36:	2f01                	.insn	2, 0x2f01
    1b38:	0002                	.insn	2, 0x0002
    1b3a:	1a00                	.insn	2, 0x1a00
    1b3c:	0106                	.insn	2, 0x0106
    1b3e:	04da                	.insn	2, 0x04da
    1b40:	0000                	.insn	2, 0x0000
    1b42:	0f6c                	.insn	2, 0x0f6c
    1b44:	0000                	.insn	2, 0x0000
    1b46:	0f68                	.insn	2, 0x0f68
    1b48:	0000                	.insn	2, 0x0000
    1b4a:	5408                	.insn	2, 0x5408
    1b4c:	0012                	.insn	2, 0x0012
    1b4e:	0980                	.insn	2, 0x0980
    1b50:	5a01                	.insn	2, 0x5a01
    1b52:	8502                	.insn	2, 0x8502
    1b54:	0000                	.insn	2, 0x0000
    1b56:	0000                	.insn	2, 0x0000
    1b58:	0000                	.insn	2, 0x0000
    1b5a:	00009f0b          	.insn	4, 0x9f0b
    1b5e:	1e00                	.insn	2, 0x1e00
    1b60:	00000533          	add	a0,zero,zero
    1b64:	4601                	.insn	2, 0x4601
    1b66:	0106                	.insn	2, 0x0106
    1b68:	000004a3          	sb	zero,9(zero) # 9 <__stack_size-0x1fffff7>
    1b6c:	660a                	.insn	2, 0x660a
    1b6e:	746d                	.insn	2, 0x746d
    1b70:	4700                	.insn	2, 0x4700
    1b72:	200e                	.insn	2, 0x200e
    1b74:	0004                	.insn	2, 0x0004
    1b76:	0a00                	.insn	2, 0x0a00
    1b78:	7261                	.insn	2, 0x7261
    1b7a:	0070                	.insn	2, 0x0070
    1b7c:	0a48                	.insn	2, 0x0a48
    1b7e:	0068                	.insn	2, 0x0068
    1b80:	0000                	.insn	2, 0x0000
    1b82:	7202                	.insn	2, 0x7202
    1b84:	4b00                	.insn	2, 0x4b00
    1b86:	00002d0f          	.insn	4, 0x2d0f
    1b8a:	0200                	.insn	2, 0x0200
    1b8c:	0069                	.insn	2, 0x0069
    1b8e:	002d124b          	.insn	4, 0x002d124b
    1b92:	0000                	.insn	2, 0x0000
    1b94:	6a02                	.insn	2, 0x6a02
    1b96:	4b00                	.insn	2, 0x4b00
    1b98:	2d15                	.insn	2, 0x2d15
    1b9a:	0000                	.insn	2, 0x0000
    1b9c:	0200                	.insn	2, 0x0200
    1b9e:	184b0077          	.insn	4, 0x184b0077
    1ba2:	002d                	.insn	2, 0x002d
    1ba4:	0000                	.insn	2, 0x0000
    1ba6:	6602                	.insn	2, 0x6602
    1ba8:	4b00                	.insn	2, 0x4b00
    1baa:	00002d1b          	.insn	4, 0x2d1b
    1bae:	0200                	.insn	2, 0x0200
    1bb0:	0076                	.insn	2, 0x0076
    1bb2:	104c                	.insn	2, 0x104c
    1bb4:	000004a3          	sb	zero,9(zero) # 9 <__stack_size-0x1fffff7>
    1bb8:	7302                	.insn	2, 0x7302
    1bba:	4d00                	.insn	2, 0x4d00
    1bbc:	0004aa07          	.insn	4, 0x0004aa07
    1bc0:	0200                	.insn	2, 0x0200
    1bc2:	0e4d0063          	beq	s10,tp,1ca2 <__stack_size-0x1ffe35e>
    1bc6:	0098                	.insn	2, 0x0098
    1bc8:	0000                	.insn	2, 0x0000
    1bca:	6402                	.insn	2, 0x6402
    1bcc:	4d00                	.insn	2, 0x4d00
    1bce:	9811                	.insn	2, 0x9811
    1bd0:	0000                	.insn	2, 0x0000
    1bd2:	0200                	.insn	2, 0x0200
    1bd4:	0070                	.insn	2, 0x0070
    1bd6:	154d                	.insn	2, 0x154d
    1bd8:	00000093          	addi	ra,zero,0
    1bdc:	0400                	.insn	2, 0x0400
    1bde:	0704                	.insn	2, 0x0704
    1be0:	0086                	.insn	2, 0x0086
    1be2:	0000                	.insn	2, 0x0000
    1be4:	981f 0000 ba00      	.insn	6, 0xba000000981f
    1bea:	0004                	.insn	2, 0x0004
    1bec:	2000                	.insn	2, 0x2000
    1bee:	002d                	.insn	2, 0x002d
    1bf0:	0000                	.insn	2, 0x0000
    1bf2:	4b11000f          	.insn	4, 0x4b11000f
    1bf6:	0005                	.insn	2, 0x0005
    1bf8:	2b00                	.insn	2, 0x2b00
    1bfa:	04d0                	.insn	2, 0x04d0
    1bfc:	0000                	.insn	2, 0x0000
    1bfe:	730a                	.insn	2, 0x730a
    1c00:	7274                	.insn	2, 0x7274
    1c02:	2c00                	.insn	2, 0x2c00
    1c04:	200e                	.insn	2, 0x200e
    1c06:	0004                	.insn	2, 0x0004
    1c08:	0000                	.insn	2, 0x0000
    1c0a:	5111                	.insn	2, 0x5111
    1c0c:	0005                	.insn	2, 0x0005
    1c0e:	1a00                	.insn	2, 0x1a00
    1c10:	04e4                	.insn	2, 0x04e4
    1c12:	0000                	.insn	2, 0x0000
    1c14:	630a                	.insn	2, 0x630a
    1c16:	1a00                	.insn	2, 0x1a00
    1c18:	9812                	.insn	2, 0x9812
    1c1a:	0000                	.insn	2, 0x0000
    1c1c:	0000                	.insn	2, 0x0000
    1c1e:	d021                	.insn	2, 0xd021
    1c20:	0004                	.insn	2, 0x0004
    1c22:	4400                	.insn	2, 0x4400
    1c24:	000c                	.insn	2, 0x000c
    1c26:	3080                	.insn	2, 0x3080
    1c28:	0000                	.insn	2, 0x0000
    1c2a:	0100                	.insn	2, 0x0100
    1c2c:	259c                	.insn	2, 0x259c
    1c2e:	0005                	.insn	2, 0x0005
    1c30:	0100                	.insn	2, 0x0100
    1c32:	04da                	.insn	2, 0x04da
    1c34:	0000                	.insn	2, 0x0000
    1c36:	0f7c                	.insn	2, 0x0f7c
    1c38:	0000                	.insn	2, 0x0000
    1c3a:	0f76                	.insn	2, 0x0f76
    1c3c:	0000                	.insn	2, 0x0000
    1c3e:	d010                	.insn	2, 0xd010
    1c40:	0004                	.insn	2, 0x0004
    1c42:	6000                	.insn	2, 0x6000
    1c44:	000c                	.insn	2, 0x000c
    1c46:	0b80                	.insn	2, 0x0b80
    1c48:	0c60                	.insn	2, 0x0c60
    1c4a:	8000                	.insn	2, 0x8000
    1c4c:	0010                	.insn	2, 0x0010
    1c4e:	0000                	.insn	2, 0x0000
    1c50:	da01                	.insn	2, 0xda01
    1c52:	0004                	.insn	2, 0x0004
    1c54:	9700                	.insn	2, 0x9700
    1c56:	9500000f          	.insn	4, 0x9500000f
    1c5a:	0000000f          	fence	unknown,unknown
    1c5e:	2200                	.insn	2, 0x2200
    1c60:	04ba                	.insn	2, 0x04ba
    1c62:	0000                	.insn	2, 0x0000
    1c64:	0c74                	.insn	2, 0x0c74
    1c66:	8000                	.insn	2, 0x8000
    1c68:	0078                	.insn	2, 0x0078
    1c6a:	0000                	.insn	2, 0x0000
    1c6c:	9c01                	.insn	2, 0x9c01
    1c6e:	c401                	.insn	2, 0xc401
    1c70:	0004                	.insn	2, 0x0004
    1c72:	aa00                	.insn	2, 0xaa00
    1c74:	a600000f          	.insn	4, 0xa600000f
    1c78:	0500000f          	fence	ow,unknown
    1c7c:	04d0                	.insn	2, 0x04d0
    1c7e:	0000                	.insn	2, 0x0000
    1c80:	0cb8                	.insn	2, 0x0cb8
    1c82:	8000                	.insn	2, 0x8000
    1c84:	0612                	.insn	2, 0x0612
    1c86:	0001                	.insn	2, 0x0001
    1c88:	3000                	.insn	2, 0x3000
    1c8a:	04da0103          	lb	sp,77(s4)
    1c8e:	0000                	.insn	2, 0x0000
    1c90:	0fba                	.insn	2, 0x0fba
    1c92:	0000                	.insn	2, 0x0000
    1c94:	0fb6                	.insn	2, 0x0fb6
    1c96:	0000                	.insn	2, 0x0000
    1c98:	d005                	.insn	2, 0xd005
    1c9a:	0004                	.insn	2, 0x0004
    1c9c:	b000                	.insn	2, 0xb000
    1c9e:	000c                	.insn	2, 0x000c
    1ca0:	0e80                	.insn	2, 0x0e80
    1ca2:	0111                	.insn	2, 0x0111
    1ca4:	0000                	.insn	2, 0x0000
    1ca6:	061a                	.insn	2, 0x061a
    1ca8:	da01                	.insn	2, 0xda01
    1caa:	0004                	.insn	2, 0x0004
    1cac:	ca00                	.insn	2, 0xca00
    1cae:	c600000f          	.insn	4, 0xc600000f
    1cb2:	0000000f          	fence	unknown,unknown
    1cb6:	0000                	.insn	2, 0x0000
	...

Disassembly of section .debug_abbrev:

00000000 <.debug_abbrev>:
   0:	1101                	.insn	2, 0x1101
   2:	1000                	.insn	2, 0x1000
   4:	12011117          	auipc	sp,0x12011
   8:	1b0e030f          	.insn	4, 0x1b0e030f
   c:	250e                	.insn	2, 0x250e
   e:	130e                	.insn	2, 0x130e
  10:	0005                	.insn	2, 0x0005
  12:	0000                	.insn	2, 0x0000
  14:	4901                	.insn	2, 0x4901
  16:	0200                	.insn	2, 0x0200
  18:	7e18                	.insn	2, 0x7e18
  1a:	0018                	.insn	2, 0x0018
  1c:	0200                	.insn	2, 0x0200
  1e:	0148                	.insn	2, 0x0148
  20:	017d                	.insn	2, 0x017d
  22:	1301137f 18030000 	.insn	12, 0x04000000180300001301137f
  2a:	04000000 
  2e:	012e                	.insn	2, 0x012e
  30:	0e03193f 3b01213a 	.insn	8, 0x3b01213a0e03193f
  38:	490b390b          	.insn	4, 0x490b390b
  3c:	01193c13          	sltiu	s8,s2,17
  40:	05000013          	addi	zero,zero,80
  44:	0034                	.insn	2, 0x0034
  46:	213a0e03          	lb	t3,531(s4)
  4a:	3b01                	.insn	2, 0x3b01
  4c:	490b390b          	.insn	4, 0x490b390b
  50:	02193f13          	sltiu	t5,s2,33
  54:	0018                	.insn	2, 0x0018
  56:	0600                	.insn	2, 0x0600
  58:	0024                	.insn	2, 0x0024
  5a:	0b3e0b0b          	.insn	4, 0x0b3e0b0b
  5e:	00000e03          	lb	t3,0(zero) # 0 <__stack_size-0x2000000>
  62:	03000d07          	.insn	4, 0x03000d07
  66:	3a0e                	.insn	2, 0x3a0e
  68:	0221                	.insn	2, 0x0221
  6a:	0b39053b          	.insn	4, 0x0b39053b
  6e:	1349                	.insn	2, 0x1349
  70:	0b38                	.insn	2, 0x0b38
  72:	0000                	.insn	2, 0x0000
  74:	0f08                	.insn	2, 0x0f08
  76:	0b00                	.insn	2, 0x0b00
  78:	0421                	.insn	2, 0x0421
  7a:	1349                	.insn	2, 0x1349
  7c:	0000                	.insn	2, 0x0000
  7e:	2809                	.insn	2, 0x2809
  80:	0300                	.insn	2, 0x0300
  82:	1c0e                	.insn	2, 0x1c0e
  84:	0a00000b          	.insn	4, 0x0a00000b
  88:	0016                	.insn	2, 0x0016
  8a:	213a0e03          	lb	t3,531(s4)
  8e:	3b02                	.insn	2, 0x3b02
  90:	3905                	.insn	2, 0x3905
  92:	0013490b          	.insn	4, 0x0013490b
  96:	0b00                	.insn	2, 0x0b00
  98:	0148                	.insn	2, 0x0148
  9a:	017d                	.insn	2, 0x017d
  9c:	0000137f 0300340c 	.insn	12, 0x01213a0e0300340c0000137f
  a4:	01213a0e 
  a8:	0b390b3b          	.insn	4, 0x0b390b3b
  ac:	1349                	.insn	2, 0x1349
  ae:	1802                	.insn	2, 0x1802
  b0:	0000                	.insn	2, 0x0000
  b2:	210d                	.insn	2, 0x210d
  b4:	4900                	.insn	2, 0x4900
  b6:	000b2f13          	slti	t5,s6,0
  ba:	0e00                	.insn	2, 0x0e00
  bc:	0034                	.insn	2, 0x0034
  be:	213a0e03          	lb	t3,531(s4)
  c2:	3b01                	.insn	2, 0x3b01
  c4:	490b390b          	.insn	4, 0x490b390b
  c8:	b7170213          	addi	tp,a4,-1167
  cc:	1742                	.insn	2, 0x1742
  ce:	0000                	.insn	2, 0x0000
  d0:	55010b0f          	.insn	4, 0x55010b0f
  d4:	00130117          	auipc	sp,0x130
  d8:	1000                	.insn	2, 0x1000
  da:	0048                	.insn	2, 0x0048
  dc:	017d                	.insn	2, 0x017d
  de:	0000137f 49010111 	.insn	12, 0x00130113490101110000137f
  e6:	00130113 
  ea:	1200                	.insn	2, 0x1200
  ec:	0b0b0113          	addi	sp,s6,176
  f0:	213a                	.insn	2, 0x213a
  f2:	3b02                	.insn	2, 0x3b02
  f4:	3905                	.insn	2, 0x3905
  f6:	0521                	.insn	2, 0x0521
  f8:	1301                	.insn	2, 0x1301
  fa:	0000                	.insn	2, 0x0000
  fc:	03000d13          	addi	s10,zero,48
 100:	3a0e                	.insn	2, 0x3a0e
 102:	0221                	.insn	2, 0x0221
 104:	2139053b          	.insn	4, 0x2139053b
 108:	00134907          	.insn	4, 0x00134907
 10c:	1400                	.insn	2, 0x1400
 10e:	012e                	.insn	2, 0x012e
 110:	0e03193f 3b01213a 	.insn	8, 0x3b01213a0e03193f
 118:	3905                	.insn	2, 0x3905
 11a:	0121                	.insn	2, 0x0121
 11c:	1349                	.insn	2, 0x1349
 11e:	0111                	.insn	2, 0x0111
 120:	0612                	.insn	2, 0x0612
 122:	1840                	.insn	2, 0x1840
 124:	197a                	.insn	2, 0x197a
 126:	1301                	.insn	2, 0x1301
 128:	0000                	.insn	2, 0x0000
 12a:	3415                	.insn	2, 0x3415
 12c:	0300                	.insn	2, 0x0300
 12e:	3a0e                	.insn	2, 0x3a0e
 130:	0121                	.insn	2, 0x0121
 132:	0b39053b          	.insn	4, 0x0b39053b
 136:	1349                	.insn	2, 0x1349
 138:	1702                	.insn	2, 0x1702
 13a:	001742b7          	lui	t0,0x174
 13e:	1600                	.insn	2, 0x1600
 140:	0005                	.insn	2, 0x0005
 142:	213a0e03          	lb	t3,531(s4)
 146:	3b01                	.insn	2, 0x3b01
 148:	490b390b          	.insn	4, 0x490b390b
 14c:	b7170213          	addi	tp,a4,-1167
 150:	1742                	.insn	2, 0x1742
 152:	0000                	.insn	2, 0x0000
 154:	03000517          	auipc	a0,0x3000
 158:	3a0e                	.insn	2, 0x3a0e
 15a:	0121                	.insn	2, 0x0121
 15c:	0b39053b          	.insn	4, 0x0b39053b
 160:	1349                	.insn	2, 0x1349
 162:	1702                	.insn	2, 0x1702
 164:	001742b7          	lui	t0,0x174
 168:	1800                	.insn	2, 0x1800
 16a:	0148                	.insn	2, 0x0148
 16c:	017d                	.insn	2, 0x017d
 16e:	0182                	.insn	2, 0x0182
 170:	7f19                	.insn	2, 0x7f19
 172:	19000013          	addi	zero,zero,400
 176:	0111                	.insn	2, 0x0111
 178:	0e25                	.insn	2, 0x0e25
 17a:	1f030b13          	addi	s6,t1,496 # 9f01f0 <__stack_size-0x160fe10>
 17e:	17551f1b          	.insn	4, 0x17551f1b
 182:	0111                	.insn	2, 0x0111
 184:	1710                	.insn	2, 0x1710
 186:	0000                	.insn	2, 0x0000
 188:	041a                	.insn	2, 0x041a
 18a:	3e01                	.insn	2, 0x3e01
 18c:	490b0b0b          	.insn	4, 0x490b0b0b
 190:	3b0b3a13          	sltiu	s4,s6,944
 194:	3905                	.insn	2, 0x3905
 196:	0013010b          	.insn	4, 0x0013010b
 19a:	1b00                	.insn	2, 0x1b00
 19c:	0024                	.insn	2, 0x0024
 19e:	0b3e0b0b          	.insn	4, 0x0b3e0b0b
 1a2:	00000803          	lb	a6,0(zero) # 0 <__stack_size-0x2000000>
 1a6:	261c                	.insn	2, 0x261c
 1a8:	4900                	.insn	2, 0x4900
 1aa:	1d000013          	addi	zero,zero,464
 1ae:	0b0b0117          	auipc	sp,0xb0b0
 1b2:	0b3a                	.insn	2, 0x0b3a
 1b4:	0b39053b          	.insn	4, 0x0b39053b
 1b8:	1301                	.insn	2, 0x1301
 1ba:	0000                	.insn	2, 0x0000
 1bc:	131e                	.insn	2, 0x131e
 1be:	0301                	.insn	2, 0x0301
 1c0:	0b0e                	.insn	2, 0x0b0e
 1c2:	3b0b3a0b          	.insn	4, 0x3b0b3a0b
 1c6:	3905                	.insn	2, 0x3905
 1c8:	0013010b          	.insn	4, 0x0013010b
 1cc:	1f00                	.insn	2, 0x1f00
 1ce:	0034                	.insn	2, 0x0034
 1d0:	0b3a0803          	lb	a6,179(s4)
 1d4:	0b390b3b          	.insn	4, 0x0b390b3b
 1d8:	1349                	.insn	2, 0x1349
 1da:	1802193f 2e200000 	.insn	8, 0x2e2000001802193f
 1e2:	3f01                	.insn	2, 0x3f01
 1e4:	0319                	.insn	2, 0x0319
 1e6:	3a0e                	.insn	2, 0x3a0e
 1e8:	390b3b0b          	.insn	4, 0x390b3b0b
 1ec:	3c19270b          	.insn	4, 0x3c19270b
 1f0:	0119                	.insn	2, 0x0119
 1f2:	21000013          	addi	zero,zero,528
 1f6:	0005                	.insn	2, 0x0005
 1f8:	1349                	.insn	2, 0x1349
 1fa:	0000                	.insn	2, 0x0000
 1fc:	2e22                	.insn	2, 0x2e22
 1fe:	3f00                	.insn	2, 0x3f00
 200:	0319                	.insn	2, 0x0319
 202:	3a0e                	.insn	2, 0x3a0e
 204:	39053b0b          	.insn	4, 0x39053b0b
 208:	1113490b          	.insn	4, 0x1113490b
 20c:	1201                	.insn	2, 0x1201
 20e:	4006                	.insn	2, 0x4006
 210:	7a18                	.insn	2, 0x7a18
 212:	0019                	.insn	2, 0x0019
 214:	2300                	.insn	2, 0x2300
 216:	012e                	.insn	2, 0x012e
 218:	0e03193f 0b3b0b3a 	.insn	8, 0x0b3b0b3a0e03193f
 220:	0b39                	.insn	2, 0x0b39
 222:	1349                	.insn	2, 0x1349
 224:	0111                	.insn	2, 0x0111
 226:	0612                	.insn	2, 0x0612
 228:	1840                	.insn	2, 0x1840
 22a:	197a                	.insn	2, 0x197a
 22c:	1301                	.insn	2, 0x1301
 22e:	0000                	.insn	2, 0x0000
 230:	2e24                	.insn	2, 0x2e24
 232:	3f01                	.insn	2, 0x3f01
 234:	0319                	.insn	2, 0x0319
 236:	3a0e                	.insn	2, 0x3a0e
 238:	390b3b0b          	.insn	4, 0x390b3b0b
 23c:	4919270b          	.insn	4, 0x4919270b
 240:	12011113          	.insn	4, 0x12011113
 244:	4006                	.insn	2, 0x4006
 246:	7a18                	.insn	2, 0x7a18
 248:	0119                	.insn	2, 0x0119
 24a:	25000013          	addi	zero,zero,592
 24e:	0034                	.insn	2, 0x0034
 250:	0b3a0e03          	lb	t3,179(s4)
 254:	0b390b3b          	.insn	4, 0x0b390b3b
 258:	1349                	.insn	2, 0x1349
 25a:	051c                	.insn	2, 0x051c
 25c:	0000                	.insn	2, 0x0000
 25e:	0100                	.insn	2, 0x0100
 260:	0005                	.insn	2, 0x0005
 262:	213a0e03          	lb	t3,531(s4)
 266:	3b01                	.insn	2, 0x3b01
 268:	490b390b          	.insn	4, 0x490b390b
 26c:	b7170213          	addi	tp,a4,-1167
 270:	1742                	.insn	2, 0x1742
 272:	0000                	.insn	2, 0x0000
 274:	2402                	.insn	2, 0x2402
 276:	0b00                	.insn	2, 0x0b00
 278:	030b3e0b          	.insn	4, 0x030b3e0b
 27c:	000e                	.insn	2, 0x000e
 27e:	0300                	.insn	2, 0x0300
 280:	0034                	.insn	2, 0x0034
 282:	213a0e03          	lb	t3,531(s4)
 286:	3b01                	.insn	2, 0x3b01
 288:	490b390b          	.insn	4, 0x490b390b
 28c:	b7170213          	addi	tp,a4,-1167
 290:	1742                	.insn	2, 0x1742
 292:	0000                	.insn	2, 0x0000
 294:	0f04                	.insn	2, 0x0f04
 296:	0b00                	.insn	2, 0x0b00
 298:	0421                	.insn	2, 0x0421
 29a:	1349                	.insn	2, 0x1349
 29c:	0000                	.insn	2, 0x0000
 29e:	2e05                	.insn	2, 0x2e05
 2a0:	3f01                	.insn	2, 0x3f01
 2a2:	0319                	.insn	2, 0x0319
 2a4:	3a0e                	.insn	2, 0x3a0e
 2a6:	0121                	.insn	2, 0x0121
 2a8:	0b390b3b          	.insn	4, 0x0b390b3b
 2ac:	1349                	.insn	2, 0x1349
 2ae:	0111                	.insn	2, 0x0111
 2b0:	0612                	.insn	2, 0x0612
 2b2:	1840                	.insn	2, 0x1840
 2b4:	197a                	.insn	2, 0x197a
 2b6:	1301                	.insn	2, 0x1301
 2b8:	0000                	.insn	2, 0x0000
 2ba:	2806                	.insn	2, 0x2806
 2bc:	0300                	.insn	2, 0x0300
 2be:	1c0e                	.insn	2, 0x1c0e
 2c0:	0700000b          	.insn	4, 0x0700000b
 2c4:	0016                	.insn	2, 0x0016
 2c6:	213a0e03          	lb	t3,531(s4)
 2ca:	3b02                	.insn	2, 0x3b02
 2cc:	3905                	.insn	2, 0x3905
 2ce:	0013490b          	.insn	4, 0x0013490b
 2d2:	0800                	.insn	2, 0x0800
 2d4:	0049                	.insn	2, 0x0049
 2d6:	1802                	.insn	2, 0x1802
 2d8:	187e                	.insn	2, 0x187e
 2da:	0000                	.insn	2, 0x0000
 2dc:	0509                	.insn	2, 0x0509
 2de:	0300                	.insn	2, 0x0300
 2e0:	3a0e                	.insn	2, 0x3a0e
 2e2:	0121                	.insn	2, 0x0121
 2e4:	0b390b3b          	.insn	4, 0x0b390b3b
 2e8:	1349                	.insn	2, 0x1349
 2ea:	1802                	.insn	2, 0x1802
 2ec:	0000                	.insn	2, 0x0000
 2ee:	340a                	.insn	2, 0x340a
 2f0:	0300                	.insn	2, 0x0300
 2f2:	3a0e                	.insn	2, 0x3a0e
 2f4:	0121                	.insn	2, 0x0121
 2f6:	0b390b3b          	.insn	4, 0x0b390b3b
 2fa:	1349                	.insn	2, 0x1349
 2fc:	193c193f 050b0000 	.insn	8, 0x050b0000193c193f
 304:	4900                	.insn	2, 0x4900
 306:	0c000013          	addi	zero,zero,192
 30a:	0148                	.insn	2, 0x0148
 30c:	017d                	.insn	2, 0x017d
 30e:	0000137f 2501110d 	.insn	12, 0x030b130e2501110d0000137f
 316:	030b130e 
 31a:	1b1f 111f 1201      	.insn	6, 0x1201111f1b1f
 320:	1006                	.insn	2, 0x1006
 322:	0e000017          	auipc	zero,0xe000
 326:	0104                	.insn	2, 0x0104
 328:	0b3e                	.insn	2, 0x0b3e
 32a:	13490b0b          	.insn	4, 0x13490b0b
 32e:	0b3a                	.insn	2, 0x0b3a
 330:	0b39053b          	.insn	4, 0x0b39053b
 334:	1301                	.insn	2, 0x1301
 336:	0000                	.insn	2, 0x0000
 338:	0b00240f          	.insn	4, 0x0b00240f
 33c:	030b3e0b          	.insn	4, 0x030b3e0b
 340:	0008                	.insn	2, 0x0008
 342:	1000                	.insn	2, 0x1000
 344:	0026                	.insn	2, 0x0026
 346:	1349                	.insn	2, 0x1349
 348:	0000                	.insn	2, 0x0000
 34a:	0111                	.insn	2, 0x0111
 34c:	4901                	.insn	2, 0x4901
 34e:	00130113          	addi	sp,t1,1
 352:	1200                	.insn	2, 0x1200
 354:	0021                	.insn	2, 0x0021
 356:	1349                	.insn	2, 0x1349
 358:	00000b2f          	.insn	4, 0x0b2f
 35c:	3f012e13          	slti	t3,sp,1008
 360:	0319                	.insn	2, 0x0319
 362:	3a0e                	.insn	2, 0x3a0e
 364:	390b3b0b          	.insn	4, 0x390b3b0b
 368:	4919270b          	.insn	4, 0x4919270b
 36c:	01193c13          	sltiu	s8,s2,17
 370:	14000013          	addi	zero,zero,320
 374:	0034                	.insn	2, 0x0034
 376:	0b3a0e03          	lb	t3,179(s4)
 37a:	0b390b3b          	.insn	4, 0x0b390b3b
 37e:	1349                	.insn	2, 0x1349
 380:	0b1c                	.insn	2, 0x0b1c
 382:	0000                	.insn	2, 0x0000
 384:	4815                	.insn	2, 0x4815
 386:	7d00                	.insn	2, 0x7d00
 388:	7f01                	.insn	2, 0x7f01
 38a:	16000013          	addi	zero,zero,352
 38e:	012e                	.insn	2, 0x012e
 390:	0e03193f 0b3b0b3a 	.insn	8, 0x0b3b0b3a0e03193f
 398:	0b39                	.insn	2, 0x0b39
 39a:	1349                	.insn	2, 0x1349
 39c:	193c                	.insn	2, 0x193c
 39e:	1301                	.insn	2, 0x1301
 3a0:	0000                	.insn	2, 0x0000
 3a2:	00001817          	auipc	a6,0x1
 3a6:	0000                	.insn	2, 0x0000
 3a8:	0501                	.insn	2, 0x0501
 3aa:	3100                	.insn	2, 0x3100
 3ac:	b7170213          	addi	tp,a4,-1167
 3b0:	1742                	.insn	2, 0x1742
 3b2:	0000                	.insn	2, 0x0000
 3b4:	3402                	.insn	2, 0x3402
 3b6:	3100                	.insn	2, 0x3100
 3b8:	b7170213          	addi	tp,a4,-1167
 3bc:	1742                	.insn	2, 0x1742
 3be:	0000                	.insn	2, 0x0000
 3c0:	0b002403          	lw	s0,176(zero) # b0 <__stack_size-0x1ffff50>
 3c4:	030b3e0b          	.insn	4, 0x030b3e0b
 3c8:	000e                	.insn	2, 0x000e
 3ca:	0400                	.insn	2, 0x0400
 3cc:	011d                	.insn	2, 0x011d
 3ce:	1331                	.insn	2, 0x1331
 3d0:	0152                	.insn	2, 0x0152
 3d2:	42b8                	.insn	2, 0x42b8
 3d4:	5817550b          	.insn	4, 0x5817550b
 3d8:	0121                	.insn	2, 0x0121
 3da:	0b59                	.insn	2, 0x0b59
 3dc:	00000b57          	.insn	4, 0x0b57
 3e0:	1d05                	.insn	2, 0x1d05
 3e2:	3101                	.insn	2, 0x3101
 3e4:	b8015213          	.insn	4, 0xb8015213
 3e8:	0b42                	.insn	2, 0x0b42
 3ea:	0111                	.insn	2, 0x0111
 3ec:	0612                	.insn	2, 0x0612
 3ee:	2158                	.insn	2, 0x2158
 3f0:	5901                	.insn	2, 0x5901
 3f2:	010b570b          	.insn	4, 0x010b570b
 3f6:	06000013          	addi	zero,zero,96
 3fa:	0016                	.insn	2, 0x0016
 3fc:	0b3a0e03          	lb	t3,179(s4)
 400:	0b390b3b          	.insn	4, 0x0b390b3b
 404:	1349                	.insn	2, 0x1349
 406:	0000                	.insn	2, 0x0000
 408:	03003407          	.insn	4, 0x03003407
 40c:	3a0e                	.insn	2, 0x3a0e
 40e:	0121                	.insn	2, 0x0121
 410:	0b390b3b          	.insn	4, 0x0b390b3b
 414:	1349                	.insn	2, 0x1349
 416:	0000                	.insn	2, 0x0000
 418:	1d08                	.insn	2, 0x1d08
 41a:	3101                	.insn	2, 0x3101
 41c:	b8015213          	.insn	4, 0xb8015213
 420:	0b42                	.insn	2, 0x0b42
 422:	0111                	.insn	2, 0x0111
 424:	0612                	.insn	2, 0x0612
 426:	2158                	.insn	2, 0x2158
 428:	5901                	.insn	2, 0x5901
 42a:	000b570b          	.insn	4, 0x000b570b
 42e:	0900                	.insn	2, 0x0900
 430:	0005                	.insn	2, 0x0005
 432:	0b3a0803          	lb	a6,179(s4)
 436:	0b390b3b          	.insn	4, 0x0b390b3b
 43a:	1349                	.insn	2, 0x1349
 43c:	0000                	.insn	2, 0x0000
 43e:	0f0a                	.insn	2, 0x0f0a
 440:	0b00                	.insn	2, 0x0b00
 442:	0421                	.insn	2, 0x0421
 444:	1349                	.insn	2, 0x1349
 446:	0000                	.insn	2, 0x0000
 448:	0300340b          	.insn	4, 0x0300340b
 44c:	3a0e                	.insn	2, 0x3a0e
 44e:	0121                	.insn	2, 0x0121
 450:	0b390b3b          	.insn	4, 0x0b390b3b
 454:	1349                	.insn	2, 0x1349
 456:	1802                	.insn	2, 0x1802
 458:	0000                	.insn	2, 0x0000
 45a:	340c                	.insn	2, 0x340c
 45c:	3100                	.insn	2, 0x3100
 45e:	0d000013          	addi	zero,zero,208
 462:	012e                	.insn	2, 0x012e
 464:	0b3a0e03          	lb	t3,179(s4)
 468:	0b390b3b          	.insn	4, 0x0b390b3b
 46c:	13491927          	.insn	4, 0x13491927
 470:	0b20                	.insn	2, 0x0b20
 472:	1301                	.insn	2, 0x1301
 474:	0000                	.insn	2, 0x0000
 476:	340e                	.insn	2, 0x340e
 478:	0300                	.insn	2, 0x0300
 47a:	3a08                	.insn	2, 0x3a08
 47c:	390b3b0b          	.insn	4, 0x390b3b0b
 480:	0013490b          	.insn	4, 0x0013490b
 484:	0f00                	.insn	2, 0x0f00
 486:	0005                	.insn	2, 0x0005
 488:	213a0e03          	lb	t3,531(s4)
 48c:	3b02                	.insn	2, 0x3b02
 48e:	490b390b          	.insn	4, 0x490b390b
 492:	10000013          	addi	zero,zero,256
 496:	0111                	.insn	2, 0x0111
 498:	0e25                	.insn	2, 0x0e25
 49a:	1f030b13          	addi	s6,t1,496
 49e:	01111f1b          	.insn	4, 0x01111f1b
 4a2:	0612                	.insn	2, 0x0612
 4a4:	1710                	.insn	2, 0x1710
 4a6:	0000                	.insn	2, 0x0000
 4a8:	2411                	.insn	2, 0x2411
 4aa:	0b00                	.insn	2, 0x0b00
 4ac:	030b3e0b          	.insn	4, 0x030b3e0b
 4b0:	0008                	.insn	2, 0x0008
 4b2:	1200                	.insn	2, 0x1200
 4b4:	0115                	.insn	2, 0x0115
 4b6:	13011927          	.insn	4, 0x13011927
 4ba:	0000                	.insn	2, 0x0000
 4bc:	49000513          	addi	a0,zero,1168
 4c0:	14000013          	addi	zero,zero,320
 4c4:	0034                	.insn	2, 0x0034
 4c6:	0b3a0e03          	lb	t3,179(s4)
 4ca:	0b390b3b          	.insn	4, 0x0b390b3b
 4ce:	1349                	.insn	2, 0x1349
 4d0:	193c193f 35150000 	.insn	8, 0x35150000193c193f
 4d8:	0000                	.insn	2, 0x0000
 4da:	1600                	.insn	2, 0x1600
 4dc:	0026                	.insn	2, 0x0026
 4de:	1349                	.insn	2, 0x1349
 4e0:	0000                	.insn	2, 0x0000
 4e2:	3f012e17          	auipc	t3,0x3f012
 4e6:	0319                	.insn	2, 0x0319
 4e8:	3a0e                	.insn	2, 0x3a0e
 4ea:	390b3b0b          	.insn	4, 0x390b3b0b
 4ee:	1113490b          	.insn	4, 0x1113490b
 4f2:	1201                	.insn	2, 0x1201
 4f4:	4006                	.insn	2, 0x4006
 4f6:	7a18                	.insn	2, 0x7a18
 4f8:	0119                	.insn	2, 0x0119
 4fa:	18000013          	addi	zero,zero,384
 4fe:	0034                	.insn	2, 0x0034
 500:	0b3a0e03          	lb	t3,179(s4)
 504:	0b390b3b          	.insn	4, 0x0b390b3b
 508:	1349                	.insn	2, 0x1349
 50a:	0b1c                	.insn	2, 0x0b1c
 50c:	0000                	.insn	2, 0x0000
 50e:	2e19                	.insn	2, 0x2e19
 510:	3f01                	.insn	2, 0x3f01
 512:	0319                	.insn	2, 0x0319
 514:	3a0e                	.insn	2, 0x3a0e
 516:	390b3b0b          	.insn	4, 0x390b3b0b
 51a:	4919270b          	.insn	4, 0x4919270b
 51e:	12011113          	.insn	4, 0x12011113
 522:	4006                	.insn	2, 0x4006
 524:	7a18                	.insn	2, 0x7a18
 526:	0119                	.insn	2, 0x0119
 528:	1a000013          	addi	zero,zero,416
 52c:	1331010b          	.insn	4, 0x1331010b
 530:	1755                	.insn	2, 0x1755
 532:	0000                	.insn	2, 0x0000
 534:	3100341b          	.insn	4, 0x3100341b
 538:	00180213          	addi	tp,a6,1 # 13a3 <__stack_size-0x1ffec5d>
 53c:	1c00                	.insn	2, 0x1c00
 53e:	1331010b          	.insn	4, 0x1331010b
 542:	0111                	.insn	2, 0x0111
 544:	0612                	.insn	2, 0x0612
 546:	0000                	.insn	2, 0x0000
 548:	2e1d                	.insn	2, 0x2e1d
 54a:	3f01                	.insn	2, 0x3f01
 54c:	0319                	.insn	2, 0x0319
 54e:	3a0e                	.insn	2, 0x3a0e
 550:	390b3b0b          	.insn	4, 0x390b3b0b
 554:	1119270b          	.insn	4, 0x1119270b
 558:	1201                	.insn	2, 0x1201
 55a:	4006                	.insn	2, 0x4006
 55c:	7a18                	.insn	2, 0x7a18
 55e:	0119                	.insn	2, 0x0119
 560:	1e000013          	addi	zero,zero,480
 564:	0005                	.insn	2, 0x0005
 566:	0b3a0803          	lb	a6,179(s4)
 56a:	0b390b3b          	.insn	4, 0x0b390b3b
 56e:	1349                	.insn	2, 0x1349
 570:	1802                	.insn	2, 0x1802
 572:	0000                	.insn	2, 0x0000
 574:	2e1f 0301 3a0e      	.insn	6, 0x3a0e03012e1f
 57a:	390b3b0b          	.insn	4, 0x390b3b0b
 57e:	2019270b          	.insn	4, 0x2019270b
 582:	0013010b          	.insn	4, 0x0013010b
 586:	2000                	.insn	2, 0x2000
 588:	0000010b          	.insn	4, 0x010b
 58c:	2e21                	.insn	2, 0x2e21
 58e:	0301                	.insn	2, 0x0301
 590:	3a0e                	.insn	2, 0x3a0e
 592:	390b3b0b          	.insn	4, 0x390b3b0b
 596:	2019270b          	.insn	4, 0x2019270b
 59a:	0000000b          	.insn	4, 0x000b
 59e:	0501                	.insn	2, 0x0501
 5a0:	3100                	.insn	2, 0x3100
 5a2:	b7170213          	addi	tp,a4,-1167
 5a6:	1742                	.insn	2, 0x1742
 5a8:	0000                	.insn	2, 0x0000
 5aa:	3402                	.insn	2, 0x3402
 5ac:	0300                	.insn	2, 0x0300
 5ae:	3a08                	.insn	2, 0x3a08
 5b0:	0121                	.insn	2, 0x0121
 5b2:	0b390b3b          	.insn	4, 0x0b390b3b
 5b6:	1349                	.insn	2, 0x1349
 5b8:	0000                	.insn	2, 0x0000
 5ba:	31003403          	.insn	4, 0x31003403
 5be:	b7170213          	addi	tp,a4,-1167
 5c2:	1742                	.insn	2, 0x1742
 5c4:	0000                	.insn	2, 0x0000
 5c6:	2404                	.insn	2, 0x2404
 5c8:	0b00                	.insn	2, 0x0b00
 5ca:	030b3e0b          	.insn	4, 0x030b3e0b
 5ce:	000e                	.insn	2, 0x000e
 5d0:	0500                	.insn	2, 0x0500
 5d2:	011d                	.insn	2, 0x011d
 5d4:	1331                	.insn	2, 0x1331
 5d6:	0152                	.insn	2, 0x0152
 5d8:	42b8                	.insn	2, 0x42b8
 5da:	5817550b          	.insn	4, 0x5817550b
 5de:	0121                	.insn	2, 0x0121
 5e0:	0b59                	.insn	2, 0x0b59
 5e2:	00000b57          	.insn	4, 0x0b57
 5e6:	1d06                	.insn	2, 0x1d06
 5e8:	3101                	.insn	2, 0x3101
 5ea:	b8015213          	.insn	4, 0xb8015213
 5ee:	0b42                	.insn	2, 0x0b42
 5f0:	1755                	.insn	2, 0x1755
 5f2:	2158                	.insn	2, 0x2158
 5f4:	5901                	.insn	2, 0x5901
 5f6:	010b570b          	.insn	4, 0x010b570b
 5fa:	07000013          	addi	zero,zero,112
 5fe:	011d                	.insn	2, 0x011d
 600:	1331                	.insn	2, 0x1331
 602:	0152                	.insn	2, 0x0152
 604:	42b8                	.insn	2, 0x42b8
 606:	5505                	.insn	2, 0x5505
 608:	01215817          	auipc	a6,0x1215
 60c:	0b59                	.insn	2, 0x0b59
 60e:	00000b57          	.insn	4, 0x0b57
 612:	4808                	.insn	2, 0x4808
 614:	7d01                	.insn	2, 0x7d01
 616:	0001                	.insn	2, 0x0001
 618:	0900                	.insn	2, 0x0900
 61a:	0049                	.insn	2, 0x0049
 61c:	1802                	.insn	2, 0x1802
 61e:	187e                	.insn	2, 0x187e
 620:	0000                	.insn	2, 0x0000
 622:	050a                	.insn	2, 0x050a
 624:	0300                	.insn	2, 0x0300
 626:	3a08                	.insn	2, 0x3a08
 628:	0121                	.insn	2, 0x0121
 62a:	0b390b3b          	.insn	4, 0x0b390b3b
 62e:	1349                	.insn	2, 0x1349
 630:	0000                	.insn	2, 0x0000
 632:	0b000f0b          	.insn	4, 0x0b000f0b
 636:	0421                	.insn	2, 0x0421
 638:	1349                	.insn	2, 0x1349
 63a:	0000                	.insn	2, 0x0000
 63c:	1d0c                	.insn	2, 0x1d0c
 63e:	3101                	.insn	2, 0x3101
 640:	b8015213          	.insn	4, 0xb8015213
 644:	0542                	.insn	2, 0x0542
 646:	0111                	.insn	2, 0x0111
 648:	0612                	.insn	2, 0x0612
 64a:	2158                	.insn	2, 0x2158
 64c:	5901                	.insn	2, 0x5901
 64e:	1a21                	.insn	2, 0x1a21
 650:	00062157          	.insn	4, 0x00062157
 654:	0d00                	.insn	2, 0x0d00
 656:	011d                	.insn	2, 0x011d
 658:	1331                	.insn	2, 0x1331
 65a:	0152                	.insn	2, 0x0152
 65c:	42b8                	.insn	2, 0x42b8
 65e:	5505                	.insn	2, 0x5505
 660:	01215817          	auipc	a6,0x1215
 664:	0b59                	.insn	2, 0x0b59
 666:	13010b57          	.insn	4, 0x13010b57
 66a:	0000                	.insn	2, 0x0000
 66c:	160e                	.insn	2, 0x160e
 66e:	0300                	.insn	2, 0x0300
 670:	3a0e                	.insn	2, 0x3a0e
 672:	0221                	.insn	2, 0x0221
 674:	0b390b3b          	.insn	4, 0x0b390b3b
 678:	1349                	.insn	2, 0x1349
 67a:	0000                	.insn	2, 0x0000
 67c:	3100340f          	.insn	4, 0x3100340f
 680:	00180213          	addi	tp,a6,1 # 1215661 <__stack_size-0xdea99f>
 684:	1000                	.insn	2, 0x1000
 686:	011d                	.insn	2, 0x011d
 688:	1331                	.insn	2, 0x1331
 68a:	0152                	.insn	2, 0x0152
 68c:	42b8                	.insn	2, 0x42b8
 68e:	1201110b          	.insn	4, 0x1201110b
 692:	5806                	.insn	2, 0x5806
 694:	0121                	.insn	2, 0x0121
 696:	2159                	.insn	2, 0x2159
 698:	571a                	.insn	2, 0x571a
 69a:	0621                	.insn	2, 0x0621
 69c:	0000                	.insn	2, 0x0000
 69e:	2e11                	.insn	2, 0x2e11
 6a0:	3f01                	.insn	2, 0x3f01
 6a2:	0319                	.insn	2, 0x0319
 6a4:	3a0e                	.insn	2, 0x3a0e
 6a6:	0121                	.insn	2, 0x0121
 6a8:	21390b3b          	.insn	4, 0x21390b3b
 6ac:	2706                	.insn	2, 0x2706
 6ae:	2019                	.insn	2, 0x2019
 6b0:	0121                	.insn	2, 0x0121
 6b2:	1301                	.insn	2, 0x1301
 6b4:	0000                	.insn	2, 0x0000
 6b6:	1112                	.insn	2, 0x1112
 6b8:	2501                	.insn	2, 0x2501
 6ba:	130e                	.insn	2, 0x130e
 6bc:	1b1f030b          	.insn	4, 0x1b1f030b
 6c0:	111f 1201 1006      	.insn	6, 0x10061201111f
 6c6:	13000017          	auipc	zero,0x13000
 6ca:	0115                	.insn	2, 0x0115
 6cc:	13011927          	.insn	4, 0x13011927
 6d0:	0000                	.insn	2, 0x0000
 6d2:	0514                	.insn	2, 0x0514
 6d4:	4900                	.insn	2, 0x4900
 6d6:	15000013          	addi	zero,zero,336
 6da:	0034                	.insn	2, 0x0034
 6dc:	0b3a0e03          	lb	t3,179(s4)
 6e0:	0b390b3b          	.insn	4, 0x0b390b3b
 6e4:	1349                	.insn	2, 0x1349
 6e6:	193c193f 0f160000 	.insn	8, 0x0f160000193c193f
 6ee:	0b00                	.insn	2, 0x0b00
 6f0:	000e030b          	.insn	4, 0x000e030b
 6f4:	1700                	.insn	2, 0x1700
 6f6:	0034                	.insn	2, 0x0034
 6f8:	0b3a1347          	.insn	4, 0x0b3a1347
 6fc:	0b390b3b          	.insn	4, 0x0b390b3b
 700:	1802                	.insn	2, 0x1802
 702:	0000                	.insn	2, 0x0000
 704:	3418                	.insn	2, 0x3418
 706:	0300                	.insn	2, 0x0300
 708:	3a0e                	.insn	2, 0x3a0e
 70a:	390b3b0b          	.insn	4, 0x390b3b0b
 70e:	0213490b          	.insn	4, 0x0213490b
 712:	0018                	.insn	2, 0x0018
 714:	1900                	.insn	2, 0x1900
 716:	0026                	.insn	2, 0x0026
 718:	1349                	.insn	2, 0x1349
 71a:	0000                	.insn	2, 0x0000
 71c:	2e1a                	.insn	2, 0x2e1a
 71e:	3f01                	.insn	2, 0x3f01
 720:	0319                	.insn	2, 0x0319
 722:	3a0e                	.insn	2, 0x3a0e
 724:	390b3b0b          	.insn	4, 0x390b3b0b
 728:	1119270b          	.insn	4, 0x1119270b
 72c:	1201                	.insn	2, 0x1201
 72e:	4006                	.insn	2, 0x4006
 730:	7c18                	.insn	2, 0x7c18
 732:	0119                	.insn	2, 0x0119
 734:	1b000013          	addi	zero,zero,432
 738:	0005                	.insn	2, 0x0005
 73a:	0b3a0803          	lb	a6,179(s4)
 73e:	0b390b3b          	.insn	4, 0x0b390b3b
 742:	1349                	.insn	2, 0x1349
 744:	1702                	.insn	2, 0x1702
 746:	001742b7          	lui	t0,0x174
 74a:	1c00                	.insn	2, 0x1c00
 74c:	0018                	.insn	2, 0x0018
 74e:	0000                	.insn	2, 0x0000
 750:	341d                	.insn	2, 0x341d
 752:	0300                	.insn	2, 0x0300
 754:	3a08                	.insn	2, 0x3a08
 756:	390b3b0b          	.insn	4, 0x390b3b0b
 75a:	0213490b          	.insn	4, 0x0213490b
 75e:	0018                	.insn	2, 0x0018
 760:	1e00                	.insn	2, 0x1e00
 762:	012e                	.insn	2, 0x012e
 764:	0b3a0e03          	lb	t3,179(s4)
 768:	0b390b3b          	.insn	4, 0x0b390b3b
 76c:	0b201927          	.insn	4, 0x0b201927
 770:	1301                	.insn	2, 0x1301
 772:	0000                	.insn	2, 0x0000
 774:	011f 4901 0113      	.insn	6, 0x01134901011f
 77a:	20000013          	addi	zero,zero,512
 77e:	0021                	.insn	2, 0x0021
 780:	1349                	.insn	2, 0x1349
 782:	00000b2f          	.insn	4, 0x0b2f
 786:	2e21                	.insn	2, 0x2e21
 788:	3101                	.insn	2, 0x3101
 78a:	12011113          	.insn	4, 0x12011113
 78e:	4006                	.insn	2, 0x4006
 790:	0118                	.insn	2, 0x0118
 792:	22000013          	addi	zero,zero,544
 796:	012e                	.insn	2, 0x012e
 798:	1331                	.insn	2, 0x1331
 79a:	0111                	.insn	2, 0x0111
 79c:	0612                	.insn	2, 0x0612
 79e:	1840                	.insn	2, 0x1840
 7a0:	197c                	.insn	2, 0x197c
 7a2:	0000                	.insn	2, 0x0000
	...

Disassembly of section .debug_aranges:

00000000 <.debug_aranges>:
   0:	001c                	.insn	2, 0x001c
   2:	0000                	.insn	2, 0x0000
   4:	0002                	.insn	2, 0x0002
   6:	0000                	.insn	2, 0x0000
   8:	0000                	.insn	2, 0x0000
   a:	0004                	.insn	2, 0x0004
   c:	0000                	.insn	2, 0x0000
   e:	0000                	.insn	2, 0x0000
  10:	0000                	.insn	2, 0x0000
  12:	8000                	.insn	2, 0x8000
  14:	001c                	.insn	2, 0x001c
	...
  1e:	0000                	.insn	2, 0x0000
  20:	0024                	.insn	2, 0x0024
  22:	0000                	.insn	2, 0x0000
  24:	0002                	.insn	2, 0x0002
  26:	0024                	.insn	2, 0x0024
  28:	0000                	.insn	2, 0x0000
  2a:	0004                	.insn	2, 0x0004
  2c:	0000                	.insn	2, 0x0000
  2e:	0000                	.insn	2, 0x0000
  30:	0728                	.insn	2, 0x0728
  32:	8000                	.insn	2, 0x8000
  34:	020c                	.insn	2, 0x020c
  36:	0000                	.insn	2, 0x0000
  38:	001c                	.insn	2, 0x001c
  3a:	8000                	.insn	2, 0x8000
  3c:	070c                	.insn	2, 0x070c
	...
  46:	0000                	.insn	2, 0x0000
  48:	001c                	.insn	2, 0x001c
  4a:	0000                	.insn	2, 0x0000
  4c:	0002                	.insn	2, 0x0002
  4e:	0d48                	.insn	2, 0x0d48
  50:	0000                	.insn	2, 0x0000
  52:	0004                	.insn	2, 0x0004
  54:	0000                	.insn	2, 0x0000
  56:	0000                	.insn	2, 0x0000
  58:	0934                	.insn	2, 0x0934
  5a:	8000                	.insn	2, 0x8000
  5c:	01c0                	.insn	2, 0x01c0
	...
  66:	0000                	.insn	2, 0x0000
  68:	001c                	.insn	2, 0x001c
  6a:	0000                	.insn	2, 0x0000
  6c:	0002                	.insn	2, 0x0002
  6e:	10f1                	.insn	2, 0x10f1
  70:	0000                	.insn	2, 0x0000
  72:	0004                	.insn	2, 0x0004
  74:	0000                	.insn	2, 0x0000
  76:	0000                	.insn	2, 0x0000
  78:	0af4                	.insn	2, 0x0af4
  7a:	8000                	.insn	2, 0x8000
  7c:	0150                	.insn	2, 0x0150
	...
  86:	0000                	.insn	2, 0x0000
  88:	001c                	.insn	2, 0x001c
  8a:	0000                	.insn	2, 0x0000
  8c:	0002                	.insn	2, 0x0002
  8e:	173a                	.insn	2, 0x173a
  90:	0000                	.insn	2, 0x0000
  92:	0004                	.insn	2, 0x0004
  94:	0000                	.insn	2, 0x0000
  96:	0000                	.insn	2, 0x0000
  98:	0c44                	.insn	2, 0x0c44
  9a:	8000                	.insn	2, 0x8000
  9c:	069c                	.insn	2, 0x069c
	...

Disassembly of section .debug_str:

00000000 <.debug_str>:
   0:	2e2e                	.insn	2, 0x2e2e
   2:	6174732f          	.insn	4, 0x6174732f
   6:	7472                	.insn	2, 0x7472
   8:	532e                	.insn	2, 0x532e
   a:	2f00                	.insn	2, 0x2f00
   c:	6f68                	.insn	2, 0x6f68
   e:	656d                	.insn	2, 0x656d
  10:	7475742f          	.insn	4, 0x7475742f
  14:	7475                	.insn	2, 0x7475
  16:	2f75                	.insn	2, 0x2f75
  18:	6971                	.insn	2, 0x6971
  1a:	656d                	.insn	2, 0x656d
  1c:	676e                	.insn	2, 0x676e
  1e:	6d69732f          	.insn	4, 0x6d69732f
  22:	6c75                	.insn	2, 0x6c75
  24:	7461                	.insn	2, 0x7461
  26:	622f726f          	jal	tp,f7648 <__stack_size-0x1f089b8>
  2a:	7261                	.insn	2, 0x7261
  2c:	6d65                	.insn	2, 0x6d65
  2e:	7465                	.insn	2, 0x7465
  30:	6c61                	.insn	2, 0x6c61
  32:	77656e2f          	.insn	4, 0x77656e2f
  36:	645f 7268 7379      	.insn	6, 0x73797268645f
  3c:	6f74                	.insn	2, 0x6f74
  3e:	656e                	.insn	2, 0x656e
  40:	4700                	.insn	2, 0x4700
  42:	554e                	.insn	2, 0x554e
  44:	4120                	.insn	2, 0x4120
  46:	2e322053          	.insn	4, 0x2e322053
  4a:	3534                	.insn	2, 0x3534
  4c:	5000                	.insn	2, 0x5000
  4e:	7274                	.insn	2, 0x7274
  50:	435f 6d6f 0070      	.insn	6, 0x00706d6f435f
  56:	5f727453          	.insn	4, 0x5f727453
  5a:	42003033          	.insn	4, 0x42003033
  5e:	5f6c6f6f          	jal	t5,c6654 <__stack_size-0x1f399ac>
  62:	6f4c                	.insn	2, 0x6f4c
  64:	72410063          	beq	sp,tp,784 <__stack_size-0x1fff87c>
  68:	5f72                	.insn	2, 0x5f72
  6a:	5f31                	.insn	2, 0x5f31
  6c:	626f6c47          	.insn	4, 0x626f6c47
  70:	7500                	.insn	2, 0x7500
  72:	7261                	.insn	2, 0x7261
  74:	5f74                	.insn	2, 0x5f74
  76:	6e69                	.insn	2, 0x6e69
  78:	7469                	.insn	2, 0x7469
  7a:	4400                	.insn	2, 0x4400
  7c:	7369                	.insn	2, 0x7369
  7e:	6c007263          	bgeu	zero,zero,742 <__stack_size-0x1fff8be>
  82:	20676e6f          	jal	t3,76288 <__stack_size-0x1f89d78>
  86:	6f6c                	.insn	2, 0x6f6c
  88:	676e                	.insn	2, 0x676e
  8a:	7520                	.insn	2, 0x7520
  8c:	736e                	.insn	2, 0x736e
  8e:	6769                	.insn	2, 0x6769
  90:	656e                	.insn	2, 0x656e
  92:	2064                	.insn	2, 0x2064
  94:	6e69                	.insn	2, 0x6e69
  96:	0074                	.insn	2, 0x0074
  98:	6e49                	.insn	2, 0x6e49
  9a:	5f74                	.insn	2, 0x5f74
  9c:	6f4c                	.insn	2, 0x6f4c
  9e:	74530063          	beq	t1,t0,7de <__stack_size-0x1fff822>
  a2:	5f72                	.insn	2, 0x5f72
  a4:	706d6f43          	.insn	4, 0x706d6f43
  a8:	7600                	.insn	2, 0x7600
  aa:	7261                	.insn	2, 0x7261
  ac:	6169                	.insn	2, 0x6169
  ae:	746e                	.insn	2, 0x746e
  b0:	5200                	.insn	2, 0x5200
  b2:	6365                	.insn	2, 0x6365
  b4:	505f 696f 746e      	.insn	6, 0x746e696f505f
  ba:	7265                	.insn	2, 0x7265
  bc:	6c00                	.insn	2, 0x6c00
  be:	20676e6f          	jal	t3,762c4 <__stack_size-0x1f89d3c>
  c2:	6f6c                	.insn	2, 0x6f6c
  c4:	676e                	.insn	2, 0x676e
  c6:	6920                	.insn	2, 0x6920
  c8:	746e                	.insn	2, 0x746e
  ca:	4900                	.insn	2, 0x4900
  cc:	746e                	.insn	2, 0x746e
  ce:	475f 6f6c 0062      	.insn	6, 0x00626f6c475f
  d4:	6176                	.insn	2, 0x6176
  d6:	5f72                	.insn	2, 0x5f72
  d8:	0031                	.insn	2, 0x0031
  da:	6176                	.insn	2, 0x6176
  dc:	5f72                	.insn	2, 0x5f72
  de:	0032                	.insn	2, 0x0032
  e0:	6176                	.insn	2, 0x6176
  e2:	5f72                	.insn	2, 0x5f72
  e4:	6f420033          	.insn	4, 0x6f420033
  e8:	475f6c6f          	jal	s8,f6d5c <__stack_size-0x1f092a4>
  ec:	6f6c                	.insn	2, 0x6f6c
  ee:	0062                	.insn	2, 0x0062
  f0:	5f727453          	.insn	4, 0x5f727453
  f4:	5f31                	.insn	2, 0x5f31
  f6:	6f4c                	.insn	2, 0x6f4c
  f8:	6e450063          	beq	a0,tp,7d8 <__stack_size-0x1fff828>
  fc:	6d75                	.insn	2, 0x6d75
  fe:	7265                	.insn	2, 0x7265
 100:	7461                	.insn	2, 0x7461
 102:	6f69                	.insn	2, 0x6f69
 104:	006e                	.insn	2, 0x006e
 106:	6e49                	.insn	2, 0x6e49
 108:	5f74                	.insn	2, 0x5f74
 10a:	5f31                	.insn	2, 0x5f31
 10c:	6f4c                	.insn	2, 0x6f4c
 10e:	654e0063          	beq	t3,s4,74e <__stack_size-0x1fff8b2>
 112:	7478                	.insn	2, 0x7478
 114:	505f 7274 475f      	.insn	6, 0x475f7274505f
 11a:	6f6c                	.insn	2, 0x6f6c
 11c:	0062                	.insn	2, 0x0062
 11e:	694d                	.insn	2, 0x694d
 120:	736f7263          	bgeu	t5,s6,844 <__stack_size-0x1fff7bc>
 124:	6365                	.insn	2, 0x6365
 126:	73646e6f          	jal	t3,4685c <__stack_size-0x1fb97a4>
 12a:	7300                	.insn	2, 0x7300
 12c:	6f68                	.insn	2, 0x6f68
 12e:	7472                	.insn	2, 0x7472
 130:	7520                	.insn	2, 0x7520
 132:	736e                	.insn	2, 0x736e
 134:	6769                	.insn	2, 0x6769
 136:	656e                	.insn	2, 0x656e
 138:	2064                	.insn	2, 0x2064
 13a:	6e69                	.insn	2, 0x6e69
 13c:	0074                	.insn	2, 0x0074
 13e:	7546                	.insn	2, 0x7546
 140:	636e                	.insn	2, 0x636e
 142:	315f 4600 6e75      	.insn	6, 0x6e754600315f
 148:	00325f63          	bge	tp,gp,166 <__stack_size-0x1fffe9a>
 14c:	315f6843          	.insn	4, 0x315f6843
 150:	435f 6d6f 0070      	.insn	6, 0x00706d6f435f
 156:	495f6843          	.insn	4, 0x495f6843
 15a:	646e                	.insn	2, 0x646e
 15c:	7865                	.insn	2, 0x7865
 15e:	4900                	.insn	2, 0x4900
 160:	6564                	.insn	2, 0x6564
 162:	746e                	.insn	2, 0x746e
 164:	315f 4900 6564      	.insn	6, 0x65644900315f
 16a:	746e                	.insn	2, 0x746e
 16c:	325f 4900 6564      	.insn	6, 0x65644900325f
 172:	746e                	.insn	2, 0x746e
 174:	335f 4900 6564      	.insn	6, 0x65644900335f
 17a:	746e                	.insn	2, 0x746e
 17c:	345f 4900 6564      	.insn	6, 0x65644900345f
 182:	746e                	.insn	2, 0x746e
 184:	355f 4e00 7865      	.insn	6, 0x78654e00355f
 18a:	5f74                	.insn	2, 0x5f74
 18c:	6552                	.insn	2, 0x6552
 18e:	64726f63          	bltu	tp,t2,7ec <__stack_size-0x1fff814>
 192:	4100                	.insn	2, 0x4100
 194:	7272                	.insn	2, 0x7272
 196:	325f 475f 6f6c      	.insn	6, 0x6f6c475f325f
 19c:	0062                	.insn	2, 0x0062
 19e:	325f6843          	.insn	4, 0x325f6843
 1a2:	435f 6d6f 0070      	.insn	6, 0x00706d6f435f
 1a8:	7250                	.insn	2, 0x7250
 1aa:	315f636f          	jal	t1,f6cbe <__stack_size-0x1f09342>
 1ae:	5000                	.insn	2, 0x5000
 1b0:	6f72                	.insn	2, 0x6f72
 1b2:	00325f63          	bge	tp,gp,1d0 <__stack_size-0x1fffe30>
 1b6:	7250                	.insn	2, 0x7250
 1b8:	335f636f          	jal	t1,f6cec <__stack_size-0x1f09314>
 1bc:	5000                	.insn	2, 0x5000
 1be:	6f72                	.insn	2, 0x6f72
 1c0:	00345f63          	bge	s0,gp,1de <__stack_size-0x1fffe22>
 1c4:	7250                	.insn	2, 0x7250
 1c6:	355f636f          	jal	t1,f6d1a <__stack_size-0x1f092e6>
 1ca:	5000                	.insn	2, 0x5000
 1cc:	6f72                	.insn	2, 0x6f72
 1ce:	00365f63          	bge	a2,gp,1ec <__stack_size-0x1fffe14>
 1d2:	7250                	.insn	2, 0x7250
 1d4:	375f636f          	jal	t1,f6d48 <__stack_size-0x1f092b8>
 1d8:	5000                	.insn	2, 0x5000
 1da:	6f72                	.insn	2, 0x6f72
 1dc:	00385f63          	bge	a6,gp,1fa <__stack_size-0x1fffe06>
 1e0:	6e49                	.insn	2, 0x6e49
 1e2:	5f74                	.insn	2, 0x5f74
 1e4:	6f4c5f33          	.insn	4, 0x6f4c5f33
 1e8:	75520063          	beq	tp,s5,928 <__stack_size-0x1fff6d8>
 1ec:	5f6e                	.insn	2, 0x5f6e
 1ee:	6e49                	.insn	2, 0x6e49
 1f0:	6564                	.insn	2, 0x6564
 1f2:	0078                	.insn	2, 0x0078
 1f4:	7450                	.insn	2, 0x7450
 1f6:	5f72                	.insn	2, 0x5f72
 1f8:	6552                	.insn	2, 0x6552
 1fa:	5f66                	.insn	2, 0x5f66
 1fc:	6150                	.insn	2, 0x6150
 1fe:	0072                	.insn	2, 0x0072
 200:	6572                	.insn	2, 0x6572
 202:	64726f63          	bltu	tp,t2,860 <__stack_size-0x1fff7a0>
 206:	4f00                	.insn	2, 0x4f00
 208:	656e                	.insn	2, 0x656e
 20a:	465f 6669 7974      	.insn	6, 0x79746669465f
 210:	4400                	.insn	2, 0x4400
 212:	00656e6f          	jal	t3,56218 <__stack_size-0x1fa9de8>
 216:	6e45                	.insn	2, 0x6e45
 218:	6d75                	.insn	2, 0x6d75
 21a:	4c5f 636f 5000      	.insn	6, 0x5000636f4c5f
 220:	7274                	.insn	2, 0x7274
 222:	565f 6c61 505f      	.insn	6, 0x505f6c61565f
 228:	7261                	.insn	2, 0x7261
 22a:	5500                	.insn	2, 0x5500
 22c:	5f726573          	.insn	4, 0x5f726573
 230:	6954                	.insn	2, 0x6954
 232:	656d                	.insn	2, 0x656d
 234:	4200                	.insn	2, 0x4200
 236:	6765                	.insn	2, 0x6765
 238:	6e69                	.insn	2, 0x6e69
 23a:	545f 6d69 0065      	.insn	6, 0x00656d69545f
 240:	6e75                	.insn	2, 0x6e75
 242:	6e676973          	.insn	4, 0x6e676973
 246:	6465                	.insn	2, 0x6465
 248:	6320                	.insn	2, 0x6320
 24a:	6168                	.insn	2, 0x6168
 24c:	0072                	.insn	2, 0x0072
 24e:	6844                	.insn	2, 0x6844
 250:	7972                	.insn	2, 0x7972
 252:	6e6f7473          	.insn	4, 0x6e6f7473
 256:	7365                	.insn	2, 0x7365
 258:	505f 7265 535f      	.insn	6, 0x535f7265505f
 25e:	6365                	.insn	2, 0x6365
 260:	00646e6f          	jal	t3,46266 <__stack_size-0x1fb9d9a>
 264:	726f6873          	.insn	4, 0x726f6873
 268:	2074                	.insn	2, 0x2074
 26a:	6e69                	.insn	2, 0x6e69
 26c:	0074                	.insn	2, 0x0074
 26e:	6f42                	.insn	2, 0x6f42
 270:	61656c6f          	jal	s8,56886 <__stack_size-0x1fa977a>
 274:	006e                	.insn	2, 0x006e
 276:	315f6843          	.insn	4, 0x315f6843
 27a:	475f 6f6c 0062      	.insn	6, 0x00626f6c475f
 280:	20554e47          	.insn	4, 0x20554e47
 284:	20393843          	.insn	4, 0x20393843
 288:	3531                	.insn	2, 0x3531
 28a:	312e                	.insn	2, 0x312e
 28c:	302e                	.insn	2, 0x302e
 28e:	2d20                	.insn	2, 0x2d20
 290:	616d                	.insn	2, 0x616d
 292:	6962                	.insn	2, 0x6962
 294:	693d                	.insn	2, 0x693d
 296:	706c                	.insn	2, 0x706c
 298:	2d203233          	.insn	4, 0x2d203233
 29c:	636d                	.insn	2, 0x636d
 29e:	6f6d                	.insn	2, 0x6f6d
 2a0:	6564                	.insn	2, 0x6564
 2a2:	3d6c                	.insn	2, 0x3d6c
 2a4:	656d                	.insn	2, 0x656d
 2a6:	6c64                	.insn	2, 0x6c64
 2a8:	2d20776f          	jal	a4,757a <__stack_size-0x1ff8a86>
 2ac:	696d                	.insn	2, 0x696d
 2ae:	732d6173          	.insn	4, 0x732d6173
 2b2:	6570                	.insn	2, 0x6570
 2b4:	30323d63          	.insn	4, 0x30323d63
 2b8:	3931                	.insn	2, 0x3931
 2ba:	3231                	.insn	2, 0x3231
 2bc:	3331                	.insn	2, 0x3331
 2be:	2d20                	.insn	2, 0x2d20
 2c0:	616d                	.insn	2, 0x616d
 2c2:	6372                	.insn	2, 0x6372
 2c4:	3d68                	.insn	2, 0x3d68
 2c6:	7672                	.insn	2, 0x7672
 2c8:	6d693233          	.insn	4, 0x6d693233
 2cc:	5f61                	.insn	2, 0x5f61
 2ce:	697a                	.insn	2, 0x697a
 2d0:	5f727363          	bgeu	tp,s7,8b6 <__stack_size-0x1fff74a>
 2d4:	6d7a                	.insn	2, 0x6d7a
 2d6:	756d                	.insn	2, 0x756d
 2d8:	5f6c                	.insn	2, 0x5f6c
 2da:	617a                	.insn	2, 0x617a
 2dc:	6d61                	.insn	2, 0x6d61
 2de:	617a5f6f          	jal	t5,a60f4 <__stack_size-0x1f59f0c>
 2e2:	726c                	.insn	2, 0x726c
 2e4:	7a5f6373          	.insn	4, 0x7a5f6373
 2e8:	6966                	.insn	2, 0x6966
 2ea:	786e                	.insn	2, 0x786e
 2ec:	2d20                	.insn	2, 0x2d20
 2ee:	61776467          	.insn	4, 0x61776467
 2f2:	6672                	.insn	2, 0x6672
 2f4:	2d20                	.insn	2, 0x2d20
 2f6:	2d20304f          	.insn	4, 0x2d20304f
 2fa:	2d20324f          	.insn	4, 0x2d20324f
 2fe:	3d647473          	.insn	4, 0x3d647473
 302:	39756e67          	.insn	4, 0x39756e67
 306:	0030                	.insn	2, 0x0030
 308:	7261                	.insn	2, 0x7261
 30a:	43007667          	.insn	4, 0x43007667
 30e:	5f68                	.insn	2, 0x5f68
 310:	5f32                	.insn	2, 0x5f32
 312:	626f6c47          	.insn	4, 0x626f6c47
 316:	4500                	.insn	2, 0x4500
 318:	756e                	.insn	2, 0x756e
 31a:	5f6d                	.insn	2, 0x5f6d
 31c:	706d6f43          	.insn	4, 0x706d6f43
 320:	5300                	.insn	2, 0x5300
 322:	7274                	.insn	2, 0x7274
 324:	325f 4c5f 636f      	.insn	6, 0x636f4c5f325f
 32a:	7800                	.insn	2, 0x7800
 32c:	7270                	.insn	2, 0x7270
 32e:	6e69                	.insn	2, 0x6e69
 330:	6674                	.insn	2, 0x6674
 332:	5300                	.insn	2, 0x5300
 334:	7274                	.insn	2, 0x7274
 336:	325f 435f 6d6f      	.insn	6, 0x6d6f435f325f
 33c:	0070                	.insn	2, 0x0070
 33e:	6e45                	.insn	2, 0x6e45
 340:	5f64                	.insn	2, 0x5f64
 342:	6954                	.insn	2, 0x6954
 344:	656d                	.insn	2, 0x656d
 346:	6100                	.insn	2, 0x6100
 348:	6772                	.insn	2, 0x6772
 34a:	6e490063          	beq	s2,tp,a2a <__stack_size-0x1fff5d6>
 34e:	5f74                	.insn	2, 0x5f74
 350:	5f32                	.insn	2, 0x5f32
 352:	6f4c                	.insn	2, 0x6f4c
 354:	754e0063          	beq	t3,s4,a94 <__stack_size-0x1fff56c>
 358:	626d                	.insn	2, 0x626d
 35a:	7265                	.insn	2, 0x7265
 35c:	4f5f 5f66 7552      	.insn	6, 0x75525f664f5f
 362:	736e                	.insn	2, 0x736e
 364:	4500                	.insn	2, 0x4500
 366:	435f 6d6f 5f70      	.insn	6, 0x5f706d6f435f
 36c:	0032                	.insn	2, 0x0032
 36e:	616d                	.insn	2, 0x616d
 370:	6e69                	.insn	2, 0x6e69
 372:	4900                	.insn	2, 0x4900
 374:	746e                	.insn	2, 0x746e
 376:	505f 7261 525f      	.insn	6, 0x525f7261505f
 37c:	6665                	.insn	2, 0x6665
 37e:	4900                	.insn	2, 0x4900
 380:	746e                	.insn	2, 0x746e
 382:	435f 6d6f 0070      	.insn	6, 0x00706d6f435f
 388:	7546                	.insn	2, 0x7546
 38a:	636e                	.insn	2, 0x636e
 38c:	335f 4500 756e      	.insn	6, 0x756e4500335f
 392:	5f6d                	.insn	2, 0x5f6d
 394:	6552                	.insn	2, 0x6552
 396:	5f66                	.insn	2, 0x5f66
 398:	6150                	.insn	2, 0x6150
 39a:	0072                	.insn	2, 0x0072
 39c:	69706143          	.insn	4, 0x69706143
 3a0:	6174                	.insn	2, 0x6174
 3a2:	5f6c                	.insn	2, 0x5f6c
 3a4:	654c                	.insn	2, 0x654c
 3a6:	7474                	.insn	2, 0x7474
 3a8:	7265                	.insn	2, 0x7265
 3aa:	4100                	.insn	2, 0x4100
 3ac:	7272                	.insn	2, 0x7272
 3ae:	315f 505f 7261      	.insn	6, 0x7261505f315f
 3b4:	525f 6665 4300      	.insn	6, 0x43006665525f
 3ba:	5f68                	.insn	2, 0x5f68
 3bc:	5f32                	.insn	2, 0x5f32
 3be:	6f4c                	.insn	2, 0x6f4c
 3c0:	68430063          	beq	t1,tp,a40 <__stack_size-0x1fff5c0>
 3c4:	4c5f 636f 5300      	.insn	6, 0x5300636f4c5f
 3ca:	7274                	.insn	2, 0x7274
 3cc:	315f 505f 7261      	.insn	6, 0x7261505f315f
 3d2:	525f 6665 4900      	.insn	6, 0x49006665525f
 3d8:	746e                	.insn	2, 0x746e
 3da:	495f 646e 7865      	.insn	6, 0x7865646e495f
 3e0:	4f00                	.insn	2, 0x4f00
 3e2:	656e                	.insn	2, 0x656e
 3e4:	545f 6968 7472      	.insn	6, 0x74726968545f
 3ea:	0079                	.insn	2, 0x0079
 3ec:	315f6843          	.insn	4, 0x315f6843
 3f0:	505f 7261 565f      	.insn	6, 0x565f7261505f
 3f6:	6c61                	.insn	2, 0x6c61
 3f8:	4500                	.insn	2, 0x4500
 3fa:	756e                	.insn	2, 0x756e
 3fc:	5f6d                	.insn	2, 0x5f6d
 3fe:	6150                	.insn	2, 0x6150
 400:	5f72                	.insn	2, 0x5f72
 402:	6156                	.insn	2, 0x6156
 404:	006c                	.insn	2, 0x006c
 406:	7241                	.insn	2, 0x7241
 408:	5f72                	.insn	2, 0x5f72
 40a:	5f32                	.insn	2, 0x5f32
 40c:	6150                	.insn	2, 0x6150
 40e:	5f72                	.insn	2, 0x5f72
 410:	6552                	.insn	2, 0x6552
 412:	0066                	.insn	2, 0x0066
 414:	6e49                	.insn	2, 0x6e49
 416:	5f74                	.insn	2, 0x5f74
 418:	5f31                	.insn	2, 0x5f31
 41a:	6150                	.insn	2, 0x6150
 41c:	5f72                	.insn	2, 0x5f72
 41e:	6156                	.insn	2, 0x6156
 420:	006c                	.insn	2, 0x006c
 422:	6e45                	.insn	2, 0x6e45
 424:	6d75                	.insn	2, 0x6d75
 426:	565f 6c61 505f      	.insn	6, 0x505f6c61565f
 42c:	7261                	.insn	2, 0x7261
 42e:	5300                	.insn	2, 0x5300
 430:	7274                	.insn	2, 0x7274
 432:	325f 505f 7261      	.insn	6, 0x7261505f325f
 438:	525f 6665 7300      	.insn	6, 0x73006665525f
 43e:	7274                	.insn	2, 0x7274
 440:	00706d63          	bltu	zero,t2,45a <__stack_size-0x1fffba6>
 444:	325f6843          	.insn	4, 0x325f6843
 448:	505f 7261 565f      	.insn	6, 0x565f7261505f
 44e:	6c61                	.insn	2, 0x6c61
 450:	4900                	.insn	2, 0x4900
 452:	746e                	.insn	2, 0x746e
 454:	325f 505f 7261      	.insn	6, 0x7261505f325f
 45a:	565f 6c61 4300      	.insn	6, 0x43006c61565f
 460:	5f68                	.insn	2, 0x5f68
 462:	5f31                	.insn	2, 0x5f31
 464:	6f4c                	.insn	2, 0x6f4c
 466:	64610063          	beq	sp,t1,aa6 <__stack_size-0x1fff55a>
 46a:	7264                	.insn	2, 0x7264
 46c:	7500                	.insn	2, 0x7500
 46e:	7261                	.insn	2, 0x7261
 470:	3874                	.insn	2, 0x3874
 472:	3532                	.insn	2, 0x3532
 474:	5f30                	.insn	2, 0x5f30
 476:	6162                	.insn	2, 0x6162
 478:	6475                	.insn	2, 0x6475
 47a:	6172                	.insn	2, 0x6172
 47c:	6574                	.insn	2, 0x6574
 47e:	7500                	.insn	2, 0x7500
 480:	7261                	.insn	2, 0x7261
 482:	3874                	.insn	2, 0x3874
 484:	3532                	.insn	2, 0x3532
 486:	5f30                	.insn	2, 0x5f30
 488:	6e69                	.insn	2, 0x6e69
 48a:	665f 6572 0071      	.insn	6, 0x00716572665f
 490:	6462                	.insn	2, 0x6462
 492:	7669                	.insn	2, 0x7669
 494:	6700                	.insn	2, 0x6700
 496:	7465                	.insn	2, 0x7465
 498:	725f 6765 7300      	.insn	6, 0x73006765725f
 49e:	7465                	.insn	2, 0x7465
 4a0:	725f 6765 7500      	.insn	6, 0x75006765725f
 4a6:	7261                	.insn	2, 0x7261
 4a8:	5f74                	.insn	2, 0x5f74
 4aa:	63746567          	.insn	4, 0x63746567
 4ae:	5f00                	.insn	2, 0x5f00
 4b0:	755f 6e69 3174      	.insn	6, 0x31746e69755f
 4b6:	5f36                	.insn	2, 0x5f36
 4b8:	0074                	.insn	2, 0x0074
 4ba:	5f5f 6975 746e      	.insn	6, 0x746e69755f5f
 4c0:	745f3233          	.insn	4, 0x745f3233
 4c4:	7800                	.insn	2, 0x7800
 4c6:	7566                	.insn	2, 0x7566
 4c8:	636e                	.insn	2, 0x636e
 4ca:	6f5f 7475 5f00      	.insn	6, 0x5f0074756f5f
 4d0:	725f 7761 725f      	.insn	6, 0x725f7761725f
 4d6:	6165                	.insn	2, 0x6165
 4d8:	6264                	.insn	2, 0x6264
 4da:	5f00                	.insn	2, 0x5f00
 4dc:	725f 7761 775f      	.insn	6, 0x775f7761725f
 4e2:	6972                	.insn	2, 0x6972
 4e4:	6574                	.insn	2, 0x6574
 4e6:	0062                	.insn	2, 0x0062
 4e8:	6175                	.insn	2, 0x6175
 4ea:	7472                	.insn	2, 0x7472
 4ec:	3238                	.insn	2, 0x3238
 4ee:	3035                	.insn	2, 0x3035
 4f0:	725f 6765 735f      	.insn	6, 0x735f6765725f
 4f6:	6968                	.insn	2, 0x6968
 4f8:	7466                	.insn	2, 0x7466
 4fa:	6f00                	.insn	2, 0x6f00
 4fc:	6666                	.insn	2, 0x6666
 4fe:	00746573          	.insn	4, 0x00746573
 502:	6175                	.insn	2, 0x6175
 504:	7472                	.insn	2, 0x7472
 506:	705f 7475 0063      	.insn	6, 0x00637475705f
 50c:	6175                	.insn	2, 0x6175
 50e:	7472                	.insn	2, 0x7472
 510:	3238                	.insn	2, 0x3238
 512:	3035                	.insn	2, 0x3035
 514:	625f 7361 0065      	.insn	6, 0x00657361625f
 51a:	5f5f 7562 6c69      	.insn	6, 0x6c6975625f5f
 520:	6974                	.insn	2, 0x6974
 522:	5f6e                	.insn	2, 0x5f6e
 524:	6176                	.insn	2, 0x6176
 526:	6c5f 7369 0074      	.insn	6, 0x007473696c5f
 52c:	7074756f          	jal	a0,48432 <__stack_size-0x1fb7bce>
 530:	7274                	.insn	2, 0x7274
 532:	7800                	.insn	2, 0x7800
 534:	7076                	.insn	2, 0x7076
 536:	6972                	.insn	2, 0x6972
 538:	746e                	.insn	2, 0x746e
 53a:	0066                	.insn	2, 0x0066
 53c:	5f5f 6e67 6375      	.insn	6, 0x63756e675f5f
 542:	765f 5f61 696c      	.insn	6, 0x696c5f61765f
 548:	78007473          	.insn	4, 0x78007473
 54c:	7570                	.insn	2, 0x7570
 54e:	7374                	.insn	2, 0x7374
 550:	7800                	.insn	2, 0x7800
 552:	7570                	.insn	2, 0x7570
 554:	6374                	.insn	2, 0x6374
	...

Disassembly of section .debug_loclists:

00000000 <.debug_loclists>:
   0:	00000233          	add	tp,zero,zero
   4:	0005                	.insn	2, 0x0005
   6:	0004                	.insn	2, 0x0004
   8:	0000                	.insn	2, 0x0000
   a:	0000                	.insn	2, 0x0000
   c:	ec080003          	lb	zero,-320(a6)
  10:	0008                	.insn	2, 0x0008
  12:	3080                	.insn	2, 0x3080
  14:	030e                	.insn	2, 0x030e
  16:	4225                	.insn	2, 0x4225
  18:	8000                	.insn	2, 0x8000
  1a:	0194                	.insn	2, 0x0194
  1c:	4108                	.insn	2, 0x4108
  1e:	0829                	.insn	2, 0x0829
  20:	009f1aff 00090900 	.insn	12, 0x0007580600090900009f1aff
  28:	00075806 
  2c:	0480                	.insn	2, 0x0480
  2e:	2800                	.insn	2, 0x2800
  30:	5a01                	.insn	2, 0x5a01
  32:	2804                	.insn	2, 0x2804
  34:	0a2c                	.insn	2, 0x0a2c
  36:	0aa503a3          	sb	a0,167(a0) # 30001fb <__stack_size+0x10001fb>
  3a:	a826                	.insn	2, 0xa826
  3c:	a82d                	.insn	2, 0xa82d
  3e:	9f00                	.insn	2, 0x9f00
  40:	0000                	.insn	2, 0x0000
  42:	0a0a                	.insn	2, 0x0a0a
  44:	14140b0b          	.insn	4, 0x14140b0b
  48:	0600                	.insn	2, 0x0600
  4a:	0728                	.insn	2, 0x0728
  4c:	8000                	.insn	2, 0x8000
  4e:	0004                	.insn	2, 0x0004
  50:	0110                	.insn	2, 0x0110
  52:	045a                	.insn	2, 0x045a
  54:	1410                	.insn	2, 0x1410
  56:	a30a                	.insn	2, 0xa30a
  58:	260aa503          	lw	a0,608(s5)
  5c:	2da8                	.insn	2, 0x2da8
  5e:	00a8                	.insn	2, 0x00a8
  60:	049f 2c14 5a01      	.insn	6, 0x5a012c14049f
  66:	2c04                	.insn	2, 0x2c04
  68:	0a30                	.insn	2, 0x0a30
  6a:	0aa503a3          	sb	a0,167(a0)
  6e:	a826                	.insn	2, 0xa826
  70:	a82d                	.insn	2, 0xa82d
  72:	9f00                	.insn	2, 0x9f00
  74:	0600                	.insn	2, 0x0600
  76:	0b09                	.insn	2, 0x0b09
  78:	0c0c                	.insn	2, 0x0c0c
  7a:	1010                	.insn	2, 0x1010
  7c:	1111                	.insn	2, 0x1111
  7e:	0612                	.insn	2, 0x0612
  80:	0734                	.insn	2, 0x0734
  82:	8000                	.insn	2, 0x8000
  84:	0004                	.insn	2, 0x0004
  86:	0604                	.insn	2, 0x0604
  88:	007a                	.insn	2, 0x007a
  8a:	2306                	.insn	2, 0x2306
  8c:	9f0a                	.insn	2, 0x9f0a
  8e:	0804                	.insn	2, 0x0804
  90:	0608                	.insn	2, 0x0608
  92:	007a                	.insn	2, 0x007a
  94:	2306                	.insn	2, 0x2306
  96:	9f0a                	.insn	2, 0x9f0a
  98:	0804                	.insn	2, 0x0804
  9a:	0618                	.insn	2, 0x0618
  9c:	007a                	.insn	2, 0x007a
  9e:	2306                	.insn	2, 0x2306
  a0:	9f09                	.insn	2, 0x9f09
  a2:	1804                	.insn	2, 0x1804
  a4:	011c                	.insn	2, 0x011c
  a6:	045f 201c 7a06      	.insn	6, 0x7a06201c045f
  ac:	0600                	.insn	2, 0x0600
  ae:	009f0923          	sb	s1,18(t5)
  b2:	0b09                	.insn	2, 0x0b09
  b4:	38060013          	addi	zero,a2,896
  b8:	04800007          	.insn	4, 0x04800007
  bc:	0400                	.insn	2, 0x0400
  be:	3002                	.insn	2, 0x3002
  c0:	049f 201c 3002      	.insn	6, 0x3002201c049f
  c6:	009f 0900 1a09      	.insn	6, 0x1a090900009f
  cc:	1b1a                	.insn	2, 0x1b1a
  ce:	0023231b          	.insn	4, 0x0023231b
  d2:	8406                	.insn	2, 0x8406
  d4:	04800007          	.insn	4, 0x04800007
  d8:	5000                	.insn	2, 0x5000
  da:	5a01                	.insn	2, 0x5a01
  dc:	5004                	.insn	2, 0x5004
  de:	0298                	.insn	2, 0x0298
  e0:	5901                	.insn	2, 0x5901
  e2:	9804                	.insn	2, 0x9804
  e4:	a402                	.insn	2, 0xa402
  e6:	0a02                	.insn	2, 0x0a02
  e8:	0aa503a3          	sb	a0,167(a0)
  ec:	a826                	.insn	2, 0xa826
  ee:	a82d                	.insn	2, 0xa82d
  f0:	9f00                	.insn	2, 0x9f00
  f2:	a404                	.insn	2, 0xa404
  f4:	d002                	.insn	2, 0xd002
  f6:	0102                	.insn	2, 0x0102
  f8:	0459                	.insn	2, 0x0459
  fa:	02d0                	.insn	2, 0x02d0
  fc:	02e8                	.insn	2, 0x02e8
  fe:	a30a                	.insn	2, 0xa30a
 100:	260aa503          	lw	a0,608(s5)
 104:	2da8                	.insn	2, 0x2da8
 106:	00a8                	.insn	2, 0x00a8
 108:	009f 1906 261b      	.insn	6, 0x261b1906009f
 10e:	2a26                	.insn	2, 0x2a26
 110:	a406                	.insn	2, 0xa406
 112:	04800007          	.insn	4, 0x04800007
 116:	f400                	.insn	2, 0xf400
 118:	0101                	.insn	2, 0x0101
 11a:	0458                	.insn	2, 0x0458
 11c:	0284                	.insn	2, 0x0284
 11e:	02b8                	.insn	2, 0x02b8
 120:	5801                	.insn	2, 0x5801
 122:	b804                	.insn	2, 0xb804
 124:	c702                	.insn	2, 0xc702
 126:	0302                	.insn	2, 0x0302
 128:	747c                	.insn	2, 0x747c
 12a:	009f 0400 0004      	.insn	6, 0x00040400009f
 130:	1c06                	.insn	2, 0x1c06
 132:	0000                	.insn	2, 0x0000
 134:	0480                	.insn	2, 0x0480
 136:	3f00                	.insn	2, 0x3f00
 138:	5a01                	.insn	2, 0x5a01
 13a:	3f04                	.insn	2, 0x3f04
 13c:	0e8c                	.insn	2, 0x0e8c
 13e:	a30a                	.insn	2, 0xa30a
 140:	260aa503          	lw	a0,608(s5)
 144:	2da8                	.insn	2, 0x2da8
 146:	00a8                	.insn	2, 0x00a8
 148:	009f 0400 0004      	.insn	6, 0x00040400009f
 14e:	1c06                	.insn	2, 0x1c06
 150:	0000                	.insn	2, 0x0000
 152:	0480                	.insn	2, 0x0480
 154:	3f00                	.insn	2, 0x3f00
 156:	5b01                	.insn	2, 0x5b01
 158:	3f04                	.insn	2, 0x3f04
 15a:	0e8c                	.insn	2, 0x0e8c
 15c:	a30a                	.insn	2, 0xa30a
 15e:	260ba503          	lw	a0,608(s7)
 162:	2da8                	.insn	2, 0x2da8
 164:	00a8                	.insn	2, 0x00a8
 166:	009f 6a50 746a      	.insn	6, 0x746a6a50009f
 16c:	7e74                	.insn	2, 0x7e74
 16e:	7f7e                	.insn	2, 0x7f7e
 170:	018c0187          	.insn	4, 0x018c0187
 174:	018c                	.insn	2, 0x018c
 176:	01a1                	.insn	2, 0x01a1
 178:	01fe                	.insn	2, 0x01fe
 17a:	01ff 0406 0002 0480 	.insn	10, 0xb00004800002040601ff
 182:	b000 
 184:	0201                	.insn	2, 0x0201
 186:	b0049f33          	.insn	4, 0xb0049f33
 18a:	9401                	.insn	2, 0x9401
 18c:	0102                	.insn	2, 0x0102
 18e:	0464                	.insn	2, 0x0464
 190:	0294                	.insn	2, 0x0294
 192:	02c0                	.insn	2, 0x02c0
 194:	6301                	.insn	2, 0x6301
 196:	c004                	.insn	2, 0xc004
 198:	c802                	.insn	2, 0xc802
 19a:	0102                	.insn	2, 0x0102
 19c:	0464                	.insn	2, 0x0464
 19e:	02dc                	.insn	2, 0x02dc
 1a0:	02f8                	.insn	2, 0x02f8
 1a2:	8700840b          	.insn	4, 0x8700840b
 1a6:	1c00                	.insn	2, 0x1c00
 1a8:	008b1e37          	lui	t3,0x8b1
 1ac:	9f1c                	.insn	2, 0x9f1c
 1ae:	f804                	.insn	2, 0xf804
 1b0:	b402                	.insn	2, 0xb402
 1b2:	00840803          	lb	a6,8(s0)
 1b6:	008b1e37          	lui	t3,0x8b1
 1ba:	9f1c                	.insn	2, 0x9f1c
 1bc:	8c04                	.insn	2, 0x8c04
 1be:	940a                	.insn	2, 0x940a
 1c0:	020a                	.insn	2, 0x020a
 1c2:	67009f33          	.insn	4, 0x67009f33
 1c6:	6a6a                	.insn	2, 0x6a6a
 1c8:	7a7a                	.insn	2, 0x7a7a
 1ca:	7d7d                	.insn	2, 0x7d7d
 1cc:	fe7f                	.insn	2, 0xfe7f
 1ce:	ff01                	.insn	2, 0xff01
 1d0:	0601                	.insn	2, 0x0601
 1d2:	029c                	.insn	2, 0x029c
 1d4:	8000                	.insn	2, 0x8000
 1d6:	0004                	.insn	2, 0x0004
 1d8:	0318                	.insn	2, 0x0318
 1da:	4108                	.insn	2, 0x4108
 1dc:	049f a018 0101      	.insn	6, 0x0101a018049f
 1e2:	01a00467          	jalr	s0,26(zero) # 1a <__stack_size-0x1ffffe6>
 1e6:	01a4                	.insn	2, 0x01a4
 1e8:	9f7f7f03          	.insn	4, 0x9f7f7f03
 1ec:	a404                	.insn	2, 0xa404
 1ee:	b001                	.insn	2, 0xb001
 1f0:	0101                	.insn	2, 0x0101
 1f2:	08f40467          	jalr	s0,143(s0)
 1f6:	08fc                	.insn	2, 0x08fc
 1f8:	9f410803          	lb	a6,-1548(sp) # b0afba2 <__stack_size+0x90afba2>
 1fc:	4800                	.insn	2, 0x4800
 1fe:	01844b4b          	.insn	4, 0x01844b4b
 202:	0184                	.insn	2, 0x0184
 204:	0189                	.insn	2, 0x0189
 206:	0189                	.insn	2, 0x0189
 208:	01fe018f          	.insn	4, 0x01fe018f
 20c:	01ff dc06 0001 0480 	.insn	10, 0x200004800001dc0601ff
 214:	2000 
 216:	3102                	.insn	2, 0x3102
 218:	049f fc20 0102      	.insn	6, 0x0102fc20049f
 21e:	02fc0463          	beq	s8,a5,246 <__stack_size-0x1fffdba>
 222:	0388                	.insn	2, 0x0388
 224:	9f7f8303          	lb	t1,-1545(t6)
 228:	8804                	.insn	2, 0x8804
 22a:	0103a803          	lw	a6,16(t2)
 22e:	0ab40463          	beq	s0,a1,2d6 <__stack_size-0x1fffd2a>
 232:	0abc                	.insn	2, 0x0abc
 234:	6301                	.insn	2, 0x6301
 236:	2a00                	.insn	2, 0x2a00
 238:	05000003          	lb	zero,80(zero) # 50 <__stack_size-0x1ffffb0>
 23c:	0400                	.insn	2, 0x0400
 23e:	0000                	.insn	2, 0x0000
 240:	0000                	.insn	2, 0x0000
 242:	0000                	.insn	2, 0x0000
 244:	0505                	.insn	2, 0x0505
 246:	0606                	.insn	2, 0x0606
 248:	0400                	.insn	2, 0x0400
 24a:	0288                	.insn	2, 0x0288
 24c:	028c                	.insn	2, 0x028c
 24e:	5a01                	.insn	2, 0x5a01
 250:	8c04                	.insn	2, 0x8c04
 252:	9002                	.insn	2, 0x9002
 254:	0302                	.insn	2, 0x0302
 256:	027a                	.insn	2, 0x027a
 258:	049f 0290 0294      	.insn	6, 0x02940290049f
 25e:	a30a                	.insn	2, 0xa30a
 260:	260aa503          	lw	a0,608(s5)
 264:	2da8                	.insn	2, 0x2da8
 266:	00a8                	.insn	2, 0x00a8
 268:	009f 0503 0605      	.insn	6, 0x06050503009f
 26e:	0006                	.insn	2, 0x0006
 270:	8804                	.insn	2, 0x8804
 272:	8c02                	.insn	2, 0x8c02
 274:	0102                	.insn	2, 0x0102
 276:	045a                	.insn	2, 0x045a
 278:	028c                	.insn	2, 0x028c
 27a:	0290                	.insn	2, 0x0290
 27c:	9f027a03          	.insn	4, 0x9f027a03
 280:	9004                	.insn	2, 0x9004
 282:	9402                	.insn	2, 0x9402
 284:	0a02                	.insn	2, 0x0a02
 286:	0aa503a3          	sb	a0,167(a0)
 28a:	a826                	.insn	2, 0xa826
 28c:	a82d                	.insn	2, 0xa82d
 28e:	9f00                	.insn	2, 0x9f00
 290:	0000                	.insn	2, 0x0000
 292:	0909                	.insn	2, 0x0909
 294:	1818                	.insn	2, 0x1818
 296:	0400                	.insn	2, 0x0400
 298:	0198                	.insn	2, 0x0198
 29a:	01b8                	.insn	2, 0x01b8
 29c:	5a01                	.insn	2, 0x5a01
 29e:	b804                	.insn	2, 0xb804
 2a0:	f401                	.insn	2, 0xf401
 2a2:	0101                	.insn	2, 0x0101
 2a4:	0458                	.insn	2, 0x0458
 2a6:	01f4                	.insn	2, 0x01f4
 2a8:	0288                	.insn	2, 0x0288
 2aa:	a30a                	.insn	2, 0xa30a
 2ac:	260aa503          	lw	a0,608(s5)
 2b0:	2da8                	.insn	2, 0x2da8
 2b2:	00a8                	.insn	2, 0x00a8
 2b4:	009f 0900 1909      	.insn	6, 0x19090900009f
 2ba:	0019                	.insn	2, 0x0019
 2bc:	9804                	.insn	2, 0x9804
 2be:	b801                	.insn	2, 0xb801
 2c0:	0101                	.insn	2, 0x0101
 2c2:	01b8045b          	.insn	4, 0x01b8045b
 2c6:	01f8                	.insn	2, 0x01f8
 2c8:	5901                	.insn	2, 0x5901
 2ca:	f804                	.insn	2, 0xf804
 2cc:	8801                	.insn	2, 0x8801
 2ce:	0a02                	.insn	2, 0x0a02
 2d0:	0ba503a3          	sb	s10,167(a0)
 2d4:	a826                	.insn	2, 0xa826
 2d6:	a82d                	.insn	2, 0xa82d
 2d8:	9f00                	.insn	2, 0x9f00
 2da:	0500                	.insn	2, 0x0500
 2dc:	0d0d0b0b          	.insn	4, 0x0d0d0b0b
 2e0:	04171313          	.insn	4, 0x04171313
 2e4:	0198                	.insn	2, 0x0198
 2e6:	01c4                	.insn	2, 0x01c4
 2e8:	3202                	.insn	2, 0x3202
 2ea:	049f 01c4 01c8      	.insn	6, 0x01c801c4049f
 2f0:	3305                	.insn	2, 0x3305
 2f2:	007a                	.insn	2, 0x007a
 2f4:	9f1c                	.insn	2, 0x9f1c
 2f6:	c804                	.insn	2, 0xc804
 2f8:	dc01                	.insn	2, 0xdc01
 2fa:	0201                	.insn	2, 0x0201
 2fc:	dc049f33          	.insn	4, 0xdc049f33
 300:	ec01                	.insn	2, 0xec01
 302:	0201                	.insn	2, 0x0201
 304:	9f3a                	.insn	2, 0x9f3a
 306:	0000                	.insn	2, 0x0000
 308:	0a0a                	.insn	2, 0x0a0a
 30a:	0400                	.insn	2, 0x0400
 30c:	8474                	.insn	2, 0x8474
 30e:	0101                	.insn	2, 0x0101
 310:	045a                	.insn	2, 0x045a
 312:	0184                	.insn	2, 0x0184
 314:	0198                	.insn	2, 0x0198
 316:	a30a                	.insn	2, 0xa30a
 318:	260aa503          	lw	a0,608(s5)
 31c:	34a8                	.insn	2, 0x34a8
 31e:	00a8                	.insn	2, 0x00a8
 320:	009f 0a05 0b0a      	.insn	6, 0x0b0a0a05009f
 326:	78040f0b          	.insn	4, 0x78040f0b
 32a:	0184                	.insn	2, 0x0184
 32c:	5a01                	.insn	2, 0x5a01
 32e:	8404                	.insn	2, 0x8404
 330:	8801                	.insn	2, 0x8801
 332:	0a01                	.insn	2, 0x0a01
 334:	0aa503a3          	sb	a0,167(a0)
 338:	a826                	.insn	2, 0xa826
 33a:	a834                	.insn	2, 0xa834
 33c:	9f00                	.insn	2, 0x9f00
 33e:	8804                	.insn	2, 0x8804
 340:	9401                	.insn	2, 0x9401
 342:	0101                	.insn	2, 0x0101
 344:	005a                	.insn	2, 0x005a
 346:	0a06                	.insn	2, 0x0a06
 348:	0b0a                	.insn	2, 0x0b0a
 34a:	78040f0b          	.insn	4, 0x78040f0b
 34e:	0184                	.insn	2, 0x0184
 350:	5a01                	.insn	2, 0x5a01
 352:	8404                	.insn	2, 0x8404
 354:	8801                	.insn	2, 0x8801
 356:	0a01                	.insn	2, 0x0a01
 358:	0aa503a3          	sb	a0,167(a0)
 35c:	a826                	.insn	2, 0xa826
 35e:	a834                	.insn	2, 0xa834
 360:	9f00                	.insn	2, 0x9f00
 362:	8804                	.insn	2, 0x8804
 364:	9401                	.insn	2, 0x9401
 366:	0101                	.insn	2, 0x0101
 368:	005a                	.insn	2, 0x005a
 36a:	0800                	.insn	2, 0x0800
 36c:	0008                	.insn	2, 0x0008
 36e:	1004                	.insn	2, 0x1004
 370:	0128                	.insn	2, 0x0128
 372:	045a                	.insn	2, 0x045a
 374:	7428                	.insn	2, 0x7428
 376:	a30a                	.insn	2, 0xa30a
 378:	260aa503          	lw	a0,608(s5)
 37c:	2da8                	.insn	2, 0x2da8
 37e:	00a8                	.insn	2, 0x00a8
 380:	009f 1e00 001e      	.insn	6, 0x001e1e00009f
 386:	1004                	.insn	2, 0x1004
 388:	0158                	.insn	2, 0x0158
 38a:	7458045b          	.insn	4, 0x7458045b
 38e:	a30a                	.insn	2, 0xa30a
 390:	260ba503          	lw	a0,608(s7)
 394:	2da8                	.insn	2, 0x2da8
 396:	00a8                	.insn	2, 0x00a8
 398:	009f 0700 1a07      	.insn	6, 0x1a070700009f
 39e:	201a                	.insn	2, 0x201a
 3a0:	2220                	.insn	2, 0x2220
 3a2:	0022                	.insn	2, 0x0022
 3a4:	1004                	.insn	2, 0x1004
 3a6:	0120                	.insn	2, 0x0120
 3a8:	045c                	.insn	2, 0x045c
 3aa:	4c20                	.insn	2, 0x4c20
 3ac:	9f7b7e03          	.insn	4, 0x9f7b7e03
 3b0:	4c04                	.insn	2, 0x4c04
 3b2:	0664                	.insn	2, 0x0664
 3b4:	3506147f 64049f1c 	.insn	12, 0x007c156c64049f1c3506147f
 3bc:	007c156c 
 3c0:	0080                	.insn	2, 0x0080
 3c2:	a322                	.insn	2, 0xa322
 3c4:	260ba503          	lw	a0,608(s7)
 3c8:	2da8                	.insn	2, 0x2da8
 3ca:	00a8                	.insn	2, 0x00a8
 3cc:	2322                	.insn	2, 0x2322
 3ce:	0614                	.insn	2, 0x0614
 3d0:	1c35                	.insn	2, 0x1c35
 3d2:	049f 746c a30a      	.insn	6, 0xa30a746c049f
 3d8:	260ca503          	lw	a0,608(s9)
 3dc:	2da8                	.insn	2, 0x2da8
 3de:	00a8                	.insn	2, 0x00a8
 3e0:	009f 1100 1211      	.insn	6, 0x12111100009f
 3e6:	0012                	.insn	2, 0x0012
 3e8:	1004                	.insn	2, 0x1004
 3ea:	0140                	.insn	2, 0x0140
 3ec:	045d                	.insn	2, 0x045d
 3ee:	4440                	.insn	2, 0x4440
 3f0:	7a02                	.insn	2, 0x7a02
 3f2:	0400                	.insn	2, 0x0400
 3f4:	7444                	.insn	2, 0x7444
 3f6:	a30a                	.insn	2, 0xa30a
 3f8:	260da503          	lw	a0,608(s11)
 3fc:	2da8                	.insn	2, 0x2da8
 3fe:	00a8                	.insn	2, 0x00a8
 400:	009f 130e 1713      	.insn	6, 0x1713130e009f
 406:	201a1a17          	auipc	s4,0x201a1
 40a:	2220                	.insn	2, 0x2220
 40c:	0022                	.insn	2, 0x0022
 40e:	3404                	.insn	2, 0x3404
 410:	0144                	.insn	2, 0x0144
 412:	045e                	.insn	2, 0x045e
 414:	4844                	.insn	2, 0x4844
 416:	9f017e03          	.insn	4, 0x9f017e03
 41a:	4804                	.insn	2, 0x4804
 41c:	034c                	.insn	2, 0x034c
 41e:	027e                	.insn	2, 0x027e
 420:	049f 644c 7f06      	.insn	6, 0x7f06644c049f
 426:	0614                	.insn	2, 0x0614
 428:	049f0223          	sb	s1,68(t5)
 42c:	6c64                	.insn	2, 0x6c64
 42e:	7c15                	.insn	2, 0x7c15
 430:	8000                	.insn	2, 0x8000
 432:	2200                	.insn	2, 0x2200
 434:	0ba503a3          	sb	s10,167(a0)
 438:	a826                	.insn	2, 0xa826
 43a:	a82d                	.insn	2, 0xa82d
 43c:	2200                	.insn	2, 0x2200
 43e:	23061423          	sh	a6,552(a2)
 442:	9f02                	.insn	2, 0x9f02
 444:	6c04                	.insn	2, 0x6c04
 446:	0c74                	.insn	2, 0x0c74
 448:	0ca503a3          	sb	a0,199(a0)
 44c:	a826                	.insn	2, 0xa826
 44e:	a82d                	.insn	2, 0xa82d
 450:	2300                	.insn	2, 0x2300
 452:	05009f07          	.insn	4, 0x05009f07
 456:	1a1a                	.insn	2, 0x1a1a
 458:	2020                	.insn	2, 0x2020
 45a:	2222                	.insn	2, 0x2222
 45c:	0400                	.insn	2, 0x0400
 45e:	4c14                	.insn	2, 0x4c14
 460:	5e01                	.insn	2, 0x5e01
 462:	4c04                	.insn	2, 0x4c04
 464:	0264                	.insn	2, 0x0264
 466:	6404147f 007c116c 	.insn	12, 0xa3220080007c116c6404147f
 46e:	a3220080 
 472:	260ba503          	lw	a0,608(s7)
 476:	2da8                	.insn	2, 0x2da8
 478:	00a8                	.insn	2, 0x00a8
 47a:	2322                	.insn	2, 0x2322
 47c:	0414                	.insn	2, 0x0414
 47e:	746c                	.insn	2, 0x746c
 480:	a30c                	.insn	2, 0xa30c
 482:	260ca503          	lw	a0,608(s9)
 486:	2da8                	.insn	2, 0x2da8
 488:	00a8                	.insn	2, 0x00a8
 48a:	009f0523          	sb	s1,10(t5)
 48e:	0500                	.insn	2, 0x0500
 490:	0605                	.insn	2, 0x0605
 492:	0006                	.insn	2, 0x0006
 494:	0004                	.insn	2, 0x0004
 496:	0104                	.insn	2, 0x0104
 498:	045a                	.insn	2, 0x045a
 49a:	0804                	.insn	2, 0x0804
 49c:	9f7e7a03          	.insn	4, 0x9f7e7a03
 4a0:	0804                	.insn	2, 0x0804
 4a2:	0a10                	.insn	2, 0x0a10
 4a4:	0aa503a3          	sb	a0,167(a0)
 4a8:	a826                	.insn	2, 0xa826
 4aa:	a82d                	.insn	2, 0xa82d
 4ac:	9f00                	.insn	2, 0x9f00
 4ae:	0300                	.insn	2, 0x0300
 4b0:	0505                	.insn	2, 0x0505
 4b2:	0606                	.insn	2, 0x0606
 4b4:	0400                	.insn	2, 0x0400
 4b6:	0400                	.insn	2, 0x0400
 4b8:	9f027a03          	.insn	4, 0x9f027a03
 4bc:	0404                	.insn	2, 0x0404
 4be:	0108                	.insn	2, 0x0108
 4c0:	045a                	.insn	2, 0x045a
 4c2:	1008                	.insn	2, 0x1008
 4c4:	a30c                	.insn	2, 0xa30c
 4c6:	260aa503          	lw	a0,608(s5)
 4ca:	2da8                	.insn	2, 0x2da8
 4cc:	00a8                	.insn	2, 0x00a8
 4ce:	009f0223          	sb	s1,4(t5)
 4d2:	0600                	.insn	2, 0x0600
 4d4:	1006                	.insn	2, 0x1006
 4d6:	1310                	.insn	2, 0x1310
 4d8:	19181813          	.insn	4, 0x19181813
 4dc:	1b19                	.insn	2, 0x1b19
 4de:	201e1e1b          	.insn	4, 0x201e1e1b
 4e2:	0020                	.insn	2, 0x0020
 4e4:	9404                	.insn	2, 0x9404
 4e6:	ab02                	.insn	2, 0xab02
 4e8:	0102                	.insn	2, 0x0102
 4ea:	045a                	.insn	2, 0x045a
 4ec:	02e802ab          	.insn	4, 0x02e802ab
 4f0:	5801                	.insn	2, 0x5801
 4f2:	e804                	.insn	2, 0xe804
 4f4:	f402                	.insn	2, 0xf402
 4f6:	0a02                	.insn	2, 0x0a02
 4f8:	0aa503a3          	sb	a0,167(a0)
 4fc:	a826                	.insn	2, 0xa826
 4fe:	a82d                	.insn	2, 0xa82d
 500:	9f00                	.insn	2, 0x9f00
 502:	f404                	.insn	2, 0xf404
 504:	8802                	.insn	2, 0x8802
 506:	04580103          	lb	sp,69(a6)
 50a:	0388                	.insn	2, 0x0388
 50c:	0390                	.insn	2, 0x0390
 50e:	a30a                	.insn	2, 0xa30a
 510:	260aa503          	lw	a0,608(s5)
 514:	2da8                	.insn	2, 0x2da8
 516:	00a8                	.insn	2, 0x00a8
 518:	049f 0390 0398      	.insn	6, 0x03980390049f
 51e:	5801                	.insn	2, 0x5801
 520:	9804                	.insn	2, 0x9804
 522:	0a03a803          	lw	a6,160(t2)
 526:	0aa503a3          	sb	a0,167(a0)
 52a:	a826                	.insn	2, 0xa826
 52c:	a82d                	.insn	2, 0xa82d
 52e:	9f00                	.insn	2, 0x9f00
 530:	a804                	.insn	2, 0xa804
 532:	0103b003          	.insn	4, 0x0103b003
 536:	0458                	.insn	2, 0x0458
 538:	03b0                	.insn	2, 0x03b0
 53a:	03c0                	.insn	2, 0x03c0
 53c:	a30a                	.insn	2, 0xa30a
 53e:	260aa503          	lw	a0,608(s5)
 542:	2da8                	.insn	2, 0x2da8
 544:	00a8                	.insn	2, 0x00a8
 546:	009f 0600 1206      	.insn	6, 0x12060600009f
 54c:	0012                	.insn	2, 0x0012
 54e:	9404                	.insn	2, 0x9404
 550:	ab02                	.insn	2, 0xab02
 552:	0102                	.insn	2, 0x0102
 554:	02ab045b          	.insn	4, 0x02ab045b
 558:	02f0                	.insn	2, 0x02f0
 55a:	9102                	.insn	2, 0x9102
 55c:	046c                	.insn	2, 0x046c
 55e:	02f0                	.insn	2, 0x02f0
 560:	03c0                	.insn	2, 0x03c0
 562:	5b01                	.insn	2, 0x5b01
 564:	7e00                	.insn	2, 0x7e00
 566:	0002                	.insn	2, 0x0002
 568:	0500                	.insn	2, 0x0500
 56a:	0400                	.insn	2, 0x0400
 56c:	0000                	.insn	2, 0x0000
 56e:	0000                	.insn	2, 0x0000
 570:	0a00                	.insn	2, 0x0a00
 572:	041a                	.insn	2, 0x041a
 574:	907c                	.insn	2, 0x907c
 576:	0201                	.insn	2, 0x0201
 578:	9f31                	.insn	2, 0x9f31
 57a:	0a00                	.insn	2, 0x0a00
 57c:	041a                	.insn	2, 0x041a
 57e:	907c                	.insn	2, 0x907c
 580:	0201                	.insn	2, 0x0201
 582:	9f30                	.insn	2, 0x9f30
 584:	0c00                	.insn	2, 0x0c00
 586:	041a                	.insn	2, 0x041a
 588:	907c                	.insn	2, 0x907c
 58a:	0201                	.insn	2, 0x0201
 58c:	9f31                	.insn	2, 0x9f31
 58e:	1000                	.insn	2, 0x1000
 590:	0416                	.insn	2, 0x0416
 592:	0180                	.insn	2, 0x0180
 594:	0190                	.insn	2, 0x0190
 596:	3002                	.insn	2, 0x3002
 598:	009f 1510 1615      	.insn	6, 0x16151510009f
 59e:	8004                	.insn	2, 0x8004
 5a0:	8c01                	.insn	2, 0x8c01
 5a2:	0901                	.insn	2, 0x0901
 5a4:	00423c03          	.insn	4, 0x00423c03
 5a8:	0680                	.insn	2, 0x0680
 5aa:	049f0123          	sb	s1,66(t5)
 5ae:	018c                	.insn	2, 0x018c
 5b0:	0190                	.insn	2, 0x0190
 5b2:	5c01                	.insn	2, 0x5c01
 5b4:	1c00                	.insn	2, 0x1c00
 5b6:	042d                	.insn	2, 0x042d
 5b8:	0190                	.insn	2, 0x0190
 5ba:	01b0                	.insn	2, 0x01b0
 5bc:	3302                	.insn	2, 0x3302
 5be:	009f 2d1c 9004      	.insn	6, 0x90042d1c009f
 5c4:	b001                	.insn	2, 0xb001
 5c6:	0301                	.insn	2, 0x0301
 5c8:	8008                	.insn	2, 0x8008
 5ca:	009f 2d1f 9c04      	.insn	6, 0x9c042d1f009f
 5d0:	b001                	.insn	2, 0xb001
 5d2:	0101                	.insn	2, 0x0101
 5d4:	005a                	.insn	2, 0x005a
 5d6:	a0042923          	sw	zero,-1518(s0)
 5da:	b001                	.insn	2, 0xb001
 5dc:	0301                	.insn	2, 0x0301
 5de:	8008                	.insn	2, 0x8008
 5e0:	009f 2823 2928      	.insn	6, 0x29282823009f
 5e6:	a004                	.insn	2, 0xa004
 5e8:	ac01                	.insn	2, 0xac01
 5ea:	0a01                	.insn	2, 0x0a01
 5ec:	00423c03          	.insn	4, 0x00423c03
 5f0:	0680                	.insn	2, 0x0680
 5f2:	007a                	.insn	2, 0x007a
 5f4:	9f22                	.insn	2, 0x9f22
 5f6:	ac04                	.insn	2, 0xac04
 5f8:	b001                	.insn	2, 0xb001
 5fa:	0101                	.insn	2, 0x0101
 5fc:	3e2f005b          	.insn	4, 0x3e2f005b
 600:	b004                	.insn	2, 0xb004
 602:	cc01                	.insn	2, 0xcc01
 604:	0201                	.insn	2, 0x0201
 606:	9f31                	.insn	2, 0x9f31
 608:	2f00                	.insn	2, 0x2f00
 60a:	043e                	.insn	2, 0x043e
 60c:	01b0                	.insn	2, 0x01b0
 60e:	01cc                	.insn	2, 0x01cc
 610:	3002                	.insn	2, 0x3002
 612:	009f 3e32 bc04      	.insn	6, 0xbc043e32009f
 618:	cc01                	.insn	2, 0xcc01
 61a:	0101                	.insn	2, 0x0101
 61c:	005a                	.insn	2, 0x005a
 61e:	3a36                	.insn	2, 0x3a36
 620:	c004                	.insn	2, 0xc004
 622:	cc01                	.insn	2, 0xcc01
 624:	0201                	.insn	2, 0x0201
 626:	9f30                	.insn	2, 0x9f30
 628:	3600                	.insn	2, 0x3600
 62a:	3939                	.insn	2, 0x3939
 62c:	043a                	.insn	2, 0x043a
 62e:	01c0                	.insn	2, 0x01c0
 630:	01c8                	.insn	2, 0x01c8
 632:	030a                	.insn	2, 0x030a
 634:	423c                	.insn	2, 0x423c
 636:	8000                	.insn	2, 0x8000
 638:	7a06                	.insn	2, 0x7a06
 63a:	2200                	.insn	2, 0x2200
 63c:	049f 01c8 01cc      	.insn	6, 0x01cc01c8049f
 642:	5b01                	.insn	2, 0x5b01
 644:	4000                	.insn	2, 0x4000
 646:	01cc044f          	.insn	4, 0x01cc044f
 64a:	01e4                	.insn	2, 0x01e4
 64c:	3302                	.insn	2, 0x3302
 64e:	009f 4f43 d404      	.insn	6, 0xd4044f43009f
 654:	e401                	.insn	2, 0xe401
 656:	0101                	.insn	2, 0x0101
 658:	005a                	.insn	2, 0x005a
 65a:	d8044b47          	.insn	4, 0xd8044b47
 65e:	e401                	.insn	2, 0xe401
 660:	0201                	.insn	2, 0x0201
 662:	47009f33          	.insn	4, 0x47009f33
 666:	4a4a                	.insn	2, 0x4a4a
 668:	01d8044b          	.insn	4, 0x01d8044b
 66c:	01e0                	.insn	2, 0x01e0
 66e:	030a                	.insn	2, 0x030a
 670:	423c                	.insn	2, 0x423c
 672:	8000                	.insn	2, 0x8000
 674:	7a06                	.insn	2, 0x7a06
 676:	2200                	.insn	2, 0x2200
 678:	049f 01e0 01e4      	.insn	6, 0x01e401e0049f
 67e:	5b01                	.insn	2, 0x5b01
 680:	5100                	.insn	2, 0x5100
 682:	0460                	.insn	2, 0x0460
 684:	01e4                	.insn	2, 0x01e4
 686:	0280                	.insn	2, 0x0280
 688:	3202                	.insn	2, 0x3202
 68a:	009f 6051 e404      	.insn	6, 0xe4046051009f
 690:	8001                	.insn	2, 0x8001
 692:	0202                	.insn	2, 0x0202
 694:	9f31                	.insn	2, 0x9f31
 696:	5400                	.insn	2, 0x5400
 698:	0460                	.insn	2, 0x0460
 69a:	01f0                	.insn	2, 0x01f0
 69c:	0280                	.insn	2, 0x0280
 69e:	5b01                	.insn	2, 0x5b01
 6a0:	5800                	.insn	2, 0x5800
 6a2:	045c                	.insn	2, 0x045c
 6a4:	01f4                	.insn	2, 0x01f4
 6a6:	0280                	.insn	2, 0x0280
 6a8:	3102                	.insn	2, 0x3102
 6aa:	009f 5b58 5c5b      	.insn	6, 0x5c5b5b58009f
 6b0:	f404                	.insn	2, 0xf404
 6b2:	fc01                	.insn	2, 0xfc01
 6b4:	0a01                	.insn	2, 0x0a01
 6b6:	00423c03          	.insn	4, 0x00423c03
 6ba:	0680                	.insn	2, 0x0680
 6bc:	9f22007b          	.insn	4, 0x9f22007b
 6c0:	fc04                	.insn	2, 0xfc04
 6c2:	8001                	.insn	2, 0x8001
 6c4:	0102                	.insn	2, 0x0102
 6c6:	005c                	.insn	2, 0x005c
 6c8:	7162                	.insn	2, 0x7162
 6ca:	8004                	.insn	2, 0x8004
 6cc:	9c02                	.insn	2, 0x9c02
 6ce:	0202                	.insn	2, 0x0202
 6d0:	9f34                	.insn	2, 0x9f34
 6d2:	6200                	.insn	2, 0x6200
 6d4:	0471                	.insn	2, 0x0471
 6d6:	0280                	.insn	2, 0x0280
 6d8:	029c                	.insn	2, 0x029c
 6da:	3002                	.insn	2, 0x3002
 6dc:	009f 7165 8c04      	.insn	6, 0x8c047165009f
 6e2:	9c02                	.insn	2, 0x9c02
 6e4:	0102                	.insn	2, 0x0102
 6e6:	6d69005b          	.insn	4, 0x6d69005b
 6ea:	9004                	.insn	2, 0x9004
 6ec:	9c02                	.insn	2, 0x9c02
 6ee:	0202                	.insn	2, 0x0202
 6f0:	9f30                	.insn	2, 0x9f30
 6f2:	6900                	.insn	2, 0x6900
 6f4:	6c6c                	.insn	2, 0x6c6c
 6f6:	046d                	.insn	2, 0x046d
 6f8:	0290                	.insn	2, 0x0290
 6fa:	0298                	.insn	2, 0x0298
 6fc:	030a                	.insn	2, 0x030a
 6fe:	423c                	.insn	2, 0x423c
 700:	8000                	.insn	2, 0x8000
 702:	7b06                	.insn	2, 0x7b06
 704:	2200                	.insn	2, 0x2200
 706:	049f 0298 029c      	.insn	6, 0x029c0298049f
 70c:	5c01                	.insn	2, 0x5c01
 70e:	7300                	.insn	2, 0x7300
 710:	0182                	.insn	2, 0x0182
 712:	9c04                	.insn	2, 0x9c04
 714:	b802                	.insn	2, 0xb802
 716:	0202                	.insn	2, 0x0202
 718:	73009f37          	lui	t5,0x73009
 71c:	0182                	.insn	2, 0x0182
 71e:	9c04                	.insn	2, 0x9c04
 720:	b802                	.insn	2, 0xb802
 722:	0202                	.insn	2, 0x0202
 724:	9f30                	.insn	2, 0x9f30
 726:	7600                	.insn	2, 0x7600
 728:	0182                	.insn	2, 0x0182
 72a:	a804                	.insn	2, 0xa804
 72c:	b802                	.insn	2, 0xb802
 72e:	0102                	.insn	2, 0x0102
 730:	005e                	.insn	2, 0x005e
 732:	7e7a                	.insn	2, 0x7e7a
 734:	ac04                	.insn	2, 0xac04
 736:	b802                	.insn	2, 0xb802
 738:	0202                	.insn	2, 0x0202
 73a:	9f30                	.insn	2, 0x9f30
 73c:	7a00                	.insn	2, 0x7a00
 73e:	7d7d                	.insn	2, 0x7d7d
 740:	047e                	.insn	2, 0x047e
 742:	02ac                	.insn	2, 0x02ac
 744:	02b4                	.insn	2, 0x02b4
 746:	030a                	.insn	2, 0x030a
 748:	423c                	.insn	2, 0x423c
 74a:	8000                	.insn	2, 0x8000
 74c:	7e06                	.insn	2, 0x7e06
 74e:	2200                	.insn	2, 0x2200
 750:	049f 02b4 02b8      	.insn	6, 0x02b802b4049f
 756:	5f01                	.insn	2, 0x5f01
 758:	0200                	.insn	2, 0x0200
 75a:	0418                	.insn	2, 0x0418
 75c:	4014                	.insn	2, 0x4014
 75e:	3502                	.insn	2, 0x3502
 760:	009f 1804 1404      	.insn	6, 0x14041804009f
 766:	0940                	.insn	2, 0x0940
 768:	0335                	.insn	2, 0x0335
 76a:	4238                	.insn	2, 0x4238
 76c:	8000                	.insn	2, 0x8000
 76e:	2406                	.insn	2, 0x2406
 770:	009f 140a 1404      	.insn	6, 0x1404140a009f
 776:	103c                	.insn	2, 0x103c
 778:	0335                	.insn	2, 0x0335
 77a:	4238                	.insn	2, 0x4238
 77c:	8000                	.insn	2, 0x8000
 77e:	2406                	.insn	2, 0x2406
 780:	00423c03          	.insn	4, 0x00423c03
 784:	0680                	.insn	2, 0x0680
 786:	9f22                	.insn	2, 0x9f22
 788:	1b00                	.insn	2, 0x1b00
 78a:	5448042b          	.insn	4, 0x5448042b
 78e:	3002                	.insn	2, 0x3002
 790:	009f 2b1d 4804      	.insn	6, 0x48042b1d009f
 796:	0254                	.insn	2, 0x0254
 798:	9f30                	.insn	2, 0x9f30
 79a:	2700                	.insn	2, 0x2700
 79c:	042d                	.insn	2, 0x042d
 79e:	5850                	.insn	2, 0x5850
 7a0:	5a01                	.insn	2, 0x5a01
 7a2:	2300                	.insn	2, 0x2300
 7a4:	50480427          	.insn	4, 0x50480427
 7a8:	0305                	.insn	2, 0x0305
 7aa:	423c                	.insn	2, 0x423c
 7ac:	8000                	.insn	2, 0x8000
 7ae:	0200                	.insn	2, 0x0200
 7b0:	0410                	.insn	2, 0x0410
 7b2:	1000                	.insn	2, 0x1000
 7b4:	3002                	.insn	2, 0x3002
 7b6:	009f 1002 0004      	.insn	6, 0x00041002009f
 7bc:	0610                	.insn	2, 0x0610
 7be:	007a                	.insn	2, 0x007a
 7c0:	ff08                	.insn	2, 0xff08
 7c2:	9f1a                	.insn	2, 0x9f1a
 7c4:	0400                	.insn	2, 0x0400
 7c6:	0410                	.insn	2, 0x0410
 7c8:	1000                	.insn	2, 0x1000
 7ca:	3002                	.insn	2, 0x3002
 7cc:	009f 0c08 0404      	.insn	6, 0x04040c08009f
 7d2:	0610                	.insn	2, 0x0610
 7d4:	007a                	.insn	2, 0x007a
 7d6:	ff08                	.insn	2, 0xff08
 7d8:	9f1a                	.insn	2, 0x9f1a
 7da:	0800                	.insn	2, 0x0800
 7dc:	040c                	.insn	2, 0x040c
 7de:	1004                	.insn	2, 0x1004
 7e0:	0305                	.insn	2, 0x0305
 7e2:	423c                	.insn	2, 0x423c
 7e4:	8000                	.insn	2, 0x8000
 7e6:	eb00                	.insn	2, 0xeb00
 7e8:	05000007          	.insn	4, 0x05000007
 7ec:	0400                	.insn	2, 0x0400
 7ee:	0000                	.insn	2, 0x0000
 7f0:	0000                	.insn	2, 0x0000
 7f2:	0000                	.insn	2, 0x0000
 7f4:	0505                	.insn	2, 0x0505
 7f6:	1616                	.insn	2, 0x1616
 7f8:	0400                	.insn	2, 0x0400
 7fa:	01a8                	.insn	2, 0x01a8
 7fc:	01dc                	.insn	2, 0x01dc
 7fe:	5a01                	.insn	2, 0x5a01
 800:	dc04                	.insn	2, 0xdc04
 802:	ac01                	.insn	2, 0xac01
 804:	0102                	.insn	2, 0x0102
 806:	0466                	.insn	2, 0x0466
 808:	02ac                	.insn	2, 0x02ac
 80a:	0d9c                	.insn	2, 0x0d9c
 80c:	a30a                	.insn	2, 0xa30a
 80e:	260aa503          	lw	a0,608(s5)
 812:	2da8                	.insn	2, 0x2da8
 814:	00a8                	.insn	2, 0x00a8
 816:	009f 0e08 130e      	.insn	6, 0x130e0e08009f
 81c:	2d262613          	slti	a2,a2,722
 820:	2f2d                	.insn	2, 0x2f2d
 822:	3432                	.insn	2, 0x3432
 824:	3a34                	.insn	2, 0x3a34
 826:	423a                	.insn	2, 0x423a
 828:	4742                	.insn	2, 0x4742
 82a:	4f4e4e47          	.insn	4, 0x4f4e4e47
 82e:	eb02eb4f          	.insn	4, 0xeb02eb4f
 832:	f102                	.insn	2, 0xf102
 834:	f102                	.insn	2, 0xf102
 836:	f402                	.insn	2, 0xf402
 838:	f402                	.insn	2, 0xf402
 83a:	f702                	.insn	2, 0xf702
 83c:	f702                	.insn	2, 0xf702
 83e:	f802                	.insn	2, 0xf802
 840:	f802                	.insn	2, 0xf802
 842:	fa02                	.insn	2, 0xfa02
 844:	fa02                	.insn	2, 0xfa02
 846:	fd02                	.insn	2, 0xfd02
 848:	fd02                	.insn	2, 0xfd02
 84a:	0002                	.insn	2, 0x0002
 84c:	e404                	.insn	2, 0xe404
 84e:	e401                	.insn	2, 0xe401
 850:	0101                	.insn	2, 0x0101
 852:	0466                	.insn	2, 0x0466
 854:	01e4                	.insn	2, 0x01e4
 856:	02a0                	.insn	2, 0x02a0
 858:	9f018603          	lb	a2,-1552(gp)
 85c:	a004                	.insn	2, 0xa004
 85e:	cc02                	.insn	2, 0xcc02
 860:	0102                	.insn	2, 0x0102
 862:	0465                	.insn	2, 0x0465
 864:	02cc                	.insn	2, 0x02cc
 866:	02d4                	.insn	2, 0x02d4
 868:	6601                	.insn	2, 0x6601
 86a:	d404                	.insn	2, 0xd404
 86c:	d802                	.insn	2, 0xd802
 86e:	0102                	.insn	2, 0x0102
 870:	0465                	.insn	2, 0x0465
 872:	0394                	.insn	2, 0x0394
 874:	0394                	.insn	2, 0x0394
 876:	6501                	.insn	2, 0x6501
 878:	9404                	.insn	2, 0x9404
 87a:	0303ac03          	lw	s8,48(t2)
 87e:	0286                	.insn	2, 0x0286
 880:	049f 03ac 03cc      	.insn	6, 0x03cc03ac049f
 886:	6601                	.insn	2, 0x6601
 888:	cc04                	.insn	2, 0xcc04
 88a:	0303dc03          	lhu	s8,48(t2)
 88e:	7f86                	.insn	2, 0x7f86
 890:	049f 03dc 03fc      	.insn	6, 0x03fc03dc049f
 896:	6601                	.insn	2, 0x6601
 898:	fc04                	.insn	2, 0xfc04
 89a:	03048003          	lb	zero,48(s1)
 89e:	0186                	.insn	2, 0x0186
 8a0:	049f 0480 0aac      	.insn	6, 0x0aac0480049f
 8a6:	6601                	.insn	2, 0x6601
 8a8:	ac04                	.insn	2, 0xac04
 8aa:	bc0a                	.insn	2, 0xbc0a
 8ac:	010a                	.insn	2, 0x010a
 8ae:	0465                	.insn	2, 0x0465
 8b0:	0abc                	.insn	2, 0x0abc
 8b2:	0abc                	.insn	2, 0x0abc
 8b4:	9f028603          	lb	a2,-1552(t0) # 1739f0 <__stack_size-0x1e8c610>
 8b8:	bc04                	.insn	2, 0xbc04
 8ba:	c80a                	.insn	2, 0xc80a
 8bc:	030a                	.insn	2, 0x030a
 8be:	0386                	.insn	2, 0x0386
 8c0:	049f 0ac8 0acc      	.insn	6, 0x0acc0ac8049f
 8c6:	6601                	.insn	2, 0x6601
 8c8:	cc04                	.insn	2, 0xcc04
 8ca:	cc0a                	.insn	2, 0xcc0a
 8cc:	030a                	.insn	2, 0x030a
 8ce:	0286                	.insn	2, 0x0286
 8d0:	049f 0acc 0ad8      	.insn	6, 0x0ad80acc049f
 8d6:	9f038603          	lb	a2,-1552(t2)
 8da:	d804                	.insn	2, 0xd804
 8dc:	9c0a                	.insn	2, 0x9c0a
 8de:	010d                	.insn	2, 0x010d
 8e0:	0066                	.insn	2, 0x0066
 8e2:	1608                	.insn	2, 0x1608
 8e4:	f576766f          	jal	a2,fff6883a <_sp+0x77f6883a>
 8e8:	fc01                	.insn	2, 0xfc01
 8ea:	ff01                	.insn	2, 0xff01
 8ec:	8401                	.insn	2, 0x8401
 8ee:	8f02                	.insn	2, 0x8f02
 8f0:	9302                	.insn	2, 0x9302
 8f2:	9702                	.insn	2, 0x9702
 8f4:	9d02                	.insn	2, 0x9d02
 8f6:	a102                	.insn	2, 0xa102
 8f8:	a502                	.insn	2, 0xa502
 8fa:	eb02                	.insn	2, 0xeb02
 8fc:	ff02                	.insn	2, 0xff02
 8fe:	8302                	.insn	2, 0x8302
 900:	94038c03          	lb	s8,-1728(t2)
 904:	ce039403          	lh	s0,-800(t2)
 908:	0003ce03          	lbu	t3,0(t2)
 90c:	e404                	.insn	2, 0xe404
 90e:	ac01                	.insn	2, 0xac01
 910:	0102                	.insn	2, 0x0102
 912:	0459                	.insn	2, 0x0459
 914:	04ec                	.insn	2, 0x04ec
 916:	0588                	.insn	2, 0x0588
 918:	5c01                	.insn	2, 0x5c01
 91a:	8804                	.insn	2, 0x8804
 91c:	e405                	.insn	2, 0xe405
 91e:	04590107          	.insn	4, 0x04590107
 922:	07f4                	.insn	2, 0x07f4
 924:	0884                	.insn	2, 0x0884
 926:	5c01                	.insn	2, 0x5c01
 928:	9404                	.insn	2, 0x9404
 92a:	ac08                	.insn	2, 0xac08
 92c:	0108                	.insn	2, 0x0108
 92e:	0465                	.insn	2, 0x0465
 930:	08b8                	.insn	2, 0x08b8
 932:	08c8                	.insn	2, 0x08c8
 934:	9f047903          	.insn	4, 0x9f047903
 938:	d404                	.insn	2, 0xd404
 93a:	e408                	.insn	2, 0xe408
 93c:	0308                	.insn	2, 0x0308
 93e:	0479                	.insn	2, 0x0479
 940:	049f 08f0 0aac      	.insn	6, 0x0aac08f0049f
 946:	5901                	.insn	2, 0x5901
 948:	e004                	.insn	2, 0xe004
 94a:	f00a                	.insn	2, 0xf00a
 94c:	030a                	.insn	2, 0x030a
 94e:	0479                	.insn	2, 0x0479
 950:	049f 0bac 0bc4      	.insn	6, 0x0bc40bac049f
 956:	6501                	.insn	2, 0x6501
 958:	c404                	.insn	2, 0xc404
 95a:	010d8c0b          	.insn	4, 0x010d8c0b
 95e:	0459                	.insn	2, 0x0459
 960:	0d8c                	.insn	2, 0x0d8c
 962:	0d9c                	.insn	2, 0x0d9c
 964:	5c01                	.insn	2, 0x5c01
 966:	6900                	.insn	2, 0x6900
 968:	f876                	.insn	2, 0xf876
 96a:	fc01                	.insn	2, 0xfc01
 96c:	8f01                	.insn	2, 0x8f01
 96e:	9702                	.insn	2, 0x9702
 970:	9902                	.insn	2, 0x9902
 972:	a102                	.insn	2, 0xa102
 974:	fe02                	.insn	2, 0xfe02
 976:	8302                	.insn	2, 0x8302
 978:	84038303          	lb	t1,-1984(t2)
 97c:	85038403          	lb	s0,-1968(t2)
 980:	86038503          	lb	a0,-1952(t2)
 984:	0003ce03          	lbu	t3,0(t2)
 988:	d804                	.insn	2, 0xd804
 98a:	8804                	.insn	2, 0x8804
 98c:	0205                	.insn	2, 0x0205
 98e:	9f3a                	.insn	2, 0x9f3a
 990:	e404                	.insn	2, 0xe404
 992:	0207f407          	.insn	4, 0x0207f407
 996:	9f38                	.insn	2, 0x9f38
 998:	ac04                	.insn	2, 0xac04
 99a:	c808                	.insn	2, 0xc808
 99c:	0208                	.insn	2, 0x0208
 99e:	9f32                	.insn	2, 0x9f32
 9a0:	c804                	.insn	2, 0xc804
 9a2:	e408                	.insn	2, 0xe408
 9a4:	0208                	.insn	2, 0x0208
 9a6:	9f40                	.insn	2, 0x9f40
 9a8:	dc04                	.insn	2, 0xdc04
 9aa:	f00a                	.insn	2, 0xf00a
 9ac:	020a                	.insn	2, 0x020a
 9ae:	9f38                	.insn	2, 0x9f38
 9b0:	f004                	.insn	2, 0xf004
 9b2:	800a                	.insn	2, 0x800a
 9b4:	9f3a020b          	.insn	4, 0x9f3a020b
 9b8:	8004                	.insn	2, 0x8004
 9ba:	020b8c0b          	.insn	4, 0x020b8c0b
 9be:	9f40                	.insn	2, 0x9f40
 9c0:	8c04                	.insn	2, 0x8c04
 9c2:	020b980b          	.insn	4, 0x020b980b
 9c6:	9f32                	.insn	2, 0x9f32
 9c8:	8c04                	.insn	2, 0x8c04
 9ca:	9c0d                	.insn	2, 0x9c0d
 9cc:	020d                	.insn	2, 0x020d
 9ce:	9f3a                	.insn	2, 0x9f3a
 9d0:	7700                	.insn	2, 0x7700
 9d2:	877c7b7b          	.insn	4, 0x877c7b7b
 9d6:	8f01                	.insn	2, 0x8f01
 9d8:	9201                	.insn	2, 0x9201
 9da:	bc01                	.insn	2, 0xbc01
 9dc:	bd01                	.insn	2, 0xbd01
 9de:	c401                	.insn	2, 0xc401
 9e0:	c401                	.insn	2, 0xc401
 9e2:	c501                	.insn	2, 0xc501
 9e4:	c901                	.insn	2, 0xc901
 9e6:	d401                	.insn	2, 0xd401
 9e8:	d401                	.insn	2, 0xd401
 9ea:	d701                	.insn	2, 0xd701
 9ec:	e601                	.insn	2, 0xe601
 9ee:	eb02                	.insn	2, 0xeb02
 9f0:	c402                	.insn	2, 0xc402
 9f2:	0403c603          	lbu	a2,64(t2)
 9f6:	0588                	.insn	2, 0x0588
 9f8:	05a4                	.insn	2, 0x05a4
 9fa:	3002                	.insn	2, 0x3002
 9fc:	049f 05a4 05a8      	.insn	6, 0x05a805a4049f
 a02:	6501                	.insn	2, 0x6501
 a04:	c004                	.insn	2, 0xc004
 a06:	dc05                	.insn	2, 0xdc05
 a08:	0105                	.insn	2, 0x0105
 a0a:	0465                	.insn	2, 0x0465
 a0c:	05ec                	.insn	2, 0x05ec
 a0e:	06e4                	.insn	2, 0x06e4
 a10:	6501                	.insn	2, 0x6501
 a12:	e804                	.insn	2, 0xe804
 a14:	f806                	.insn	2, 0xf806
 a16:	0806                	.insn	2, 0x0806
 a18:	0085                	.insn	2, 0x0085
 a1a:	0091                	.insn	2, 0x0091
 a1c:	231c                	.insn	2, 0x231c
 a1e:	f8049f6f          	jal	t5,fff4a19e <_sp+0x77f4a19e>
 a22:	fc06                	.insn	2, 0xfc06
 a24:	0806                	.insn	2, 0x0806
 a26:	0085                	.insn	2, 0x0085
 a28:	0091                	.insn	2, 0x0091
 a2a:	231c                	.insn	2, 0x231c
 a2c:	9f70                	.insn	2, 0x9f70
 a2e:	8004                	.insn	2, 0x8004
 a30:	08079407          	.insn	4, 0x08079407
 a34:	0085                	.insn	2, 0x0085
 a36:	0091                	.insn	2, 0x0091
 a38:	231c                	.insn	2, 0x231c
 a3a:	94049f6f          	jal	t5,fff49b7a <_sp+0x77f49b7a>
 a3e:	08079c07          	.insn	4, 0x08079c07
 a42:	0085                	.insn	2, 0x0085
 a44:	0091                	.insn	2, 0x0091
 a46:	231c                	.insn	2, 0x231c
 a48:	9f70                	.insn	2, 0x9f70
 a4a:	a004                	.insn	2, 0xa004
 a4c:	ac0a                	.insn	2, 0xac0a
 a4e:	010a                	.insn	2, 0x010a
 a50:	0465                	.insn	2, 0x0465
 a52:	0cd8                	.insn	2, 0x0cd8
 a54:	0ce0                	.insn	2, 0x0ce0
 a56:	6501                	.insn	2, 0x6501
 a58:	9300                	.insn	2, 0x9300
 a5a:	9d01                	.insn	2, 0x9d01
 a5c:	9d01                	.insn	2, 0x9d01
 a5e:	a301                	.insn	2, 0xa301
 a60:	a901                	.insn	2, 0xa901
 a62:	ab01                	.insn	2, 0xab01
 a64:	ab01                	.insn	2, 0xab01
 a66:	ad01                	.insn	2, 0xad01
 a68:	ad01                	.insn	2, 0xad01
 a6a:	b201                	.insn	2, 0xb201
 a6c:	b901                	.insn	2, 0xb901
 a6e:	bb01                	.insn	2, 0xbb01
 a70:	bd01                	.insn	2, 0xbd01
 a72:	d801                	.insn	2, 0xd801
 a74:	d801                	.insn	2, 0xd801
 a76:	da01                	.insn	2, 0xda01
 a78:	da01                	.insn	2, 0xda01
 a7a:	e901                	.insn	2, 0xe901
 a7c:	e901                	.insn	2, 0xe901
 a7e:	eb01                	.insn	2, 0xeb01
 a80:	eb01                	.insn	2, 0xeb01
 a82:	f501                	.insn	2, 0xf501
 a84:	a601                	.insn	2, 0xa601
 a86:	aa02                	.insn	2, 0xaa02
 a88:	aa02                	.insn	2, 0xaa02
 a8a:	b002                	.insn	2, 0xb002
 a8c:	c902                	.insn	2, 0xc902
 a8e:	cd02                	.insn	2, 0xcd02
 a90:	cd02                	.insn	2, 0xcd02
 a92:	da02                	.insn	2, 0xda02
 a94:	da02                	.insn	2, 0xda02
 a96:	dc02                	.insn	2, 0xdc02
 a98:	dc02                	.insn	2, 0xdc02
 a9a:	e602                	.insn	2, 0xe602
 a9c:	e602                	.insn	2, 0xe602
 a9e:	e802                	.insn	2, 0xe802
 aa0:	e802                	.insn	2, 0xe802
 aa2:	ea02                	.insn	2, 0xea02
 aa4:	ea02                	.insn	2, 0xea02
 aa6:	eb02                	.insn	2, 0xeb02
 aa8:	9402                	.insn	2, 0x9402
 aaa:	95039503          	lh	a0,-1712(t2)
 aae:	9b039603          	lh	a2,-1616(t2)
 ab2:	a803a803          	lw	a6,-1408(t2)
 ab6:	aa03a903          	lw	s2,-1376(t2)
 aba:	b603b603          	.insn	4, 0xb603b603
 abe:	ba03b703          	.insn	4, 0xba03b703
 ac2:	c003be03          	.insn	4, 0xc003be03
 ac6:	c403c403          	lbu	s0,-960(t2)
 aca:	c603c603          	lbu	a2,-928(t2)
 ace:	c803c803          	lbu	a6,-896(t2)
 ad2:	c903c903          	lbu	s2,-880(t2)
 ad6:	ca03ca03          	lbu	s4,-864(t2)
 ada:	0403ce03          	lbu	t3,64(t2)
 ade:	05ec                	.insn	2, 0x05ec
 ae0:	06a0                	.insn	2, 0x06a0
 ae2:	6501                	.insn	2, 0x6501
 ae4:	a004                	.insn	2, 0xa004
 ae6:	a806                	.insn	2, 0xa806
 ae8:	0106                	.insn	2, 0x0106
 aea:	06bc0463          	beq	s8,a1,b52 <__stack_size-0x1fff4ae>
 aee:	06bc                	.insn	2, 0x06bc
 af0:	6301                	.insn	2, 0x6301
 af2:	bc04                	.insn	2, 0xbc04
 af4:	c406                	.insn	2, 0xc406
 af6:	0306                	.insn	2, 0x0306
 af8:	049f0183          	lb	gp,73(t5) # 73009049 <__stack_size+0x71009049>
 afc:	06c4                	.insn	2, 0x06c4
 afe:	06c8                	.insn	2, 0x06c8
 b00:	6301                	.insn	2, 0x6301
 b02:	d804                	.insn	2, 0xd804
 b04:	e006                	.insn	2, 0xe006
 b06:	0106                	.insn	2, 0x0106
 b08:	06e80463          	beq	a6,a4,b70 <__stack_size-0x1fff490>
 b0c:	079c                	.insn	2, 0x079c
 b0e:	7ef89103          	lh	sp,2031(a7)
 b12:	9c04                	.insn	2, 0x9c04
 b14:	0707a807          	.insn	4, 0x0707a807
 b18:	f891                	.insn	2, 0xf891
 b1a:	067e                	.insn	2, 0x067e
 b1c:	049f0123          	sb	s1,66(t5)
 b20:	07a8                	.insn	2, 0x07a8
 b22:	07c0                	.insn	2, 0x07c0
 b24:	6901                	.insn	2, 0x6901
 b26:	c004                	.insn	2, 0xc004
 b28:	0307cc07          	.insn	4, 0x0307cc07
 b2c:	0189                	.insn	2, 0x0189
 b2e:	049f 07cc 07e4      	.insn	6, 0x07e407cc049f
 b34:	6901                	.insn	2, 0x6901
 b36:	f004                	.insn	2, 0xf004
 b38:	fc08                	.insn	2, 0xfc08
 b3a:	0208                	.insn	2, 0x0208
 b3c:	9f30                	.insn	2, 0x9f30
 b3e:	fc04                	.insn	2, 0xfc04
 b40:	9c08                	.insn	2, 0x9c08
 b42:	0109                	.insn	2, 0x0109
 b44:	0465                	.insn	2, 0x0465
 b46:	09d8                	.insn	2, 0x09d8
 b48:	09e8                	.insn	2, 0x09e8
 b4a:	9f018503          	lb	a0,-1552(gp)
 b4e:	e804                	.insn	2, 0xe804
 b50:	fc09                	.insn	2, 0xfc09
 b52:	0109                	.insn	2, 0x0109
 b54:	046a                	.insn	2, 0x046a
 b56:	09fc                	.insn	2, 0x09fc
 b58:	0a88                	.insn	2, 0x0a88
 b5a:	9f018a03          	lb	s4,-1552(gp)
 b5e:	8804                	.insn	2, 0x8804
 b60:	a00a                	.insn	2, 0xa00a
 b62:	010a                	.insn	2, 0x010a
 b64:	046a                	.insn	2, 0x046a
 b66:	0aa0                	.insn	2, 0x0aa0
 b68:	0aa0                	.insn	2, 0x0aa0
 b6a:	6301                	.insn	2, 0x6301
 b6c:	a004                	.insn	2, 0xa004
 b6e:	a80a                	.insn	2, 0xa80a
 b70:	030a                	.insn	2, 0x030a
 b72:	049f0183          	lb	gp,73(t5)
 b76:	0aa8                	.insn	2, 0x0aa8
 b78:	0aac                	.insn	2, 0x0aac
 b7a:	6301                	.insn	2, 0x6301
 b7c:	c404                	.insn	2, 0xc404
 b7e:	010bc80b          	.insn	4, 0x010bc80b
 b82:	0465                	.insn	2, 0x0465
 b84:	0bc8                	.insn	2, 0x0bc8
 b86:	0bcc                	.insn	2, 0x0bcc
 b88:	9f018503          	lb	a0,-1552(gp)
 b8c:	e004                	.insn	2, 0xe004
 b8e:	010bf00b          	.insn	4, 0x010bf00b
 b92:	0bf00463          	beq	zero,t6,c3a <__stack_size-0x1fff3c6>
 b96:	0bf4                	.insn	2, 0x0bf4
 b98:	9f018303          	lb	t1,-1552(gp)
 b9c:	fc04                	.insn	2, 0xfc04
 b9e:	010c900b          	.insn	4, 0x010c900b
 ba2:	0c900463          	beq	zero,s1,c6a <__stack_size-0x1fff396>
 ba6:	0c94                	.insn	2, 0x0c94
 ba8:	9f018303          	lb	t1,-1552(gp)
 bac:	b004                	.insn	2, 0xb004
 bae:	b80c                	.insn	2, 0xb80c
 bb0:	010c                	.insn	2, 0x010c
 bb2:	0465                	.insn	2, 0x0465
 bb4:	0cd0                	.insn	2, 0x0cd0
 bb6:	0cd8                	.insn	2, 0x0cd8
 bb8:	6501                	.insn	2, 0x6501
 bba:	d804                	.insn	2, 0xd804
 bbc:	e00c                	.insn	2, 0xe00c
 bbe:	010c                	.insn	2, 0x010c
 bc0:	0ce00463          	beq	zero,a4,c88 <__stack_size-0x1fff378>
 bc4:	0cf0                	.insn	2, 0x0cf0
 bc6:	3002                	.insn	2, 0x3002
 bc8:	049f 0cf0 0cfc      	.insn	6, 0x0cfc0cf0049f
 bce:	3102                	.insn	2, 0x3102
 bd0:	049f 0cfc 0d84      	.insn	6, 0x0d840cfc049f
 bd6:	9f018503          	lb	a0,-1552(gp)
 bda:	8404                	.insn	2, 0x8404
 bdc:	8c0d                	.insn	2, 0x8c0d
 bde:	010d                	.insn	2, 0x010d
 be0:	0069                	.insn	2, 0x0069
 be2:	3f3c                	.insn	2, 0x3f3c
 be4:	b004483f 0203c003 	.insn	8, 0x0203c003b004483f
 bec:	9f30                	.insn	2, 0x9f30
 bee:	c004                	.insn	2, 0xc004
 bf0:	0103e803          	.insn	4, 0x0103e803
 bf4:	3b330067          	jalr	zero,947(t1)
 bf8:	f501983b          	.insn	4, 0xf501983b
 bfc:	a401                	.insn	2, 0xa401
 bfe:	f102                	.insn	2, 0xf102
 c00:	f302                	.insn	2, 0xf302
 c02:	f302                	.insn	2, 0xf302
 c04:	f802                	.insn	2, 0xf802
 c06:	f802                	.insn	2, 0xf802
 c08:	f902                	.insn	2, 0xf902
 c0a:	f902                	.insn	2, 0xf902
 c0c:	fe02                	.insn	2, 0xfe02
 c0e:	fe02                	.insn	2, 0xfe02
 c10:	8b02                	.insn	2, 0x8b02
 c12:	92038c03          	lb	s8,-1760(t2)
 c16:	0003ce03          	lbu	t3,0(t2)
 c1a:	9404                	.insn	2, 0x9404
 c1c:	0203b003          	.insn	4, 0x0203b003
 c20:	9f30                	.insn	2, 0x9f30
 c22:	b004                	.insn	2, 0xb004
 c24:	01068003          	lb	zero,16(a3) # 140a <__stack_size-0x1ffebf6>
 c28:	07e4045b          	.insn	4, 0x07e4045b
 c2c:	08ec                	.insn	2, 0x08ec
 c2e:	5b01                	.insn	2, 0x5b01
 c30:	bc04                	.insn	2, 0xbc04
 c32:	bc0a                	.insn	2, 0xbc0a
 c34:	020a                	.insn	2, 0x020a
 c36:	9f30                	.insn	2, 0x9f30
 c38:	bc04                	.insn	2, 0xbc04
 c3a:	cc0a                	.insn	2, 0xcc0a
 c3c:	020a                	.insn	2, 0x020a
 c3e:	9f31                	.insn	2, 0x9f31
 c40:	cc04                	.insn	2, 0xcc04
 c42:	cc0a                	.insn	2, 0xcc0a
 c44:	020a                	.insn	2, 0x020a
 c46:	9f30                	.insn	2, 0x9f30
 c48:	cc04                	.insn	2, 0xcc04
 c4a:	dc0a                	.insn	2, 0xdc0a
 c4c:	020a                	.insn	2, 0x020a
 c4e:	9f32                	.insn	2, 0x9f32
 c50:	dc04                	.insn	2, 0xdc04
 c52:	a70a                	.insn	2, 0xa70a
 c54:	045b010b          	.insn	4, 0x045b010b
 c58:	0bac                	.insn	2, 0x0bac
 c5a:	5b010bbb          	.insn	4, 0x5b010bbb
 c5e:	8c04                	.insn	2, 0x8c04
 c60:	9c0d                	.insn	2, 0x9c0d
 c62:	010d                	.insn	2, 0x010d
 c64:	906f005b          	.insn	4, 0x906f005b
 c68:	9001                	.insn	2, 0x9001
 c6a:	9501                	.insn	2, 0x9501
 c6c:	9501                	.insn	2, 0x9501
 c6e:	9702                	.insn	2, 0x9702
 c70:	9f02                	.insn	2, 0x9f02
 c72:	a102                	.insn	2, 0xa102
 c74:	8102                	.insn	2, 0x8102
 c76:	ce038303          	lb	t1,-800(t2)
 c7a:	ec040003          	lb	zero,-320(s0)
 c7e:	e404                	.insn	2, 0xe404
 c80:	0105                	.insn	2, 0x0105
 c82:	045e                	.insn	2, 0x045e
 c84:	05e4                	.insn	2, 0x05e4
 c86:	05f4                	.insn	2, 0x05f4
 c88:	7a0c                	.insn	2, 0x7a0c
 c8a:	a800                	.insn	2, 0xa800
 c8c:	7d2d                	.insn	2, 0x7d2d
 c8e:	a800                	.insn	2, 0xa800
 c90:	1b2d                	.insn	2, 0x1b2d
 c92:	00a8                	.insn	2, 0x00a8
 c94:	049f 08c0 08c8      	.insn	6, 0x08c808c0049f
 c9a:	5e01                	.insn	2, 0x5e01
 c9c:	dc04                	.insn	2, 0xdc04
 c9e:	e408                	.insn	2, 0xe408
 ca0:	0108                	.insn	2, 0x0108
 ca2:	045e                	.insn	2, 0x045e
 ca4:	0ae8                	.insn	2, 0x0ae8
 ca6:	0af0                	.insn	2, 0x0af0
 ca8:	5e01                	.insn	2, 0x5e01
 caa:	8c04                	.insn	2, 0x8c04
 cac:	9c0d                	.insn	2, 0x9c0d
 cae:	010d                	.insn	2, 0x010d
 cb0:	005e                	.insn	2, 0x005e
 cb2:	240e                	.insn	2, 0x240e
 cb4:	452d                	.insn	2, 0x452d
 cb6:	784e4c47          	.insn	4, 0x784e4c47
 cba:	7b78                	.insn	2, 0x7b78
 cbc:	01f5                	.insn	2, 0x01f5
 cbe:	028f0283          	lb	t0,40(t5)
 cc2:	02a8                	.insn	2, 0x02a8
 cc4:	02f002eb          	.insn	4, 0x02f002eb
 cc8:	02f1                	.insn	2, 0x02f1
 cca:	03ce038b          	.insn	4, 0x03ce038b
 cce:	0400                	.insn	2, 0x0400
 cd0:	01e4                	.insn	2, 0x01e4
 cd2:	02c8                	.insn	2, 0x02c8
 cd4:	5a01                	.insn	2, 0x5a01
 cd6:	d404                	.insn	2, 0xd404
 cd8:	d802                	.insn	2, 0xd802
 cda:	045a0103          	lb	sp,69(s4) # 201a144b <__stack_size+0x1e1a144b>
 cde:	03dc                	.insn	2, 0x03dc
 ce0:	03f8                	.insn	2, 0x03f8
 ce2:	5a01                	.insn	2, 0x5a01
 ce4:	fc04                	.insn	2, 0xfc04
 ce6:	01058c03          	lb	s8,16(a1)
 cea:	045a                	.insn	2, 0x045a
 cec:	058c                	.insn	2, 0x058c
 cee:	05a4                	.insn	2, 0x05a4
 cf0:	7a04                	.insn	2, 0x7a04
 cf2:	00f8                	.insn	2, 0x00f8
 cf4:	049f 07e4 0890      	.insn	6, 0x089007e4049f
 cfa:	5a01                	.insn	2, 0x5a01
 cfc:	ac04                	.insn	2, 0xac04
 cfe:	f408                	.insn	2, 0xf408
 d00:	0108                	.insn	2, 0x0108
 d02:	045a                	.insn	2, 0x045a
 d04:	0aac                	.insn	2, 0x0aac
 d06:	5a010ab7          	lui	s5,0x5a010
 d0a:	bc04                	.insn	2, 0xbc04
 d0c:	a70a                	.insn	2, 0xa70a
 d0e:	045a010b          	.insn	4, 0x045a010b
 d12:	0d8c                	.insn	2, 0x0d8c
 d14:	0d9c                	.insn	2, 0x0d9c
 d16:	5a01                	.insn	2, 0x5a01
 d18:	5200                	.insn	2, 0x5200
 d1a:	5858                	.insn	2, 0x5858
 d1c:	665e                	.insn	2, 0x665e
 d1e:	7f766f6f          	jal	t5,67d14 <__stack_size-0x1f982ec>
 d22:	0188                	.insn	2, 0x0188
 d24:	0188                	.insn	2, 0x0188
 d26:	019b018b          	.insn	4, 0x019b018b
 d2a:	01a901a3          	sb	s10,3(s2)
 d2e:	01b2                	.insn	2, 0x01b2
 d30:	01bb01b7          	lui	gp,0x1bb0
 d34:	01da01bb          	.insn	4, 0x01da01bb
 d38:	01f5                	.insn	2, 0x01f5
 d3a:	01fd                	.insn	2, 0x01fd
 d3c:	01ff 0281 028f 0293 	.insn	10, 0x02970293028f028101ff
 d44:	0297 
 d46:	029d                	.insn	2, 0x029d
 d48:	02a1                	.insn	2, 0x02a1
 d4a:	02aa                	.insn	2, 0x02aa
 d4c:	02e6                	.insn	2, 0x02e6
 d4e:	02fe02eb          	.insn	4, 0x02fe02eb
 d52:	02ff 0383 0386 03c4 	.insn	10, 0x03c603c40386038302ff
 d5a:	03c6 
 d5c:	03c6                	.insn	2, 0x03c6
 d5e:	03c9                	.insn	2, 0x03c9
 d60:	03ce                	.insn	2, 0x03ce
 d62:	0400                	.insn	2, 0x0400
 d64:	0484                	.insn	2, 0x0484
 d66:	0498                	.insn	2, 0x0498
 d68:	5a01                	.insn	2, 0x5a01
 d6a:	9804                	.insn	2, 0x9804
 d6c:	c004                	.insn	2, 0xc004
 d6e:	0104                	.insn	2, 0x0104
 d70:	045e                	.insn	2, 0x045e
 d72:	04d8                	.insn	2, 0x04d8
 d74:	04ec                	.insn	2, 0x04ec
 d76:	5e01                	.insn	2, 0x5e01
 d78:	ec04                	.insn	2, 0xec04
 d7a:	8804                	.insn	2, 0x8804
 d7c:	0405                	.insn	2, 0x0405
 d7e:	c47f 9f00 b004 c405 	.insn	18, 0x7f0305d405c4045f0105c405b0049f00c47f
 d86:	0105 045f 05c4 05d4 
 d8e:	7f03 
 d90:	9f50                	.insn	2, 0x9f50
 d92:	8c04                	.insn	2, 0x8c04
 d94:	a806                	.insn	2, 0xa806
 d96:	0106                	.insn	2, 0x0106
 d98:	0469                	.insn	2, 0x0469
 d9a:	06bc                	.insn	2, 0x06bc
 d9c:	06c8                	.insn	2, 0x06c8
 d9e:	6901                	.insn	2, 0x6901
 da0:	d804                	.insn	2, 0xd804
 da2:	e006                	.insn	2, 0xe006
 da4:	0206                	.insn	2, 0x0206
 da6:	007d                	.insn	2, 0x007d
 da8:	e004                	.insn	2, 0xe004
 daa:	a806                	.insn	2, 0xa806
 dac:	04690107          	.insn	4, 0x04690107
 db0:	07e4                	.insn	2, 0x07e4
 db2:	07f8                	.insn	2, 0x07f8
 db4:	5e01                	.insn	2, 0x5e01
 db6:	8404                	.insn	2, 0x8404
 db8:	8808                	.insn	2, 0x8808
 dba:	0108                	.insn	2, 0x0108
 dbc:	045e                	.insn	2, 0x045e
 dbe:	08ac                	.insn	2, 0x08ac
 dc0:	08b8                	.insn	2, 0x08b8
 dc2:	5e01                	.insn	2, 0x5e01
 dc4:	c804                	.insn	2, 0xc804
 dc6:	d408                	.insn	2, 0xd408
 dc8:	0108                	.insn	2, 0x0108
 dca:	045e                	.insn	2, 0x045e
 dcc:	08e4                	.insn	2, 0x08e4
 dce:	08fc                	.insn	2, 0x08fc
 dd0:	5e01                	.insn	2, 0x5e01
 dd2:	a004                	.insn	2, 0xa004
 dd4:	ac0a                	.insn	2, 0xac0a
 dd6:	010a                	.insn	2, 0x010a
 dd8:	0469                	.insn	2, 0x0469
 dda:	0adc                	.insn	2, 0x0adc
 ddc:	0ae0                	.insn	2, 0x0ae0
 dde:	5e01                	.insn	2, 0x5e01
 de0:	f004                	.insn	2, 0xf004
 de2:	980a                	.insn	2, 0x980a
 de4:	045e010b          	.insn	4, 0x045e010b
 de8:	0cd8                	.insn	2, 0x0cd8
 dea:	0ce0                	.insn	2, 0x0ce0
 dec:	6901                	.insn	2, 0x6901
 dee:	e004                	.insn	2, 0xe004
 df0:	fc0c                	.insn	2, 0xfc0c
 df2:	010c                	.insn	2, 0x010c
 df4:	045e                	.insn	2, 0x045e
 df6:	0d8c                	.insn	2, 0x0d8c
 df8:	0d9c                	.insn	2, 0x0d9c
 dfa:	7f04                	.insn	2, 0x7f04
 dfc:	00c4                	.insn	2, 0x00c4
 dfe:	009f 01bd 01c2      	.insn	6, 0x01c201bd009f
 e04:	01ca                	.insn	2, 0x01ca
 e06:	01d5                	.insn	2, 0x01d5
 e08:	e804                	.insn	2, 0xe804
 e0a:	f406                	.insn	2, 0xf406
 e0c:	0106                	.insn	2, 0x0106
 e0e:	045a                	.insn	2, 0x045a
 e10:	0784                	.insn	2, 0x0784
 e12:	5a010797          	auipc	a5,0x5a010
 e16:	ce00                	.insn	2, 0xce00
 e18:	d501                	.insn	2, 0xd501
 e1a:	0401                	.insn	2, 0x0401
 e1c:	0788                	.insn	2, 0x0788
 e1e:	5a010797          	auipc	a5,0x5a010
 e22:	1a00                	.insn	2, 0x1a00
 e24:	eb24                	.insn	2, 0xeb24
 e26:	f002                	.insn	2, 0xf002
 e28:	0402                	.insn	2, 0x0402
 e2a:	02b0                	.insn	2, 0x02b0
 e2c:	02c8                	.insn	2, 0x02c8
 e2e:	5a01                	.insn	2, 0x5a01
 e30:	ac04                	.insn	2, 0xac04
 e32:	b70a                	.insn	2, 0xb70a
 e34:	010a                	.insn	2, 0x010a
 e36:	005a                	.insn	2, 0x005a
 e38:	02f002eb          	.insn	4, 0x02f002eb
 e3c:	ac04                	.insn	2, 0xac04
 e3e:	b70a                	.insn	2, 0xb70a
 e40:	010a                	.insn	2, 0x010a
 e42:	005a                	.insn	2, 0x005a
 e44:	665a                	.insn	2, 0x665a
 e46:	0386                	.insn	2, 0x0386
 e48:	bc04038b          	.insn	4, 0xbc04038b
 e4c:	d804                	.insn	2, 0xd804
 e4e:	0104                	.insn	2, 0x0104
 e50:	045a                	.insn	2, 0x045a
 e52:	0b98                	.insn	2, 0x0b98
 e54:	5a010ba7          	.insn	4, 0x5a010ba7
 e58:	8600                	.insn	2, 0x8600
 e5a:	04038b03          	lb	s6,64(t2)
 e5e:	0b98                	.insn	2, 0x0b98
 e60:	5a010ba7          	.insn	4, 0x5a010ba7
 e64:	9f00                	.insn	2, 0x9f00
 e66:	a301                	.insn	2, 0xa301
 e68:	ae01                	.insn	2, 0xae01
 e6a:	b201                	.insn	2, 0xb201
 e6c:	0401                	.insn	2, 0x0401
 e6e:	06a4                	.insn	2, 0x06a4
 e70:	06a8                	.insn	2, 0x06a8
 e72:	6901                	.insn	2, 0x6901
 e74:	c404                	.insn	2, 0xc404
 e76:	c806                	.insn	2, 0xc806
 e78:	0106                	.insn	2, 0x0106
 e7a:	0069                	.insn	2, 0x0069
 e7c:	01a901a3          	sb	s10,3(s2)
 e80:	a804                	.insn	2, 0xa804
 e82:	bc06                	.insn	2, 0xbc06
 e84:	0106                	.insn	2, 0x0106
 e86:	0069                	.insn	2, 0x0069
 e88:	01de                	.insn	2, 0x01de
 e8a:	01ec01e7          	jalr	gp,30(s8)
 e8e:	01f5                	.insn	2, 0x01f5
 e90:	b004                	.insn	2, 0xb004
 e92:	0307c007          	.insn	4, 0x0307c007
 e96:	2008                	.insn	2, 0x2008
 e98:	049f 07cc 07e4      	.insn	6, 0x07e407cc049f
 e9e:	9f200803          	lb	a6,-1550(zero) # fffff9f2 <_sp+0x77fff9f2>
 ea2:	f000                	.insn	2, 0xf000
 ea4:	f501                	.insn	2, 0xf501
 ea6:	0401                	.insn	2, 0x0401
 ea8:	07d0                	.insn	2, 0x07d0
 eaa:	07e4                	.insn	2, 0x07e4
 eac:	9f200803          	lb	a6,-1550(zero) # fffff9f2 <_sp+0x77fff9f2>
 eb0:	8400                	.insn	2, 0x8400
 eb2:	8f02                	.insn	2, 0x8f02
 eb4:	8c02                	.insn	2, 0x8c02
 eb6:	04039203          	lh	tp,64(t2)
 eba:	0894                	.insn	2, 0x0894
 ebc:	08ac                	.insn	2, 0x08ac
 ebe:	5a01                	.insn	2, 0x5a01
 ec0:	ac04                	.insn	2, 0xac04
 ec2:	010bbb0b          	.insn	4, 0x010bbb0b
 ec6:	005a                	.insn	2, 0x005a
 ec8:	038c                	.insn	2, 0x038c
 eca:	0392                	.insn	2, 0x0392
 ecc:	ac04                	.insn	2, 0xac04
 ece:	010bbb0b          	.insn	4, 0x010bbb0b
 ed2:	005a                	.insn	2, 0x005a
 ed4:	02b1                	.insn	2, 0x02b1
 ed6:	03bd02c7          	.insn	4, 0x03bd02c7
 eda:	03be                	.insn	2, 0x03be
 edc:	03c403c3          	.insn	4, 0x03c403c3
 ee0:	03cd                	.insn	2, 0x03cd
 ee2:	03ce                	.insn	2, 0x03ce
 ee4:	a404                	.insn	2, 0xa404
 ee6:	d809                	.insn	2, 0xd809
 ee8:	0109                	.insn	2, 0x0109
 eea:	0464                	.insn	2, 0x0464
 eec:	0cb0                	.insn	2, 0x0cb0
 eee:	0cb8                	.insn	2, 0x0cb8
 ef0:	6401                	.insn	2, 0x6401
 ef2:	d004                	.insn	2, 0xd004
 ef4:	d80c                	.insn	2, 0xd80c
 ef6:	010c                	.insn	2, 0x010c
 ef8:	0464                	.insn	2, 0x0464
 efa:	0d84                	.insn	2, 0x0d84
 efc:	0d8c                	.insn	2, 0x0d8c
 efe:	6401                	.insn	2, 0x6401
 f00:	b100                	.insn	2, 0xb100
 f02:	b702                	.insn	2, 0xb702
 f04:	bc02                	.insn	2, 0xbc02
 f06:	c502                	.insn	2, 0xc502
 f08:	0402                	.insn	2, 0x0402
 f0a:	09a4                	.insn	2, 0x09a4
 f0c:	09b0                	.insn	2, 0x09b0
 f0e:	5a01                	.insn	2, 0x5a01
 f10:	c004                	.insn	2, 0xc004
 f12:	cf09                	.insn	2, 0xcf09
 f14:	0109                	.insn	2, 0x0109
 f16:	005a                	.insn	2, 0x005a
 f18:	02c0                	.insn	2, 0x02c0
 f1a:	02c5                	.insn	2, 0x02c5
 f1c:	c404                	.insn	2, 0xc404
 f1e:	cf09                	.insn	2, 0xcf09
 f20:	0109                	.insn	2, 0x0109
 f22:	005a                	.insn	2, 0x005a
 f24:	02ce                	.insn	2, 0x02ce
 f26:	02d8                	.insn	2, 0x02d8
 f28:	02dd                	.insn	2, 0x02dd
 f2a:	02e6                	.insn	2, 0x02e6
 f2c:	e804                	.insn	2, 0xe804
 f2e:	fc09                	.insn	2, 0xfc09
 f30:	0309                	.insn	2, 0x0309
 f32:	2008                	.insn	2, 0x2008
 f34:	049f 0a88 0aa0      	.insn	6, 0x0aa00a88049f
 f3a:	9f200803          	lb	a6,-1550(zero) # fffff9f2 <_sp+0x77fff9f2>
 f3e:	e100                	.insn	2, 0xe100
 f40:	e602                	.insn	2, 0xe602
 f42:	0402                	.insn	2, 0x0402
 f44:	0a8c                	.insn	2, 0x0a8c
 f46:	0aa0                	.insn	2, 0x0aa0
 f48:	9f200803          	lb	a6,-1550(zero) # fffff9f2 <_sp+0x77fff9f2>
 f4c:	9d00                	.insn	2, 0x9d00
 f4e:	ab03a603          	lw	a2,-1360(t2)
 f52:	0403b403          	.insn	4, 0x0403b403
 f56:	0be0                	.insn	2, 0x0be0
 f58:	0bf0                	.insn	2, 0x0bf0
 f5a:	9f200803          	lb	a6,-1550(zero) # fffff9f2 <_sp+0x77fff9f2>
 f5e:	fc04                	.insn	2, 0xfc04
 f60:	030c900b          	.insn	4, 0x030c900b
 f64:	2008                	.insn	2, 0x2008
 f66:	009f 03af 03b4      	.insn	6, 0x03b403af009f
 f6c:	8004                	.insn	2, 0x8004
 f6e:	900c                	.insn	2, 0x900c
 f70:	030c                	.insn	2, 0x030c
 f72:	2008                	.insn	2, 0x2008
 f74:	009f 1000 1010      	.insn	6, 0x10101000009f
 f7a:	0010                	.insn	2, 0x0010
 f7c:	0004                	.insn	2, 0x0004
 f7e:	045a012b          	.insn	4, 0x045a012b
 f82:	a30a2c2b          	.insn	4, 0xa30a2c2b
 f86:	260aa503          	lw	a0,608(s5) # 5a010260 <__stack_size+0x58010260>
 f8a:	34a8                	.insn	2, 0x34a8
 f8c:	00a8                	.insn	2, 0x00a8
 f8e:	049f 302c 5a01      	.insn	6, 0x5a01302c049f
 f94:	0b00                	.insn	2, 0x0b00
 f96:	0400                	.insn	2, 0x0400
 f98:	301c                	.insn	2, 0x301c
 f9a:	a30a                	.insn	2, 0xa30a
 f9c:	260aa503          	lw	a0,608(s5)
 fa0:	34a8                	.insn	2, 0x34a8
 fa2:	00a8                	.insn	2, 0x00a8
 fa4:	009f 0400 1e04      	.insn	6, 0x1e040400009f
 faa:	3004                	.insn	2, 0x3004
 fac:	0144                	.insn	2, 0x0144
 fae:	045a                	.insn	2, 0x045a
 fb0:	a044                	.insn	2, 0xa044
 fb2:	0101                	.insn	2, 0x0101
 fb4:	0058                	.insn	2, 0x0058
 fb6:	0a06                	.insn	2, 0x0a06
 fb8:	1b12                	.insn	2, 0x1b12
 fba:	5c04                	.insn	2, 0x5c04
 fbc:	0164                	.insn	2, 0x0164
 fbe:	045a                	.insn	2, 0x045a
 fc0:	8774                	.insn	2, 0x8774
 fc2:	0101                	.insn	2, 0x0101
 fc4:	005a                	.insn	2, 0x005a
 fc6:	0a06                	.insn	2, 0x0a06
 fc8:	1b0e                	.insn	2, 0x1b0e
 fca:	5c04                	.insn	2, 0x5c04
 fcc:	0164                	.insn	2, 0x0164
 fce:	045a                	.insn	2, 0x045a
 fd0:	876c                	.insn	2, 0x876c
 fd2:	0101                	.insn	2, 0x0101
 fd4:	005a                	.insn	2, 0x005a

Disassembly of section .debug_rnglists:

00000000 <.debug_rnglists>:
   0:	0000007b          	.insn	4, 0x007b
   4:	0005                	.insn	2, 0x0005
   6:	0004                	.insn	2, 0x0004
   8:	0000                	.insn	2, 0x0000
   a:	0000                	.insn	2, 0x0000
   c:	a805                	.insn	2, 0xa805
   e:	0008                	.insn	2, 0x0008
  10:	0480                	.insn	2, 0x0480
  12:	2400                	.insn	2, 0x2400
  14:	2c04                	.insn	2, 0x2c04
  16:	0430                	.insn	2, 0x0430
  18:	3c38                	.insn	2, 0x3c38
  1a:	4004                	.insn	2, 0x4004
  1c:	0044                	.insn	2, 0x0044
  1e:	d405                	.insn	2, 0xd405
  20:	0001                	.insn	2, 0x0001
  22:	0480                	.insn	2, 0x0480
  24:	0400                	.insn	2, 0x0400
  26:	1804                	.insn	2, 0x1804
  28:	0380                	.insn	2, 0x0380
  2a:	8404                	.insn	2, 0x8404
  2c:	04039003          	lh	zero,64(t2)
  30:	03a4                	.insn	2, 0x03a4
  32:	03a8                	.insn	2, 0x03a8
  34:	ac04                	.insn	2, 0xac04
  36:	0403b003          	.insn	4, 0x0403b003
  3a:	03c4                	.insn	2, 0x03c4
  3c:	03c8                	.insn	2, 0x03c8
  3e:	d804                	.insn	2, 0xd804
  40:	0403dc03          	lhu	s8,64(t2)
  44:	0abc                	.insn	2, 0x0abc
  46:	0ac4                	.insn	2, 0x0ac4
  48:	0500                	.insn	2, 0x0500
  4a:	01d4                	.insn	2, 0x01d4
  4c:	8000                	.insn	2, 0x8000
  4e:	0004                	.insn	2, 0x0004
  50:	0404                	.insn	2, 0x0404
  52:	2818                	.insn	2, 0x2818
  54:	8404                	.insn	2, 0x8404
  56:	c402                	.insn	2, 0xc402
  58:	0402                	.insn	2, 0x0402
  5a:	02cc                	.insn	2, 0x02cc
  5c:	02e4                	.insn	2, 0x02e4
  5e:	e804                	.insn	2, 0xe804
  60:	ec02                	.insn	2, 0xec02
  62:	0002                	.insn	2, 0x0002
  64:	6405                	.insn	2, 0x6405
  66:	0002                	.insn	2, 0x0002
  68:	0480                	.insn	2, 0x0480
  6a:	0400                	.insn	2, 0x0400
  6c:	0804                	.insn	2, 0x0804
  6e:	001c                	.insn	2, 0x001c
  70:	00072807          	.insn	4, 0x00072807
  74:	8c80                	.insn	2, 0x8c80
  76:	0704                	.insn	2, 0x0704
  78:	001c                	.insn	2, 0x001c
  7a:	8000                	.insn	2, 0x8000
  7c:	0e8c                	.insn	2, 0x0e8c
  7e:	7700                	.insn	2, 0x7700
  80:	0000                	.insn	2, 0x0000
  82:	0500                	.insn	2, 0x0500
  84:	0400                	.insn	2, 0x0400
  86:	0000                	.insn	2, 0x0000
  88:	0000                	.insn	2, 0x0000
  8a:	0400                	.insn	2, 0x0400
  8c:	0404                	.insn	2, 0x0404
  8e:	0804                	.insn	2, 0x0804
  90:	0010                	.insn	2, 0x0010
  92:	1404                	.insn	2, 0x1404
  94:	0414                	.insn	2, 0x0414
  96:	241c                	.insn	2, 0x241c
  98:	2c04                	.insn	2, 0x2c04
  9a:	0040                	.insn	2, 0x0040
  9c:	1404                	.insn	2, 0x1404
  9e:	0414                	.insn	2, 0x0414
  a0:	3c30                	.insn	2, 0x3c30
  a2:	0400                	.insn	2, 0x0400
  a4:	0180                	.insn	2, 0x0180
  a6:	0180                	.insn	2, 0x0180
  a8:	8404                	.insn	2, 0x8404
  aa:	8801                	.insn	2, 0x8801
  ac:	0401                	.insn	2, 0x0401
  ae:	018c                	.insn	2, 0x018c
  b0:	0190                	.insn	2, 0x0190
  b2:	0400                	.insn	2, 0x0400
  b4:	01a0                	.insn	2, 0x01a0
  b6:	01a0                	.insn	2, 0x01a0
  b8:	a404                	.insn	2, 0xa404
  ba:	a801                	.insn	2, 0xa801
  bc:	0401                	.insn	2, 0x0401
  be:	01ac                	.insn	2, 0x01ac
  c0:	01b0                	.insn	2, 0x01b0
  c2:	0400                	.insn	2, 0x0400
  c4:	01c0                	.insn	2, 0x01c0
  c6:	01c0                	.insn	2, 0x01c0
  c8:	c804                	.insn	2, 0xc804
  ca:	cc01                	.insn	2, 0xcc01
  cc:	0001                	.insn	2, 0x0001
  ce:	d804                	.insn	2, 0xd804
  d0:	d801                	.insn	2, 0xd801
  d2:	0401                	.insn	2, 0x0401
  d4:	01e0                	.insn	2, 0x01e0
  d6:	01e4                	.insn	2, 0x01e4
  d8:	0400                	.insn	2, 0x0400
  da:	01f4                	.insn	2, 0x01f4
  dc:	01f4                	.insn	2, 0x01f4
  de:	fc04                	.insn	2, 0xfc04
  e0:	8001                	.insn	2, 0x8001
  e2:	0002                	.insn	2, 0x0002
  e4:	9004                	.insn	2, 0x9004
  e6:	9002                	.insn	2, 0x9002
  e8:	0402                	.insn	2, 0x0402
  ea:	0298                	.insn	2, 0x0298
  ec:	029c                	.insn	2, 0x029c
  ee:	0400                	.insn	2, 0x0400
  f0:	02ac                	.insn	2, 0x02ac
  f2:	02ac                	.insn	2, 0x02ac
  f4:	b404                	.insn	2, 0xb404
  f6:	b802                	.insn	2, 0xb802
  f8:	0002                	.insn	2, 0x0002
  fa:	013c                	.insn	2, 0x013c
  fc:	0000                	.insn	2, 0x0000
  fe:	0005                	.insn	2, 0x0005
 100:	0004                	.insn	2, 0x0004
 102:	0000                	.insn	2, 0x0000
 104:	0000                	.insn	2, 0x0000
 106:	5404                	.insn	2, 0x5404
 108:	0464                	.insn	2, 0x0464
 10a:	706c                	.insn	2, 0x706c
 10c:	7404                	.insn	2, 0x7404
 10e:	0188                	.insn	2, 0x0188
 110:	0400                	.insn	2, 0x0400
 112:	5c54                	.insn	2, 0x5c54
 114:	6c04                	.insn	2, 0x6c04
 116:	046c                	.insn	2, 0x046c
 118:	887c                	.insn	2, 0x887c
 11a:	0001                	.insn	2, 0x0001
 11c:	d804                	.insn	2, 0xd804
 11e:	dc01                	.insn	2, 0xdc01
 120:	0401                	.insn	2, 0x0401
 122:	01e4                	.insn	2, 0x01e4
 124:	0380                	.insn	2, 0x0380
 126:	9404                	.insn	2, 0x9404
 128:	000d9c03          	lh	s8,0(s11)
 12c:	a804                	.insn	2, 0xa804
 12e:	ac02                	.insn	2, 0xac02
 130:	0402                	.insn	2, 0x0402
 132:	06b8                	.insn	2, 0x06b8
 134:	06bc                	.insn	2, 0x06bc
 136:	e804                	.insn	2, 0xe804
 138:	f406                	.insn	2, 0xf406
 13a:	0406                	.insn	2, 0x0406
 13c:	0784                	.insn	2, 0x0784
 13e:	0790                	.insn	2, 0x0790
 140:	9404                	.insn	2, 0x9404
 142:	00079807          	.insn	4, 0x00079807
 146:	a804                	.insn	2, 0xa804
 148:	ac02                	.insn	2, 0xac02
 14a:	0402                	.insn	2, 0x0402
 14c:	0788                	.insn	2, 0x0788
 14e:	0790                	.insn	2, 0x0790
 150:	9404                	.insn	2, 0x9404
 152:	00079807          	.insn	4, 0x00079807
 156:	b004                	.insn	2, 0xb004
 158:	c802                	.insn	2, 0xc802
 15a:	0402                	.insn	2, 0x0402
 15c:	05f8                	.insn	2, 0x05f8
 15e:	05fc                	.insn	2, 0x05fc
 160:	8404                	.insn	2, 0x8404
 162:	8806                	.insn	2, 0x8806
 164:	0406                	.insn	2, 0x0406
 166:	0aac                	.insn	2, 0x0aac
 168:	0abc                	.insn	2, 0x0abc
 16a:	0400                	.insn	2, 0x0400
 16c:	04bc                	.insn	2, 0x04bc
 16e:	04d8                	.insn	2, 0x04d8
 170:	9804                	.insn	2, 0x9804
 172:	000bac0b          	.insn	4, 0x000bac0b
 176:	a404                	.insn	2, 0xa404
 178:	b806                	.insn	2, 0xb806
 17a:	0406                	.insn	2, 0x0406
 17c:	06c4                	.insn	2, 0x06c4
 17e:	06d0                	.insn	2, 0x06d0
 180:	d404                	.insn	2, 0xd404
 182:	d806                	.insn	2, 0xd806
 184:	0406                	.insn	2, 0x0406
 186:	06d8                	.insn	2, 0x06d8
 188:	06dc                	.insn	2, 0x06dc
 18a:	0400                	.insn	2, 0x0400
 18c:	06fc                	.insn	2, 0x06fc
 18e:	0780                	.insn	2, 0x0780
 190:	a804                	.insn	2, 0xa804
 192:	0407b007          	.insn	4, 0x0407b007
 196:	07b0                	.insn	2, 0x07b0
 198:	07c0                	.insn	2, 0x07c0
 19a:	c404                	.insn	2, 0xc404
 19c:	0407c807          	.insn	4, 0x0407c807
 1a0:	07cc                	.insn	2, 0x07cc
 1a2:	07e4                	.insn	2, 0x07e4
 1a4:	0400                	.insn	2, 0x0400
 1a6:	07ac                	.insn	2, 0x07ac
 1a8:	07b0                	.insn	2, 0x07b0
 1aa:	d004                	.insn	2, 0xd004
 1ac:	0007e407          	.insn	4, 0x0007e407
 1b0:	8404                	.insn	2, 0x8404
 1b2:	8c08                	.insn	2, 0x8c08
 1b4:	0408                	.insn	2, 0x0408
 1b6:	0894                	.insn	2, 0x0894
 1b8:	08a4                	.insn	2, 0x08a4
 1ba:	ac04                	.insn	2, 0xac04
 1bc:	000bbc0b          	.insn	4, 0x000bbc0b
 1c0:	9c04                	.insn	2, 0x9c04
 1c2:	d809                	.insn	2, 0xd809
 1c4:	0409                	.insn	2, 0x0409
 1c6:	0c9c                	.insn	2, 0x0c9c
 1c8:	0ca4                	.insn	2, 0x0ca4
 1ca:	b004                	.insn	2, 0xb004
 1cc:	c40c                	.insn	2, 0xc40c
 1ce:	040c                	.insn	2, 0x040c
 1d0:	0cd0                	.insn	2, 0x0cd0
 1d2:	0cd8                	.insn	2, 0x0cd8
 1d4:	8404                	.insn	2, 0x8404
 1d6:	8c0d                	.insn	2, 0x8c0d
 1d8:	000d                	.insn	2, 0x000d
 1da:	9c04                	.insn	2, 0x9c04
 1dc:	b009                	.insn	2, 0xb009
 1de:	0409                	.insn	2, 0x0409
 1e0:	09b8                	.insn	2, 0x09b8
 1e2:	09bc                	.insn	2, 0x09bc
 1e4:	c004                	.insn	2, 0xc004
 1e6:	d009                	.insn	2, 0xd009
 1e8:	0009                	.insn	2, 0x0009
 1ea:	9c04                	.insn	2, 0x9c04
 1ec:	a409                	.insn	2, 0xa409
 1ee:	0409                	.insn	2, 0x0409
 1f0:	09c4                	.insn	2, 0x09c4
 1f2:	09d0                	.insn	2, 0x09d0
 1f4:	0400                	.insn	2, 0x0400
 1f6:	09dc                	.insn	2, 0x09dc
 1f8:	09e4                	.insn	2, 0x09e4
 1fa:	e804                	.insn	2, 0xe804
 1fc:	fc09                	.insn	2, 0xfc09
 1fe:	0409                	.insn	2, 0x0409
 200:	0a80                	.insn	2, 0x0a80
 202:	0a84                	.insn	2, 0x0a84
 204:	8804                	.insn	2, 0x8804
 206:	a00a                	.insn	2, 0xa00a
 208:	000a                	.insn	2, 0x000a
 20a:	dc04                	.insn	2, 0xdc04
 20c:	e409                	.insn	2, 0xe409
 20e:	0409                	.insn	2, 0x0409
 210:	0a8c                	.insn	2, 0x0a8c
 212:	0aa0                	.insn	2, 0x0aa0
 214:	0400                	.insn	2, 0x0400
 216:	0bd0                	.insn	2, 0x0bd0
 218:	0bd4                	.insn	2, 0x0bd4
 21a:	d804                	.insn	2, 0xd804
 21c:	040be00b          	.insn	4, 0x040be00b
 220:	0be0                	.insn	2, 0x0be0
 222:	0bf0                	.insn	2, 0x0bf0
 224:	f404                	.insn	2, 0xf404
 226:	040bf80b          	.insn	4, 0x040bf80b
 22a:	0bfc                	.insn	2, 0x0bfc
 22c:	0c90                	.insn	2, 0x0c90
 22e:	0400                	.insn	2, 0x0400
 230:	0bd8                	.insn	2, 0x0bd8
 232:	0be0                	.insn	2, 0x0be0
 234:	8004                	.insn	2, 0x8004
 236:	900c                	.insn	2, 0x900c
 238:	000c                	.insn	2, 0x000c

Disassembly of section .debug_frame:

00000000 <.debug_frame>:
   0:	000c                	.insn	2, 0x000c
   2:	0000                	.insn	2, 0x0000
   4:	ffff                	.insn	2, 0xffff
   6:	ffff                	.insn	2, 0xffff
   8:	7c010003          	lb	zero,1984(sp)
   c:	0c01                	.insn	2, 0x0c01
   e:	0002                	.insn	2, 0x0002
  10:	000c                	.insn	2, 0x000c
  12:	0000                	.insn	2, 0x0000
  14:	0000                	.insn	2, 0x0000
  16:	0000                	.insn	2, 0x0000
  18:	0728                	.insn	2, 0x0728
  1a:	8000                	.insn	2, 0x8000
  1c:	0030                	.insn	2, 0x0030
  1e:	0000                	.insn	2, 0x0000
  20:	000c                	.insn	2, 0x000c
  22:	0000                	.insn	2, 0x0000
  24:	0000                	.insn	2, 0x0000
  26:	0000                	.insn	2, 0x0000
  28:	0758                	.insn	2, 0x0758
  2a:	8000                	.insn	2, 0x8000
  2c:	002c                	.insn	2, 0x002c
  2e:	0000                	.insn	2, 0x0000
  30:	0034                	.insn	2, 0x0034
  32:	0000                	.insn	2, 0x0000
  34:	0000                	.insn	2, 0x0000
  36:	0000                	.insn	2, 0x0000
  38:	0784                	.insn	2, 0x0784
  3a:	8000                	.insn	2, 0x8000
  3c:	0168                	.insn	2, 0x0168
  3e:	0000                	.insn	2, 0x0000
  40:	0e44                	.insn	2, 0x0e44
  42:	4410                	.insn	2, 0x4410
  44:	0492                	.insn	2, 0x0492
  46:	8154                	.insn	2, 0x8154
  48:	8801                	.insn	2, 0x8801
  4a:	8902                	.insn	2, 0x8902
  4c:	0af40203          	lb	tp,175(s0)
  50:	44c1                	.insn	2, 0x44c1
  52:	44c8                	.insn	2, 0x44c8
  54:	44c9                	.insn	2, 0x44c9
  56:	44d2                	.insn	2, 0x44d2
  58:	000e                	.insn	2, 0x000e
  5a:	0b44                	.insn	2, 0x0b44
  5c:	c168                	.insn	2, 0xc168
  5e:	c944                	.insn	2, 0xc944
  60:	c848                	.insn	2, 0xc848
  62:	d244                	.insn	2, 0xd244
  64:	0e48                	.insn	2, 0x0e48
  66:	0000                	.insn	2, 0x0000
  68:	000c                	.insn	2, 0x000c
  6a:	0000                	.insn	2, 0x0000
  6c:	0000                	.insn	2, 0x0000
  6e:	0000                	.insn	2, 0x0000
  70:	08ec                	.insn	2, 0x08ec
  72:	8000                	.insn	2, 0x8000
  74:	0030                	.insn	2, 0x0030
  76:	0000                	.insn	2, 0x0000
  78:	000c                	.insn	2, 0x000c
  7a:	0000                	.insn	2, 0x0000
  7c:	0000                	.insn	2, 0x0000
  7e:	0000                	.insn	2, 0x0000
  80:	091c                	.insn	2, 0x091c
  82:	8000                	.insn	2, 0x8000
  84:	0018                	.insn	2, 0x0018
  86:	0000                	.insn	2, 0x0000
  88:	0058                	.insn	2, 0x0058
  8a:	0000                	.insn	2, 0x0000
  8c:	0000                	.insn	2, 0x0000
  8e:	0000                	.insn	2, 0x0000
  90:	001c                	.insn	2, 0x001c
  92:	8000                	.insn	2, 0x8000
  94:	070c                	.insn	2, 0x070c
  96:	0000                	.insn	2, 0x0000
  98:	0e44                	.insn	2, 0x0e44
  9a:	01a0                	.insn	2, 0x01a0
  9c:	814c                	.insn	2, 0x814c
  9e:	8801                	.insn	2, 0x8801
  a0:	9602                	.insn	2, 0x9602
  a2:	4408                	.insn	2, 0x4408
  a4:	080c                	.insn	2, 0x080c
  a6:	6800                	.insn	2, 0x6800
  a8:	0b99                	.insn	2, 0x0b99
  aa:	0389                	.insn	2, 0x0389
  ac:	0492                	.insn	2, 0x0492
  ae:	06940593          	addi	a1,s0,105
  b2:	0795                	.insn	2, 0x0795
  b4:	0a980997          	auipc	s3,0xa980
  b8:	0c9a                	.insn	2, 0x0c9a
  ba:	78030d9b          	.insn	4, 0x78030d9b
  be:	0a06                	.insn	2, 0x0a06
  c0:	020c                	.insn	2, 0x020c
  c2:	01a0                	.insn	2, 0x01a0
  c4:	c144                	.insn	2, 0xc144
  c6:	c844                	.insn	2, 0xc844
  c8:	c944                	.insn	2, 0xc944
  ca:	d244                	.insn	2, 0xd244
  cc:	d344                	.insn	2, 0xd344
  ce:	d444                	.insn	2, 0xd444
  d0:	d544                	.insn	2, 0xd544
  d2:	d644                	.insn	2, 0xd644
  d4:	d744                	.insn	2, 0xd744
  d6:	d844                	.insn	2, 0xd844
  d8:	d944                	.insn	2, 0xd944
  da:	da44                	.insn	2, 0xda44
  dc:	db44                	.insn	2, 0xdb44
  de:	0e48                	.insn	2, 0x0e48
  e0:	4400                	.insn	2, 0x4400
  e2:	000c000b          	.insn	4, 0x000c000b
  e6:	0000                	.insn	2, 0x0000
  e8:	ffff                	.insn	2, 0xffff
  ea:	ffff                	.insn	2, 0xffff
  ec:	7c010003          	lb	zero,1984(sp)
  f0:	0c01                	.insn	2, 0x0c01
  f2:	0002                	.insn	2, 0x0002
  f4:	000c                	.insn	2, 0x000c
  f6:	0000                	.insn	2, 0x0000
  f8:	00e4                	.insn	2, 0x00e4
  fa:	0000                	.insn	2, 0x0000
  fc:	0934                	.insn	2, 0x0934
  fe:	8000                	.insn	2, 0x8000
 100:	0010                	.insn	2, 0x0010
 102:	0000                	.insn	2, 0x0000
 104:	000c                	.insn	2, 0x000c
 106:	0000                	.insn	2, 0x0000
 108:	00e4                	.insn	2, 0x00e4
 10a:	0000                	.insn	2, 0x0000
 10c:	0944                	.insn	2, 0x0944
 10e:	8000                	.insn	2, 0x8000
 110:	0064                	.insn	2, 0x0064
 112:	0000                	.insn	2, 0x0000
 114:	000c                	.insn	2, 0x000c
 116:	0000                	.insn	2, 0x0000
 118:	00e4                	.insn	2, 0x00e4
 11a:	0000                	.insn	2, 0x0000
 11c:	09a8                	.insn	2, 0x09a8
 11e:	8000                	.insn	2, 0x8000
 120:	0024                	.insn	2, 0x0024
 122:	0000                	.insn	2, 0x0000
 124:	0024                	.insn	2, 0x0024
 126:	0000                	.insn	2, 0x0000
 128:	00e4                	.insn	2, 0x00e4
 12a:	0000                	.insn	2, 0x0000
 12c:	09cc                	.insn	2, 0x09cc
 12e:	8000                	.insn	2, 0x8000
 130:	0070                	.insn	2, 0x0070
 132:	0000                	.insn	2, 0x0000
 134:	0e44                	.insn	2, 0x0e44
 136:	5010                	.insn	2, 0x5010
 138:	0288                	.insn	2, 0x0288
 13a:	0389                	.insn	2, 0x0389
 13c:	0492                	.insn	2, 0x0492
 13e:	0181                	.insn	2, 0x0181
 140:	4402                	.insn	2, 0x4402
 142:	44c1                	.insn	2, 0x44c1
 144:	44c8                	.insn	2, 0x44c8
 146:	44c9                	.insn	2, 0x44c9
 148:	48d2                	.insn	2, 0x48d2
 14a:	000e                	.insn	2, 0x000e
 14c:	000c                	.insn	2, 0x000c
 14e:	0000                	.insn	2, 0x0000
 150:	00e4                	.insn	2, 0x00e4
 152:	0000                	.insn	2, 0x0000
 154:	0a3c                	.insn	2, 0x0a3c
 156:	8000                	.insn	2, 0x8000
 158:	000c                	.insn	2, 0x000c
 15a:	0000                	.insn	2, 0x0000
 15c:	003c                	.insn	2, 0x003c
 15e:	0000                	.insn	2, 0x0000
 160:	00e4                	.insn	2, 0x00e4
 162:	0000                	.insn	2, 0x0000
 164:	0a48                	.insn	2, 0x0a48
 166:	8000                	.insn	2, 0x8000
 168:	00ac                	.insn	2, 0x00ac
 16a:	0000                	.insn	2, 0x0000
 16c:	0e44                	.insn	2, 0x0e44
 16e:	4c20                	.insn	2, 0x4c20
 170:	0288                	.insn	2, 0x0288
 172:	0181                	.insn	2, 0x0181
 174:	4002                	.insn	2, 0x4002
 176:	c10a                	.insn	2, 0xc10a
 178:	c844                	.insn	2, 0xc844
 17a:	0e48                	.insn	2, 0x0e48
 17c:	4400                	.insn	2, 0x4400
 17e:	c10a500b          	.insn	4, 0xc10a500b
 182:	c844                	.insn	2, 0xc844
 184:	0e44                	.insn	2, 0x0e44
 186:	4400                	.insn	2, 0x4400
 188:	c10a440b          	.insn	4, 0xc10a440b
 18c:	c844                	.insn	2, 0xc844
 18e:	0e4c                	.insn	2, 0x0e4c
 190:	4400                	.insn	2, 0x4400
 192:	44c1440b          	.insn	4, 0x44c1440b
 196:	4cc8                	.insn	2, 0x4cc8
 198:	000e                	.insn	2, 0x000e
 19a:	0000                	.insn	2, 0x0000
 19c:	000c                	.insn	2, 0x000c
 19e:	0000                	.insn	2, 0x0000
 1a0:	ffff                	.insn	2, 0xffff
 1a2:	ffff                	.insn	2, 0xffff
 1a4:	7c010003          	lb	zero,1984(sp)
 1a8:	0c01                	.insn	2, 0x0c01
 1aa:	0002                	.insn	2, 0x0002
 1ac:	000c                	.insn	2, 0x000c
 1ae:	0000                	.insn	2, 0x0000
 1b0:	019c                	.insn	2, 0x019c
 1b2:	0000                	.insn	2, 0x0000
 1b4:	0af4                	.insn	2, 0x0af4
 1b6:	8000                	.insn	2, 0x8000
 1b8:	0014                	.insn	2, 0x0014
 1ba:	0000                	.insn	2, 0x0000
 1bc:	000c                	.insn	2, 0x000c
 1be:	0000                	.insn	2, 0x0000
 1c0:	019c                	.insn	2, 0x019c
 1c2:	0000                	.insn	2, 0x0000
 1c4:	0b08                	.insn	2, 0x0b08
 1c6:	8000                	.insn	2, 0x8000
 1c8:	0054                	.insn	2, 0x0054
 1ca:	0000                	.insn	2, 0x0000
 1cc:	000c                	.insn	2, 0x000c
 1ce:	0000                	.insn	2, 0x0000
 1d0:	019c                	.insn	2, 0x019c
 1d2:	0000                	.insn	2, 0x0000
 1d4:	0b5c                	.insn	2, 0x0b5c
 1d6:	8000                	.insn	2, 0x8000
 1d8:	00e8                	.insn	2, 0x00e8
 1da:	0000                	.insn	2, 0x0000
 1dc:	000c                	.insn	2, 0x000c
 1de:	0000                	.insn	2, 0x0000
 1e0:	ffff                	.insn	2, 0xffff
 1e2:	ffff                	.insn	2, 0xffff
 1e4:	7c010003          	lb	zero,1984(sp)
 1e8:	0c01                	.insn	2, 0x0c01
 1ea:	0002                	.insn	2, 0x0002
 1ec:	000c                	.insn	2, 0x000c
 1ee:	0000                	.insn	2, 0x0000
 1f0:	01dc                	.insn	2, 0x01dc
 1f2:	0000                	.insn	2, 0x0000
 1f4:	0c44                	.insn	2, 0x0c44
 1f6:	8000                	.insn	2, 0x8000
 1f8:	0030                	.insn	2, 0x0030
 1fa:	0000                	.insn	2, 0x0000
 1fc:	0028                	.insn	2, 0x0028
 1fe:	0000                	.insn	2, 0x0000
 200:	01dc                	.insn	2, 0x01dc
 202:	0000                	.insn	2, 0x0000
 204:	0c74                	.insn	2, 0x0c74
 206:	8000                	.insn	2, 0x8000
 208:	0078                	.insn	2, 0x0078
 20a:	0000                	.insn	2, 0x0000
 20c:	0e44                	.insn	2, 0x0e44
 20e:	4810                	.insn	2, 0x4810
 210:	0288                	.insn	2, 0x0288
 212:	0181                	.insn	2, 0x0181
 214:	8954                	.insn	2, 0x8954
 216:	02049203          	lh	tp,32(s1)
 21a:	c944                	.insn	2, 0xc944
 21c:	d244                	.insn	2, 0xd244
 21e:	c144                	.insn	2, 0xc144
 220:	c844                	.insn	2, 0xc844
 222:	0e44                	.insn	2, 0x0e44
 224:	0000                	.insn	2, 0x0000
 226:	0000                	.insn	2, 0x0000
 228:	006c                	.insn	2, 0x006c
 22a:	0000                	.insn	2, 0x0000
 22c:	01dc                	.insn	2, 0x01dc
 22e:	0000                	.insn	2, 0x0000
 230:	0cec                	.insn	2, 0x0cec
 232:	8000                	.insn	2, 0x8000
 234:	05f4                	.insn	2, 0x05f4
 236:	0000                	.insn	2, 0x0000
 238:	0e44                	.insn	2, 0x0e44
 23a:	0190                	.insn	2, 0x0190
 23c:	8968                	.insn	2, 0x8968
 23e:	8110960b          	.insn	4, 0x8110960b
 242:	5809                	.insn	2, 0x5809
 244:	0e94                	.insn	2, 0x0e94
 246:	886c                	.insn	2, 0x886c
 248:	920a                	.insn	2, 0x920a
 24a:	950c                	.insn	2, 0x950c
 24c:	93159b0f          	.insn	4, 0x93159b0f
 250:	970d                	.insn	2, 0x970d
 252:	9811                	.insn	2, 0x9811
 254:	9912                	.insn	2, 0x9912
 256:	02149a13          	slli	s4,s1,0x21
 25a:	c844                	.insn	2, 0xc844
 25c:	d244                	.insn	2, 0xd244
 25e:	d344                	.insn	2, 0xd344
 260:	d444                	.insn	2, 0xd444
 262:	d544                	.insn	2, 0xd544
 264:	d744                	.insn	2, 0xd744
 266:	d844                	.insn	2, 0xd844
 268:	d944                	.insn	2, 0xd944
 26a:	da44                	.insn	2, 0xda44
 26c:	db44                	.insn	2, 0xdb44
 26e:	c144                	.insn	2, 0xc144
 270:	c944                	.insn	2, 0xc944
 272:	d644                	.insn	2, 0xd644
 274:	0e44                	.insn	2, 0x0e44
 276:	4400                	.insn	2, 0x4400
 278:	900e                	.insn	2, 0x900e
 27a:	8101                	.insn	2, 0x8101
 27c:	8809                	.insn	2, 0x8809
 27e:	890a                	.insn	2, 0x890a
 280:	930c920b          	.insn	4, 0x930c920b
 284:	940d                	.insn	2, 0x940d
 286:	950e                	.insn	2, 0x950e
 288:	9710960f          	.insn	4, 0x9710960f
 28c:	9811                	.insn	2, 0x9811
 28e:	9912                	.insn	2, 0x9912
 290:	9b149a13          	.insn	4, 0x9b149a13
 294:	0015                	.insn	2, 0x0015
	...
