
coremark:     file format elf32-littleriscv


Disassembly of section .init:

80000000 <_start>:
    .type _start,@function


_start:

  la gp, __global_pointer
80000000:	00004197          	auipc	gp,0x4
80000004:	17818193          	addi	gp,gp,376 # 80004178 <__global_pointer>
  la sp, _sp
80000008:	08000117          	auipc	sp,0x8000
8000000c:	ff810113          	addi	sp,sp,-8 # 88000000 <_sp>

  call main
80000010:	00c000ef          	jal	8000001c <main>
  ebreak
80000014:	00100073          	ebreak

80000018 <loop>:

loop:
    j loop
80000018:	0000006f          	j	80000018 <loop>

Disassembly of section .text:

8000001c <main>:
main(void) {
  int argc = 0;
  char *argv[1];
#else
MAIN_RETURN_TYPE
main(int argc, char *argv[]) {
8000001c:	81010113          	addi	sp,sp,-2032
80000020:	7e112623          	sw	ra,2028(sp)
80000024:	7e812423          	sw	s0,2024(sp)
80000028:	7e912223          	sw	s1,2020(sp)
8000002c:	7f212023          	sw	s2,2016(sp)
80000030:	7d312e23          	sw	s3,2012(sp)
80000034:	7d412c23          	sw	s4,2008(sp)
80000038:	7d512a23          	sw	s5,2004(sp)
8000003c:	7d612823          	sw	s6,2000(sp)
80000040:	7d712623          	sw	s7,1996(sp)
80000044:	7d812423          	sw	s8,1992(sp)
80000048:	7d912223          	sw	s9,1988(sp)
8000004c:	7da12023          	sw	s10,1984(sp)
80000050:	f9010113          	addi	sp,sp,-112
80000054:	00058493          	mv	s1,a1
80000058:	00a12623          	sw	a0,12(sp)
  uart_init();
8000005c:	13d020ef          	jal	80002998 <uart_init>
  core_results results[MULTITHREAD];
#if (MEM_METHOD == MEM_STACK)
  ee_u8 stack_memblock[TOTAL_DATA_SIZE * MULTITHREAD];
#endif
  /* first call any initializations needed */
  portable_init(&(results[0].port), &argc, argv);
80000060:	00048613          	mv	a2,s1
80000064:	00c10593          	addi	a1,sp,12
80000068:	05e10513          	addi	a0,sp,94
8000006c:	018010ef          	jal	80001084 <portable_init>
  /* First some checks to make sure benchmark will run ok */
  if (sizeof(struct list_head_s) > 128) {
    ee_printf("list_head structure too big for comparable data!\n");
    return MAIN_RETURN_VAL;
  }
  results[0].seed1 = get_seed(1);
80000070:	00100513          	li	a0,1
80000074:	6b4010ef          	jal	80001728 <get_seed_32>
80000078:	00a11e23          	sh	a0,28(sp)
  results[0].seed2 = get_seed(2);
8000007c:	00200513          	li	a0,2
80000080:	6a8010ef          	jal	80001728 <get_seed_32>
80000084:	00a11f23          	sh	a0,30(sp)
  results[0].seed3 = get_seed(3);
80000088:	00300513          	li	a0,3
8000008c:	69c010ef          	jal	80001728 <get_seed_32>
80000090:	02a11023          	sh	a0,32(sp)
  results[0].iterations = get_seed_32(4);
80000094:	00400513          	li	a0,4
80000098:	690010ef          	jal	80001728 <get_seed_32>
8000009c:	02a12c23          	sw	a0,56(sp)
#if CORE_DEBUG
  results[0].iterations = 1;
#endif
  results[0].execs = get_seed_32(5);
800000a0:	00500513          	li	a0,5
main(int argc, char *argv[]) {
800000a4:	83010413          	addi	s0,sp,-2000
  results[0].execs = get_seed_32(5);
800000a8:	680010ef          	jal	80001728 <get_seed_32>
  if (results[0].execs == 0) { /* if not supplied, execute all algorithms */
800000ac:	00051463          	bnez	a0,800000b4 <main+0x98>
    results[0].execs = ALL_ALGORITHMS_MASK;
800000b0:	00700513          	li	a0,7
800000b4:	02a12e23          	sw	a0,60(sp)
  }
  /* put in some default values based on one seed only for easy testing */
  if ((results[0].seed1 == 0) && (results[0].seed2 == 0) &&
800000b8:	7ec42783          	lw	a5,2028(s0)
800000bc:	32078463          	beqz	a5,800003e4 <main+0x3c8>
      (results[0].seed3 == 0)) { /* performance run */
    results[0].seed1 = 0;
    results[0].seed2 = 0;
    results[0].seed3 = 0x66;
  }
  if ((results[0].seed1 == 1) && (results[0].seed2 == 0) &&
800000c0:	00100713          	li	a4,1
800000c4:	66e78463          	beq	a5,a4,8000072c <main+0x710>
#error "Please define a way to initialize a memory block."
#endif
  /* Data init */
  /* Find out how space much we have based on number of algorithms */
  for (i = 0; i < NUM_ALGORITHMS; i++) {
    if ((1 << (ee_u32)i) & results[0].execs)
800000c8:	00257793          	andi	a5,a0,2
      num_algorithms++;
800000cc:	00f037b3          	snez	a5,a5
  results[i].memblock[0] = stack_memblock + i * TOTAL_DATA_SIZE;
800000d0:	06010313          	addi	t1,sp,96
    if ((1 << (ee_u32)i) & results[0].execs)
800000d4:	00157713          	andi	a4,a0,1
      num_algorithms++;
800000d8:	00f70733          	add	a4,a4,a5
  results[i].err = 0;
800000dc:	04011e23          	sh	zero,92(sp)
  results[i].memblock[0] = stack_memblock + i * TOTAL_DATA_SIZE;
800000e0:	7e642a23          	sw	t1,2036(s0)
    if ((1 << (ee_u32)i) & results[0].execs)
800000e4:	00457793          	andi	a5,a0,4
800000e8:	00078863          	beqz	a5,800000f8 <main+0xdc>
      num_algorithms++;
800000ec:	00170713          	addi	a4,a4,1
800000f0:	01071713          	slli	a4,a4,0x10
800000f4:	01075713          	srli	a4,a4,0x10
  }
  for (i = 0; i < MULTITHREAD; i++)
    results[i].size = results[i].size / num_algorithms;
800000f8:	7d000593          	li	a1,2000
800000fc:	02e5d5b3          	divu	a1,a1,a4
80000100:	01c10493          	addi	s1,sp,28
80000104:	00048693          	mv	a3,s1
80000108:	00000793          	li	a5,0
  ee_u16 i, j = 0, num_algorithms = 0;
8000010c:	00000613          	li	a2,0
  /* Assign pointers */
  for (i = 0; i < NUM_ALGORITHMS; i++) {
    ee_u32 ctx;
    if ((1 << (ee_u32)i) & results[0].execs) {
80000110:	00100893          	li	a7,1
  for (i = 0; i < NUM_ALGORITHMS; i++) {
80000114:	00300813          	li	a6,3
    results[i].size = results[i].size / num_algorithms;
80000118:	02b12a23          	sw	a1,52(sp)
    if ((1 << (ee_u32)i) & results[0].execs) {
8000011c:	00f89733          	sll	a4,a7,a5
80000120:	00a77733          	and	a4,a4,a0
  for (i = 0; i < NUM_ALGORITHMS; i++) {
80000124:	00178793          	addi	a5,a5,1
    if ((1 << (ee_u32)i) & results[0].execs) {
80000128:	14071c63          	bnez	a4,80000280 <main+0x264>
  for (i = 0; i < NUM_ALGORITHMS; i++) {
8000012c:	00468693          	addi	a3,a3,4
80000130:	ff0796e3          	bne	a5,a6,8000011c <main+0x100>
      j++;
    }
  }
  /* call inits */
  for (i = 0; i < MULTITHREAD; i++) {
    if (results[i].execs & ID_LIST) {
80000134:	03c12783          	lw	a5,60(sp)
80000138:	0017f713          	andi	a4,a5,1
8000013c:	00070e63          	beqz	a4,80000158 <main+0x13c>
      results[i].list = core_list_init(results[0].size, results[i].memblock[1],
80000140:	7ec41603          	lh	a2,2028(s0)
80000144:	7f842583          	lw	a1,2040(s0)
80000148:	03412503          	lw	a0,52(sp)
8000014c:	5c1000ef          	jal	80000f0c <core_list_init>
                                       results[i].seed1);
    }
    if (results[i].execs & ID_MATRIX) {
80000150:	03c12783          	lw	a5,60(sp)
      results[i].list = core_list_init(results[0].size, results[i].memblock[1],
80000154:	04a12023          	sw	a0,64(sp)
    if (results[i].execs & ID_MATRIX) {
80000158:	0027f713          	andi	a4,a5,2
8000015c:	0e071e63          	bnez	a4,80000258 <main+0x23c>
      core_init_matrix(results[0].size, results[i].memblock[2],
                       (ee_s32)results[i].seed1 |
                           (((ee_s32)results[i].seed2) << 16),
                       &(results[i].mat));
    }
    if (results[i].execs & ID_STATE) {
80000160:	0047f793          	andi	a5,a5,4
80000164:	00078a63          	beqz	a5,80000178 <main+0x15c>
      core_init_state(results[0].size, results[i].seed1,
80000168:	03012603          	lw	a2,48(sp)
8000016c:	7ec41583          	lh	a1,2028(s0)
80000170:	03412503          	lw	a0,52(sp)
80000174:	7ad000ef          	jal	80001120 <core_init_state>
                      results[i].memblock[3]);
    }
  }

  /* automatically determine number of iterations if not set */
  if (results[0].iterations == 0) {
80000178:	03812783          	lw	a5,56(sp)
8000017c:	04079a63          	bnez	a5,800001d0 <main+0x1b4>
    secs_ret secs_passed = 0;
    ee_u32 divisor;
    results[0].iterations = 1;
80000180:	00100793          	li	a5,1
80000184:	02f12c23          	sw	a5,56(sp)
    while (secs_passed < (secs_ret)1) {
      results[0].iterations *= 10;
80000188:	03812703          	lw	a4,56(sp)
8000018c:	00271793          	slli	a5,a4,0x2
80000190:	00e787b3          	add	a5,a5,a4
80000194:	00179793          	slli	a5,a5,0x1
80000198:	02f12c23          	sw	a5,56(sp)
      start_time();
8000019c:	6d1000ef          	jal	8000106c <start_time>
      iterate(&results[0]);
800001a0:	00048513          	mv	a0,s1
800001a4:	6f5000ef          	jal	80001098 <iterate>
      stop_time();
800001a8:	6c9000ef          	jal	80001070 <stop_time>
      secs_passed = time_in_secs(get_time());
800001ac:	6c9000ef          	jal	80001074 <get_time>
800001b0:	6cd000ef          	jal	8000107c <time_in_secs>
    while (secs_passed < (secs_ret)1) {
800001b4:	fc050ae3          	beqz	a0,80000188 <main+0x16c>
    divisor = (ee_u32)secs_passed;
    if (divisor == 0) /* some machines cast float to int as 0 since this
                         conversion is not defined by ANSI, but we know at
                         least one second passed */
      divisor = 1;
    results[0].iterations *= 1 + 10 / divisor;
800001b8:	00a00793          	li	a5,10
800001bc:	02a7d7b3          	divu	a5,a5,a0
800001c0:	03812703          	lw	a4,56(sp)
800001c4:	00178793          	addi	a5,a5,1
800001c8:	02e787b3          	mul	a5,a5,a4
800001cc:	02f12c23          	sw	a5,56(sp)
  }
  /* perform actual benchmark */
  start_time();
800001d0:	69d000ef          	jal	8000106c <start_time>
  for (i = 0; i < default_num_contexts; i++) {
    core_stop_parallel(&results[i]);
  }

#else
  iterate(&results[0]);
800001d4:	00048513          	mv	a0,s1
800001d8:	6c1000ef          	jal	80001098 <iterate>
#endif

  stop_time();
800001dc:	695000ef          	jal	80001070 <stop_time>
  total_time = get_time();
800001e0:	695000ef          	jal	80001074 <get_time>
800001e4:	00050a13          	mv	s4,a0
  /* get a function of the input to report */
  seedcrc = crc16(results[0].seed1, seedcrc);
800001e8:	7ec41503          	lh	a0,2028(s0)
800001ec:	00000593          	li	a1,0
800001f0:	515010ef          	jal	80001f04 <crc16>
800001f4:	00050593          	mv	a1,a0
  seedcrc = crc16(results[0].seed2, seedcrc);
800001f8:	7ee41503          	lh	a0,2030(s0)
800001fc:	509010ef          	jal	80001f04 <crc16>
80000200:	00050593          	mv	a1,a0
  seedcrc = crc16(results[0].seed3, seedcrc);
80000204:	7f041503          	lh	a0,2032(s0)
80000208:	4fd010ef          	jal	80001f04 <crc16>
8000020c:	00050593          	mv	a1,a0
  seedcrc = crc16(results[0].size, seedcrc);
80000210:	03411503          	lh	a0,52(sp)
80000214:	4f1010ef          	jal	80001f04 <crc16>

  switch (seedcrc) { /* test known output for common seeds */
80000218:	000087b7          	lui	a5,0x8
8000021c:	b0578793          	addi	a5,a5,-1275 # 7b05 <__stack_size-0x1ff84fb>
  seedcrc = crc16(results[0].size, seedcrc);
80000220:	00050993          	mv	s3,a0
  switch (seedcrc) { /* test known output for common seeds */
80000224:	4ef50063          	beq	a0,a5,80000704 <main+0x6e8>
80000228:	06a7fa63          	bgeu	a5,a0,8000029c <main+0x280>
8000022c:	000097b7          	lui	a5,0x9
80000230:	a0278793          	addi	a5,a5,-1534 # 8a02 <__stack_size-0x1ff75fe>
80000234:	4af50e63          	beq	a0,a5,800006f0 <main+0x6d4>
80000238:	0000f7b7          	lui	a5,0xf
8000023c:	9f578793          	addi	a5,a5,-1547 # e9f5 <__stack_size-0x1ff160b>
80000240:	1af51c63          	bne	a0,a5,800003f8 <main+0x3dc>
    known_id = 2;
    ee_printf("Profile generation run parameters for coremark.\n");
    break;
  case 0xe9f5: /* seed1=0, seed2=0, seed3=0x66, size 666 per algorithm */
    known_id = 3;
    ee_printf("2K performance run parameters for coremark.\n");
80000244:	80003537          	lui	a0,0x80003
80000248:	28850513          	addi	a0,a0,648 # 80003288 <memset+0x16c>
8000024c:	0dd020ef          	jal	80002b28 <xprintf>
    known_id = 3;
80000250:	00300793          	li	a5,3
    break;
80000254:	0700006f          	j	800002c4 <main+0x2a8>
                           (((ee_s32)results[i].seed2) << 16),
80000258:	7ee41783          	lh	a5,2030(s0)
                       (ee_s32)results[i].seed1 |
8000025c:	7ec41603          	lh	a2,2028(s0)
      core_init_matrix(results[0].size, results[i].memblock[2],
80000260:	7fc42583          	lw	a1,2044(s0)
80000264:	03412503          	lw	a0,52(sp)
                           (((ee_s32)results[i].seed2) << 16),
80000268:	01079793          	slli	a5,a5,0x10
      core_init_matrix(results[0].size, results[i].memblock[2],
8000026c:	00c7e633          	or	a2,a5,a2
80000270:	04410693          	addi	a3,sp,68
80000274:	6c5010ef          	jal	80002138 <core_init_matrix>
    if (results[i].execs & ID_STATE) {
80000278:	03c12783          	lw	a5,60(sp)
8000027c:	ee5ff06f          	j	80000160 <main+0x144>
            (char *)(results[ctx].memblock[0]) + results[0].size * j;
80000280:	02b60733          	mul	a4,a2,a1
      j++;
80000284:	00160613          	addi	a2,a2,1
80000288:	01061613          	slli	a2,a2,0x10
8000028c:	01065613          	srli	a2,a2,0x10
            (char *)(results[ctx].memblock[0]) + results[0].size * j;
80000290:	00e30733          	add	a4,t1,a4
        results[ctx].memblock[i + 1] =
80000294:	00e6a623          	sw	a4,12(a3)
      j++;
80000298:	e95ff06f          	j	8000012c <main+0x110>
  switch (seedcrc) { /* test known output for common seeds */
8000029c:	000027b7          	lui	a5,0x2
800002a0:	8f278793          	addi	a5,a5,-1806 # 18f2 <__stack_size-0x1ffe70e>
800002a4:	46f50a63          	beq	a0,a5,80000718 <main+0x6fc>
800002a8:	000057b7          	lui	a5,0x5
800002ac:	eaf78793          	addi	a5,a5,-337 # 4eaf <__stack_size-0x1ffb151>
800002b0:	14f51463          	bne	a0,a5,800003f8 <main+0x3dc>
    ee_printf("Profile generation run parameters for coremark.\n");
800002b4:	80003537          	lui	a0,0x80003
800002b8:	25450513          	addi	a0,a0,596 # 80003254 <memset+0x138>
800002bc:	06d020ef          	jal	80002b28 <xprintf>
    known_id = 2;
800002c0:	00200793          	li	a5,2
  default:
    total_errors = -1;
    break;
  }
  if (known_id >= 0) {
    for (i = 0; i < default_num_contexts; i++) {
800002c4:	80004b37          	lui	s6,0x80004
800002c8:	978b2703          	lw	a4,-1672(s6) # 80003978 <default_num_contexts>
800002cc:	48070063          	beqz	a4,8000074c <main+0x730>
      results[i].err = 0;
      if ((results[i].execs & ID_LIST) &&
          (results[i].crclist != list_known_crc[known_id])) {
800002d0:	80003cb7          	lui	s9,0x80003
800002d4:	00179793          	slli	a5,a5,0x1
800002d8:	680c8c93          	addi	s9,s9,1664 # 80003680 <list_known_crc>
800002dc:	00fc8cb3          	add	s9,s9,a5
        ee_printf("[%u]ERROR! list crc 0x%04x - should be 0x%04x\n", i,
800002e0:	800037b7          	lui	a5,0x80003
800002e4:	2e478d13          	addi	s10,a5,740 # 800032e4 <memset+0x1c8>
    for (i = 0; i < default_num_contexts; i++) {
800002e8:	00000c13          	li	s8,0
800002ec:	00000a93          	li	s5,0
      results[i].err = 0;
800002f0:	00001bb7          	lui	s7,0x1
800002f4:	0340006f          	j	80000328 <main+0x30c>
          (results[i].crcstate != state_known_crc[known_id])) {
        ee_printf("[%u]ERROR! state crc 0x%04x - should be 0x%04x\n", i,
                  results[i].crcstate, state_known_crc[known_id]);
        results[i].err++;
      }
      total_errors += results[i].err;
800002f8:	015487b3          	add	a5,s1,s5
800002fc:	00279793          	slli	a5,a5,0x2
80000300:	00f407b3          	add	a5,s0,a5
80000304:	00fb87b3          	add	a5,s7,a5
80000308:	82c7d783          	lhu	a5,-2004(a5)
8000030c:	01878933          	add	s2,a5,s8
    for (i = 0; i < default_num_contexts; i++) {
80000310:	001a8a93          	addi	s5,s5,1
80000314:	978b2783          	lw	a5,-1672(s6)
80000318:	010a9a93          	slli	s5,s5,0x10
8000031c:	010ada93          	srli	s5,s5,0x10
      total_errors += results[i].err;
80000320:	00090c13          	mv	s8,s2
    for (i = 0; i < default_num_contexts; i++) {
80000324:	0efaf063          	bgeu	s5,a5,80000404 <main+0x3e8>
      results[i].err = 0;
80000328:	004a9493          	slli	s1,s5,0x4
8000032c:	01548933          	add	s2,s1,s5
80000330:	00291913          	slli	s2,s2,0x2
80000334:	01240933          	add	s2,s0,s2
80000338:	012b8933          	add	s2,s7,s2
      if ((results[i].execs & ID_LIST) &&
8000033c:	80c92783          	lw	a5,-2036(s2)
      results[i].err = 0;
80000340:	82091623          	sh	zero,-2004(s2)
      if ((results[i].execs & ID_LIST) &&
80000344:	0017f713          	andi	a4,a5,1
80000348:	02070663          	beqz	a4,80000374 <main+0x358>
          (results[i].crclist != list_known_crc[known_id])) {
8000034c:	82695603          	lhu	a2,-2010(s2)
80000350:	000cd683          	lhu	a3,0(s9)
      if ((results[i].execs & ID_LIST) &&
80000354:	02d60063          	beq	a2,a3,80000374 <main+0x358>
        ee_printf("[%u]ERROR! list crc 0x%04x - should be 0x%04x\n", i,
80000358:	000a8593          	mv	a1,s5
8000035c:	000d0513          	mv	a0,s10
80000360:	7c8020ef          	jal	80002b28 <xprintf>
        results[i].err++;
80000364:	82c95703          	lhu	a4,-2004(s2)
      if ((results[i].execs & ID_MATRIX) &&
80000368:	80c92783          	lw	a5,-2036(s2)
        results[i].err++;
8000036c:	00170713          	addi	a4,a4,1
80000370:	82e91623          	sh	a4,-2004(s2)
      if ((results[i].execs & ID_MATRIX) &&
80000374:	0027f713          	andi	a4,a5,2
80000378:	04070063          	beqz	a4,800003b8 <main+0x39c>
          (results[i].crcmatrix != matrix_known_crc[known_id])) {
8000037c:	01548933          	add	s2,s1,s5
80000380:	00291913          	slli	s2,s2,0x2
80000384:	01240933          	add	s2,s0,s2
80000388:	012b8933          	add	s2,s7,s2
8000038c:	82895603          	lhu	a2,-2008(s2)
80000390:	00ccd683          	lhu	a3,12(s9)
      if ((results[i].execs & ID_MATRIX) &&
80000394:	02d60263          	beq	a2,a3,800003b8 <main+0x39c>
        ee_printf("[%u]ERROR! matrix crc 0x%04x - should be 0x%04x\n", i,
80000398:	80003537          	lui	a0,0x80003
8000039c:	31450513          	addi	a0,a0,788 # 80003314 <memset+0x1f8>
800003a0:	000a8593          	mv	a1,s5
800003a4:	784020ef          	jal	80002b28 <xprintf>
        results[i].err++;
800003a8:	82c95703          	lhu	a4,-2004(s2)
      if ((results[i].execs & ID_STATE) &&
800003ac:	80c92783          	lw	a5,-2036(s2)
        results[i].err++;
800003b0:	00170713          	addi	a4,a4,1
800003b4:	82e91623          	sh	a4,-2004(s2)
      if ((results[i].execs & ID_STATE) &&
800003b8:	0047f793          	andi	a5,a5,4
800003bc:	f2078ee3          	beqz	a5,800002f8 <main+0x2dc>
          (results[i].crcstate != state_known_crc[known_id])) {
800003c0:	015484b3          	add	s1,s1,s5
800003c4:	00249493          	slli	s1,s1,0x2
800003c8:	009404b3          	add	s1,s0,s1
800003cc:	009b84b3          	add	s1,s7,s1
800003d0:	82a4d603          	lhu	a2,-2006(s1)
800003d4:	018cd683          	lhu	a3,24(s9)
      if ((results[i].execs & ID_STATE) &&
800003d8:	2ad61263          	bne	a2,a3,8000067c <main+0x660>
      total_errors += results[i].err;
800003dc:	82c4d783          	lhu	a5,-2004(s1)
800003e0:	f2dff06f          	j	8000030c <main+0x2f0>
  if ((results[0].seed1 == 0) && (results[0].seed2 == 0) &&
800003e4:	7f041783          	lh	a5,2032(s0)
800003e8:	ce0790e3          	bnez	a5,800000c8 <main+0xac>
    results[0].seed3 = 0x66;
800003ec:	06600793          	li	a5,102
800003f0:	7ef41823          	sh	a5,2032(s0)
  if ((results[0].seed1 == 1) && (results[0].seed2 == 0) &&
800003f4:	cd5ff06f          	j	800000c8 <main+0xac>
  switch (seedcrc) { /* test known output for common seeds */
800003f8:	000107b7          	lui	a5,0x10
800003fc:	fff78913          	addi	s2,a5,-1 # ffff <__stack_size-0x1ff0001>
80000400:	80004b37          	lui	s6,0x80004
    }
  }
  total_errors += check_data_types();
80000404:	52d010ef          	jal	80002130 <check_data_types>
  /* and report results */
  ee_printf("CoreMark Size    : %lu\n", (long unsigned)results[0].size);
80000408:	03412583          	lw	a1,52(sp)
  total_errors += check_data_types();
8000040c:	01250933          	add	s2,a0,s2
  ee_printf("CoreMark Size    : %lu\n", (long unsigned)results[0].size);
80000410:	80003537          	lui	a0,0x80003
80000414:	37850513          	addi	a0,a0,888 # 80003378 <memset+0x25c>
80000418:	710020ef          	jal	80002b28 <xprintf>
  ee_printf("Total ticks      : %lu\n", (long unsigned)total_time);
8000041c:	80003537          	lui	a0,0x80003
80000420:	000a0593          	mv	a1,s4
80000424:	39050513          	addi	a0,a0,912 # 80003390 <memset+0x274>
80000428:	700020ef          	jal	80002b28 <xprintf>
  if (time_in_secs(total_time) > 0)
    ee_printf("Iterations/Sec   : %f\n", default_num_contexts *
                                             results[0].iterations /
                                             time_in_secs(total_time));
#else
  ee_printf("Total time (secs): %d\n", time_in_secs(total_time));
8000042c:	000a0513          	mv	a0,s4
80000430:	44d000ef          	jal	8000107c <time_in_secs>
80000434:	00050593          	mv	a1,a0
80000438:	80003537          	lui	a0,0x80003
8000043c:	3a850513          	addi	a0,a0,936 # 800033a8 <memset+0x28c>
80000440:	6e8020ef          	jal	80002b28 <xprintf>
  total_errors += check_data_types();
80000444:	01091913          	slli	s2,s2,0x10
  if (time_in_secs(total_time) > 0)
80000448:	000a0513          	mv	a0,s4
  total_errors += check_data_types();
8000044c:	41095913          	srai	s2,s2,0x10
  if (time_in_secs(total_time) > 0)
80000450:	42d000ef          	jal	8000107c <time_in_secs>
80000454:	24051863          	bnez	a0,800006a4 <main+0x688>
  // if (time_in_secs(total_time) < 10) {
  //   ee_printf("ERROR! Must execute for at least 10 secs for a valid
  //   result!\n"); total_errors++;
  // }

  ee_printf("Iterations       : %lu\n",
80000458:	978b2783          	lw	a5,-1672(s6) # 80003978 <default_num_contexts>
8000045c:	03812583          	lw	a1,56(sp)
80000460:	80003537          	lui	a0,0x80003
80000464:	3d850513          	addi	a0,a0,984 # 800033d8 <memset+0x2bc>
80000468:	02f585b3          	mul	a1,a1,a5
8000046c:	6bc020ef          	jal	80002b28 <xprintf>
            (long unsigned)default_num_contexts * results[0].iterations);
  ee_printf("Compiler version : %s\n", COMPILER_VERSION);
80000470:	800035b7          	lui	a1,0x80003
80000474:	80003537          	lui	a0,0x80003
80000478:	3f058593          	addi	a1,a1,1008 # 800033f0 <memset+0x2d4>
8000047c:	3fc50513          	addi	a0,a0,1020 # 800033fc <memset+0x2e0>
80000480:	6a8020ef          	jal	80002b28 <xprintf>
  ee_printf("Compiler flags   : %s\n", COMPILER_FLAGS);
80000484:	800035b7          	lui	a1,0x80003
80000488:	80003537          	lui	a0,0x80003
8000048c:	41458593          	addi	a1,a1,1044 # 80003414 <memset+0x2f8>
80000490:	43050513          	addi	a0,a0,1072 # 80003430 <memset+0x314>
80000494:	694020ef          	jal	80002b28 <xprintf>
#if (MULTITHREAD > 1)
  ee_printf("Parallel %s : %d\n", PARALLEL_METHOD, default_num_contexts);
#endif
  ee_printf("Memory location  : %s\n", MEM_LOCATION);
80000498:	800035b7          	lui	a1,0x80003
8000049c:	80003537          	lui	a0,0x80003
800004a0:	44858593          	addi	a1,a1,1096 # 80003448 <memset+0x32c>
800004a4:	45050513          	addi	a0,a0,1104 # 80003450 <memset+0x334>
800004a8:	680020ef          	jal	80002b28 <xprintf>
  /* output for verification */
  ee_printf("seedcrc          : 0x%04x\n", seedcrc);
800004ac:	80003537          	lui	a0,0x80003
800004b0:	00098593          	mv	a1,s3
800004b4:	46850513          	addi	a0,a0,1128 # 80003468 <memset+0x34c>
800004b8:	670020ef          	jal	80002b28 <xprintf>
  if (results[0].execs & ID_LIST)
800004bc:	03c12783          	lw	a5,60(sp)
800004c0:	0017f713          	andi	a4,a5,1
800004c4:	04070c63          	beqz	a4,8000051c <main+0x500>
    for (i = 0; i < default_num_contexts; i++)
800004c8:	978b2703          	lw	a4,-1672(s6)
800004cc:	04070863          	beqz	a4,8000051c <main+0x500>
800004d0:	800039b7          	lui	s3,0x80003
      ee_printf("[%d]crclist       : 0x%04x\n", i, results[i].crclist);
800004d4:	48498993          	addi	s3,s3,1156 # 80003484 <memset+0x368>
    for (i = 0; i < default_num_contexts; i++)
800004d8:	00000493          	li	s1,0
      ee_printf("[%d]crclist       : 0x%04x\n", i, results[i].crclist);
800004dc:	00001a37          	lui	s4,0x1
800004e0:	00449793          	slli	a5,s1,0x4
800004e4:	009787b3          	add	a5,a5,s1
800004e8:	00279793          	slli	a5,a5,0x2
800004ec:	00f407b3          	add	a5,s0,a5
800004f0:	00fa07b3          	add	a5,s4,a5
800004f4:	8267d603          	lhu	a2,-2010(a5)
800004f8:	00048593          	mv	a1,s1
800004fc:	00098513          	mv	a0,s3
80000500:	628020ef          	jal	80002b28 <xprintf>
    for (i = 0; i < default_num_contexts; i++)
80000504:	00148493          	addi	s1,s1,1
80000508:	978b2783          	lw	a5,-1672(s6)
8000050c:	01049493          	slli	s1,s1,0x10
80000510:	0104d493          	srli	s1,s1,0x10
80000514:	fcf4e6e3          	bltu	s1,a5,800004e0 <main+0x4c4>
80000518:	03c12783          	lw	a5,60(sp)
  if (results[0].execs & ID_MATRIX)
8000051c:	0027f713          	andi	a4,a5,2
80000520:	04070c63          	beqz	a4,80000578 <main+0x55c>
    for (i = 0; i < default_num_contexts; i++)
80000524:	978b2703          	lw	a4,-1672(s6)
80000528:	22070663          	beqz	a4,80000754 <main+0x738>
8000052c:	800039b7          	lui	s3,0x80003
      ee_printf("[%d]crcmatrix     : 0x%04x\n", i, results[i].crcmatrix);
80000530:	4a098993          	addi	s3,s3,1184 # 800034a0 <memset+0x384>
    for (i = 0; i < default_num_contexts; i++)
80000534:	00000493          	li	s1,0
      ee_printf("[%d]crcmatrix     : 0x%04x\n", i, results[i].crcmatrix);
80000538:	00001a37          	lui	s4,0x1
8000053c:	00449793          	slli	a5,s1,0x4
80000540:	009787b3          	add	a5,a5,s1
80000544:	00279793          	slli	a5,a5,0x2
80000548:	00f407b3          	add	a5,s0,a5
8000054c:	00fa07b3          	add	a5,s4,a5
80000550:	8287d603          	lhu	a2,-2008(a5)
80000554:	00048593          	mv	a1,s1
80000558:	00098513          	mv	a0,s3
8000055c:	5cc020ef          	jal	80002b28 <xprintf>
    for (i = 0; i < default_num_contexts; i++)
80000560:	00148493          	addi	s1,s1,1
80000564:	978b2783          	lw	a5,-1672(s6)
80000568:	01049493          	slli	s1,s1,0x10
8000056c:	0104d493          	srli	s1,s1,0x10
80000570:	fcf4e6e3          	bltu	s1,a5,8000053c <main+0x520>
80000574:	03c12783          	lw	a5,60(sp)
  if (results[0].execs & ID_STATE)
80000578:	0047f793          	andi	a5,a5,4
8000057c:	04078a63          	beqz	a5,800005d0 <main+0x5b4>
    for (i = 0; i < default_num_contexts; i++)
80000580:	978b2783          	lw	a5,-1672(s6)
80000584:	08078e63          	beqz	a5,80000620 <main+0x604>
80000588:	800039b7          	lui	s3,0x80003
      ee_printf("[%d]crcstate      : 0x%04x\n", i, results[i].crcstate);
8000058c:	4bc98993          	addi	s3,s3,1212 # 800034bc <memset+0x3a0>
    for (i = 0; i < default_num_contexts; i++)
80000590:	00000493          	li	s1,0
      ee_printf("[%d]crcstate      : 0x%04x\n", i, results[i].crcstate);
80000594:	00001a37          	lui	s4,0x1
80000598:	00449793          	slli	a5,s1,0x4
8000059c:	009787b3          	add	a5,a5,s1
800005a0:	00279793          	slli	a5,a5,0x2
800005a4:	00f407b3          	add	a5,s0,a5
800005a8:	00fa07b3          	add	a5,s4,a5
800005ac:	82a7d603          	lhu	a2,-2006(a5)
800005b0:	00048593          	mv	a1,s1
800005b4:	00098513          	mv	a0,s3
800005b8:	570020ef          	jal	80002b28 <xprintf>
    for (i = 0; i < default_num_contexts; i++)
800005bc:	00148493          	addi	s1,s1,1
800005c0:	978b2783          	lw	a5,-1672(s6)
800005c4:	01049493          	slli	s1,s1,0x10
800005c8:	0104d493          	srli	s1,s1,0x10
800005cc:	fcf4e6e3          	bltu	s1,a5,80000598 <main+0x57c>
  for (i = 0; i < default_num_contexts; i++)
800005d0:	978b2783          	lw	a5,-1672(s6)
800005d4:	800039b7          	lui	s3,0x80003
    ee_printf("[%d]crcfinal      : 0x%04x\n", i, results[i].crc);
800005d8:	4d898993          	addi	s3,s3,1240 # 800034d8 <memset+0x3bc>
  for (i = 0; i < default_num_contexts; i++)
800005dc:	00000493          	li	s1,0
    ee_printf("[%d]crcfinal      : 0x%04x\n", i, results[i].crc);
800005e0:	00001a37          	lui	s4,0x1
  for (i = 0; i < default_num_contexts; i++)
800005e4:	02078e63          	beqz	a5,80000620 <main+0x604>
    ee_printf("[%d]crcfinal      : 0x%04x\n", i, results[i].crc);
800005e8:	00449793          	slli	a5,s1,0x4
800005ec:	009787b3          	add	a5,a5,s1
800005f0:	00279793          	slli	a5,a5,0x2
800005f4:	00f407b3          	add	a5,s0,a5
800005f8:	00fa07b3          	add	a5,s4,a5
800005fc:	8247d603          	lhu	a2,-2012(a5)
80000600:	00048593          	mv	a1,s1
80000604:	00098513          	mv	a0,s3
80000608:	520020ef          	jal	80002b28 <xprintf>
  for (i = 0; i < default_num_contexts; i++)
8000060c:	00148493          	addi	s1,s1,1
80000610:	978b2783          	lw	a5,-1672(s6)
80000614:	01049493          	slli	s1,s1,0x10
80000618:	0104d493          	srli	s1,s1,0x10
8000061c:	fcf4e6e3          	bltu	s1,a5,800005e8 <main+0x5cc>
  if (total_errors == 0) {
80000620:	0a090863          	beqz	s2,800006d0 <main+0x6b4>
#endif
      ee_printf("\n");
    }
#endif
  }
  if (total_errors > 0)
80000624:	0b205e63          	blez	s2,800006e0 <main+0x6c4>
    ee_printf("Errors detected\n");
80000628:	80003537          	lui	a0,0x80003
8000062c:	5a450513          	addi	a0,a0,1444 # 800035a4 <memset+0x488>
80000630:	4f8020ef          	jal	80002b28 <xprintf>
#if (MEM_METHOD == MEM_MALLOC)
  for (i = 0; i < MULTITHREAD; i++)
    portable_free(results[i].memblock[0]);
#endif
  /* And last call any target specific code for finalizing */
  portable_fini(&(results[0].port));
80000634:	05e10513          	addi	a0,sp,94
80000638:	259000ef          	jal	80001090 <portable_fini>

  return MAIN_RETURN_VAL;
}
8000063c:	07010113          	addi	sp,sp,112
80000640:	7ec12083          	lw	ra,2028(sp)
80000644:	7e812403          	lw	s0,2024(sp)
80000648:	7e412483          	lw	s1,2020(sp)
8000064c:	7e012903          	lw	s2,2016(sp)
80000650:	7dc12983          	lw	s3,2012(sp)
80000654:	7d812a03          	lw	s4,2008(sp)
80000658:	7d412a83          	lw	s5,2004(sp)
8000065c:	7d012b03          	lw	s6,2000(sp)
80000660:	7cc12b83          	lw	s7,1996(sp)
80000664:	7c812c03          	lw	s8,1992(sp)
80000668:	7c412c83          	lw	s9,1988(sp)
8000066c:	7c012d03          	lw	s10,1984(sp)
80000670:	00000513          	li	a0,0
80000674:	7f010113          	addi	sp,sp,2032
80000678:	00008067          	ret
        ee_printf("[%u]ERROR! state crc 0x%04x - should be 0x%04x\n", i,
8000067c:	80003537          	lui	a0,0x80003
80000680:	34850513          	addi	a0,a0,840 # 80003348 <memset+0x22c>
80000684:	000a8593          	mv	a1,s5
80000688:	4a0020ef          	jal	80002b28 <xprintf>
        results[i].err++;
8000068c:	82c4d783          	lhu	a5,-2004(s1)
80000690:	00178793          	addi	a5,a5,1
80000694:	01079793          	slli	a5,a5,0x10
80000698:	0107d793          	srli	a5,a5,0x10
8000069c:	82f49623          	sh	a5,-2004(s1)
800006a0:	c6dff06f          	j	8000030c <main+0x2f0>
    ee_printf("Iterations/Sec   : %d\n", default_num_contexts *
800006a4:	03812483          	lw	s1,56(sp)
800006a8:	978b2783          	lw	a5,-1672(s6)
                                             time_in_secs(total_time));
800006ac:	000a0513          	mv	a0,s4
    ee_printf("Iterations/Sec   : %d\n", default_num_contexts *
800006b0:	02f484b3          	mul	s1,s1,a5
                                             time_in_secs(total_time));
800006b4:	1c9000ef          	jal	8000107c <time_in_secs>
800006b8:	00050593          	mv	a1,a0
    ee_printf("Iterations/Sec   : %d\n", default_num_contexts *
800006bc:	80003537          	lui	a0,0x80003
800006c0:	3c050513          	addi	a0,a0,960 # 800033c0 <memset+0x2a4>
800006c4:	02b4d5b3          	divu	a1,s1,a1
800006c8:	460020ef          	jal	80002b28 <xprintf>
800006cc:	d8dff06f          	j	80000458 <main+0x43c>
    ee_printf(
800006d0:	80003537          	lui	a0,0x80003
800006d4:	4f450513          	addi	a0,a0,1268 # 800034f4 <memset+0x3d8>
800006d8:	450020ef          	jal	80002b28 <xprintf>
  if (total_errors < 0)
800006dc:	f59ff06f          	j	80000634 <main+0x618>
    ee_printf("Cannot validate operation for these seed values, please compare "
800006e0:	80003537          	lui	a0,0x80003
800006e4:	54050513          	addi	a0,a0,1344 # 80003540 <memset+0x424>
800006e8:	440020ef          	jal	80002b28 <xprintf>
800006ec:	f49ff06f          	j	80000634 <main+0x618>
    ee_printf("6k performance run parameters for coremark.\n");
800006f0:	80003537          	lui	a0,0x80003
800006f4:	1f850513          	addi	a0,a0,504 # 800031f8 <memset+0xdc>
800006f8:	430020ef          	jal	80002b28 <xprintf>
    known_id = 0;
800006fc:	00000793          	li	a5,0
    break;
80000700:	bc5ff06f          	j	800002c4 <main+0x2a8>
    ee_printf("6k validation run parameters for coremark.\n");
80000704:	80003537          	lui	a0,0x80003
80000708:	22850513          	addi	a0,a0,552 # 80003228 <memset+0x10c>
8000070c:	41c020ef          	jal	80002b28 <xprintf>
    known_id = 1;
80000710:	00100793          	li	a5,1
    break;
80000714:	bb1ff06f          	j	800002c4 <main+0x2a8>
    ee_printf("2K validation run parameters for coremark.\n");
80000718:	80003537          	lui	a0,0x80003
8000071c:	2b850513          	addi	a0,a0,696 # 800032b8 <memset+0x19c>
80000720:	408020ef          	jal	80002b28 <xprintf>
    known_id = 4;
80000724:	00400793          	li	a5,4
    break;
80000728:	b9dff06f          	j	800002c4 <main+0x2a8>
  if ((results[0].seed1 == 1) && (results[0].seed2 == 0) &&
8000072c:	7f041783          	lh	a5,2032(s0)
80000730:	98079ce3          	bnez	a5,800000c8 <main+0xac>
    results[0].seed1 = 0x3415;
80000734:	341537b7          	lui	a5,0x34153
80000738:	41578793          	addi	a5,a5,1045 # 34153415 <__stack_size+0x32153415>
    results[0].seed3 = 0x66;
8000073c:	06600713          	li	a4,102
    results[0].seed1 = 0x3415;
80000740:	7ef42623          	sw	a5,2028(s0)
    results[0].seed3 = 0x66;
80000744:	7ee41823          	sh	a4,2032(s0)
80000748:	981ff06f          	j	800000c8 <main+0xac>
    for (i = 0; i < default_num_contexts; i++) {
8000074c:	00000913          	li	s2,0
80000750:	cb5ff06f          	j	80000404 <main+0x3e8>
  if (results[0].execs & ID_STATE)
80000754:	0047f793          	andi	a5,a5,4
80000758:	e6078ce3          	beqz	a5,800005d0 <main+0x5b4>
8000075c:	ec5ff06f          	j	80000620 <main+0x604>

80000760 <cmp_idx>:
        Can be used by mergesort.
*/
ee_s32
cmp_idx(list_data *a, list_data *b, core_results *res)
{
    if (res == NULL)
80000760:	00060a63          	beqz	a2,80000774 <cmp_idx+0x14>
    {
        a->data16 = (a->data16 & 0xff00) | (0x00ff & (a->data16 >> 8));
        b->data16 = (b->data16 & 0xff00) | (0x00ff & (b->data16 >> 8));
    }
    return a->idx - b->idx;
80000764:	00251503          	lh	a0,2(a0)
80000768:	00259783          	lh	a5,2(a1)
}
8000076c:	40f50533          	sub	a0,a0,a5
80000770:	00008067          	ret
        a->data16 = (a->data16 & 0xff00) | (0x00ff & (a->data16 >> 8));
80000774:	00051783          	lh	a5,0(a0)
80000778:	01079693          	slli	a3,a5,0x10
8000077c:	f007f713          	andi	a4,a5,-256
80000780:	0186d793          	srli	a5,a3,0x18
80000784:	00f767b3          	or	a5,a4,a5
80000788:	00f51023          	sh	a5,0(a0)
        b->data16 = (b->data16 & 0xff00) | (0x00ff & (b->data16 >> 8));
8000078c:	00059783          	lh	a5,0(a1)
    return a->idx - b->idx;
80000790:	00251503          	lh	a0,2(a0)
        b->data16 = (b->data16 & 0xff00) | (0x00ff & (b->data16 >> 8));
80000794:	01079693          	slli	a3,a5,0x10
80000798:	f007f713          	andi	a4,a5,-256
8000079c:	0186d793          	srli	a5,a3,0x18
800007a0:	00f767b3          	or	a5,a4,a5
800007a4:	00f59023          	sh	a5,0(a1)
    return a->idx - b->idx;
800007a8:	00259783          	lh	a5,2(a1)
}
800007ac:	40f50533          	sub	a0,a0,a5
800007b0:	00008067          	ret

800007b4 <calc_func>:
    ee_s16 data = *pdata;
800007b4:	00051803          	lh	a6,0(a0)
          & 1;  /* bit 7 indicates if the function result has been cached */
800007b8:	40785793          	srai	a5,a6,0x7
    if (optype) /* if cached, use cache */
800007bc:	0017f793          	andi	a5,a5,1
800007c0:	00078663          	beqz	a5,800007cc <calc_func+0x18>
        return (data & 0x007f);
800007c4:	07f87513          	andi	a0,a6,127
}
800007c8:	00008067          	ret
               & 0xf);       /* bits 3-6 is specific data for the operation */
800007cc:	40385713          	srai	a4,a6,0x3
        ee_s16 dtype
800007d0:	00f77713          	andi	a4,a4,15
{
800007d4:	fe010113          	addi	sp,sp,-32
800007d8:	00471793          	slli	a5,a4,0x4
800007dc:	00f70633          	add	a2,a4,a5
800007e0:	00812c23          	sw	s0,24(sp)
800007e4:	00112e23          	sw	ra,28(sp)
800007e8:	00912a23          	sw	s1,20(sp)
        ee_s16 flag = data & 0x7; /* bits 0-2 is type of function to perform */
800007ec:	00787693          	andi	a3,a6,7
                retval = core_bench_state(res->size,
800007f0:	0385d783          	lhu	a5,56(a1)
800007f4:	00058893          	mv	a7,a1
800007f8:	00050413          	mv	s0,a0
        dtype |= dtype << 4; /* replicate the lower 4 bits to get an 8b value */
800007fc:	00060713          	mv	a4,a2
        switch (flag)
80000800:	08068e63          	beqz	a3,8000089c <calc_func+0xe8>
80000804:	00100613          	li	a2,1
80000808:	08c69263          	bne	a3,a2,8000088c <calc_func+0xd8>
                retval = core_bench_matrix(&(res->mat), dtype, res->crc);
8000080c:	00078613          	mv	a2,a5
80000810:	02888513          	addi	a0,a7,40
80000814:	00070593          	mv	a1,a4
80000818:	01012623          	sw	a6,12(sp)
8000081c:	01112423          	sw	a7,8(sp)
80000820:	0d4020ef          	jal	800028f4 <core_bench_matrix>
                if (res->crcmatrix == 0)
80000824:	00812883          	lw	a7,8(sp)
                retval = core_bench_matrix(&(res->mat), dtype, res->crc);
80000828:	01051493          	slli	s1,a0,0x10
                if (res->crcmatrix == 0)
8000082c:	00c12803          	lw	a6,12(sp)
80000830:	03c8d783          	lhu	a5,60(a7)
                retval = core_bench_matrix(&(res->mat), dtype, res->crc);
80000834:	4104d493          	srai	s1,s1,0x10
                if (res->crcmatrix == 0)
80000838:	0a079463          	bnez	a5,800008e0 <calc_func+0x12c>
                    res->crcmatrix = retval;
8000083c:	0388d783          	lhu	a5,56(a7)
80000840:	02a89e23          	sh	a0,60(a7)
        res->crc = crcu16(retval, res->crc);
80000844:	00078593          	mv	a1,a5
80000848:	01112623          	sw	a7,12(sp)
8000084c:	01012423          	sw	a6,8(sp)
80000850:	06c010ef          	jal	800018bc <crcu16>
        *pdata = (data & 0xff00) | 0x0080 | retval; /* cache the result */
80000854:	00812803          	lw	a6,8(sp)
        res->crc = crcu16(retval, res->crc);
80000858:	00c12883          	lw	a7,12(sp)
8000085c:	00050793          	mv	a5,a0
        *pdata = (data & 0xff00) | 0x0080 | retval; /* cache the result */
80000860:	f0087813          	andi	a6,a6,-256
        retval &= 0x007f;
80000864:	07f4f513          	andi	a0,s1,127
        *pdata = (data & 0xff00) | 0x0080 | retval; /* cache the result */
80000868:	01056833          	or	a6,a0,a6
        res->crc = crcu16(retval, res->crc);
8000086c:	02f89c23          	sh	a5,56(a7)
        *pdata = (data & 0xff00) | 0x0080 | retval; /* cache the result */
80000870:	08086813          	ori	a6,a6,128
}
80000874:	01c12083          	lw	ra,28(sp)
        *pdata = (data & 0xff00) | 0x0080 | retval; /* cache the result */
80000878:	01041023          	sh	a6,0(s0)
}
8000087c:	01812403          	lw	s0,24(sp)
80000880:	01412483          	lw	s1,20(sp)
80000884:	02010113          	addi	sp,sp,32
80000888:	00008067          	ret
        res->crc = crcu16(retval, res->crc);
8000088c:	01081513          	slli	a0,a6,0x10
80000890:	01055513          	srli	a0,a0,0x10
                retval = data;
80000894:	00080493          	mv	s1,a6
80000898:	fadff06f          	j	80000844 <calc_func+0x90>
                if (dtype < 0x22) /* set min period for bit corruption */
8000089c:	02100693          	li	a3,33
800008a0:	00c6e463          	bltu	a3,a2,800008a8 <calc_func+0xf4>
                    dtype = 0x22;
800008a4:	02200713          	li	a4,34
                retval = core_bench_state(res->size,
800008a8:	00289683          	lh	a3,2(a7)
800008ac:	00089603          	lh	a2,0(a7)
800008b0:	0148a583          	lw	a1,20(a7)
800008b4:	0188a503          	lw	a0,24(a7)
800008b8:	01012623          	sw	a6,12(sp)
800008bc:	01112423          	sw	a7,8(sp)
800008c0:	4b5000ef          	jal	80001574 <core_bench_state>
                if (res->crcstate == 0)
800008c4:	00812883          	lw	a7,8(sp)
                retval = core_bench_state(res->size,
800008c8:	01051493          	slli	s1,a0,0x10
                if (res->crcstate == 0)
800008cc:	00c12803          	lw	a6,12(sp)
800008d0:	03e8d783          	lhu	a5,62(a7)
                retval = core_bench_state(res->size,
800008d4:	4104d493          	srai	s1,s1,0x10
                if (res->crcstate == 0)
800008d8:	00079463          	bnez	a5,800008e0 <calc_func+0x12c>
                    res->crcstate = retval;
800008dc:	02a89f23          	sh	a0,62(a7)
800008e0:	0388d783          	lhu	a5,56(a7)
800008e4:	f61ff06f          	j	80000844 <calc_func+0x90>

800008e8 <cmp_complex>:
{
800008e8:	fe010113          	addi	sp,sp,-32
800008ec:	00912a23          	sw	s1,20(sp)
800008f0:	00058493          	mv	s1,a1
    ee_s16 val1 = calc_func(&(a->data16), res);
800008f4:	00060593          	mv	a1,a2
{
800008f8:	00112e23          	sw	ra,28(sp)
800008fc:	00812c23          	sw	s0,24(sp)
    ee_s16 val1 = calc_func(&(a->data16), res);
80000900:	00c12623          	sw	a2,12(sp)
80000904:	eb1ff0ef          	jal	800007b4 <calc_func>
    ee_s16 val2 = calc_func(&(b->data16), res);
80000908:	00c12583          	lw	a1,12(sp)
    ee_s16 val1 = calc_func(&(a->data16), res);
8000090c:	00050413          	mv	s0,a0
    ee_s16 val2 = calc_func(&(b->data16), res);
80000910:	00048513          	mv	a0,s1
80000914:	ea1ff0ef          	jal	800007b4 <calc_func>
}
80000918:	01c12083          	lw	ra,28(sp)
8000091c:	40a40533          	sub	a0,s0,a0
80000920:	01812403          	lw	s0,24(sp)
80000924:	01412483          	lw	s1,20(sp)
80000928:	02010113          	addi	sp,sp,32
8000092c:	00008067          	ret

80000930 <copy_info>:

void
copy_info(list_data *to, list_data *from)
{
    to->data16 = from->data16;
80000930:	00059703          	lh	a4,0(a1)
    to->idx    = from->idx;
80000934:	00259783          	lh	a5,2(a1)
    to->data16 = from->data16;
80000938:	00e51023          	sh	a4,0(a0)
    to->idx    = from->idx;
8000093c:	00f51123          	sh	a5,2(a0)
}
80000940:	00008067          	ret

80000944 <core_list_insert_new>:
                     list_head * memblock_end,
                     list_data * datablock_end)
{
    list_head *newitem;

    if ((*memblock + 1) >= memblock_end)
80000944:	00062803          	lw	a6,0(a2)
80000948:	00880893          	addi	a7,a6,8
8000094c:	04e8f663          	bgeu	a7,a4,80000998 <core_list_insert_new+0x54>
        return NULL;
    if ((*datablock + 1) >= datablock_end)
80000950:	0006a703          	lw	a4,0(a3)
80000954:	00470313          	addi	t1,a4,4
80000958:	04f37063          	bgeu	t1,a5,80000998 <core_list_insert_new+0x54>
        return NULL;

    newitem = *memblock;
    (*memblock)++;
8000095c:	01162023          	sw	a7,0(a2)
    newitem->next      = insert_point->next;
80000960:	00052783          	lw	a5,0(a0)
    to->data16 = from->data16;
80000964:	00059883          	lh	a7,0(a1)
    to->idx    = from->idx;
80000968:	00259603          	lh	a2,2(a1)
    newitem->next      = insert_point->next;
8000096c:	00f82023          	sw	a5,0(a6)
    insert_point->next = newitem;
80000970:	01052023          	sw	a6,0(a0)

    newitem->info = *datablock;
80000974:	00e82223          	sw	a4,4(a6)
    (*datablock)++;
80000978:	0006a783          	lw	a5,0(a3)
    copy_info(newitem->info, info);

    return newitem;
}
8000097c:	00080513          	mv	a0,a6
    (*datablock)++;
80000980:	00478793          	addi	a5,a5,4
80000984:	00f6a023          	sw	a5,0(a3)
    copy_info(newitem->info, info);
80000988:	00482783          	lw	a5,4(a6)
    to->data16 = from->data16;
8000098c:	01179023          	sh	a7,0(a5)
    to->idx    = from->idx;
80000990:	00c79123          	sh	a2,2(a5)
}
80000994:	00008067          	ret
        return NULL;
80000998:	00000813          	li	a6,0
}
8000099c:	00080513          	mv	a0,a6
800009a0:	00008067          	ret

800009a4 <core_list_remove>:
        Returns:
        Removed item.
*/
list_head *
core_list_remove(list_head *item)
{
800009a4:	00050793          	mv	a5,a0
    list_data *tmp;
    list_head *ret = item->next;
800009a8:	00052503          	lw	a0,0(a0)
    /* swap data pointers */
    tmp        = item->info;
800009ac:	0047a683          	lw	a3,4(a5)
    item->info = ret->info;
800009b0:	00452603          	lw	a2,4(a0)
    ret->info  = tmp;
    /* and eliminate item */
    item->next = item->next->next;
800009b4:	00052703          	lw	a4,0(a0)
    item->info = ret->info;
800009b8:	00c7a223          	sw	a2,4(a5)
    ret->info  = tmp;
800009bc:	00d52223          	sw	a3,4(a0)
    item->next = item->next->next;
800009c0:	00e7a023          	sw	a4,0(a5)
    ret->next  = NULL;
800009c4:	00052023          	sw	zero,0(a0)
    return ret;
}
800009c8:	00008067          	ret

800009cc <core_list_undo_remove>:
core_list_undo_remove(list_head *item_removed, list_head *item_modified)
{
    list_data *tmp;
    /* swap data pointers */
    tmp                 = item_removed->info;
    item_removed->info  = item_modified->info;
800009cc:	0045a683          	lw	a3,4(a1)
    tmp                 = item_removed->info;
800009d0:	00452703          	lw	a4,4(a0)
    item_modified->info = tmp;
    /* and insert item */
    item_removed->next  = item_modified->next;
800009d4:	0005a783          	lw	a5,0(a1)
    item_removed->info  = item_modified->info;
800009d8:	00d52223          	sw	a3,4(a0)
    item_modified->info = tmp;
800009dc:	00e5a223          	sw	a4,4(a1)
    item_removed->next  = item_modified->next;
800009e0:	00f52023          	sw	a5,0(a0)
    item_modified->next = item_removed;
800009e4:	00a5a023          	sw	a0,0(a1)
    return item_removed;
}
800009e8:	00008067          	ret

800009ec <core_list_find>:
        Found item, or NULL if not found.
*/
list_head *
core_list_find(list_head *list, list_data *info)
{
    if (info->idx >= 0)
800009ec:	00259703          	lh	a4,2(a1)
800009f0:	02074263          	bltz	a4,80000a14 <core_list_find+0x28>
    {
        while (list && (list->info->idx != info->idx))
800009f4:	00051863          	bnez	a0,80000a04 <core_list_find+0x18>
800009f8:	00008067          	ret
            list = list->next;
800009fc:	00052503          	lw	a0,0(a0)
        while (list && (list->info->idx != info->idx))
80000a00:	02050a63          	beqz	a0,80000a34 <core_list_find+0x48>
80000a04:	00452783          	lw	a5,4(a0)
80000a08:	00279783          	lh	a5,2(a5)
80000a0c:	fee798e3          	bne	a5,a4,800009fc <core_list_find+0x10>
80000a10:	00008067          	ret
        return list;
    }
    else
    {
        while (list && ((list->info->data16 & 0xff) != info->data16))
80000a14:	02050063          	beqz	a0,80000a34 <core_list_find+0x48>
80000a18:	00059703          	lh	a4,0(a1)
80000a1c:	00c0006f          	j	80000a28 <core_list_find+0x3c>
            list = list->next;
80000a20:	00052503          	lw	a0,0(a0)
        while (list && ((list->info->data16 & 0xff) != info->data16))
80000a24:	00050863          	beqz	a0,80000a34 <core_list_find+0x48>
80000a28:	00452783          	lw	a5,4(a0)
80000a2c:	0007c783          	lbu	a5,0(a5)
80000a30:	fee798e3          	bne	a5,a4,80000a20 <core_list_find+0x34>
        return list;
    }
}
80000a34:	00008067          	ret

80000a38 <core_list_reverse>:

list_head *
core_list_reverse(list_head *list)
{
    list_head *next = NULL, *tmp;
    while (list)
80000a38:	02050063          	beqz	a0,80000a58 <core_list_reverse+0x20>
    list_head *next = NULL, *tmp;
80000a3c:	00000713          	li	a4,0
80000a40:	0080006f          	j	80000a48 <core_list_reverse+0x10>
80000a44:	00078513          	mv	a0,a5
    {
        tmp        = list->next;
80000a48:	00052783          	lw	a5,0(a0)
        list->next = next;
80000a4c:	00e52023          	sw	a4,0(a0)
    while (list)
80000a50:	00050713          	mv	a4,a0
80000a54:	fe0798e3          	bnez	a5,80000a44 <core_list_reverse+0xc>
        next       = list;
        list       = tmp;
    }
    return next;
}
80000a58:	00008067          	ret

80000a5c <core_list_mergesort>:
        but the algorithm could theoretically modify where the list starts.

 */
list_head *
core_list_mergesort(list_head *list, list_cmp cmp, core_results *res)
{
80000a5c:	fd010113          	addi	sp,sp,-48
80000a60:	03212023          	sw	s2,32(sp)
80000a64:	01512a23          	sw	s5,20(sp)
80000a68:	01612823          	sw	s6,16(sp)
80000a6c:	01712623          	sw	s7,12(sp)
80000a70:	01a12023          	sw	s10,0(sp)
    list_head *p, *q, *e, *tail;
    ee_s32     insize, nmerges, psize, qsize, i;

    insize = 1;
80000a74:	00100a93          	li	s5,1
{
80000a78:	02112623          	sw	ra,44(sp)
80000a7c:	02812423          	sw	s0,40(sp)
80000a80:	02912223          	sw	s1,36(sp)
80000a84:	01312e23          	sw	s3,28(sp)
80000a88:	01412c23          	sw	s4,24(sp)
80000a8c:	01812423          	sw	s8,8(sp)
80000a90:	01912223          	sw	s9,4(sp)
80000a94:	00050913          	mv	s2,a0
80000a98:	00058b93          	mv	s7,a1
80000a9c:	00060b13          	mv	s6,a2
        }

        tail->next = NULL;

        /* If we have done only one merge, we're finished. */
        if (nmerges <= 1) /* allow for nmerges==0, the empty list case */
80000aa0:	000a8d13          	mv	s10,s5
        while (p)
80000aa4:	0e090863          	beqz	s2,80000b94 <core_list_mergesort+0x138>
        nmerges = 0; /* count number of merges we do in this pass */
80000aa8:	00000c93          	li	s9,0
        tail = NULL;
80000aac:	00000493          	li	s1,0
        list = NULL;
80000ab0:	00000c13          	li	s8,0
            nmerges++; /* there exists a merge to be done */
80000ab4:	001c8c93          	addi	s9,s9,1
            q     = p;
80000ab8:	00090793          	mv	a5,s2
            psize = 0;
80000abc:	00000413          	li	s0,0
            for (i = 0; i < insize; i++)
80000ac0:	01545863          	bge	s0,s5,80000ad0 <core_list_mergesort+0x74>
                q = q->next;
80000ac4:	0007a783          	lw	a5,0(a5)
                psize++;
80000ac8:	00140413          	addi	s0,s0,1
                if (!q)
80000acc:	fe079ae3          	bnez	a5,80000ac0 <core_list_mergesort+0x64>
                    list = e;
80000ad0:	00090993          	mv	s3,s2
80000ad4:	000a8a13          	mv	s4,s5
80000ad8:	00078913          	mv	s2,a5
            while (psize > 0 || (qsize > 0 && q))
80000adc:	02805463          	blez	s0,80000b04 <core_list_mergesort+0xa8>
                else if (qsize == 0 || !q)
80000ae0:	000a0463          	beqz	s4,80000ae8 <core_list_mergesort+0x8c>
80000ae4:	02091863          	bnez	s2,80000b14 <core_list_mergesort+0xb8>
                    psize--;
80000ae8:	00048793          	mv	a5,s1
80000aec:	fff40413          	addi	s0,s0,-1
                    e = p;
80000af0:	00098493          	mv	s1,s3
                    p = p->next;
80000af4:	0009a983          	lw	s3,0(s3)
                if (tail)
80000af8:	04078263          	beqz	a5,80000b3c <core_list_mergesort+0xe0>
                    tail->next = e;
80000afc:	0097a023          	sw	s1,0(a5)
            while (psize > 0 || (qsize > 0 && q))
80000b00:	fe8040e3          	bgtz	s0,80000ae0 <core_list_mergesort+0x84>
80000b04:	012037b3          	snez	a5,s2
80000b08:	07405a63          	blez	s4,80000b7c <core_list_mergesort+0x120>
80000b0c:	06078a63          	beqz	a5,80000b80 <core_list_mergesort+0x124>
                if (psize == 0)
80000b10:	04040463          	beqz	s0,80000b58 <core_list_mergesort+0xfc>
                else if (cmp(p->info, q->info, res) <= 0)
80000b14:	00492583          	lw	a1,4(s2)
80000b18:	0049a503          	lw	a0,4(s3)
80000b1c:	000b0613          	mv	a2,s6
80000b20:	000b80e7          	jalr	s7 # 1000 <__stack_size-0x1fff000>
80000b24:	06a05c63          	blez	a0,80000b9c <core_list_mergesort+0x140>
                    qsize--;
80000b28:	00048793          	mv	a5,s1
80000b2c:	fffa0a13          	addi	s4,s4,-1 # fff <__stack_size-0x1fff001>
                    e = q;
80000b30:	00090493          	mv	s1,s2
                    q = q->next;
80000b34:	00092903          	lw	s2,0(s2)
                if (tail)
80000b38:	fc0792e3          	bnez	a5,80000afc <core_list_mergesort+0xa0>
                    list = e;
80000b3c:	00048c13          	mv	s8,s1
80000b40:	f9dff06f          	j	80000adc <core_list_mergesort+0x80>
                    tail->next = e;
80000b44:	00e4a023          	sw	a4,0(s1)
            while (psize > 0 || (qsize > 0 && q))
80000b48:	012037b3          	snez	a5,s2
80000b4c:	00070493          	mv	s1,a4
80000b50:	020a0463          	beqz	s4,80000b78 <core_list_mergesort+0x11c>
80000b54:	02078263          	beqz	a5,80000b78 <core_list_mergesort+0x11c>
80000b58:	00090713          	mv	a4,s2
                    qsize--;
80000b5c:	fffa0a13          	addi	s4,s4,-1
                    q = q->next;
80000b60:	00092903          	lw	s2,0(s2)
                if (tail)
80000b64:	fe0490e3          	bnez	s1,80000b44 <core_list_mergesort+0xe8>
                    list = e;
80000b68:	00070c13          	mv	s8,a4
            while (psize > 0 || (qsize > 0 && q))
80000b6c:	012037b3          	snez	a5,s2
80000b70:	00070493          	mv	s1,a4
80000b74:	fe0a10e3          	bnez	s4,80000b54 <core_list_mergesort+0xf8>
80000b78:	00070493          	mv	s1,a4
        while (p)
80000b7c:	f2079ce3          	bnez	a5,80000ab4 <core_list_mergesort+0x58>
        tail->next = NULL;
80000b80:	0004a023          	sw	zero,0(s1)
        if (nmerges <= 1) /* allow for nmerges==0, the empty list case */
80000b84:	05ac8663          	beq	s9,s10,80000bd0 <core_list_mergesort+0x174>
        p    = list;
80000b88:	000c0913          	mv	s2,s8
            return list;

        /* Otherwise repeat, merging lists twice the size */
        insize *= 2;
80000b8c:	001a9a93          	slli	s5,s5,0x1
        while (p)
80000b90:	f0091ce3          	bnez	s2,80000aa8 <core_list_mergesort+0x4c>
        tail->next = NULL;
80000b94:	00002023          	sw	zero,0(zero) # 0 <__stack_size-0x2000000>
80000b98:	00100073          	ebreak
                    p = p->next;
80000b9c:	0009a703          	lw	a4,0(s3)
                    psize--;
80000ba0:	fff40413          	addi	s0,s0,-1
                if (tail)
80000ba4:	00048c63          	beqz	s1,80000bbc <core_list_mergesort+0x160>
80000ba8:	00048793          	mv	a5,s1
                    e = p;
80000bac:	00098493          	mv	s1,s3
                    tail->next = e;
80000bb0:	0097a023          	sw	s1,0(a5)
                    p = p->next;
80000bb4:	00070993          	mv	s3,a4
                    tail->next = e;
80000bb8:	f49ff06f          	j	80000b00 <core_list_mergesort+0xa4>
                    list = e;
80000bbc:	00098c13          	mv	s8,s3
                    e = p;
80000bc0:	00098493          	mv	s1,s3
                    p = p->next;
80000bc4:	00070993          	mv	s3,a4
            while (psize > 0 || (qsize > 0 && q))
80000bc8:	f48046e3          	bgtz	s0,80000b14 <core_list_mergesort+0xb8>
80000bcc:	f39ff06f          	j	80000b04 <core_list_mergesort+0xa8>
    }
#if COMPILER_REQUIRES_SORT_RETURN
    return list;
#endif
}
80000bd0:	02c12083          	lw	ra,44(sp)
80000bd4:	02812403          	lw	s0,40(sp)
80000bd8:	02412483          	lw	s1,36(sp)
80000bdc:	02012903          	lw	s2,32(sp)
80000be0:	01c12983          	lw	s3,28(sp)
80000be4:	01812a03          	lw	s4,24(sp)
80000be8:	01412a83          	lw	s5,20(sp)
80000bec:	01012b03          	lw	s6,16(sp)
80000bf0:	00c12b83          	lw	s7,12(sp)
80000bf4:	00412c83          	lw	s9,4(sp)
80000bf8:	00012d03          	lw	s10,0(sp)
80000bfc:	000c0513          	mv	a0,s8
80000c00:	00812c03          	lw	s8,8(sp)
80000c04:	03010113          	addi	sp,sp,48
80000c08:	00008067          	ret

80000c0c <core_bench_list>:
    ee_s16     find_num = res->seed3;
80000c0c:	00451603          	lh	a2,4(a0)
{
80000c10:	fd010113          	addi	sp,sp,-48
80000c14:	02812423          	sw	s0,40(sp)
80000c18:	02112623          	sw	ra,44(sp)
80000c1c:	02912223          	sw	s1,36(sp)
80000c20:	03212023          	sw	s2,32(sp)
80000c24:	01312e23          	sw	s3,28(sp)
    list_head *list     = res->list;
80000c28:	02452403          	lw	s0,36(a0)
    for (i = 0; i < find_num; i++)
80000c2c:	2ac05263          	blez	a2,80000ed0 <core_bench_list+0x2c4>
    if (info->idx >= 0)
80000c30:	2a05c863          	bltz	a1,80000ee0 <core_bench_list+0x2d4>
        while (list && (list->info->idx != info->idx))
80000c34:	2c040863          	beqz	s0,80000f04 <core_bench_list+0x2f8>
80000c38:	00058693          	mv	a3,a1
80000c3c:	00000e13          	li	t3,0
80000c40:	00000f13          	li	t5,0
80000c44:	00000e93          	li	t4,0
80000c48:	00000893          	li	a7,0
80000c4c:	00000313          	li	t1,0
80000c50:	00040793          	mv	a5,s0
80000c54:	00c0006f          	j	80000c60 <core_bench_list+0x54>
            list = list->next;
80000c58:	0007a783          	lw	a5,0(a5)
        while (list && (list->info->idx != info->idx))
80000c5c:	0e078463          	beqz	a5,80000d44 <core_bench_list+0x138>
80000c60:	0047a703          	lw	a4,4(a5)
80000c64:	00271803          	lh	a6,2(a4)
80000c68:	fed818e3          	bne	a6,a3,80000c58 <core_bench_list+0x4c>
    list_head *next = NULL, *tmp;
80000c6c:	00000693          	li	a3,0
80000c70:	0080006f          	j	80000c78 <core_bench_list+0x6c>
80000c74:	00070413          	mv	s0,a4
        tmp        = list->next;
80000c78:	00042703          	lw	a4,0(s0)
        list->next = next;
80000c7c:	00d42023          	sw	a3,0(s0)
    while (list)
80000c80:	00040693          	mv	a3,s0
80000c84:	fe0718e3          	bnez	a4,80000c74 <core_bench_list+0x68>
        if (this_find == NULL)
80000c88:	0c078263          	beqz	a5,80000d4c <core_bench_list+0x140>
            if (this_find->info->data16 & 0x1) /* use found value */
80000c8c:	0047a703          	lw	a4,4(a5)
            found++;
80000c90:	001e8e93          	addi	t4,t4,1
            if (this_find->info->data16 & 0x1) /* use found value */
80000c94:	00071703          	lh	a4,0(a4)
80000c98:	00177693          	andi	a3,a4,1
80000c9c:	00068863          	beqz	a3,80000cac <core_bench_list+0xa0>
                retval += (this_find->info->data16 >> 9) & 1;
80000ca0:	40975713          	srai	a4,a4,0x9
80000ca4:	00177713          	andi	a4,a4,1
80000ca8:	00e888b3          	add	a7,a7,a4
            if (this_find->next != NULL)
80000cac:	0007a703          	lw	a4,0(a5)
80000cb0:	00070c63          	beqz	a4,80000cc8 <core_bench_list+0xbc>
                this_find->next = finder->next;
80000cb4:	00072683          	lw	a3,0(a4)
80000cb8:	00d7a023          	sw	a3,0(a5)
                finder->next    = list->next;
80000cbc:	00042783          	lw	a5,0(s0)
80000cc0:	00f72023          	sw	a5,0(a4)
                list->next      = finder;
80000cc4:	00e42023          	sw	a4,0(s0)
        if (info.idx >= 0)
80000cc8:	04084063          	bltz	a6,80000d08 <core_bench_list+0xfc>
            info.idx++;
80000ccc:	001e0793          	addi	a5,t3,1
    for (i = 0; i < find_num; i++)
80000cd0:	01079e13          	slli	t3,a5,0x10
            info.idx++;
80000cd4:	00180693          	addi	a3,a6,1
80000cd8:	01069693          	slli	a3,a3,0x10
80000cdc:	01079793          	slli	a5,a5,0x10
    for (i = 0; i < find_num; i++)
80000ce0:	410e5e13          	srai	t3,t3,0x10
            info.idx++;
80000ce4:	4106d693          	srai	a3,a3,0x10
    for (i = 0; i < find_num; i++)
80000ce8:	0107d793          	srli	a5,a5,0x10
80000cec:	09c60463          	beq	a2,t3,80000d74 <core_bench_list+0x168>
        info.data16 = (i & 0xff);
80000cf0:	0ff7f313          	zext.b	t1,a5
    if (info->idx >= 0)
80000cf4:	f406dee3          	bgez	a3,80000c50 <core_bench_list+0x44>
        info.data16 = (i & 0xff);
80000cf8:	00030693          	mv	a3,t1
    if (info->idx >= 0)
80000cfc:	00040793          	mv	a5,s0
80000d00:	ffff8837          	lui	a6,0xffff8
80000d04:	0300006f          	j	80000d34 <core_bench_list+0x128>
    for (i = 0; i < find_num; i++)
80000d08:	001e0693          	addi	a3,t3,1
80000d0c:	01069e13          	slli	t3,a3,0x10
80000d10:	410e5e13          	srai	t3,t3,0x10
80000d14:	01069693          	slli	a3,a3,0x10
80000d18:	0106d693          	srli	a3,a3,0x10
80000d1c:	05c60a63          	beq	a2,t3,80000d70 <core_bench_list+0x164>
        info.data16 = (i & 0xff);
80000d20:	0ff6f693          	zext.b	a3,a3
80000d24:	00040793          	mv	a5,s0
80000d28:	00c0006f          	j	80000d34 <core_bench_list+0x128>
            list = list->next;
80000d2c:	0007a783          	lw	a5,0(a5)
        while (list && ((list->info->data16 & 0xff) != info->data16))
80000d30:	02078c63          	beqz	a5,80000d68 <core_bench_list+0x15c>
80000d34:	0047a703          	lw	a4,4(a5)
80000d38:	00074303          	lbu	t1,0(a4)
80000d3c:	fed318e3          	bne	t1,a3,80000d2c <core_bench_list+0x120>
80000d40:	f2dff06f          	j	80000c6c <core_bench_list+0x60>
80000d44:	00068813          	mv	a6,a3
80000d48:	f25ff06f          	j	80000c6c <core_bench_list+0x60>
            retval += (list->next->info->data16 >> 8) & 1;
80000d4c:	00042783          	lw	a5,0(s0)
            missed++;
80000d50:	001f0f13          	addi	t5,t5,1
            retval += (list->next->info->data16 >> 8) & 1;
80000d54:	0047a783          	lw	a5,4(a5)
80000d58:	00178783          	lb	a5,1(a5)
80000d5c:	0017f793          	andi	a5,a5,1
80000d60:	00f888b3          	add	a7,a7,a5
80000d64:	f65ff06f          	j	80000cc8 <core_bench_list+0xbc>
80000d68:	00068313          	mv	t1,a3
80000d6c:	f01ff06f          	j	80000c6c <core_bench_list+0x60>
    for (i = 0; i < find_num; i++)
80000d70:	00080693          	mv	a3,a6
    retval += found * 4 - missed;
80000d74:	002e9793          	slli	a5,t4,0x2
80000d78:	41e787b3          	sub	a5,a5,t5
80000d7c:	00f888b3          	add	a7,a7,a5
80000d80:	01089493          	slli	s1,a7,0x10
80000d84:	0104d493          	srli	s1,s1,0x10
    if (finder_idx > 0)
80000d88:	02b05663          	blez	a1,80000db4 <core_bench_list+0x1a8>
        list = core_list_mergesort(list, cmp_complex, res);
80000d8c:	800015b7          	lui	a1,0x80001
80000d90:	00050613          	mv	a2,a0
80000d94:	8e858593          	addi	a1,a1,-1816 # 800008e8 <cmp_complex>
80000d98:	00040513          	mv	a0,s0
80000d9c:	00612623          	sw	t1,12(sp)
80000da0:	00d12423          	sw	a3,8(sp)
80000da4:	cb9ff0ef          	jal	80000a5c <core_list_mergesort>
80000da8:	00c12303          	lw	t1,12(sp)
80000dac:	00812683          	lw	a3,8(sp)
80000db0:	00050413          	mv	s0,a0
    remover = core_list_remove(list->next);
80000db4:	00042783          	lw	a5,0(s0)
    list_head *ret = item->next;
80000db8:	00040913          	mv	s2,s0
80000dbc:	0007a983          	lw	s3,0(a5)
    tmp        = item->info;
80000dc0:	0047a703          	lw	a4,4(a5)
    item->info = ret->info;
80000dc4:	0049a583          	lw	a1,4(s3)
    item->next = item->next->next;
80000dc8:	0009a603          	lw	a2,0(s3)
    item->info = ret->info;
80000dcc:	00b7a223          	sw	a1,4(a5)
    ret->info  = tmp;
80000dd0:	00e9a223          	sw	a4,4(s3)
    item->next = item->next->next;
80000dd4:	00c7a023          	sw	a2,0(a5)
    ret->next  = NULL;
80000dd8:	0009a023          	sw	zero,0(s3)
    if (info->idx >= 0)
80000ddc:	0006d863          	bgez	a3,80000dec <core_bench_list+0x1e0>
80000de0:	0b80006f          	j	80000e98 <core_bench_list+0x28c>
            list = list->next;
80000de4:	00092903          	lw	s2,0(s2)
        while (list && (list->info->idx != info->idx))
80000de8:	0c090063          	beqz	s2,80000ea8 <core_bench_list+0x29c>
80000dec:	00492783          	lw	a5,4(s2)
80000df0:	00279783          	lh	a5,2(a5)
80000df4:	fed798e3          	bne	a5,a3,80000de4 <core_bench_list+0x1d8>
        retval = crc16(list->info->data16, retval);
80000df8:	00442783          	lw	a5,4(s0)
80000dfc:	00048593          	mv	a1,s1
80000e00:	00079503          	lh	a0,0(a5)
80000e04:	100010ef          	jal	80001f04 <crc16>
        finder = finder->next;
80000e08:	00092903          	lw	s2,0(s2)
        retval = crc16(list->info->data16, retval);
80000e0c:	00050493          	mv	s1,a0
    while (finder)
80000e10:	fe0914e3          	bnez	s2,80000df8 <core_bench_list+0x1ec>
    remover = core_list_undo_remove(remover, list->next);
80000e14:	00042903          	lw	s2,0(s0)
    tmp                 = item_removed->info;
80000e18:	0049a703          	lw	a4,4(s3)
    item_removed->info  = item_modified->info;
80000e1c:	00492683          	lw	a3,4(s2)
    item_removed->next  = item_modified->next;
80000e20:	00092783          	lw	a5,0(s2)
    list = core_list_mergesort(list, cmp_idx, NULL);
80000e24:	800005b7          	lui	a1,0x80000
    item_removed->info  = item_modified->info;
80000e28:	00d9a223          	sw	a3,4(s3)
    item_modified->info = tmp;
80000e2c:	00e92223          	sw	a4,4(s2)
    item_removed->next  = item_modified->next;
80000e30:	00f9a023          	sw	a5,0(s3)
    list = core_list_mergesort(list, cmp_idx, NULL);
80000e34:	00040513          	mv	a0,s0
    item_modified->next = item_removed;
80000e38:	01392023          	sw	s3,0(s2)
    list = core_list_mergesort(list, cmp_idx, NULL);
80000e3c:	76058593          	addi	a1,a1,1888 # 80000760 <cmp_idx>
80000e40:	00000613          	li	a2,0
80000e44:	c19ff0ef          	jal	80000a5c <core_list_mergesort>
    finder = list->next;
80000e48:	00052403          	lw	s0,0(a0)
    list = core_list_mergesort(list, cmp_idx, NULL);
80000e4c:	00050913          	mv	s2,a0
    while (finder)
80000e50:	02040063          	beqz	s0,80000e70 <core_bench_list+0x264>
        retval = crc16(list->info->data16, retval);
80000e54:	00492783          	lw	a5,4(s2)
80000e58:	00048593          	mv	a1,s1
80000e5c:	00079503          	lh	a0,0(a5)
80000e60:	0a4010ef          	jal	80001f04 <crc16>
        finder = finder->next;
80000e64:	00042403          	lw	s0,0(s0)
        retval = crc16(list->info->data16, retval);
80000e68:	00050493          	mv	s1,a0
    while (finder)
80000e6c:	fe0414e3          	bnez	s0,80000e54 <core_bench_list+0x248>
}
80000e70:	02c12083          	lw	ra,44(sp)
80000e74:	02812403          	lw	s0,40(sp)
80000e78:	02012903          	lw	s2,32(sp)
80000e7c:	01c12983          	lw	s3,28(sp)
80000e80:	00048513          	mv	a0,s1
80000e84:	02412483          	lw	s1,36(sp)
80000e88:	03010113          	addi	sp,sp,48
80000e8c:	00008067          	ret
            list = list->next;
80000e90:	00092903          	lw	s2,0(s2)
        while (list && ((list->info->data16 & 0xff) != info->data16))
80000e94:	00090a63          	beqz	s2,80000ea8 <core_bench_list+0x29c>
80000e98:	00492783          	lw	a5,4(s2)
80000e9c:	0007c783          	lbu	a5,0(a5)
80000ea0:	fef318e3          	bne	t1,a5,80000e90 <core_bench_list+0x284>
80000ea4:	f55ff06f          	j	80000df8 <core_bench_list+0x1ec>
        finder = list->next;
80000ea8:	00042903          	lw	s2,0(s0)
    while (finder)
80000eac:	f60908e3          	beqz	s2,80000e1c <core_bench_list+0x210>
        retval = crc16(list->info->data16, retval);
80000eb0:	00442783          	lw	a5,4(s0)
80000eb4:	00048593          	mv	a1,s1
80000eb8:	00079503          	lh	a0,0(a5)
80000ebc:	048010ef          	jal	80001f04 <crc16>
        finder = finder->next;
80000ec0:	00092903          	lw	s2,0(s2)
        retval = crc16(list->info->data16, retval);
80000ec4:	00050493          	mv	s1,a0
    while (finder)
80000ec8:	f20918e3          	bnez	s2,80000df8 <core_bench_list+0x1ec>
80000ecc:	f49ff06f          	j	80000e14 <core_bench_list+0x208>
    info.idx = finder_idx;
80000ed0:	00058693          	mv	a3,a1
    for (i = 0; i < find_num; i++)
80000ed4:	00000493          	li	s1,0
    list_data  info = {0};
80000ed8:	00000313          	li	t1,0
80000edc:	eadff06f          	j	80000d88 <core_bench_list+0x17c>
        while (list && ((list->info->data16 & 0xff) != info->data16))
80000ee0:	02040263          	beqz	s0,80000f04 <core_bench_list+0x2f8>
80000ee4:	00058813          	mv	a6,a1
80000ee8:	00040793          	mv	a5,s0
80000eec:	00000893          	li	a7,0
80000ef0:	00000693          	li	a3,0
80000ef4:	00000f13          	li	t5,0
80000ef8:	00000e13          	li	t3,0
80000efc:	00000e93          	li	t4,0
80000f00:	e35ff06f          	j	80000d34 <core_bench_list+0x128>
            retval += (list->next->info->data16 >> 8) & 1;
80000f04:	00002783          	lw	a5,0(zero) # 0 <__stack_size-0x2000000>
80000f08:	00100073          	ebreak

80000f0c <core_list_init>:
    ee_u32 size     = (blksize / per_item)
80000f0c:	ccccd7b7          	lui	a5,0xccccd
80000f10:	ccd78793          	addi	a5,a5,-819 # cccccccd <_sp+0x44cccccd>
80000f14:	02f538b3          	mulhu	a7,a0,a5
{
80000f18:	00058513          	mv	a0,a1
    list->next         = NULL;
80000f1c:	0005a023          	sw	zero,0(a1)
    list->info->data16 = (ee_s16)0x8080;
80000f20:	ffff87b7          	lui	a5,0xffff8
80000f24:	08078793          	addi	a5,a5,128 # ffff8080 <_sp+0x77ff8080>
    if ((*memblock + 1) >= memblock_end)
80000f28:	01058693          	addi	a3,a1,16
    list->info->data16 = (ee_s16)0x8080;
80000f2c:	ffff8737          	lui	a4,0xffff8
    memblock++;
80000f30:	00858593          	addi	a1,a1,8
    ee_u32 size     = (blksize / per_item)
80000f34:	0048d893          	srli	a7,a7,0x4
80000f38:	ffe88893          	addi	a7,a7,-2
    list_head *memblock_end  = memblock + size;
80000f3c:	00389e13          	slli	t3,a7,0x3
80000f40:	01c50e33          	add	t3,a0,t3
    list->info         = datablock;
80000f44:	01c52223          	sw	t3,4(a0)
    list->info->data16 = (ee_s16)0x8080;
80000f48:	00fe1023          	sh	a5,0(t3)
    list_data *datablock_end = datablock + size;
80000f4c:	00289f13          	slli	t5,a7,0x2
    list->info->idx    = 0x0000;
80000f50:	000e1123          	sh	zero,2(t3)
    list_data *datablock_end = datablock + size;
80000f54:	01ee0f33          	add	t5,t3,t5
    datablock++;
80000f58:	004e0793          	addi	a5,t3,4
    if ((*memblock + 1) >= memblock_end)
80000f5c:	11c6f263          	bgeu	a3,t3,80001060 <core_list_init+0x154>
    if ((*datablock + 1) >= datablock_end)
80000f60:	008e0813          	addi	a6,t3,8
80000f64:	0fe87e63          	bgeu	a6,t5,80001060 <core_list_init+0x154>
    newitem->info = *datablock;
80000f68:	00f52623          	sw	a5,12(a0)
    newitem->next      = insert_point->next;
80000f6c:	00052423          	sw	zero,8(a0)
    insert_point->next = newitem;
80000f70:	00b52023          	sw	a1,0(a0)
    to->idx    = from->idx;
80000f74:	fff74713          	not	a4,a4
    to->data16 = from->data16;
80000f78:	fff00793          	li	a5,-1
    to->idx    = from->idx;
80000f7c:	00ee1323          	sh	a4,6(t3)
    to->data16 = from->data16;
80000f80:	00fe1223          	sh	a5,4(t3)
    to->idx    = from->idx;
80000f84:	ffff8fb7          	lui	t6,0xffff8
80000f88:	ffffcf93          	not	t6,t6
            ee_u16 pat = (ee_u16)(i++ ^ seed); /* get a pseudo random number */
80000f8c:	00000713          	li	a4,0
    for (i = 0; i < size; i++)
80000f90:	04088c63          	beqz	a7,80000fe8 <core_list_init+0xdc>
        ee_u16 datpat = ((ee_u16)(seed ^ i) & 0xf);
80000f94:	00c747b3          	xor	a5,a4,a2
            = (datpat << 3) | (i & 0x7); /* alternate between algorithms */
80000f98:	00379793          	slli	a5,a5,0x3
80000f9c:	00777593          	andi	a1,a4,7
80000fa0:	0787f793          	andi	a5,a5,120
        ee_u16 dat
80000fa4:	00b7e7b3          	or	a5,a5,a1
        info.data16 = (dat << 8) | dat;  /* fill the data with actual data and
80000fa8:	00879e93          	slli	t4,a5,0x8
    if ((*memblock + 1) >= memblock_end)
80000fac:	00868313          	addi	t1,a3,8
    for (i = 0; i < size; i++)
80000fb0:	00170713          	addi	a4,a4,1 # ffff8001 <_sp+0x77ff8001>
    if ((*datablock + 1) >= datablock_end)
80000fb4:	00480593          	addi	a1,a6,4 # ffff8004 <_sp+0x77ff8004>
        info.data16 = (dat << 8) | dat;  /* fill the data with actual data and
80000fb8:	01d787b3          	add	a5,a5,t4
    if ((*memblock + 1) >= memblock_end)
80000fbc:	03c37463          	bgeu	t1,t3,80000fe4 <core_list_init+0xd8>
    if ((*datablock + 1) >= datablock_end)
80000fc0:	03e5f263          	bgeu	a1,t5,80000fe4 <core_list_init+0xd8>
    newitem->next      = insert_point->next;
80000fc4:	00052e83          	lw	t4,0(a0)
80000fc8:	01d6a023          	sw	t4,0(a3)
    insert_point->next = newitem;
80000fcc:	00d52023          	sw	a3,0(a0)
    newitem->info = *datablock;
80000fd0:	0106a223          	sw	a6,4(a3)
    to->data16 = from->data16;
80000fd4:	00f81023          	sh	a5,0(a6)
    to->idx    = from->idx;
80000fd8:	01f81123          	sh	t6,2(a6)
    (*memblock)++;
80000fdc:	00030693          	mv	a3,t1
    (*datablock)++;
80000fe0:	00058813          	mv	a6,a1
    for (i = 0; i < size; i++)
80000fe4:	fae898e3          	bne	a7,a4,80000f94 <core_list_init+0x88>
    finder = list->next;
80000fe8:	00052583          	lw	a1,0(a0)
    while (finder->next != NULL)
80000fec:	0005a683          	lw	a3,0(a1)
80000ff0:	06068063          	beqz	a3,80001050 <core_list_init+0x144>
        if (i < size / 5) /* first 20% of the list in order */
80000ff4:	ccccd7b7          	lui	a5,0xccccd
80000ff8:	ccd78793          	addi	a5,a5,-819 # cccccccd <_sp+0x44cccccd>
80000ffc:	02f8b8b3          	mulhu	a7,a7,a5
                                & (((i & 0x07) << 8)
80001000:	00004e37          	lui	t3,0x4
80001004:	fffe0e13          	addi	t3,t3,-1 # 3fff <__stack_size-0x1ffc001>
        if (i < size / 5) /* first 20% of the list in order */
80001008:	20000813          	li	a6,512
8000100c:	00100713          	li	a4,1
80001010:	0028d893          	srli	a7,a7,0x2
80001014:	0080006f          	j	8000101c <core_list_init+0x110>
    while (finder->next != NULL)
80001018:	00030693          	mv	a3,t1
                                & (((i & 0x07) << 8)
8000101c:	70087793          	andi	a5,a6,1792
            ee_u16 pat = (ee_u16)(i++ ^ seed); /* get a pseudo random number */
80001020:	00e64333          	xor	t1,a2,a4
                                   | pat); /* make sure the mixed items end up
80001024:	0067e7b3          	or	a5,a5,t1
            finder->info->idx = i++;
80001028:	0045a583          	lw	a1,4(a1)
                                & (((i & 0x07) << 8)
8000102c:	01c7f7b3          	and	a5,a5,t3
        if (i < size / 5) /* first 20% of the list in order */
80001030:	01177463          	bgeu	a4,a7,80001038 <core_list_init+0x12c>
            finder->info->idx = i++;
80001034:	00070793          	mv	a5,a4
    while (finder->next != NULL)
80001038:	0006a303          	lw	t1,0(a3)
            finder->info->idx = i++;
8000103c:	00f59123          	sh	a5,2(a1)
    while (finder->next != NULL)
80001040:	00170713          	addi	a4,a4,1
80001044:	10080813          	addi	a6,a6,256
80001048:	00068593          	mv	a1,a3
8000104c:	fc0316e3          	bnez	t1,80001018 <core_list_init+0x10c>
    list = core_list_mergesort(list, cmp_idx, NULL);
80001050:	800005b7          	lui	a1,0x80000
80001054:	76058593          	addi	a1,a1,1888 # 80000760 <cmp_idx>
80001058:	00000613          	li	a2,0
8000105c:	a01ff06f          	j	80000a5c <core_list_mergesort>
    datablock++;
80001060:	00078813          	mv	a6,a5
    memblock++;
80001064:	00058693          	mv	a3,a1
80001068:	f1dff06f          	j	80000f84 <core_list_init+0x78>

8000106c <start_time>:

        Implementation may be capturing a system timer (as implemented in the
   example code) or zeroing some system parameters - e.g. setting the cpu clocks
   cycles to 0.
*/
void start_time(void) { ; }
8000106c:	00008067          	ret

80001070 <stop_time>:

        Implementation may be capturing a system timer (as implemented in the
   example code) or other system parameters - e.g. reading the current value of
   cpu cycles counter.
*/
void stop_time(void) { ; }
80001070:	00008067          	ret

80001074 <get_time>:
   methodology is taken to accommodate any hardware or simulated platform. The
   sample implementation returns millisecs by default, and the resolution is
   controlled by <TIMER_RES_DIVIDER>
*/
CORE_TICKS
get_time(void) { return 0; }
80001074:	00000513          	li	a0,0
80001078:	00008067          	ret

8000107c <time_in_secs>:

        The <secs_ret> type is used to accommodate systems with no support for
   floating point. Default implementation implemented by the EE_TICKS_PER_SEC
   macro above.
*/
secs_ret time_in_secs(CORE_TICKS ticks) { return 0; }
8000107c:	00000513          	li	a0,0
80001080:	00008067          	ret

80001084 <portable_init>:
              "pointer!\n");
  }
  if (sizeof(ee_u32) != 4) {
    ee_printf("ERROR! Please define ee_u32 to a 32b unsigned type!\n");
  }
  p->portable_id = 1;
80001084:	00100793          	li	a5,1
80001088:	00f50023          	sb	a5,0(a0)
}
8000108c:	00008067          	ret

80001090 <portable_fini>:
/* Function : portable_fini
        Target specific final code
*/
void portable_fini(core_portable *p) { p->portable_id = 0; }
80001090:	00050023          	sb	zero,0(a0)
80001094:	00008067          	ret

80001098 <iterate>:
void *iterate(void *pres) {
80001098:	ff010113          	addi	sp,sp,-16
8000109c:	01212023          	sw	s2,0(sp)
  ee_u32 iterations = res->iterations;
800010a0:	01c52903          	lw	s2,28(a0)
void *iterate(void *pres) {
800010a4:	00112623          	sw	ra,12(sp)
  res->crc = 0;
800010a8:	02052c23          	sw	zero,56(a0)
800010ac:	02052e23          	sw	zero,60(a0)
  for (i = 0; i < iterations; i++) {
800010b0:	04090e63          	beqz	s2,8000110c <iterate+0x74>
800010b4:	00812423          	sw	s0,8(sp)
800010b8:	00912223          	sw	s1,4(sp)
800010bc:	00050413          	mv	s0,a0
800010c0:	00000493          	li	s1,0
    crc = core_bench_list(res, 1);
800010c4:	00100593          	li	a1,1
800010c8:	00040513          	mv	a0,s0
800010cc:	b41ff0ef          	jal	80000c0c <core_bench_list>
    res->crc = crcu16(crc, res->crc);
800010d0:	03845583          	lhu	a1,56(s0)
800010d4:	7e8000ef          	jal	800018bc <crcu16>
800010d8:	02a41c23          	sh	a0,56(s0)
    crc = core_bench_list(res, -1);
800010dc:	fff00593          	li	a1,-1
800010e0:	00040513          	mv	a0,s0
800010e4:	b29ff0ef          	jal	80000c0c <core_bench_list>
    res->crc = crcu16(crc, res->crc);
800010e8:	03845583          	lhu	a1,56(s0)
800010ec:	7d0000ef          	jal	800018bc <crcu16>
800010f0:	02a41c23          	sh	a0,56(s0)
    if (i == 0)
800010f4:	00049463          	bnez	s1,800010fc <iterate+0x64>
      res->crclist = res->crc;
800010f8:	02a41d23          	sh	a0,58(s0)
  for (i = 0; i < iterations; i++) {
800010fc:	00148493          	addi	s1,s1,1
80001100:	fc9912e3          	bne	s2,s1,800010c4 <iterate+0x2c>
80001104:	00812403          	lw	s0,8(sp)
80001108:	00412483          	lw	s1,4(sp)
}
8000110c:	00c12083          	lw	ra,12(sp)
80001110:	00012903          	lw	s2,0(sp)
80001114:	00000513          	li	a0,0
80001118:	01010113          	addi	sp,sp,16
8000111c:	00008067          	ret

80001120 <core_init_state>:
    ee_u8 *buf = 0;
#if CORE_DEBUG
    ee_u8 *start = p;
    ee_printf("State: %d,%d\n", size, seed);
#endif
    size--;
80001120:	fff50893          	addi	a7,a0,-1
    next = 0;
    while ((total + next + 1) < size)
80001124:	00100e93          	li	t4,1
{
80001128:	00060313          	mv	t1,a2
    while ((total + next + 1) < size)
8000112c:	131efc63          	bgeu	t4,a7,80001264 <core_init_state+0x144>
80001130:	01d586b3          	add	a3,a1,t4
80001134:	01069693          	slli	a3,a3,0x10
80001138:	0106d693          	srli	a3,a3,0x10
{
8000113c:	ff010113          	addi	sp,sp,-16
80001140:	80003837          	lui	a6,0x80003
        switch (seed & 0x7)
        {
            case 0: /* int */
            case 1: /* int */
            case 2: /* int */
                buf  = intpat[(seed >> 3) & 0x3];
80001144:	01b69593          	slli	a1,a3,0x1b
{
80001148:	00812623          	sw	s0,12(sp)
        switch (seed & 0x7)
8000114c:	00700e13          	li	t3,7
80001150:	0076f613          	andi	a2,a3,7
80001154:	6a480813          	addi	a6,a6,1700 # 800036a4 <intpat>
80001158:	00000393          	li	t2,0
8000115c:	00400f13          	li	t5,4
            *(p + total + i) = ',';
80001160:	02c00f93          	li	t6,44
                buf  = intpat[(seed >> 3) & 0x3];
80001164:	01e5d793          	srli	a5,a1,0x1e
        switch (seed & 0x7)
80001168:	07c60e63          	beq	a2,t3,800011e4 <core_init_state+0xc4>
8000116c:	0ccf6063          	bltu	t5,a2,8000122c <core_init_state+0x10c>
80001170:	ffd60613          	addi	a2,a2,-3
80001174:	01061613          	slli	a2,a2,0x10
                next = 4;
                break;
            case 3: /* float */
            case 4: /* float */
                buf  = floatpat[(seed >> 3) & 0x3];
80001178:	00279793          	slli	a5,a5,0x2
        switch (seed & 0x7)
8000117c:	01065613          	srli	a2,a2,0x10
                buf  = floatpat[(seed >> 3) & 0x3];
80001180:	00f807b3          	add	a5,a6,a5
        switch (seed & 0x7)
80001184:	08ceee63          	bltu	t4,a2,80001220 <core_init_state+0x100>
                buf  = floatpat[(seed >> 3) & 0x3];
80001188:	0107a783          	lw	a5,16(a5)
                next = 8;
8000118c:	00800593          	li	a1,8
    while ((total + next + 1) < size)
80001190:	00138293          	addi	t0,t2,1
80001194:	00b28433          	add	s0,t0,a1
80001198:	07147463          	bgeu	s0,a7,80001200 <core_init_state+0xe0>
8000119c:	00168693          	addi	a3,a3,1
800011a0:	007303b3          	add	t2,t1,t2
800011a4:	01069693          	slli	a3,a3,0x10
800011a8:	0106d693          	srli	a3,a3,0x10
        if (next > 0)
800011ac:	00038713          	mv	a4,t2
800011b0:	00b782b3          	add	t0,a5,a1
                *(p + total + i) = buf[i];
800011b4:	0007c603          	lbu	a2,0(a5)
            for (i = 0; i < next; i++)
800011b8:	00178793          	addi	a5,a5,1
800011bc:	00170713          	addi	a4,a4,1
                *(p + total + i) = buf[i];
800011c0:	fec70fa3          	sb	a2,-1(a4)
            for (i = 0; i < next; i++)
800011c4:	fef298e3          	bne	t0,a5,800011b4 <core_init_state+0x94>
            *(p + total + i) = ',';
800011c8:	00b38733          	add	a4,t2,a1
800011cc:	01f70023          	sb	t6,0(a4)
                buf  = intpat[(seed >> 3) & 0x3];
800011d0:	01b69593          	slli	a1,a3,0x1b
800011d4:	0076f613          	andi	a2,a3,7
            total += next + 1;
800011d8:	00040393          	mv	t2,s0
                buf  = intpat[(seed >> 3) & 0x3];
800011dc:	01e5d793          	srli	a5,a1,0x1e
        switch (seed & 0x7)
800011e0:	f9c616e3          	bne	a2,t3,8000116c <core_init_state+0x4c>
            case 6: /* scientific */
                buf  = scipat[(seed >> 3) & 0x3];
                next = 8;
                break;
            case 7: /* invalid */
                buf  = errpat[(seed >> 3) & 0x3];
800011e4:	00279793          	slli	a5,a5,0x2
                next = 8;
800011e8:	00800593          	li	a1,8
    while ((total + next + 1) < size)
800011ec:	00138293          	addi	t0,t2,1
                buf  = errpat[(seed >> 3) & 0x3];
800011f0:	00f807b3          	add	a5,a6,a5
    while ((total + next + 1) < size)
800011f4:	00b28433          	add	s0,t0,a1
                buf  = errpat[(seed >> 3) & 0x3];
800011f8:	0307a783          	lw	a5,48(a5)
    while ((total + next + 1) < size)
800011fc:	fb1460e3          	bltu	s0,a7,8000119c <core_init_state+0x7c>
            default: /* Never happen, just to make some compilers happy */
                break;
        }
    }
    size++;
    while (total < size)
80001200:	04a3fc63          	bgeu	t2,a0,80001258 <core_init_state+0x138>
    { /* fill the rest with 0 */
        *(p + total) = 0;
80001204:	00100613          	li	a2,1
80001208:	02557c63          	bgeu	a0,t0,80001240 <core_init_state+0x120>
        total++;
    }
#if CORE_DEBUG
    ee_printf("State Input: %s\n", start);
#endif
}
8000120c:	00c12403          	lw	s0,12(sp)
        *(p + total) = 0;
80001210:	00730533          	add	a0,t1,t2
80001214:	00000593          	li	a1,0
}
80001218:	01010113          	addi	sp,sp,16
        *(p + total) = 0;
8000121c:	7010106f          	j	8000311c <memset>
                buf  = intpat[(seed >> 3) & 0x3];
80001220:	0007a783          	lw	a5,0(a5)
                next = 4;
80001224:	00400593          	li	a1,4
                break;
80001228:	f69ff06f          	j	80001190 <core_init_state+0x70>
                buf  = scipat[(seed >> 3) & 0x3];
8000122c:	00279793          	slli	a5,a5,0x2
80001230:	00f807b3          	add	a5,a6,a5
80001234:	0207a783          	lw	a5,32(a5)
                next = 8;
80001238:	00800593          	li	a1,8
                break;
8000123c:	f55ff06f          	j	80001190 <core_init_state+0x70>
}
80001240:	00c12403          	lw	s0,12(sp)
        *(p + total) = 0;
80001244:	40750633          	sub	a2,a0,t2
80001248:	00000593          	li	a1,0
8000124c:	00730533          	add	a0,t1,t2
}
80001250:	01010113          	addi	sp,sp,16
        *(p + total) = 0;
80001254:	6c90106f          	j	8000311c <memset>
}
80001258:	00c12403          	lw	s0,12(sp)
8000125c:	01010113          	addi	sp,sp,16
80001260:	00008067          	ret
    ee_u32 total = 0, next = 0, i;
80001264:	00000393          	li	t2,0
        *(p + total) = 0;
80001268:	00100613          	li	a2,1
8000126c:	01d56463          	bltu	a0,t4,80001274 <core_init_state+0x154>
80001270:	40750633          	sub	a2,a0,t2
80001274:	00730533          	add	a0,t1,t2
80001278:	00000593          	li	a1,0
8000127c:	6a10106f          	j	8000311c <memset>

80001280 <core_state_transition>:
*/

enum CORE_STATE
core_state_transition(ee_u8 **instr, ee_u32 *transition_count)
{
    ee_u8 *         str = *instr;
80001280:	00052683          	lw	a3,0(a0)
    ee_u8           NEXT_SYMBOL;
    enum CORE_STATE state = CORE_START;
    for (; *str && state != CORE_INVALID; str++)
80001284:	0006c783          	lbu	a5,0(a3)
80001288:	04078263          	beqz	a5,800012cc <core_state_transition+0x4c>
    {
        NEXT_SYMBOL = *str;
        if (NEXT_SYMBOL == ',') /* end of this input */
8000128c:	02c00713          	li	a4,44
80001290:	20e78263          	beq	a5,a4,80001494 <core_state_transition+0x214>
            break;
        }
        switch (state)
        {
            case CORE_START:
                if (ee_isdigit(NEXT_SYMBOL))
80001294:	02e00813          	li	a6,46
80001298:	1d078c63          	beq	a5,a6,80001470 <core_state_transition+0x1f0>
8000129c:	02f86e63          	bltu	a6,a5,800012d8 <core_state_transition+0x58>
800012a0:	fd578793          	addi	a5,a5,-43
800012a4:	0fd7f793          	andi	a5,a5,253
800012a8:	1e078c63          	beqz	a5,800014a0 <core_state_transition+0x220>
                    state = CORE_FLOAT;
                }
                else
                {
                    state = CORE_INVALID;
                    transition_count[CORE_INVALID]++;
800012ac:	0045a703          	lw	a4,4(a1)
                }
                transition_count[CORE_START]++;
800012b0:	0005a783          	lw	a5,0(a1)
    for (; *str && state != CORE_INVALID; str++)
800012b4:	00168693          	addi	a3,a3,1
                    transition_count[CORE_INVALID]++;
800012b8:	00170713          	addi	a4,a4,1
                transition_count[CORE_START]++;
800012bc:	00178793          	addi	a5,a5,1
800012c0:	00f5a023          	sw	a5,0(a1)
                    transition_count[CORE_INVALID]++;
800012c4:	00e5a223          	sw	a4,4(a1)
                    state = CORE_INVALID;
800012c8:	00100793          	li	a5,1
                break;
            default:
                break;
        }
    }
    *instr = str;
800012cc:	00d52023          	sw	a3,0(a0)
    return state;
}
800012d0:	00078513          	mv	a0,a5
800012d4:	00008067          	ret
800012d8:	fd078793          	addi	a5,a5,-48
800012dc:	0ff7f793          	zext.b	a5,a5
800012e0:	00900613          	li	a2,9
800012e4:	fcf664e3          	bltu	a2,a5,800012ac <core_state_transition+0x2c>
                transition_count[CORE_START]++;
800012e8:	0005a603          	lw	a2,0(a1)
    for (; *str && state != CORE_INVALID; str++)
800012ec:	00168793          	addi	a5,a3,1
                transition_count[CORE_START]++;
800012f0:	00160613          	addi	a2,a2,1
800012f4:	00c5a023          	sw	a2,0(a1)
    for (; *str && state != CORE_INVALID; str++)
800012f8:	0016c683          	lbu	a3,1(a3)
800012fc:	1e068a63          	beqz	a3,800014f0 <core_state_transition+0x270>
        if (NEXT_SYMBOL == ',') /* end of this input */
80001300:	20e68663          	beq	a3,a4,8000150c <core_state_transition+0x28c>
                if (NEXT_SYMBOL == '.')
80001304:	02e00713          	li	a4,46
80001308:	04e68663          	beq	a3,a4,80001354 <core_state_transition+0xd4>
    retval = ((c >= '0') & (c <= '9')) ? 1 : 0;
8000130c:	fd068693          	addi	a3,a3,-48
80001310:	0ff6f693          	zext.b	a3,a3
80001314:	00900713          	li	a4,9
80001318:	02d77463          	bgeu	a4,a3,80001340 <core_state_transition+0xc0>
                    transition_count[CORE_INT]++;
8000131c:	0105a703          	lw	a4,16(a1)
    for (; *str && state != CORE_INVALID; str++)
80001320:	00178693          	addi	a3,a5,1
                    state = CORE_INVALID;
80001324:	00100793          	li	a5,1
                    transition_count[CORE_INT]++;
80001328:	00f70733          	add	a4,a4,a5
8000132c:	00e5a823          	sw	a4,16(a1)
    *instr = str;
80001330:	00d52023          	sw	a3,0(a0)
}
80001334:	00078513          	mv	a0,a5
80001338:	00008067          	ret
                    transition_count[CORE_S1]++;
8000133c:	00c5a423          	sw	a2,8(a1)
    for (; *str && state != CORE_INVALID; str++)
80001340:	0017c683          	lbu	a3,1(a5)
80001344:	00178793          	addi	a5,a5,1
80001348:	1a068463          	beqz	a3,800014f0 <core_state_transition+0x270>
        if (NEXT_SYMBOL == ',') /* end of this input */
8000134c:	02c00713          	li	a4,44
80001350:	fb1ff06f          	j	80001300 <core_state_transition+0x80>
                    transition_count[CORE_INT]++;
80001354:	0105a703          	lw	a4,16(a1)
80001358:	00170713          	addi	a4,a4,1
8000135c:	00e5a823          	sw	a4,16(a1)
    for (; *str && state != CORE_INVALID; str++)
80001360:	0017c683          	lbu	a3,1(a5)
80001364:	00178793          	addi	a5,a5,1
80001368:	12068063          	beqz	a3,80001488 <core_state_transition+0x208>
        if (NEXT_SYMBOL == ',') /* end of this input */
8000136c:	02c00713          	li	a4,44
80001370:	18e68663          	beq	a3,a4,800014fc <core_state_transition+0x27c>
                if (NEXT_SYMBOL == 'E' || NEXT_SYMBOL == 'e')
80001374:	0df6f713          	andi	a4,a3,223
80001378:	04500613          	li	a2,69
8000137c:	0cc71663          	bne	a4,a2,80001448 <core_state_transition+0x1c8>
                    transition_count[CORE_FLOAT]++;
80001380:	0145a703          	lw	a4,20(a1)
    for (; *str && state != CORE_INVALID; str++)
80001384:	00178693          	addi	a3,a5,1
                    transition_count[CORE_FLOAT]++;
80001388:	00170713          	addi	a4,a4,1
8000138c:	00e5aa23          	sw	a4,20(a1)
    for (; *str && state != CORE_INVALID; str++)
80001390:	0017c703          	lbu	a4,1(a5)
80001394:	18070863          	beqz	a4,80001524 <core_state_transition+0x2a4>
        if (NEXT_SYMBOL == ',') /* end of this input */
80001398:	02c00613          	li	a2,44
8000139c:	18c70863          	beq	a4,a2,8000152c <core_state_transition+0x2ac>
                    transition_count[CORE_S2]++;
800013a0:	00c5a683          	lw	a3,12(a1)
                if (NEXT_SYMBOL == '+' || NEXT_SYMBOL == '-')
800013a4:	fd570713          	addi	a4,a4,-43
800013a8:	0fd77713          	andi	a4,a4,253
                    transition_count[CORE_S2]++;
800013ac:	00168693          	addi	a3,a3,1
800013b0:	00d5a623          	sw	a3,12(a1)
                if (NEXT_SYMBOL == '+' || NEXT_SYMBOL == '-')
800013b4:	08071463          	bnez	a4,8000143c <core_state_transition+0x1bc>
    for (; *str && state != CORE_INVALID; str++)
800013b8:	0027c703          	lbu	a4,2(a5)
800013bc:	00278693          	addi	a3,a5,2
800013c0:	14070e63          	beqz	a4,8000151c <core_state_transition+0x29c>
        if (NEXT_SYMBOL == ',') /* end of this input */
800013c4:	18c70463          	beq	a4,a2,8000154c <core_state_transition+0x2cc>
                    transition_count[CORE_EXPONENT]++;
800013c8:	0185a603          	lw	a2,24(a1)
    retval = ((c >= '0') & (c <= '9')) ? 1 : 0;
800013cc:	fd070713          	addi	a4,a4,-48
800013d0:	0ff77713          	zext.b	a4,a4
                    transition_count[CORE_EXPONENT]++;
800013d4:	00160613          	addi	a2,a2,1
    retval = ((c >= '0') & (c <= '9')) ? 1 : 0;
800013d8:	00900813          	li	a6,9
                    transition_count[CORE_EXPONENT]++;
800013dc:	00c5ac23          	sw	a2,24(a1)
    retval = ((c >= '0') & (c <= '9')) ? 1 : 0;
800013e0:	00e87c63          	bgeu	a6,a4,800013f8 <core_state_transition+0x178>
    for (; *str && state != CORE_INVALID; str++)
800013e4:	00378693          	addi	a3,a5,3
                    state = CORE_INVALID;
800013e8:	00100793          	li	a5,1
    *instr = str;
800013ec:	00d52023          	sw	a3,0(a0)
}
800013f0:	00078513          	mv	a0,a5
800013f4:	00008067          	ret
    for (; *str && state != CORE_INVALID; str++)
800013f8:	00068613          	mv	a2,a3
800013fc:	0016c703          	lbu	a4,1(a3)
80001400:	00168693          	addi	a3,a3,1
        if (NEXT_SYMBOL == ',') /* end of this input */
80001404:	02c00893          	li	a7,44
    retval = ((c >= '0') & (c <= '9')) ? 1 : 0;
80001408:	fd070793          	addi	a5,a4,-48
8000140c:	0ff7f793          	zext.b	a5,a5
    for (; *str && state != CORE_INVALID; str++)
80001410:	12070463          	beqz	a4,80001538 <core_state_transition+0x2b8>
        if (NEXT_SYMBOL == ',') /* end of this input */
80001414:	13170663          	beq	a4,a7,80001540 <core_state_transition+0x2c0>
    retval = ((c >= '0') & (c <= '9')) ? 1 : 0;
80001418:	fef870e3          	bgeu	a6,a5,800013f8 <core_state_transition+0x178>
                    transition_count[CORE_INVALID]++;
8000141c:	0045a703          	lw	a4,4(a1)
                    state = CORE_INVALID;
80001420:	00100793          	li	a5,1
    for (; *str && state != CORE_INVALID; str++)
80001424:	00260693          	addi	a3,a2,2
                    transition_count[CORE_INVALID]++;
80001428:	00f70733          	add	a4,a4,a5
8000142c:	00e5a223          	sw	a4,4(a1)
    *instr = str;
80001430:	00d52023          	sw	a3,0(a0)
}
80001434:	00078513          	mv	a0,a5
80001438:	00008067          	ret
    for (; *str && state != CORE_INVALID; str++)
8000143c:	00278693          	addi	a3,a5,2
                    state = CORE_INVALID;
80001440:	00100793          	li	a5,1
80001444:	e89ff06f          	j	800012cc <core_state_transition+0x4c>
    retval = ((c >= '0') & (c <= '9')) ? 1 : 0;
80001448:	fd068693          	addi	a3,a3,-48
8000144c:	0ff6f693          	zext.b	a3,a3
80001450:	00900713          	li	a4,9
80001454:	f0d776e3          	bgeu	a4,a3,80001360 <core_state_transition+0xe0>
                    transition_count[CORE_FLOAT]++;
80001458:	0145a703          	lw	a4,20(a1)
    for (; *str && state != CORE_INVALID; str++)
8000145c:	00178693          	addi	a3,a5,1
                    state = CORE_INVALID;
80001460:	00100793          	li	a5,1
                    transition_count[CORE_FLOAT]++;
80001464:	00f70733          	add	a4,a4,a5
80001468:	00e5aa23          	sw	a4,20(a1)
    for (; *str && state != CORE_INVALID; str++)
8000146c:	e61ff06f          	j	800012cc <core_state_transition+0x4c>
                transition_count[CORE_START]++;
80001470:	0005a603          	lw	a2,0(a1)
    for (; *str && state != CORE_INVALID; str++)
80001474:	00168793          	addi	a5,a3,1
                transition_count[CORE_START]++;
80001478:	00160613          	addi	a2,a2,1
8000147c:	00c5a023          	sw	a2,0(a1)
    for (; *str && state != CORE_INVALID; str++)
80001480:	0016c683          	lbu	a3,1(a3)
80001484:	ee0696e3          	bnez	a3,80001370 <core_state_transition+0xf0>
80001488:	00078693          	mv	a3,a5
                    state = CORE_FLOAT;
8000148c:	00500793          	li	a5,5
80001490:	e3dff06f          	j	800012cc <core_state_transition+0x4c>
80001494:	00000793          	li	a5,0
            str++;
80001498:	00168693          	addi	a3,a3,1
            break;
8000149c:	e31ff06f          	j	800012cc <core_state_transition+0x4c>
                transition_count[CORE_START]++;
800014a0:	0005a603          	lw	a2,0(a1)
    for (; *str && state != CORE_INVALID; str++)
800014a4:	00168793          	addi	a5,a3,1
                transition_count[CORE_START]++;
800014a8:	00160613          	addi	a2,a2,1
800014ac:	00c5a023          	sw	a2,0(a1)
    for (; *str && state != CORE_INVALID; str++)
800014b0:	0016c303          	lbu	t1,1(a3)
800014b4:	0a030a63          	beqz	t1,80001568 <core_state_transition+0x2e8>
        if (NEXT_SYMBOL == ',') /* end of this input */
800014b8:	0ae30063          	beq	t1,a4,80001558 <core_state_transition+0x2d8>
                    transition_count[CORE_S1]++;
800014bc:	0085a603          	lw	a2,8(a1)
    retval = ((c >= '0') & (c <= '9')) ? 1 : 0;
800014c0:	fd030713          	addi	a4,t1,-48
800014c4:	0ff77713          	zext.b	a4,a4
800014c8:	00900893          	li	a7,9
                    transition_count[CORE_S1]++;
800014cc:	00160613          	addi	a2,a2,1
    retval = ((c >= '0') & (c <= '9')) ? 1 : 0;
800014d0:	e6e8f6e3          	bgeu	a7,a4,8000133c <core_state_transition+0xbc>
                else if (NEXT_SYMBOL == '.')
800014d4:	01030a63          	beq	t1,a6,800014e8 <core_state_transition+0x268>
                    transition_count[CORE_S1]++;
800014d8:	00c5a423          	sw	a2,8(a1)
    for (; *str && state != CORE_INVALID; str++)
800014dc:	00268693          	addi	a3,a3,2
                    state = CORE_INVALID;
800014e0:	00100793          	li	a5,1
800014e4:	de9ff06f          	j	800012cc <core_state_transition+0x4c>
                    transition_count[CORE_S1]++;
800014e8:	00c5a423          	sw	a2,8(a1)
800014ec:	e75ff06f          	j	80001360 <core_state_transition+0xe0>
    for (; *str && state != CORE_INVALID; str++)
800014f0:	00078693          	mv	a3,a5
800014f4:	00400793          	li	a5,4
800014f8:	dd5ff06f          	j	800012cc <core_state_transition+0x4c>
800014fc:	00078693          	mv	a3,a5
            str++;
80001500:	00168693          	addi	a3,a3,1
                    state = CORE_FLOAT;
80001504:	00500793          	li	a5,5
            break;
80001508:	dc5ff06f          	j	800012cc <core_state_transition+0x4c>
    for (; *str && state != CORE_INVALID; str++)
8000150c:	00078693          	mv	a3,a5
            str++;
80001510:	00168693          	addi	a3,a3,1
        if (NEXT_SYMBOL == ',') /* end of this input */
80001514:	00400793          	li	a5,4
            break;
80001518:	db5ff06f          	j	800012cc <core_state_transition+0x4c>
                    state = CORE_EXPONENT;
8000151c:	00600793          	li	a5,6
80001520:	dadff06f          	j	800012cc <core_state_transition+0x4c>
                    state = CORE_S2;
80001524:	00300793          	li	a5,3
80001528:	da5ff06f          	j	800012cc <core_state_transition+0x4c>
8000152c:	00300793          	li	a5,3
            str++;
80001530:	00168693          	addi	a3,a3,1
            break;
80001534:	d99ff06f          	j	800012cc <core_state_transition+0x4c>
                    state = CORE_SCIENTIFIC;
80001538:	00700793          	li	a5,7
8000153c:	d91ff06f          	j	800012cc <core_state_transition+0x4c>
80001540:	00700793          	li	a5,7
            str++;
80001544:	00168693          	addi	a3,a3,1
            break;
80001548:	d85ff06f          	j	800012cc <core_state_transition+0x4c>
                    state = CORE_EXPONENT;
8000154c:	00600793          	li	a5,6
            str++;
80001550:	00168693          	addi	a3,a3,1
            break;
80001554:	d79ff06f          	j	800012cc <core_state_transition+0x4c>
    for (; *str && state != CORE_INVALID; str++)
80001558:	00078693          	mv	a3,a5
            str++;
8000155c:	00168693          	addi	a3,a3,1
        if (NEXT_SYMBOL == ',') /* end of this input */
80001560:	00200793          	li	a5,2
            break;
80001564:	d69ff06f          	j	800012cc <core_state_transition+0x4c>
    for (; *str && state != CORE_INVALID; str++)
80001568:	00078693          	mv	a3,a5
8000156c:	00200793          	li	a5,2
80001570:	d5dff06f          	j	800012cc <core_state_transition+0x4c>

80001574 <core_bench_state>:
{
80001574:	f8010113          	addi	sp,sp,-128
80001578:	06812c23          	sw	s0,120(sp)
8000157c:	06912a23          	sw	s1,116(sp)
80001580:	07212823          	sw	s2,112(sp)
80001584:	07312623          	sw	s3,108(sp)
80001588:	07412423          	sw	s4,104(sp)
8000158c:	07512223          	sw	s5,100(sp)
80001590:	07612023          	sw	s6,96(sp)
80001594:	05712e23          	sw	s7,92(sp)
80001598:	05812c23          	sw	s8,88(sp)
8000159c:	06112e23          	sw	ra,124(sp)
800015a0:	00058493          	mv	s1,a1
    while (*p != 0)
800015a4:	0005c583          	lbu	a1,0(a1)
        final_counts[i] = track_counts[i] = 0;
800015a8:	03010993          	addi	s3,sp,48
800015ac:	01010413          	addi	s0,sp,16
800015b0:	02012823          	sw	zero,48(sp)
800015b4:	00012823          	sw	zero,16(sp)
    ee_u8 *p = memblock;
800015b8:	00912623          	sw	s1,12(sp)
        final_counts[i] = track_counts[i] = 0;
800015bc:	0009a223          	sw	zero,4(s3)
800015c0:	0009a423          	sw	zero,8(s3)
800015c4:	0009a623          	sw	zero,12(s3)
800015c8:	0009a823          	sw	zero,16(s3)
800015cc:	0009aa23          	sw	zero,20(s3)
800015d0:	0009ac23          	sw	zero,24(s3)
800015d4:	0009ae23          	sw	zero,28(s3)
800015d8:	00042223          	sw	zero,4(s0)
800015dc:	00042423          	sw	zero,8(s0)
800015e0:	00042623          	sw	zero,12(s0)
800015e4:	00042823          	sw	zero,16(s0)
800015e8:	00042a23          	sw	zero,20(s0)
800015ec:	00042c23          	sw	zero,24(s0)
800015f0:	00042e23          	sw	zero,28(s0)
{
800015f4:	00078913          	mv	s2,a5
800015f8:	00050c13          	mv	s8,a0
800015fc:	00060b93          	mv	s7,a2
80001600:	00068b13          	mv	s6,a3
80001604:	00070a93          	mv	s5,a4
80001608:	00c10a13          	addi	s4,sp,12
    while (*p != 0)
8000160c:	10058863          	beqz	a1,8000171c <core_bench_state+0x1a8>
        enum CORE_STATE fstate = core_state_transition(&p, track_counts);
80001610:	00098593          	mv	a1,s3
80001614:	000a0513          	mv	a0,s4
80001618:	c69ff0ef          	jal	80001280 <core_state_transition>
        final_counts[fstate]++;
8000161c:	00251713          	slli	a4,a0,0x2
80001620:	00870733          	add	a4,a4,s0
    while (*p != 0)
80001624:	00c12683          	lw	a3,12(sp)
        final_counts[fstate]++;
80001628:	00072783          	lw	a5,0(a4)
    while (*p != 0)
8000162c:	0006c683          	lbu	a3,0(a3)
        final_counts[fstate]++;
80001630:	00178793          	addi	a5,a5,1
80001634:	00f72023          	sw	a5,0(a4)
    while (*p != 0)
80001638:	fc069ce3          	bnez	a3,80001610 <core_bench_state+0x9c>
    p = memblock;
8000163c:	00912623          	sw	s1,12(sp)
    while (p < (memblock + blksize))
80001640:	01848c33          	add	s8,s1,s8
80001644:	0384f863          	bgeu	s1,s8,80001674 <core_bench_state+0x100>
80001648:	00048793          	mv	a5,s1
        if (*p != ',')
8000164c:	02c00613          	li	a2,44
80001650:	0007c703          	lbu	a4,0(a5)
            *p ^= (ee_u8)seed1;
80001654:	017746b3          	xor	a3,a4,s7
        if (*p != ',')
80001658:	00c70463          	beq	a4,a2,80001660 <core_bench_state+0xec>
            *p ^= (ee_u8)seed1;
8000165c:	00d78023          	sb	a3,0(a5)
    while (p < (memblock + blksize))
80001660:	015787b3          	add	a5,a5,s5
80001664:	ff87e6e3          	bltu	a5,s8,80001650 <core_bench_state+0xdc>
    while (*p != 0)
80001668:	0004c783          	lbu	a5,0(s1)
8000166c:	00c10a13          	addi	s4,sp,12
80001670:	02078863          	beqz	a5,800016a0 <core_bench_state+0x12c>
        enum CORE_STATE fstate = core_state_transition(&p, track_counts);
80001674:	00098593          	mv	a1,s3
80001678:	000a0513          	mv	a0,s4
8000167c:	c05ff0ef          	jal	80001280 <core_state_transition>
        final_counts[fstate]++;
80001680:	00251713          	slli	a4,a0,0x2
80001684:	00870733          	add	a4,a4,s0
    while (*p != 0)
80001688:	00c12683          	lw	a3,12(sp)
        final_counts[fstate]++;
8000168c:	00072783          	lw	a5,0(a4)
    while (*p != 0)
80001690:	0006c683          	lbu	a3,0(a3)
        final_counts[fstate]++;
80001694:	00178793          	addi	a5,a5,1
80001698:	00f72023          	sw	a5,0(a4)
    while (*p != 0)
8000169c:	fc069ce3          	bnez	a3,80001674 <core_bench_state+0x100>
        if (*p != ',')
800016a0:	02c00693          	li	a3,44
    while (p < (memblock + blksize))
800016a4:	0184fe63          	bgeu	s1,s8,800016c0 <core_bench_state+0x14c>
        if (*p != ',')
800016a8:	0004c783          	lbu	a5,0(s1)
            *p ^= (ee_u8)seed2;
800016ac:	0167c733          	xor	a4,a5,s6
        if (*p != ',')
800016b0:	00d78463          	beq	a5,a3,800016b8 <core_bench_state+0x144>
            *p ^= (ee_u8)seed2;
800016b4:	00e48023          	sb	a4,0(s1)
    while (p < (memblock + blksize))
800016b8:	015484b3          	add	s1,s1,s5
800016bc:	ff84e6e3          	bltu	s1,s8,800016a8 <core_bench_state+0x134>
    for (i = 0; i < NUM_CORE_STATES; i++)
800016c0:	00098493          	mv	s1,s3
        crc = crcu32(final_counts[i], crc);
800016c4:	00042503          	lw	a0,0(s0)
800016c8:	00090593          	mv	a1,s2
    for (i = 0; i < NUM_CORE_STATES; i++)
800016cc:	00440413          	addi	s0,s0,4
        crc = crcu32(final_counts[i], crc);
800016d0:	414000ef          	jal	80001ae4 <crcu32>
800016d4:	00050593          	mv	a1,a0
        crc = crcu32(track_counts[i], crc);
800016d8:	0004a503          	lw	a0,0(s1)
    for (i = 0; i < NUM_CORE_STATES; i++)
800016dc:	00448493          	addi	s1,s1,4
        crc = crcu32(track_counts[i], crc);
800016e0:	404000ef          	jal	80001ae4 <crcu32>
800016e4:	00050913          	mv	s2,a0
    for (i = 0; i < NUM_CORE_STATES; i++)
800016e8:	fc899ee3          	bne	s3,s0,800016c4 <core_bench_state+0x150>
}
800016ec:	07c12083          	lw	ra,124(sp)
800016f0:	07812403          	lw	s0,120(sp)
800016f4:	07412483          	lw	s1,116(sp)
800016f8:	07012903          	lw	s2,112(sp)
800016fc:	06c12983          	lw	s3,108(sp)
80001700:	06812a03          	lw	s4,104(sp)
80001704:	06412a83          	lw	s5,100(sp)
80001708:	06012b03          	lw	s6,96(sp)
8000170c:	05c12b83          	lw	s7,92(sp)
80001710:	05812c03          	lw	s8,88(sp)
80001714:	08010113          	addi	sp,sp,128
80001718:	00008067          	ret
    while (p < (memblock + blksize))
8000171c:	00a48c33          	add	s8,s1,a0
80001720:	f384e4e3          	bltu	s1,s8,80001648 <core_bench_state+0xd4>
80001724:	f9dff06f          	j	800016c0 <core_bench_state+0x14c>

80001728 <get_seed_32>:
extern volatile ee_s32 seed5_volatile;
ee_s32
get_seed_32(int i)
{
    ee_s32 retval;
    switch (i)
80001728:	00500793          	li	a5,5
8000172c:	04a7ec63          	bltu	a5,a0,80001784 <get_seed_32+0x5c>
80001730:	800037b7          	lui	a5,0x80003
80001734:	6e478793          	addi	a5,a5,1764 # 800036e4 <errpat+0x10>
80001738:	00251513          	slli	a0,a0,0x2
8000173c:	00f50533          	add	a0,a0,a5
80001740:	00052783          	lw	a5,0(a0)
80001744:	00078067          	jr	a5
            break;
        case 4:
            retval = seed4_volatile;
            break;
        case 5:
            retval = seed5_volatile;
80001748:	800047b7          	lui	a5,0x80004
8000174c:	9587a503          	lw	a0,-1704(a5) # 80003958 <seed5_volatile>
            break;
80001750:	00008067          	ret
            retval = seed1_volatile;
80001754:	800047b7          	lui	a5,0x80004
80001758:	9607a503          	lw	a0,-1696(a5) # 80003960 <seed1_volatile>
            break;
8000175c:	00008067          	ret
            retval = seed2_volatile;
80001760:	800047b7          	lui	a5,0x80004
80001764:	95c7a503          	lw	a0,-1700(a5) # 8000395c <seed2_volatile>
            break;
80001768:	00008067          	ret
            retval = seed3_volatile;
8000176c:	800047b7          	lui	a5,0x80004
80001770:	9807a503          	lw	a0,-1664(a5) # 80003980 <seed3_volatile>
            break;
80001774:	00008067          	ret
            retval = seed4_volatile;
80001778:	800047b7          	lui	a5,0x80004
8000177c:	97c7a503          	lw	a0,-1668(a5) # 8000397c <seed4_volatile>
            break;
80001780:	00008067          	ret
    switch (i)
80001784:	00000513          	li	a0,0
        default:
            retval = 0;
            break;
    }
    return retval;
}
80001788:	00008067          	ret

8000178c <crcu8>:
{
    ee_u8 i = 0, x16 = 0, carry = 0;

    for (i = 0; i < 8; i++)
    {
        x16 = (ee_u8)((data & 1) ^ ((ee_u8)crc & 1));
8000178c:	0ff5f713          	zext.b	a4,a1
80001790:	00871713          	slli	a4,a4,0x8
80001794:	0085d593          	srli	a1,a1,0x8
80001798:	000017b7          	lui	a5,0x1
8000179c:	fffff337          	lui	t1,0xfffff
800017a0:	00b76733          	or	a4,a4,a1
800017a4:	f0f78793          	addi	a5,a5,-241 # f0f <__stack_size-0x1fff0f1>
800017a8:	0f030313          	addi	t1,t1,240 # fffff0f0 <_sp+0x77fff0f0>
        if (carry)
            crc |= 0x8000;
        else
            crc &= 0x7fff;
    }
    return crc;
800017ac:	00f77633          	and	a2,a4,a5
800017b0:	00677733          	and	a4,a4,t1
800017b4:	00475713          	srli	a4,a4,0x4
800017b8:	00461613          	slli	a2,a2,0x4
800017bc:	00e66633          	or	a2,a2,a4
800017c0:	ffffd8b7          	lui	a7,0xffffd
800017c4:	00003737          	lui	a4,0x3
800017c8:	33370713          	addi	a4,a4,819 # 3333 <__stack_size-0x1ffcccd>
800017cc:	ccc88893          	addi	a7,a7,-820 # ffffcccc <_sp+0x77ffcccc>
800017d0:	00f57693          	andi	a3,a0,15
800017d4:	00e675b3          	and	a1,a2,a4
800017d8:	00455513          	srli	a0,a0,0x4
800017dc:	01167633          	and	a2,a2,a7
800017e0:	00469693          	slli	a3,a3,0x4
800017e4:	00a6e6b3          	or	a3,a3,a0
800017e8:	00265613          	srli	a2,a2,0x2
800017ec:	00259593          	slli	a1,a1,0x2
800017f0:	00c5e5b3          	or	a1,a1,a2
800017f4:	00005537          	lui	a0,0x5
800017f8:	0336f613          	andi	a2,a3,51
800017fc:	ffffb837          	lui	a6,0xffffb
80001800:	0cc6f693          	andi	a3,a3,204
80001804:	aaa80813          	addi	a6,a6,-1366 # ffffaaaa <_sp+0x77ffaaaa>
80001808:	0026de13          	srli	t3,a3,0x2
8000180c:	55550513          	addi	a0,a0,1365 # 5555 <__stack_size-0x1ffaaab>
80001810:	00261613          	slli	a2,a2,0x2
80001814:	00a5f6b3          	and	a3,a1,a0
80001818:	01c66633          	or	a2,a2,t3
8000181c:	0105f5b3          	and	a1,a1,a6
80001820:	0015d593          	srli	a1,a1,0x1
80001824:	00169693          	slli	a3,a3,0x1
80001828:	05567e93          	andi	t4,a2,85
8000182c:	0aa67613          	andi	a2,a2,170
80001830:	00b6ee33          	or	t3,a3,a1
80001834:	001e9e93          	slli	t4,t4,0x1
80001838:	00165613          	srli	a2,a2,0x1
8000183c:	008e5e13          	srli	t3,t3,0x8
80001840:	00cee633          	or	a2,t4,a2
80001844:	00ce4633          	xor	a2,t3,a2
80001848:	80003e37          	lui	t3,0x80003
8000184c:	6fce0e13          	addi	t3,t3,1788 # 800036fc <errpat+0x28>
80001850:	00161613          	slli	a2,a2,0x1
80001854:	01c60633          	add	a2,a2,t3
80001858:	00065603          	lhu	a2,0(a2)
8000185c:	00b6e6b3          	or	a3,a3,a1
80001860:	00869693          	slli	a3,a3,0x8
80001864:	00d646b3          	xor	a3,a2,a3
80001868:	01069593          	slli	a1,a3,0x10
8000186c:	0ff67613          	zext.b	a2,a2
80001870:	0185d693          	srli	a3,a1,0x18
80001874:	00861613          	slli	a2,a2,0x8
80001878:	00d66633          	or	a2,a2,a3
8000187c:	00f676b3          	and	a3,a2,a5
80001880:	00667633          	and	a2,a2,t1
80001884:	00465613          	srli	a2,a2,0x4
80001888:	00469693          	slli	a3,a3,0x4
8000188c:	00c6e6b3          	or	a3,a3,a2
80001890:	00e6f7b3          	and	a5,a3,a4
80001894:	0116f6b3          	and	a3,a3,a7
80001898:	0026d693          	srli	a3,a3,0x2
8000189c:	00279793          	slli	a5,a5,0x2
800018a0:	00d7e7b3          	or	a5,a5,a3
800018a4:	00a7f533          	and	a0,a5,a0
800018a8:	0107f7b3          	and	a5,a5,a6
800018ac:	0017d793          	srli	a5,a5,0x1
800018b0:	00151513          	slli	a0,a0,0x1
}
800018b4:	00f56533          	or	a0,a0,a5
800018b8:	00008067          	ret

800018bc <crcu16>:
ee_u16
crcu16(ee_u16 newval, ee_u16 crc)
{
    crc = crcu8((ee_u8)(newval), crc);
800018bc:	0ff5f793          	zext.b	a5,a1
800018c0:	00879793          	slli	a5,a5,0x8
800018c4:	0085d593          	srli	a1,a1,0x8
800018c8:	00001737          	lui	a4,0x1
800018cc:	fffff337          	lui	t1,0xfffff
800018d0:	0f030313          	addi	t1,t1,240 # fffff0f0 <_sp+0x77fff0f0>
    for (i = 0; i < 8; i++)
800018d4:	f0f70713          	addi	a4,a4,-241 # f0f <__stack_size-0x1fff0f1>
800018d8:	00b7e7b3          	or	a5,a5,a1
800018dc:	00e7f5b3          	and	a1,a5,a4
800018e0:	0067f7b3          	and	a5,a5,t1
800018e4:	0047d793          	srli	a5,a5,0x4
800018e8:	00459593          	slli	a1,a1,0x4
800018ec:	00f5e5b3          	or	a1,a1,a5
800018f0:	ffffd8b7          	lui	a7,0xffffd
800018f4:	000037b7          	lui	a5,0x3
800018f8:	ccc88893          	addi	a7,a7,-820 # ffffcccc <_sp+0x77ffcccc>
800018fc:	33378793          	addi	a5,a5,819 # 3333 <__stack_size-0x1ffcccd>
80001900:	00f57693          	andi	a3,a0,15
80001904:	0f057813          	andi	a6,a0,240
80001908:	00f5f633          	and	a2,a1,a5
8000190c:	00485813          	srli	a6,a6,0x4
80001910:	0115f5b3          	and	a1,a1,a7
80001914:	00469693          	slli	a3,a3,0x4
80001918:	0106e6b3          	or	a3,a3,a6
8000191c:	0025d593          	srli	a1,a1,0x2
80001920:	00261613          	slli	a2,a2,0x2
80001924:	00b66633          	or	a2,a2,a1
80001928:	0336fe13          	andi	t3,a3,51
8000192c:	000055b7          	lui	a1,0x5
80001930:	0cc6f693          	andi	a3,a3,204
80001934:	ffffb837          	lui	a6,0xffffb
80001938:	55558593          	addi	a1,a1,1365 # 5555 <__stack_size-0x1ffaaab>
8000193c:	aaa80813          	addi	a6,a6,-1366 # ffffaaaa <_sp+0x77ffaaaa>
80001940:	0026de93          	srli	t4,a3,0x2
80001944:	002e1e13          	slli	t3,t3,0x2
80001948:	00b676b3          	and	a3,a2,a1
8000194c:	01de6e33          	or	t3,t3,t4
80001950:	01067633          	and	a2,a2,a6
80001954:	00169693          	slli	a3,a3,0x1
80001958:	00165613          	srli	a2,a2,0x1
8000195c:	055e7f13          	andi	t5,t3,85
80001960:	0aae7e13          	andi	t3,t3,170
80001964:	00c6eeb3          	or	t4,a3,a2
80001968:	001f1f13          	slli	t5,t5,0x1
8000196c:	001e5e13          	srli	t3,t3,0x1
80001970:	01cf6e33          	or	t3,t5,t3
80001974:	008ede93          	srli	t4,t4,0x8
80001978:	01ceceb3          	xor	t4,t4,t3
8000197c:	80003e37          	lui	t3,0x80003
80001980:	6fce0e13          	addi	t3,t3,1788 # 800036fc <errpat+0x28>
80001984:	00c6e633          	or	a2,a3,a2
80001988:	001e9693          	slli	a3,t4,0x1
8000198c:	01c686b3          	add	a3,a3,t3
80001990:	0006d683          	lhu	a3,0(a3)
80001994:	00861613          	slli	a2,a2,0x8
    crc = crcu8((ee_u8)((newval) >> 8), crc);
80001998:	00855513          	srli	a0,a0,0x8
8000199c:	00c6c633          	xor	a2,a3,a2
800019a0:	01061e93          	slli	t4,a2,0x10
800019a4:	0ff6f693          	zext.b	a3,a3
800019a8:	018ed613          	srli	a2,t4,0x18
800019ac:	00869693          	slli	a3,a3,0x8
800019b0:	00c6e6b3          	or	a3,a3,a2
800019b4:	00e6f633          	and	a2,a3,a4
800019b8:	0066f6b3          	and	a3,a3,t1
800019bc:	0046d693          	srli	a3,a3,0x4
800019c0:	00461613          	slli	a2,a2,0x4
800019c4:	00d66633          	or	a2,a2,a3
800019c8:	00f676b3          	and	a3,a2,a5
800019cc:	01167633          	and	a2,a2,a7
800019d0:	00265613          	srli	a2,a2,0x2
800019d4:	00269693          	slli	a3,a3,0x2
800019d8:	00c6e6b3          	or	a3,a3,a2
800019dc:	00b6f633          	and	a2,a3,a1
800019e0:	0106f6b3          	and	a3,a3,a6
800019e4:	00161613          	slli	a2,a2,0x1
800019e8:	0016d693          	srli	a3,a3,0x1
800019ec:	00d666b3          	or	a3,a2,a3
800019f0:	0ff6f613          	zext.b	a2,a3
800019f4:	00861613          	slli	a2,a2,0x8
800019f8:	0086d693          	srli	a3,a3,0x8
800019fc:	00d66633          	or	a2,a2,a3
80001a00:	00e676b3          	and	a3,a2,a4
80001a04:	00667eb3          	and	t4,a2,t1
80001a08:	004ede93          	srli	t4,t4,0x4
80001a0c:	00f57613          	andi	a2,a0,15
80001a10:	00469693          	slli	a3,a3,0x4
80001a14:	01d6e6b3          	or	a3,a3,t4
80001a18:	00455513          	srli	a0,a0,0x4
80001a1c:	00461613          	slli	a2,a2,0x4
80001a20:	00a66633          	or	a2,a2,a0
80001a24:	0116feb3          	and	t4,a3,a7
80001a28:	00f6f533          	and	a0,a3,a5
80001a2c:	002ede93          	srli	t4,t4,0x2
80001a30:	03367693          	andi	a3,a2,51
80001a34:	00251513          	slli	a0,a0,0x2
80001a38:	0cc67613          	andi	a2,a2,204
80001a3c:	01d56533          	or	a0,a0,t4
80001a40:	00265613          	srli	a2,a2,0x2
80001a44:	00269693          	slli	a3,a3,0x2
80001a48:	00c6e6b3          	or	a3,a3,a2
80001a4c:	00b57633          	and	a2,a0,a1
80001a50:	01057533          	and	a0,a0,a6
80001a54:	0556ff13          	andi	t5,a3,85
80001a58:	00161613          	slli	a2,a2,0x1
80001a5c:	00155513          	srli	a0,a0,0x1
80001a60:	0aa6f693          	andi	a3,a3,170
80001a64:	00a66eb3          	or	t4,a2,a0
80001a68:	0016d693          	srli	a3,a3,0x1
80001a6c:	001f1f13          	slli	t5,t5,0x1
80001a70:	00df6f33          	or	t5,t5,a3
80001a74:	008ed693          	srli	a3,t4,0x8
80001a78:	01e6c6b3          	xor	a3,a3,t5
80001a7c:	00169693          	slli	a3,a3,0x1
80001a80:	01c686b3          	add	a3,a3,t3
80001a84:	0006d683          	lhu	a3,0(a3)
80001a88:	008e9613          	slli	a2,t4,0x8
80001a8c:	00c6c633          	xor	a2,a3,a2
80001a90:	01061513          	slli	a0,a2,0x10
80001a94:	0ff6f693          	zext.b	a3,a3
80001a98:	01855613          	srli	a2,a0,0x18
80001a9c:	00869693          	slli	a3,a3,0x8
80001aa0:	00c6e6b3          	or	a3,a3,a2
80001aa4:	00e6f733          	and	a4,a3,a4
80001aa8:	0066f6b3          	and	a3,a3,t1
80001aac:	0046d693          	srli	a3,a3,0x4
80001ab0:	00471713          	slli	a4,a4,0x4
80001ab4:	00d76733          	or	a4,a4,a3
80001ab8:	00f777b3          	and	a5,a4,a5
80001abc:	01177733          	and	a4,a4,a7
80001ac0:	00275713          	srli	a4,a4,0x2
80001ac4:	00279793          	slli	a5,a5,0x2
80001ac8:	00e7e7b3          	or	a5,a5,a4
80001acc:	00b7f533          	and	a0,a5,a1
80001ad0:	0107f7b3          	and	a5,a5,a6
80001ad4:	0017d793          	srli	a5,a5,0x1
80001ad8:	00151513          	slli	a0,a0,0x1
    return crc;
}
80001adc:	00f56533          	or	a0,a0,a5
80001ae0:	00008067          	ret

80001ae4 <crcu32>:
ee_u16
crcu32(ee_u32 newval, ee_u16 crc)
{
    crc = crc16((ee_s16)newval, crc);
80001ae4:	0ff5f793          	zext.b	a5,a1
80001ae8:	00879793          	slli	a5,a5,0x8
80001aec:	0085d593          	srli	a1,a1,0x8
80001af0:	00001737          	lui	a4,0x1
80001af4:	fffff8b7          	lui	a7,0xfffff
80001af8:	0f088893          	addi	a7,a7,240 # fffff0f0 <_sp+0x77fff0f0>
    crc = crc16((ee_s16)(newval >> 16), crc);
80001afc:	f0f70713          	addi	a4,a4,-241 # f0f <__stack_size-0x1fff0f1>
80001b00:	00b7e7b3          	or	a5,a5,a1
80001b04:	00e7f6b3          	and	a3,a5,a4
80001b08:	0117f7b3          	and	a5,a5,a7
80001b0c:	0047d793          	srli	a5,a5,0x4
80001b10:	00469693          	slli	a3,a3,0x4
80001b14:	00f6e6b3          	or	a3,a3,a5
80001b18:	ffffd837          	lui	a6,0xffffd
80001b1c:	000037b7          	lui	a5,0x3
80001b20:	ccc80813          	addi	a6,a6,-820 # ffffcccc <_sp+0x77ffcccc>
80001b24:	33378793          	addi	a5,a5,819 # 3333 <__stack_size-0x1ffcccd>
80001b28:	00f57613          	andi	a2,a0,15
80001b2c:	0f057593          	andi	a1,a0,240
80001b30:	00f6f333          	and	t1,a3,a5
80001b34:	0045d593          	srli	a1,a1,0x4
80001b38:	0106f6b3          	and	a3,a3,a6
80001b3c:	00461613          	slli	a2,a2,0x4
80001b40:	00b66633          	or	a2,a2,a1
80001b44:	0026d693          	srli	a3,a3,0x2
80001b48:	00231313          	slli	t1,t1,0x2
80001b4c:	00d36333          	or	t1,t1,a3
80001b50:	03367e13          	andi	t3,a2,51
80001b54:	000056b7          	lui	a3,0x5
80001b58:	0cc67613          	andi	a2,a2,204
80001b5c:	ffffb5b7          	lui	a1,0xffffb
80001b60:	55568693          	addi	a3,a3,1365 # 5555 <__stack_size-0x1ffaaab>
80001b64:	aaa58593          	addi	a1,a1,-1366 # ffffaaaa <_sp+0x77ffaaaa>
80001b68:	00265e93          	srli	t4,a2,0x2
80001b6c:	002e1e13          	slli	t3,t3,0x2
80001b70:	00d37633          	and	a2,t1,a3
80001b74:	01de6e33          	or	t3,t3,t4
80001b78:	00b37333          	and	t1,t1,a1
80001b7c:	00161613          	slli	a2,a2,0x1
80001b80:	00135313          	srli	t1,t1,0x1
80001b84:	055e7f13          	andi	t5,t3,85
80001b88:	0aae7e13          	andi	t3,t3,170
80001b8c:	00666eb3          	or	t4,a2,t1
80001b90:	001f1f13          	slli	t5,t5,0x1
80001b94:	001e5e13          	srli	t3,t3,0x1
80001b98:	01cf6e33          	or	t3,t5,t3
80001b9c:	008ede93          	srli	t4,t4,0x8
80001ba0:	01ceceb3          	xor	t4,t4,t3
80001ba4:	00666e33          	or	t3,a2,t1
80001ba8:	80003337          	lui	t1,0x80003
80001bac:	6fc30313          	addi	t1,t1,1788 # 800036fc <errpat+0x28>
80001bb0:	001e9613          	slli	a2,t4,0x1
80001bb4:	00660633          	add	a2,a2,t1
80001bb8:	00065603          	lhu	a2,0(a2)
80001bbc:	008e1e13          	slli	t3,t3,0x8
    crc = crcu8((ee_u8)((newval) >> 8), crc);
80001bc0:	00855f13          	srli	t5,a0,0x8
80001bc4:	01c64e33          	xor	t3,a2,t3
80001bc8:	010e1e93          	slli	t4,t3,0x10
80001bcc:	0ff67613          	zext.b	a2,a2
80001bd0:	018ede13          	srli	t3,t4,0x18
80001bd4:	00861613          	slli	a2,a2,0x8
80001bd8:	01c66633          	or	a2,a2,t3
80001bdc:	00e67e33          	and	t3,a2,a4
80001be0:	01167633          	and	a2,a2,a7
80001be4:	00465613          	srli	a2,a2,0x4
80001be8:	004e1e13          	slli	t3,t3,0x4
80001bec:	00ce6e33          	or	t3,t3,a2
80001bf0:	00fe7633          	and	a2,t3,a5
80001bf4:	010e7e33          	and	t3,t3,a6
80001bf8:	002e5e13          	srli	t3,t3,0x2
80001bfc:	00261613          	slli	a2,a2,0x2
80001c00:	01c66633          	or	a2,a2,t3
80001c04:	00d67e33          	and	t3,a2,a3
80001c08:	00b67633          	and	a2,a2,a1
80001c0c:	00165613          	srli	a2,a2,0x1
80001c10:	001e1e13          	slli	t3,t3,0x1
80001c14:	00ce6e33          	or	t3,t3,a2
80001c18:	0ffe7613          	zext.b	a2,t3
80001c1c:	00861613          	slli	a2,a2,0x8
80001c20:	008e5e13          	srli	t3,t3,0x8
80001c24:	01c66633          	or	a2,a2,t3
80001c28:	00e67eb3          	and	t4,a2,a4
80001c2c:	01167633          	and	a2,a2,a7
80001c30:	00465613          	srli	a2,a2,0x4
80001c34:	004e9e93          	slli	t4,t4,0x4
80001c38:	00ceeeb3          	or	t4,t4,a2
80001c3c:	00ff7613          	andi	a2,t5,15
80001c40:	0f0f7f13          	andi	t5,t5,240
80001c44:	00fefe33          	and	t3,t4,a5
80001c48:	004f5f13          	srli	t5,t5,0x4
80001c4c:	010efeb3          	and	t4,t4,a6
80001c50:	00461613          	slli	a2,a2,0x4
80001c54:	01e66633          	or	a2,a2,t5
80001c58:	002ede93          	srli	t4,t4,0x2
80001c5c:	002e1e13          	slli	t3,t3,0x2
80001c60:	01de6e33          	or	t3,t3,t4
80001c64:	03367e93          	andi	t4,a2,51
80001c68:	0cc67613          	andi	a2,a2,204
80001c6c:	00265f13          	srli	t5,a2,0x2
80001c70:	002e9e93          	slli	t4,t4,0x2
80001c74:	00de7633          	and	a2,t3,a3
80001c78:	01eeeeb3          	or	t4,t4,t5
80001c7c:	00be7e33          	and	t3,t3,a1
80001c80:	00161613          	slli	a2,a2,0x1
80001c84:	001e5e13          	srli	t3,t3,0x1
80001c88:	055eff93          	andi	t6,t4,85
80001c8c:	0aaefe93          	andi	t4,t4,170
80001c90:	01c66f33          	or	t5,a2,t3
80001c94:	001f9f93          	slli	t6,t6,0x1
80001c98:	001ede93          	srli	t4,t4,0x1
80001c9c:	008f5f13          	srli	t5,t5,0x8
80001ca0:	01dfeeb3          	or	t4,t6,t4
80001ca4:	01df4eb3          	xor	t4,t5,t4
80001ca8:	01c66e33          	or	t3,a2,t3
80001cac:	001e9613          	slli	a2,t4,0x1
80001cb0:	00660633          	add	a2,a2,t1
80001cb4:	00065603          	lhu	a2,0(a2)
80001cb8:	008e1e13          	slli	t3,t3,0x8
    crc = crc16((ee_s16)(newval >> 16), crc);
80001cbc:	01055e93          	srli	t4,a0,0x10
    for (i = 0; i < 8; i++)
80001cc0:	01c64e33          	xor	t3,a2,t3
80001cc4:	010e1f13          	slli	t5,t3,0x10
80001cc8:	0ff67613          	zext.b	a2,a2
80001ccc:	018f5e13          	srli	t3,t5,0x18
80001cd0:	00861613          	slli	a2,a2,0x8
80001cd4:	01c66633          	or	a2,a2,t3
80001cd8:	00e67e33          	and	t3,a2,a4
80001cdc:	01167633          	and	a2,a2,a7
80001ce0:	00465613          	srli	a2,a2,0x4
80001ce4:	004e1e13          	slli	t3,t3,0x4
80001ce8:	00ce6e33          	or	t3,t3,a2
80001cec:	00fe7633          	and	a2,t3,a5
80001cf0:	010e7e33          	and	t3,t3,a6
80001cf4:	002e5e13          	srli	t3,t3,0x2
80001cf8:	00261613          	slli	a2,a2,0x2
80001cfc:	01c66633          	or	a2,a2,t3
80001d00:	00d67e33          	and	t3,a2,a3
80001d04:	00b67633          	and	a2,a2,a1
80001d08:	001e1e13          	slli	t3,t3,0x1
80001d0c:	00165613          	srli	a2,a2,0x1
80001d10:	00ce6633          	or	a2,t3,a2
80001d14:	0ff67e13          	zext.b	t3,a2
80001d18:	008e1e13          	slli	t3,t3,0x8
80001d1c:	00865613          	srli	a2,a2,0x8
80001d20:	00ce6e33          	or	t3,t3,a2
80001d24:	00ee7633          	and	a2,t3,a4
80001d28:	011e7e33          	and	t3,t3,a7
80001d2c:	004e5e13          	srli	t3,t3,0x4
80001d30:	00461613          	slli	a2,a2,0x4
80001d34:	01c66633          	or	a2,a2,t3
80001d38:	00fefe13          	andi	t3,t4,15
80001d3c:	0f0efe93          	andi	t4,t4,240
80001d40:	004edf13          	srli	t5,t4,0x4
80001d44:	004e1e13          	slli	t3,t3,0x4
80001d48:	00f67eb3          	and	t4,a2,a5
80001d4c:	01067633          	and	a2,a2,a6
80001d50:	01ee6e33          	or	t3,t3,t5
80001d54:	00265613          	srli	a2,a2,0x2
80001d58:	002e9e93          	slli	t4,t4,0x2
80001d5c:	00ceeeb3          	or	t4,t4,a2
80001d60:	033e7613          	andi	a2,t3,51
80001d64:	0cce7e13          	andi	t3,t3,204
80001d68:	002e5f13          	srli	t5,t3,0x2
80001d6c:	00261613          	slli	a2,a2,0x2
80001d70:	00defe33          	and	t3,t4,a3
80001d74:	01e66633          	or	a2,a2,t5
80001d78:	00befeb3          	and	t4,t4,a1
80001d7c:	001ede93          	srli	t4,t4,0x1
80001d80:	001e1e13          	slli	t3,t3,0x1
80001d84:	05567f93          	andi	t6,a2,85
80001d88:	0aa67613          	andi	a2,a2,170
80001d8c:	01de6f33          	or	t5,t3,t4
80001d90:	001f9f93          	slli	t6,t6,0x1
80001d94:	00165613          	srli	a2,a2,0x1
80001d98:	008f5f13          	srli	t5,t5,0x8
80001d9c:	00cfe633          	or	a2,t6,a2
80001da0:	00cf4633          	xor	a2,t5,a2
80001da4:	00161613          	slli	a2,a2,0x1
80001da8:	00660633          	add	a2,a2,t1
80001dac:	00065603          	lhu	a2,0(a2)
80001db0:	01de6e33          	or	t3,t3,t4
80001db4:	008e1e13          	slli	t3,t3,0x8
80001db8:	01c64e33          	xor	t3,a2,t3
80001dbc:	010e1e93          	slli	t4,t3,0x10
80001dc0:	0ff67613          	zext.b	a2,a2
80001dc4:	018ede13          	srli	t3,t4,0x18
80001dc8:	00861613          	slli	a2,a2,0x8
80001dcc:	01c66633          	or	a2,a2,t3
80001dd0:	00e67e33          	and	t3,a2,a4
80001dd4:	01167633          	and	a2,a2,a7
80001dd8:	00465613          	srli	a2,a2,0x4
80001ddc:	004e1e13          	slli	t3,t3,0x4
80001de0:	00ce6e33          	or	t3,t3,a2
80001de4:	00fe7633          	and	a2,t3,a5
80001de8:	010e7e33          	and	t3,t3,a6
80001dec:	002e5e13          	srli	t3,t3,0x2
80001df0:	00261613          	slli	a2,a2,0x2
80001df4:	01c66633          	or	a2,a2,t3
80001df8:	00d67e33          	and	t3,a2,a3
80001dfc:	00b67633          	and	a2,a2,a1
80001e00:	00165613          	srli	a2,a2,0x1
80001e04:	001e1e13          	slli	t3,t3,0x1
80001e08:	00ce6e33          	or	t3,t3,a2
80001e0c:	0ffe7613          	zext.b	a2,t3
80001e10:	00861613          	slli	a2,a2,0x8
80001e14:	008e5e13          	srli	t3,t3,0x8
80001e18:	01c66633          	or	a2,a2,t3
80001e1c:	00e67eb3          	and	t4,a2,a4
80001e20:	01167e33          	and	t3,a2,a7
    crc = crcu8((ee_u8)((newval) >> 8), crc);
80001e24:	01855513          	srli	a0,a0,0x18
80001e28:	00f57613          	andi	a2,a0,15
80001e2c:	004e5e13          	srli	t3,t3,0x4
80001e30:	004e9e93          	slli	t4,t4,0x4
80001e34:	00461613          	slli	a2,a2,0x4
80001e38:	01ceeeb3          	or	t4,t4,t3
80001e3c:	00455513          	srli	a0,a0,0x4
80001e40:	00fefe33          	and	t3,t4,a5
80001e44:	00a66533          	or	a0,a2,a0
80001e48:	010efeb3          	and	t4,t4,a6
80001e4c:	03357613          	andi	a2,a0,51
80001e50:	002ede93          	srli	t4,t4,0x2
80001e54:	0cc57513          	andi	a0,a0,204
80001e58:	002e1e13          	slli	t3,t3,0x2
80001e5c:	01de6e33          	or	t3,t3,t4
80001e60:	00255513          	srli	a0,a0,0x2
80001e64:	00261613          	slli	a2,a2,0x2
80001e68:	00a66633          	or	a2,a2,a0
80001e6c:	00de7533          	and	a0,t3,a3
80001e70:	00be7e33          	and	t3,t3,a1
80001e74:	05567f13          	andi	t5,a2,85
80001e78:	00151513          	slli	a0,a0,0x1
80001e7c:	001e5e13          	srli	t3,t3,0x1
80001e80:	0aa67613          	andi	a2,a2,170
80001e84:	01c56eb3          	or	t4,a0,t3
80001e88:	00165613          	srli	a2,a2,0x1
80001e8c:	001f1f13          	slli	t5,t5,0x1
80001e90:	00cf6f33          	or	t5,t5,a2
80001e94:	008ed613          	srli	a2,t4,0x8
80001e98:	01e64633          	xor	a2,a2,t5
80001e9c:	00161613          	slli	a2,a2,0x1
80001ea0:	00660633          	add	a2,a2,t1
80001ea4:	00065603          	lhu	a2,0(a2)
80001ea8:	008e9513          	slli	a0,t4,0x8
80001eac:	00a64533          	xor	a0,a2,a0
80001eb0:	01051313          	slli	t1,a0,0x10
80001eb4:	0ff67613          	zext.b	a2,a2
80001eb8:	01835513          	srli	a0,t1,0x18
80001ebc:	00861613          	slli	a2,a2,0x8
80001ec0:	00a66633          	or	a2,a2,a0
80001ec4:	00e67733          	and	a4,a2,a4
80001ec8:	01167633          	and	a2,a2,a7
80001ecc:	00465613          	srli	a2,a2,0x4
80001ed0:	00471713          	slli	a4,a4,0x4
80001ed4:	00c76733          	or	a4,a4,a2
80001ed8:	00f777b3          	and	a5,a4,a5
80001edc:	01077733          	and	a4,a4,a6
80001ee0:	00275713          	srli	a4,a4,0x2
80001ee4:	00279793          	slli	a5,a5,0x2
80001ee8:	00e7e7b3          	or	a5,a5,a4
80001eec:	00d7f533          	and	a0,a5,a3
80001ef0:	00b7f7b3          	and	a5,a5,a1
80001ef4:	0017d793          	srli	a5,a5,0x1
80001ef8:	00151513          	slli	a0,a0,0x1
    return crc;
}
80001efc:	00f56533          	or	a0,a0,a5
80001f00:	00008067          	ret

80001f04 <crc16>:
ee_u16
crc16(ee_s16 newval, ee_u16 crc)
{
    return crcu16((ee_u16)newval, crc);
80001f04:	0ff5f793          	zext.b	a5,a1
80001f08:	00879793          	slli	a5,a5,0x8
80001f0c:	0085d593          	srli	a1,a1,0x8
80001f10:	00001737          	lui	a4,0x1
80001f14:	fffff337          	lui	t1,0xfffff
80001f18:	0f030313          	addi	t1,t1,240 # fffff0f0 <_sp+0x77fff0f0>
    return crc;
80001f1c:	f0f70713          	addi	a4,a4,-241 # f0f <__stack_size-0x1fff0f1>
80001f20:	00b7e7b3          	or	a5,a5,a1
80001f24:	00e7f5b3          	and	a1,a5,a4
80001f28:	0067f7b3          	and	a5,a5,t1
80001f2c:	0047d793          	srli	a5,a5,0x4
80001f30:	00459593          	slli	a1,a1,0x4
80001f34:	00f5e5b3          	or	a1,a1,a5
80001f38:	ffffd8b7          	lui	a7,0xffffd
80001f3c:	000037b7          	lui	a5,0x3
80001f40:	ccc88893          	addi	a7,a7,-820 # ffffcccc <_sp+0x77ffcccc>
80001f44:	33378793          	addi	a5,a5,819 # 3333 <__stack_size-0x1ffcccd>
80001f48:	00f57693          	andi	a3,a0,15
80001f4c:	0f057813          	andi	a6,a0,240
80001f50:	00f5f633          	and	a2,a1,a5
80001f54:	00485813          	srli	a6,a6,0x4
80001f58:	0115f5b3          	and	a1,a1,a7
80001f5c:	00469693          	slli	a3,a3,0x4
80001f60:	0106e6b3          	or	a3,a3,a6
80001f64:	0025d593          	srli	a1,a1,0x2
80001f68:	00261613          	slli	a2,a2,0x2
80001f6c:	00b66633          	or	a2,a2,a1
80001f70:	0336fe13          	andi	t3,a3,51
80001f74:	000055b7          	lui	a1,0x5
80001f78:	0cc6f693          	andi	a3,a3,204
80001f7c:	ffffb837          	lui	a6,0xffffb
80001f80:	55558593          	addi	a1,a1,1365 # 5555 <__stack_size-0x1ffaaab>
80001f84:	aaa80813          	addi	a6,a6,-1366 # ffffaaaa <_sp+0x77ffaaaa>
80001f88:	0026de93          	srli	t4,a3,0x2
80001f8c:	002e1e13          	slli	t3,t3,0x2
80001f90:	00b676b3          	and	a3,a2,a1
80001f94:	01de6e33          	or	t3,t3,t4
80001f98:	01067633          	and	a2,a2,a6
80001f9c:	00169693          	slli	a3,a3,0x1
80001fa0:	00165613          	srli	a2,a2,0x1
80001fa4:	055e7f13          	andi	t5,t3,85
80001fa8:	0aae7e13          	andi	t3,t3,170
80001fac:	00c6eeb3          	or	t4,a3,a2
80001fb0:	001f1f13          	slli	t5,t5,0x1
80001fb4:	001e5e13          	srli	t3,t3,0x1
80001fb8:	01cf6e33          	or	t3,t5,t3
80001fbc:	008ede93          	srli	t4,t4,0x8
80001fc0:	01ceceb3          	xor	t4,t4,t3
80001fc4:	80003e37          	lui	t3,0x80003
80001fc8:	6fce0e13          	addi	t3,t3,1788 # 800036fc <errpat+0x28>
80001fcc:	00c6e633          	or	a2,a3,a2
80001fd0:	001e9693          	slli	a3,t4,0x1
80001fd4:	01c686b3          	add	a3,a3,t3
80001fd8:	0006d683          	lhu	a3,0(a3)
80001fdc:	00861613          	slli	a2,a2,0x8
    crc = crcu8((ee_u8)((newval) >> 8), crc);
80001fe0:	00855513          	srli	a0,a0,0x8
80001fe4:	00c6c633          	xor	a2,a3,a2
80001fe8:	01061e93          	slli	t4,a2,0x10
80001fec:	0ff6f693          	zext.b	a3,a3
80001ff0:	018ed613          	srli	a2,t4,0x18
80001ff4:	00869693          	slli	a3,a3,0x8
80001ff8:	00c6e6b3          	or	a3,a3,a2
80001ffc:	00e6f633          	and	a2,a3,a4
80002000:	0066f6b3          	and	a3,a3,t1
80002004:	0046d693          	srli	a3,a3,0x4
80002008:	00461613          	slli	a2,a2,0x4
8000200c:	00d66633          	or	a2,a2,a3
80002010:	00f676b3          	and	a3,a2,a5
80002014:	01167633          	and	a2,a2,a7
80002018:	00265613          	srli	a2,a2,0x2
8000201c:	00269693          	slli	a3,a3,0x2
80002020:	00c6e6b3          	or	a3,a3,a2
80002024:	00b6f633          	and	a2,a3,a1
80002028:	0106f6b3          	and	a3,a3,a6
8000202c:	00161613          	slli	a2,a2,0x1
80002030:	0016d693          	srli	a3,a3,0x1
80002034:	00d666b3          	or	a3,a2,a3
80002038:	0ff6f613          	zext.b	a2,a3
8000203c:	00861613          	slli	a2,a2,0x8
80002040:	0086d693          	srli	a3,a3,0x8
80002044:	00d66633          	or	a2,a2,a3
80002048:	00e676b3          	and	a3,a2,a4
8000204c:	00667eb3          	and	t4,a2,t1
80002050:	004ede93          	srli	t4,t4,0x4
80002054:	00f57613          	andi	a2,a0,15
80002058:	00469693          	slli	a3,a3,0x4
8000205c:	0f057513          	andi	a0,a0,240
80002060:	01d6e6b3          	or	a3,a3,t4
80002064:	00455513          	srli	a0,a0,0x4
80002068:	00461613          	slli	a2,a2,0x4
8000206c:	00a66633          	or	a2,a2,a0
80002070:	0116feb3          	and	t4,a3,a7
80002074:	00f6f533          	and	a0,a3,a5
80002078:	002ede93          	srli	t4,t4,0x2
8000207c:	03367693          	andi	a3,a2,51
80002080:	00251513          	slli	a0,a0,0x2
80002084:	0cc67613          	andi	a2,a2,204
80002088:	01d56533          	or	a0,a0,t4
8000208c:	00265613          	srli	a2,a2,0x2
80002090:	00269693          	slli	a3,a3,0x2
80002094:	00c6e6b3          	or	a3,a3,a2
80002098:	00b57633          	and	a2,a0,a1
8000209c:	01057533          	and	a0,a0,a6
800020a0:	0556ff13          	andi	t5,a3,85
800020a4:	00161613          	slli	a2,a2,0x1
800020a8:	00155513          	srli	a0,a0,0x1
800020ac:	0aa6f693          	andi	a3,a3,170
800020b0:	00a66eb3          	or	t4,a2,a0
800020b4:	0016d693          	srli	a3,a3,0x1
800020b8:	001f1f13          	slli	t5,t5,0x1
800020bc:	00df6f33          	or	t5,t5,a3
800020c0:	008ed693          	srli	a3,t4,0x8
800020c4:	01e6c6b3          	xor	a3,a3,t5
800020c8:	00169693          	slli	a3,a3,0x1
800020cc:	01c686b3          	add	a3,a3,t3
800020d0:	0006d683          	lhu	a3,0(a3)
800020d4:	008e9613          	slli	a2,t4,0x8
800020d8:	00c6c633          	xor	a2,a3,a2
800020dc:	01061513          	slli	a0,a2,0x10
800020e0:	0ff6f693          	zext.b	a3,a3
800020e4:	01855613          	srli	a2,a0,0x18
800020e8:	00869693          	slli	a3,a3,0x8
800020ec:	00c6e6b3          	or	a3,a3,a2
800020f0:	00e6f733          	and	a4,a3,a4
800020f4:	0066f6b3          	and	a3,a3,t1
800020f8:	0046d693          	srli	a3,a3,0x4
800020fc:	00471713          	slli	a4,a4,0x4
80002100:	00d76733          	or	a4,a4,a3
80002104:	00f777b3          	and	a5,a4,a5
80002108:	01177733          	and	a4,a4,a7
8000210c:	00275713          	srli	a4,a4,0x2
80002110:	00279793          	slli	a5,a5,0x2
80002114:	00e7e7b3          	or	a5,a5,a4
80002118:	00b7f533          	and	a0,a5,a1
8000211c:	0107f7b3          	and	a5,a5,a6
80002120:	0017d793          	srli	a5,a5,0x1
80002124:	00151513          	slli	a0,a0,0x1
}
80002128:	00f56533          	or	a0,a0,a5
8000212c:	00008067          	ret

80002130 <check_data_types>:
    if (retval > 0)
    {
        ee_printf("ERROR: Please modify the datatypes in core_portme.h!\n");
    }
    return retval;
}
80002130:	00000513          	li	a0,0
80002134:	00008067          	ret

80002138 <core_init_matrix>:
        The seed parameter MUST be supplied from a source that cannot be
   determined at compile time
*/
ee_u32
core_init_matrix(ee_u32 blksize, void *memblk, ee_s32 seed, mat_params *p)
{
80002138:	ff010113          	addi	sp,sp,-16
8000213c:	00812623          	sw	s0,12(sp)
80002140:	00912423          	sw	s1,8(sp)
80002144:	00050813          	mv	a6,a0
    MATDAT *A;
    MATDAT *B;
    ee_s32  order = 1;
    MATDAT  val;
    ee_u32  i = 0, j = 0;
    if (seed == 0)
80002148:	00061463          	bnez	a2,80002150 <core_init_matrix+0x18>
        seed = 1;
8000214c:	00100613          	li	a2,1
    {
        i++;
        j = i * i * 2 * 4;
    }
    N = i - 1;
    A = (MATDAT *)align_mem(memblk);
80002150:	fff58413          	addi	s0,a1,-1
80002154:	ffc47413          	andi	s0,s0,-4
80002158:	00440393          	addi	t2,s0,4
    while (j < blksize)
8000215c:	00000793          	li	a5,0
80002160:	0c080c63          	beqz	a6,80002238 <core_init_matrix+0x100>
        i++;
80002164:	00078513          	mv	a0,a5
80002168:	00178793          	addi	a5,a5,1
        j = i * i * 2 * 4;
8000216c:	02f78733          	mul	a4,a5,a5
80002170:	00371713          	slli	a4,a4,0x3
    while (j < blksize)
80002174:	ff0768e3          	bltu	a4,a6,80002164 <core_init_matrix+0x2c>
    B = A + N * N;
80002178:	02a502b3          	mul	t0,a0,a0
8000217c:	00129293          	slli	t0,t0,0x1
80002180:	00538433          	add	s0,t2,t0

    for (i = 0; i < N; i++)
80002184:	0c050663          	beqz	a0,80002250 <core_init_matrix+0x118>
80002188:	01212223          	sw	s2,4(sp)
    }

    p->A = A;
    p->B = B;
    p->C = (MATRES *)align_mem(B + N * N);
    p->N = N;
8000218c:	00050493          	mv	s1,a0
80002190:	00150313          	addi	t1,a0,1
80002194:	00151913          	slli	s2,a0,0x1
    B = A + N * N;
80002198:	00040f13          	mv	t5,s0
    for (i = 0; i < N; i++)
8000219c:	00000e93          	li	t4,0
    ee_s32  order = 1;
800021a0:	00100793          	li	a5,1
800021a4:	40838e33          	sub	t3,t2,s0
        for (j = 0; j < N; j++)
800021a8:	00078f93          	mv	t6,a5
    B = A + N * N;
800021ac:	000f0593          	mv	a1,t5
            seed         = ((order * seed) % 65536);
800021b0:	02f60633          	mul	a2,a2,a5
            A[i * N + j] = val;
800021b4:	00be08b3          	add	a7,t3,a1
        for (j = 0; j < N; j++)
800021b8:	00258593          	addi	a1,a1,2
            seed         = ((order * seed) % 65536);
800021bc:	41f65713          	srai	a4,a2,0x1f
800021c0:	01075713          	srli	a4,a4,0x10
800021c4:	00e60633          	add	a2,a2,a4
800021c8:	01061613          	slli	a2,a2,0x10
800021cc:	01065613          	srli	a2,a2,0x10
800021d0:	40e60633          	sub	a2,a2,a4
            val          = (seed + order);
800021d4:	00c78833          	add	a6,a5,a2
            val          = (val + order);
800021d8:	00f80733          	add	a4,a6,a5
            B[i * N + j] = val;
800021dc:	ff059f23          	sh	a6,-2(a1)
            val          = matrix_clip(val, 1);
800021e0:	0ff77713          	zext.b	a4,a4
            order++;
800021e4:	00178793          	addi	a5,a5,1
            A[i * N + j] = val;
800021e8:	00e89023          	sh	a4,0(a7)
        for (j = 0; j < N; j++)
800021ec:	fc6792e3          	bne	a5,t1,800021b0 <core_init_matrix+0x78>
    for (i = 0; i < N; i++)
800021f0:	001e8e93          	addi	t4,t4,1
800021f4:	01f507b3          	add	a5,a0,t6
800021f8:	00a30333          	add	t1,t1,a0
800021fc:	012f0f33          	add	t5,t5,s2
80002200:	faae94e3          	bne	t4,a0,800021a8 <core_init_matrix+0x70>
80002204:	00412903          	lw	s2,4(sp)
    p->C = (MATRES *)align_mem(B + N * N);
80002208:	005407b3          	add	a5,s0,t0
8000220c:	fff78793          	addi	a5,a5,-1
    p->B = B;
80002210:	0086a423          	sw	s0,8(a3)
    p->C = (MATRES *)align_mem(B + N * N);
80002214:	ffc7f793          	andi	a5,a5,-4
#if CORE_DEBUG
    printmat(A, N, "A");
    printmat(B, N, "B");
#endif
    return N;
}
80002218:	00c12403          	lw	s0,12(sp)
    p->C = (MATRES *)align_mem(B + N * N);
8000221c:	00478793          	addi	a5,a5,4
    p->N = N;
80002220:	0096a023          	sw	s1,0(a3)
    p->C = (MATRES *)align_mem(B + N * N);
80002224:	00f6a623          	sw	a5,12(a3)
    p->A = A;
80002228:	0076a223          	sw	t2,4(a3)
}
8000222c:	00812483          	lw	s1,8(sp)
80002230:	01010113          	addi	sp,sp,16
80002234:	00008067          	ret
    B = A + N * N;
80002238:	fff00493          	li	s1,-1
8000223c:	01212223          	sw	s2,4(sp)
80002240:	00640413          	addi	s0,s0,6
    N = i - 1;
80002244:	00048513          	mv	a0,s1
    B = A + N * N;
80002248:	00200293          	li	t0,2
8000224c:	f45ff06f          	j	80002190 <core_init_matrix+0x58>
    for (i = 0; i < N; i++)
80002250:	00000293          	li	t0,0
80002254:	00000493          	li	s1,0
80002258:	fb1ff06f          	j	80002208 <core_init_matrix+0xd0>

8000225c <matrix_sum>:

        Otherwise, reset the accumulator and add 10 to the result.
*/
ee_s16
matrix_sum(ee_u32 N, MATRES *C, MATDAT clipval)
{
8000225c:	00050e93          	mv	t4,a0
    MATRES tmp = 0, prev = 0, cur = 0;
    ee_s16 ret = 0;
    ee_u32 i, j;
    for (i = 0; i < N; i++)
80002260:	06050a63          	beqz	a0,800022d4 <matrix_sum+0x78>
80002264:	00251e13          	slli	t3,a0,0x2
80002268:	01c588b3          	add	a7,a1,t3
8000226c:	00000313          	li	t1,0
    ee_s16 ret = 0;
80002270:	00000513          	li	a0,0
    MATRES tmp = 0, prev = 0, cur = 0;
80002274:	00000713          	li	a4,0
80002278:	00000693          	li	a3,0
    {
        for (j = 0; j < N; j++)
8000227c:	41c887b3          	sub	a5,a7,t3
80002280:	0180006f          	j	80002298 <matrix_sum+0x3c>
                ret += 10;
                tmp = 0;
            }
            else
            {
                ret += (cur > prev) ? 1 : 0;
80002284:	00b50833          	add	a6,a0,a1
80002288:	01081513          	slli	a0,a6,0x10
        for (j = 0; j < N; j++)
8000228c:	00478793          	addi	a5,a5,4
80002290:	41055513          	srai	a0,a0,0x10
80002294:	02f88863          	beq	a7,a5,800022c4 <matrix_sum+0x68>
                ret += 10;
80002298:	00070593          	mv	a1,a4
            cur = C[i * N + j];
8000229c:	0007a703          	lw	a4,0(a5)
                ret += 10;
800022a0:	00a50813          	addi	a6,a0,10
            tmp += cur;
800022a4:	00e686b3          	add	a3,a3,a4
                ret += (cur > prev) ? 1 : 0;
800022a8:	00e5a5b3          	slt	a1,a1,a4
            if (tmp > clipval)
800022ac:	fcd65ce3          	bge	a2,a3,80002284 <matrix_sum+0x28>
800022b0:	01081513          	slli	a0,a6,0x10
        for (j = 0; j < N; j++)
800022b4:	00478793          	addi	a5,a5,4
                tmp = 0;
800022b8:	00000693          	li	a3,0
800022bc:	41055513          	srai	a0,a0,0x10
        for (j = 0; j < N; j++)
800022c0:	fcf89ce3          	bne	a7,a5,80002298 <matrix_sum+0x3c>
    for (i = 0; i < N; i++)
800022c4:	00130313          	addi	t1,t1,1
800022c8:	01c888b3          	add	a7,a7,t3
800022cc:	fa6e98e3          	bne	t4,t1,8000227c <matrix_sum+0x20>
800022d0:	00008067          	ret
    ee_s16 ret = 0;
800022d4:	00000513          	li	a0,0
            }
            prev = cur;
        }
    }
    return ret;
}
800022d8:	00008067          	ret

800022dc <matrix_mul_const>:
*/
void
matrix_mul_const(ee_u32 N, MATRES *C, MATDAT *A, MATDAT val)
{
    ee_u32 i, j;
    for (i = 0; i < N; i++)
800022dc:	04050463          	beqz	a0,80002324 <matrix_mul_const+0x48>
800022e0:	00151e13          	slli	t3,a0,0x1
800022e4:	01c60833          	add	a6,a2,t3
    {
        for (j = 0; j < N; j++)
        {
            C[i * N + j] = (MATRES)A[i * N + j] * (MATRES)val;
800022e8:	00000313          	li	t1,0
    for (i = 0; i < N; i++)
800022ec:	00000893          	li	a7,0
        for (j = 0; j < N; j++)
800022f0:	00231613          	slli	a2,t1,0x2
800022f4:	00c58633          	add	a2,a1,a2
800022f8:	41c807b3          	sub	a5,a6,t3
            C[i * N + j] = (MATRES)A[i * N + j] * (MATRES)val;
800022fc:	00079703          	lh	a4,0(a5)
        for (j = 0; j < N; j++)
80002300:	00278793          	addi	a5,a5,2
80002304:	00460613          	addi	a2,a2,4
            C[i * N + j] = (MATRES)A[i * N + j] * (MATRES)val;
80002308:	02d70733          	mul	a4,a4,a3
8000230c:	fee62e23          	sw	a4,-4(a2)
        for (j = 0; j < N; j++)
80002310:	fef816e3          	bne	a6,a5,800022fc <matrix_mul_const+0x20>
    for (i = 0; i < N; i++)
80002314:	00188893          	addi	a7,a7,1
80002318:	00a30333          	add	t1,t1,a0
8000231c:	01c80833          	add	a6,a6,t3
80002320:	fd1518e3          	bne	a0,a7,800022f0 <matrix_mul_const+0x14>
        }
    }
}
80002324:	00008067          	ret

80002328 <matrix_add_const>:
*/
void
matrix_add_const(ee_u32 N, MATDAT *A, MATDAT val)
{
    ee_u32 i, j;
    for (i = 0; i < N; i++)
80002328:	02050a63          	beqz	a0,8000235c <matrix_add_const+0x34>
8000232c:	00151813          	slli	a6,a0,0x1
80002330:	010586b3          	add	a3,a1,a6
80002334:	00000593          	li	a1,0
    {
        for (j = 0; j < N; j++)
80002338:	410687b3          	sub	a5,a3,a6
        {
            A[i * N + j] += val;
8000233c:	0007d703          	lhu	a4,0(a5)
        for (j = 0; j < N; j++)
80002340:	00278793          	addi	a5,a5,2
            A[i * N + j] += val;
80002344:	00e60733          	add	a4,a2,a4
80002348:	fee79f23          	sh	a4,-2(a5)
        for (j = 0; j < N; j++)
8000234c:	fef698e3          	bne	a3,a5,8000233c <matrix_add_const+0x14>
    for (i = 0; i < N; i++)
80002350:	00158593          	addi	a1,a1,1
80002354:	010686b3          	add	a3,a3,a6
80002358:	feb510e3          	bne	a0,a1,80002338 <matrix_add_const+0x10>
        }
    }
}
8000235c:	00008067          	ret

80002360 <matrix_mul_vect>:
*/
void
matrix_mul_vect(ee_u32 N, MATRES *C, MATDAT *A, MATDAT *B)
{
    ee_u32 i, j;
    for (i = 0; i < N; i++)
80002360:	04050a63          	beqz	a0,800023b4 <matrix_mul_vect+0x54>
80002364:	00251f13          	slli	t5,a0,0x2
80002368:	00151e13          	slli	t3,a0,0x1
8000236c:	01e58f33          	add	t5,a1,t5
80002370:	01c68e33          	add	t3,a3,t3
80002374:	00000e93          	li	t4,0
    {
        C[i] = 0;
        for (j = 0; j < N; j++)
80002378:	001e9813          	slli	a6,t4,0x1
8000237c:	01060833          	add	a6,a2,a6
    for (i = 0; i < N; i++)
80002380:	00068793          	mv	a5,a3
80002384:	00000893          	li	a7,0
        {
            C[i] += (MATRES)A[i * N + j] * (MATRES)B[j];
80002388:	00081703          	lh	a4,0(a6)
8000238c:	00079303          	lh	t1,0(a5)
        for (j = 0; j < N; j++)
80002390:	00278793          	addi	a5,a5,2
80002394:	00280813          	addi	a6,a6,2
            C[i] += (MATRES)A[i * N + j] * (MATRES)B[j];
80002398:	02670733          	mul	a4,a4,t1
8000239c:	00e888b3          	add	a7,a7,a4
        for (j = 0; j < N; j++)
800023a0:	fefe14e3          	bne	t3,a5,80002388 <matrix_mul_vect+0x28>
800023a4:	0115a023          	sw	a7,0(a1)
    for (i = 0; i < N; i++)
800023a8:	00458593          	addi	a1,a1,4
800023ac:	00ae8eb3          	add	t4,t4,a0
800023b0:	fcbf14e3          	bne	t5,a1,80002378 <matrix_mul_vect+0x18>
        }
    }
}
800023b4:	00008067          	ret

800023b8 <matrix_mul_matrix>:
*/
void
matrix_mul_matrix(ee_u32 N, MATRES *C, MATDAT *A, MATDAT *B)
{
    ee_u32 i, j, k;
    for (i = 0; i < N; i++)
800023b8:	08050e63          	beqz	a0,80002454 <matrix_mul_matrix+0x9c>
{
800023bc:	ff010113          	addi	sp,sp,-16
800023c0:	00151313          	slli	t1,a0,0x1
800023c4:	00812623          	sw	s0,12(sp)
800023c8:	00060293          	mv	t0,a2
800023cc:	00068413          	mv	s0,a3
800023d0:	00660e33          	add	t3,a2,t1
    for (i = 0; i < N; i++)
800023d4:	00000393          	li	t2,0
800023d8:	00000693          	li	a3,0
    {
        for (j = 0; j < N; j++)
800023dc:	00239e93          	slli	t4,t2,0x2
800023e0:	01d58eb3          	add	t4,a1,t4
800023e4:	00040f13          	mv	t5,s0
800023e8:	00000f93          	li	t6,0
800023ec:	000f0613          	mv	a2,t5
800023f0:	00028793          	mv	a5,t0
800023f4:	00000813          	li	a6,0
        {
            C[i * N + j] = 0;
            for (k = 0; k < N; k++)
            {
                C[i * N + j] += (MATRES)A[i * N + k] * (MATRES)B[k * N + j];
800023f8:	00079703          	lh	a4,0(a5)
800023fc:	00061883          	lh	a7,0(a2)
            for (k = 0; k < N; k++)
80002400:	00278793          	addi	a5,a5,2
80002404:	00660633          	add	a2,a2,t1
                C[i * N + j] += (MATRES)A[i * N + k] * (MATRES)B[k * N + j];
80002408:	03170733          	mul	a4,a4,a7
8000240c:	00e80833          	add	a6,a6,a4
            for (k = 0; k < N; k++)
80002410:	fefe14e3          	bne	t3,a5,800023f8 <matrix_mul_matrix+0x40>
80002414:	010ea023          	sw	a6,0(t4)
        for (j = 0; j < N; j++)
80002418:	001f8793          	addi	a5,t6,1 # ffff8001 <_sp+0x77ff8001>
8000241c:	004e8e93          	addi	t4,t4,4
80002420:	002f0f13          	addi	t5,t5,2
80002424:	00f50663          	beq	a0,a5,80002430 <matrix_mul_matrix+0x78>
80002428:	00078f93          	mv	t6,a5
8000242c:	fc1ff06f          	j	800023ec <matrix_mul_matrix+0x34>
    for (i = 0; i < N; i++)
80002430:	006282b3          	add	t0,t0,t1
80002434:	00a383b3          	add	t2,t2,a0
80002438:	006e0e33          	add	t3,t3,t1
8000243c:	01f68663          	beq	a3,t6,80002448 <matrix_mul_matrix+0x90>
80002440:	00168693          	addi	a3,a3,1
80002444:	f99ff06f          	j	800023dc <matrix_mul_matrix+0x24>
            }
        }
    }
}
80002448:	00c12403          	lw	s0,12(sp)
8000244c:	01010113          	addi	sp,sp,16
80002450:	00008067          	ret
80002454:	00008067          	ret

80002458 <matrix_mul_matrix_bitextract>:
*/
void
matrix_mul_matrix_bitextract(ee_u32 N, MATRES *C, MATDAT *A, MATDAT *B)
{
    ee_u32 i, j, k;
    for (i = 0; i < N; i++)
80002458:	0a050863          	beqz	a0,80002508 <matrix_mul_matrix_bitextract+0xb0>
{
8000245c:	ff010113          	addi	sp,sp,-16
80002460:	00151313          	slli	t1,a0,0x1
80002464:	00812623          	sw	s0,12(sp)
80002468:	00060293          	mv	t0,a2
8000246c:	00068413          	mv	s0,a3
80002470:	00660e33          	add	t3,a2,t1
    for (i = 0; i < N; i++)
80002474:	00000393          	li	t2,0
80002478:	00000693          	li	a3,0
    {
        for (j = 0; j < N; j++)
8000247c:	00239e93          	slli	t4,t2,0x2
80002480:	01d58eb3          	add	t4,a1,t4
80002484:	00040f13          	mv	t5,s0
80002488:	00000f93          	li	t6,0
8000248c:	000f0813          	mv	a6,t5
80002490:	00028613          	mv	a2,t0
80002494:	00000893          	li	a7,0
        {
            C[i * N + j] = 0;
            for (k = 0; k < N; k++)
            {
                MATRES tmp = (MATRES)A[i * N + k] * (MATRES)B[k * N + j];
80002498:	00081703          	lh	a4,0(a6)
8000249c:	00061783          	lh	a5,0(a2)
            for (k = 0; k < N; k++)
800024a0:	00260613          	addi	a2,a2,2
800024a4:	00680833          	add	a6,a6,t1
                MATRES tmp = (MATRES)A[i * N + k] * (MATRES)B[k * N + j];
800024a8:	02e787b3          	mul	a5,a5,a4
                C[i * N + j] += bit_extract(tmp, 2, 4) * bit_extract(tmp, 5, 7);
800024ac:	4027d713          	srai	a4,a5,0x2
800024b0:	4057d793          	srai	a5,a5,0x5
800024b4:	00f77713          	andi	a4,a4,15
800024b8:	07f7f793          	andi	a5,a5,127
800024bc:	02f707b3          	mul	a5,a4,a5
800024c0:	00f888b3          	add	a7,a7,a5
            for (k = 0; k < N; k++)
800024c4:	fcce1ae3          	bne	t3,a2,80002498 <matrix_mul_matrix_bitextract+0x40>
800024c8:	011ea023          	sw	a7,0(t4)
        for (j = 0; j < N; j++)
800024cc:	001f8793          	addi	a5,t6,1
800024d0:	004e8e93          	addi	t4,t4,4
800024d4:	002f0f13          	addi	t5,t5,2
800024d8:	00f50663          	beq	a0,a5,800024e4 <matrix_mul_matrix_bitextract+0x8c>
800024dc:	00078f93          	mv	t6,a5
800024e0:	fadff06f          	j	8000248c <matrix_mul_matrix_bitextract+0x34>
    for (i = 0; i < N; i++)
800024e4:	006282b3          	add	t0,t0,t1
800024e8:	00a383b3          	add	t2,t2,a0
800024ec:	006e0e33          	add	t3,t3,t1
800024f0:	01f68663          	beq	a3,t6,800024fc <matrix_mul_matrix_bitextract+0xa4>
800024f4:	00168693          	addi	a3,a3,1
800024f8:	f85ff06f          	j	8000247c <matrix_mul_matrix_bitextract+0x24>
            }
        }
    }
}
800024fc:	00c12403          	lw	s0,12(sp)
80002500:	01010113          	addi	sp,sp,16
80002504:	00008067          	ret
80002508:	00008067          	ret

8000250c <matrix_test>:
{
8000250c:	fd010113          	addi	sp,sp,-48
80002510:	03212023          	sw	s2,32(sp)
80002514:	01312e23          	sw	s3,28(sp)
80002518:	01512a23          	sw	s5,20(sp)
8000251c:	02112623          	sw	ra,44(sp)
80002520:	02812423          	sw	s0,40(sp)
80002524:	00058a93          	mv	s5,a1
80002528:	00060913          	mv	s2,a2
8000252c:	00068993          	mv	s3,a3
    for (i = 0; i < N; i++)
80002530:	34050663          	beqz	a0,8000287c <matrix_test+0x370>
80002534:	00151593          	slli	a1,a0,0x1
80002538:	02912223          	sw	s1,36(sp)
8000253c:	01412c23          	sw	s4,24(sp)
80002540:	00b60633          	add	a2,a2,a1
80002544:	00070a13          	mv	s4,a4
    MATDAT clipval = matrix_big(val);
80002548:	fffff4b7          	lui	s1,0xfffff
8000254c:	01612823          	sw	s6,16(sp)
80002550:	01712623          	sw	s7,12(sp)
80002554:	01812423          	sw	s8,8(sp)
80002558:	01912223          	sw	s9,4(sp)
            A[i * N + j] += val;
8000255c:	00060713          	mv	a4,a2
    MATDAT clipval = matrix_big(val);
80002560:	009a64b3          	or	s1,s4,s1
    for (i = 0; i < N; i++)
80002564:	00000b13          	li	s6,0
        for (j = 0; j < N; j++)
80002568:	40b707b3          	sub	a5,a4,a1
            A[i * N + j] += val;
8000256c:	0007d683          	lhu	a3,0(a5)
        for (j = 0; j < N; j++)
80002570:	00278793          	addi	a5,a5,2
            A[i * N + j] += val;
80002574:	00da06b3          	add	a3,s4,a3
80002578:	fed79f23          	sh	a3,-2(a5)
        for (j = 0; j < N; j++)
8000257c:	fee798e3          	bne	a5,a4,8000256c <matrix_test+0x60>
    for (i = 0; i < N; i++)
80002580:	001b0413          	addi	s0,s6,1
80002584:	00b78733          	add	a4,a5,a1
80002588:	00850663          	beq	a0,s0,80002594 <matrix_test+0x88>
8000258c:	00040b13          	mv	s6,s0
80002590:	fd9ff06f          	j	80002568 <matrix_test+0x5c>
            C[i * N + j] = (MATRES)A[i * N + j] * (MATRES)val;
80002594:	00000513          	li	a0,0
    for (i = 0; i < N; i++)
80002598:	00000813          	li	a6,0
        for (j = 0; j < N; j++)
8000259c:	00251713          	slli	a4,a0,0x2
800025a0:	00ea8733          	add	a4,s5,a4
800025a4:	40b607b3          	sub	a5,a2,a1
            C[i * N + j] = (MATRES)A[i * N + j] * (MATRES)val;
800025a8:	00079683          	lh	a3,0(a5)
        for (j = 0; j < N; j++)
800025ac:	00278793          	addi	a5,a5,2
800025b0:	00470713          	addi	a4,a4,4
            C[i * N + j] = (MATRES)A[i * N + j] * (MATRES)val;
800025b4:	034686b3          	mul	a3,a3,s4
800025b8:	fed72e23          	sw	a3,-4(a4)
        for (j = 0; j < N; j++)
800025bc:	fef616e3          	bne	a2,a5,800025a8 <matrix_test+0x9c>
    for (i = 0; i < N; i++)
800025c0:	00850533          	add	a0,a0,s0
800025c4:	00b60633          	add	a2,a2,a1
800025c8:	01680663          	beq	a6,s6,800025d4 <matrix_test+0xc8>
800025cc:	00180813          	addi	a6,a6,1
800025d0:	fcdff06f          	j	8000259c <matrix_test+0x90>
    for (i = 0; i < N; i++)
800025d4:	00241c13          	slli	s8,s0,0x2
800025d8:	018a8bb3          	add	s7,s5,s8
            if (tmp > clipval)
800025dc:	000b8813          	mv	a6,s7
    MATRES tmp = 0, prev = 0, cur = 0;
800025e0:	00000693          	li	a3,0
800025e4:	00000713          	li	a4,0
    ee_s16 ret = 0;
800025e8:	00000513          	li	a0,0
    for (i = 0; i < N; i++)
800025ec:	00000893          	li	a7,0
        for (j = 0; j < N; j++)
800025f0:	418807b3          	sub	a5,a6,s8
800025f4:	0180006f          	j	8000260c <matrix_test+0x100>
                ret += (cur > prev) ? 1 : 0;
800025f8:	00c505b3          	add	a1,a0,a2
800025fc:	01059513          	slli	a0,a1,0x10
        for (j = 0; j < N; j++)
80002600:	00478793          	addi	a5,a5,4
80002604:	41055513          	srai	a0,a0,0x10
80002608:	02f80863          	beq	a6,a5,80002638 <matrix_test+0x12c>
                ret += 10;
8000260c:	00068613          	mv	a2,a3
            cur = C[i * N + j];
80002610:	0007a683          	lw	a3,0(a5)
                ret += 10;
80002614:	00a50593          	addi	a1,a0,10
            tmp += cur;
80002618:	00d70733          	add	a4,a4,a3
                ret += (cur > prev) ? 1 : 0;
8000261c:	00d62633          	slt	a2,a2,a3
            if (tmp > clipval)
80002620:	fce4dce3          	bge	s1,a4,800025f8 <matrix_test+0xec>
80002624:	01059513          	slli	a0,a1,0x10
        for (j = 0; j < N; j++)
80002628:	00478793          	addi	a5,a5,4
                tmp = 0;
8000262c:	00000713          	li	a4,0
80002630:	41055513          	srai	a0,a0,0x10
        for (j = 0; j < N; j++)
80002634:	fcf81ce3          	bne	a6,a5,8000260c <matrix_test+0x100>
    for (i = 0; i < N; i++)
80002638:	01880833          	add	a6,a6,s8
8000263c:	011b0663          	beq	s6,a7,80002648 <matrix_test+0x13c>
80002640:	00188893          	addi	a7,a7,1
80002644:	fadff06f          	j	800025f0 <matrix_test+0xe4>
    crc = crc16(matrix_sum(N, C, clipval), crc);
80002648:	00000593          	li	a1,0
8000264c:	8b9ff0ef          	jal	80001f04 <crc16>
    matrix_mul_vect(N, C, A, B);
80002650:	00098693          	mv	a3,s3
    crc = crc16(matrix_sum(N, C, clipval), crc);
80002654:	00050c93          	mv	s9,a0
    matrix_mul_vect(N, C, A, B);
80002658:	00090613          	mv	a2,s2
8000265c:	00040513          	mv	a0,s0
80002660:	000a8593          	mv	a1,s5
80002664:	cfdff0ef          	jal	80002360 <matrix_mul_vect>
    MATRES tmp = 0, prev = 0, cur = 0;
80002668:	00000693          	li	a3,0
8000266c:	00000713          	li	a4,0
    ee_s16 ret = 0;
80002670:	00000513          	li	a0,0
    for (i = 0; i < N; i++)
80002674:	00000813          	li	a6,0
        for (j = 0; j < N; j++)
80002678:	418b87b3          	sub	a5,s7,s8
8000267c:	0180006f          	j	80002694 <matrix_test+0x188>
                ret += (cur > prev) ? 1 : 0;
80002680:	00c505b3          	add	a1,a0,a2
80002684:	01059513          	slli	a0,a1,0x10
        for (j = 0; j < N; j++)
80002688:	00478793          	addi	a5,a5,4
8000268c:	41055513          	srai	a0,a0,0x10
80002690:	03778863          	beq	a5,s7,800026c0 <matrix_test+0x1b4>
                ret += 10;
80002694:	00068613          	mv	a2,a3
            cur = C[i * N + j];
80002698:	0007a683          	lw	a3,0(a5)
                ret += 10;
8000269c:	00a50593          	addi	a1,a0,10
            tmp += cur;
800026a0:	00d70733          	add	a4,a4,a3
                ret += (cur > prev) ? 1 : 0;
800026a4:	00d62633          	slt	a2,a2,a3
            if (tmp > clipval)
800026a8:	fce4dce3          	bge	s1,a4,80002680 <matrix_test+0x174>
800026ac:	01059513          	slli	a0,a1,0x10
        for (j = 0; j < N; j++)
800026b0:	00478793          	addi	a5,a5,4
                tmp = 0;
800026b4:	00000713          	li	a4,0
800026b8:	41055513          	srai	a0,a0,0x10
        for (j = 0; j < N; j++)
800026bc:	fd779ce3          	bne	a5,s7,80002694 <matrix_test+0x188>
    for (i = 0; i < N; i++)
800026c0:	01878bb3          	add	s7,a5,s8
800026c4:	01680663          	beq	a6,s6,800026d0 <matrix_test+0x1c4>
800026c8:	00180813          	addi	a6,a6,1
800026cc:	fadff06f          	j	80002678 <matrix_test+0x16c>
    crc = crc16(matrix_sum(N, C, clipval), crc);
800026d0:	000c8593          	mv	a1,s9
800026d4:	831ff0ef          	jal	80001f04 <crc16>
    matrix_mul_matrix(N, C, A, B);
800026d8:	00098693          	mv	a3,s3
    crc = crc16(matrix_sum(N, C, clipval), crc);
800026dc:	00050b13          	mv	s6,a0
    matrix_mul_matrix(N, C, A, B);
800026e0:	00090613          	mv	a2,s2
800026e4:	00040513          	mv	a0,s0
800026e8:	000a8593          	mv	a1,s5
800026ec:	ccdff0ef          	jal	800023b8 <matrix_mul_matrix>
800026f0:	00000313          	li	t1,0
    MATRES tmp = 0, prev = 0, cur = 0;
800026f4:	00000793          	li	a5,0
800026f8:	00000693          	li	a3,0
    ee_s16 ret = 0;
800026fc:	00000513          	li	a0,0
    for (i = 0; i < N; i++)
80002700:	00000893          	li	a7,0
        for (j = 0; j < N; j++)
80002704:	00231613          	slli	a2,t1,0x2
80002708:	00ca8633          	add	a2,s5,a2
8000270c:	00000593          	li	a1,0
80002710:	01c0006f          	j	8000272c <matrix_test+0x220>
                ret += (cur > prev) ? 1 : 0;
80002714:	00e50833          	add	a6,a0,a4
80002718:	01081513          	slli	a0,a6,0x10
        for (j = 0; j < N; j++)
8000271c:	00158593          	addi	a1,a1,1
80002720:	41055513          	srai	a0,a0,0x10
80002724:	00460613          	addi	a2,a2,4
80002728:	0285fa63          	bgeu	a1,s0,8000275c <matrix_test+0x250>
                ret += 10;
8000272c:	00078713          	mv	a4,a5
            cur = C[i * N + j];
80002730:	00062783          	lw	a5,0(a2)
                ret += 10;
80002734:	00a50813          	addi	a6,a0,10
            tmp += cur;
80002738:	00f686b3          	add	a3,a3,a5
                ret += (cur > prev) ? 1 : 0;
8000273c:	00f72733          	slt	a4,a4,a5
            if (tmp > clipval)
80002740:	fcd4dae3          	bge	s1,a3,80002714 <matrix_test+0x208>
80002744:	01081513          	slli	a0,a6,0x10
        for (j = 0; j < N; j++)
80002748:	00158593          	addi	a1,a1,1
                tmp = 0;
8000274c:	00000693          	li	a3,0
80002750:	41055513          	srai	a0,a0,0x10
        for (j = 0; j < N; j++)
80002754:	00460613          	addi	a2,a2,4
80002758:	fc85eae3          	bltu	a1,s0,8000272c <matrix_test+0x220>
    for (i = 0; i < N; i++)
8000275c:	00188893          	addi	a7,a7,1
80002760:	00830333          	add	t1,t1,s0
80002764:	fa88e0e3          	bltu	a7,s0,80002704 <matrix_test+0x1f8>
    crc = crc16(matrix_sum(N, C, clipval), crc);
80002768:	000b0593          	mv	a1,s6
8000276c:	f98ff0ef          	jal	80001f04 <crc16>
    matrix_mul_matrix_bitextract(N, C, A, B);
80002770:	00098693          	mv	a3,s3
    crc = crc16(matrix_sum(N, C, clipval), crc);
80002774:	00050b13          	mv	s6,a0
    matrix_mul_matrix_bitextract(N, C, A, B);
80002778:	00090613          	mv	a2,s2
8000277c:	00040513          	mv	a0,s0
80002780:	000a8593          	mv	a1,s5
80002784:	cd5ff0ef          	jal	80002458 <matrix_mul_matrix_bitextract>
80002788:	00000313          	li	t1,0
    MATRES tmp = 0, prev = 0, cur = 0;
8000278c:	00000793          	li	a5,0
80002790:	00000693          	li	a3,0
    ee_s16 ret = 0;
80002794:	00000513          	li	a0,0
    for (i = 0; i < N; i++)
80002798:	00000893          	li	a7,0
        for (j = 0; j < N; j++)
8000279c:	00231613          	slli	a2,t1,0x2
800027a0:	00ca8633          	add	a2,s5,a2
800027a4:	00000593          	li	a1,0
800027a8:	01c0006f          	j	800027c4 <matrix_test+0x2b8>
                ret += (cur > prev) ? 1 : 0;
800027ac:	00e50833          	add	a6,a0,a4
800027b0:	01081513          	slli	a0,a6,0x10
        for (j = 0; j < N; j++)
800027b4:	00158593          	addi	a1,a1,1
800027b8:	41055513          	srai	a0,a0,0x10
800027bc:	00460613          	addi	a2,a2,4
800027c0:	0285fa63          	bgeu	a1,s0,800027f4 <matrix_test+0x2e8>
                ret += 10;
800027c4:	00078713          	mv	a4,a5
            cur = C[i * N + j];
800027c8:	00062783          	lw	a5,0(a2)
                ret += 10;
800027cc:	00a50813          	addi	a6,a0,10
            tmp += cur;
800027d0:	00f686b3          	add	a3,a3,a5
                ret += (cur > prev) ? 1 : 0;
800027d4:	00f72733          	slt	a4,a4,a5
            if (tmp > clipval)
800027d8:	fcd4dae3          	bge	s1,a3,800027ac <matrix_test+0x2a0>
800027dc:	01081513          	slli	a0,a6,0x10
        for (j = 0; j < N; j++)
800027e0:	00158593          	addi	a1,a1,1
                tmp = 0;
800027e4:	00000693          	li	a3,0
800027e8:	41055513          	srai	a0,a0,0x10
        for (j = 0; j < N; j++)
800027ec:	00460613          	addi	a2,a2,4
800027f0:	fc85eae3          	bltu	a1,s0,800027c4 <matrix_test+0x2b8>
    for (i = 0; i < N; i++)
800027f4:	00188893          	addi	a7,a7,1
800027f8:	00830333          	add	t1,t1,s0
800027fc:	fa88e0e3          	bltu	a7,s0,8000279c <matrix_test+0x290>
    crc = crc16(matrix_sum(N, C, clipval), crc);
80002800:	000b0593          	mv	a1,s6
80002804:	f00ff0ef          	jal	80001f04 <crc16>
80002808:	00000593          	li	a1,0
    for (i = 0; i < N; i++)
8000280c:	00000613          	li	a2,0
        for (j = 0; j < N; j++)
80002810:	00159793          	slli	a5,a1,0x1
80002814:	00f907b3          	add	a5,s2,a5
80002818:	00000713          	li	a4,0
            A[i * N + j] += val;
8000281c:	0007d683          	lhu	a3,0(a5)
        for (j = 0; j < N; j++)
80002820:	00170713          	addi	a4,a4,1
80002824:	00278793          	addi	a5,a5,2
            A[i * N + j] += val;
80002828:	414686b3          	sub	a3,a3,s4
8000282c:	fed79f23          	sh	a3,-2(a5)
        for (j = 0; j < N; j++)
80002830:	fe8766e3          	bltu	a4,s0,8000281c <matrix_test+0x310>
    for (i = 0; i < N; i++)
80002834:	00160613          	addi	a2,a2,1
80002838:	008585b3          	add	a1,a1,s0
8000283c:	fc866ae3          	bltu	a2,s0,80002810 <matrix_test+0x304>
80002840:	02412483          	lw	s1,36(sp)
80002844:	01812a03          	lw	s4,24(sp)
80002848:	01012b03          	lw	s6,16(sp)
8000284c:	00c12b83          	lw	s7,12(sp)
80002850:	00812c03          	lw	s8,8(sp)
80002854:	00412c83          	lw	s9,4(sp)
}
80002858:	02c12083          	lw	ra,44(sp)
8000285c:	02812403          	lw	s0,40(sp)
    return crc;
80002860:	01051513          	slli	a0,a0,0x10
}
80002864:	02012903          	lw	s2,32(sp)
80002868:	01c12983          	lw	s3,28(sp)
8000286c:	01412a83          	lw	s5,20(sp)
    return crc;
80002870:	41055513          	srai	a0,a0,0x10
}
80002874:	03010113          	addi	sp,sp,48
80002878:	00008067          	ret
    crc = crc16(matrix_sum(N, C, clipval), crc);
8000287c:	00000593          	li	a1,0
80002880:	e84ff0ef          	jal	80001f04 <crc16>
    matrix_mul_vect(N, C, A, B);
80002884:	00098693          	mv	a3,s3
80002888:	00090613          	mv	a2,s2
    crc = crc16(matrix_sum(N, C, clipval), crc);
8000288c:	00050413          	mv	s0,a0
    matrix_mul_vect(N, C, A, B);
80002890:	000a8593          	mv	a1,s5
80002894:	00000513          	li	a0,0
80002898:	ac9ff0ef          	jal	80002360 <matrix_mul_vect>
    crc = crc16(matrix_sum(N, C, clipval), crc);
8000289c:	00040593          	mv	a1,s0
800028a0:	00000513          	li	a0,0
800028a4:	e60ff0ef          	jal	80001f04 <crc16>
    matrix_mul_matrix(N, C, A, B);
800028a8:	00098693          	mv	a3,s3
800028ac:	00090613          	mv	a2,s2
    crc = crc16(matrix_sum(N, C, clipval), crc);
800028b0:	00050413          	mv	s0,a0
    matrix_mul_matrix(N, C, A, B);
800028b4:	000a8593          	mv	a1,s5
800028b8:	00000513          	li	a0,0
800028bc:	afdff0ef          	jal	800023b8 <matrix_mul_matrix>
    crc = crc16(matrix_sum(N, C, clipval), crc);
800028c0:	00040593          	mv	a1,s0
800028c4:	00000513          	li	a0,0
800028c8:	e3cff0ef          	jal	80001f04 <crc16>
800028cc:	00050413          	mv	s0,a0
    matrix_mul_matrix_bitextract(N, C, A, B);
800028d0:	000a8593          	mv	a1,s5
800028d4:	00098693          	mv	a3,s3
800028d8:	00090613          	mv	a2,s2
800028dc:	00000513          	li	a0,0
800028e0:	b79ff0ef          	jal	80002458 <matrix_mul_matrix_bitextract>
    crc = crc16(matrix_sum(N, C, clipval), crc);
800028e4:	00040593          	mv	a1,s0
800028e8:	00000513          	li	a0,0
800028ec:	e18ff0ef          	jal	80001f04 <crc16>
    for (i = 0; i < N; i++)
800028f0:	f69ff06f          	j	80002858 <matrix_test+0x34c>

800028f4 <core_bench_matrix>:
{
800028f4:	ff010113          	addi	sp,sp,-16
800028f8:	00812423          	sw	s0,8(sp)
    crc = crc16(matrix_test(N, C, A, B, val), crc);
800028fc:	00852683          	lw	a3,8(a0)
{
80002900:	00060413          	mv	s0,a2
80002904:	00058713          	mv	a4,a1
    crc = crc16(matrix_test(N, C, A, B, val), crc);
80002908:	00452603          	lw	a2,4(a0)
8000290c:	00c52583          	lw	a1,12(a0)
80002910:	00052503          	lw	a0,0(a0)
{
80002914:	00112623          	sw	ra,12(sp)
    crc = crc16(matrix_test(N, C, A, B, val), crc);
80002918:	bf5ff0ef          	jal	8000250c <matrix_test>
8000291c:	00040593          	mv	a1,s0
}
80002920:	00812403          	lw	s0,8(sp)
80002924:	00c12083          	lw	ra,12(sp)
80002928:	01010113          	addi	sp,sp,16
    crc = crc16(matrix_test(N, C, A, B, val), crc);
8000292c:	dd8ff06f          	j	80001f04 <crc16>

80002930 <uart_putc>:

static void set_reg(u32 num, u32 val)
{
    u32 offset = num << uart8250_reg_shift;

    writeb(val, uart8250_base + offset);
80002930:	0140000f          	fence	w,o
80002934:	800047b7          	lui	a5,0x80004
#define u32 uint32_t
#define u16 uint16_t
#define u8 uint16_t

static inline void __raw_writeb(u8 val, volatile void *addr) {
  asm volatile("sb %0, 0(%1)" : : "r"(val), "r"(addr));
80002938:	9687a783          	lw	a5,-1688(a5) # 80003968 <uart8250_base>
8000293c:	00a78023          	sb	a0,0(a5)
{
    // while ((get_reg(UART_LSR_OFFSET) & UART_LSR_THRE) == 0)
    // 	;

    set_reg(UART_THR_OFFSET, ch);
}
80002940:	00008067          	ret

80002944 <uart_getc>:
    u32 offset = num << uart8250_reg_shift;
80002944:	800047b7          	lui	a5,0x80004
80002948:	9647a603          	lw	a2,-1692(a5) # 80003964 <uart8250_reg_shift>
    return readb(uart8250_base + offset);
8000294c:	800046b7          	lui	a3,0x80004
80002950:	9686a783          	lw	a5,-1688(a3) # 80003968 <uart8250_base>
    u32 offset = num << uart8250_reg_shift;
80002954:	00500713          	li	a4,5
80002958:	00c71733          	sll	a4,a4,a2
    return readb(uart8250_base + offset);
8000295c:	00e787b3          	add	a5,a5,a4
}

static inline u8 __raw_readb(const volatile void *addr) {
  u8 val;

  asm volatile("lb %0, 0(%1)" : "=r"(val) : "r"(addr));
80002960:	00078783          	lb	a5,0(a5)
80002964:	01079793          	slli	a5,a5,0x10
80002968:	0107d793          	srli	a5,a5,0x10
8000296c:	0820000f          	fence	i,r

int uart_getc(void)
{
    if (get_reg(UART_LSR_OFFSET) & UART_LSR_DR)
80002970:	0017f793          	andi	a5,a5,1
80002974:	00078e63          	beqz	a5,80002990 <uart_getc+0x4c>
80002978:	9686a503          	lw	a0,-1688(a3)
8000297c:	00050503          	lb	a0,0(a0)
    return readb(uart8250_base + offset);
80002980:	0820000f          	fence	i,r
        return get_reg(UART_RBR_OFFSET);
80002984:	01051513          	slli	a0,a0,0x10
80002988:	01055513          	srli	a0,a0,0x10
8000298c:	00008067          	ret
    return -1;
80002990:	fff00513          	li	a0,-1
}
80002994:	00008067          	ret

80002998 <uart_init>:

int uart_init()
{
    u16 bdiv;

    uart8250_base = (volatile void *)0x10000000;
80002998:	800047b7          	lui	a5,0x80004
8000299c:	10000737          	lui	a4,0x10000
800029a0:	96e7a423          	sw	a4,-1688(a5) # 80003968 <uart8250_base>
    uart8250_reg_shift = 0;
800029a4:	80004737          	lui	a4,0x80004
800029a8:	96072223          	sw	zero,-1692(a4) # 80003964 <uart8250_reg_shift>
    writeb(val, uart8250_base + offset);
800029ac:	0140000f          	fence	w,o
800029b0:	9687a603          	lw	a2,-1688(a5)
  asm volatile("sb %0, 0(%1)" : : "r"(val), "r"(addr));
800029b4:	00000693          	li	a3,0
800029b8:	00160613          	addi	a2,a2,1
800029bc:	00d60023          	sb	a3,0(a2)
    u32 offset = num << uart8250_reg_shift;
800029c0:	96472503          	lw	a0,-1692(a4)
800029c4:	00300613          	li	a2,3
800029c8:	00a61533          	sll	a0,a2,a0
    writeb(val, uart8250_base + offset);
800029cc:	0140000f          	fence	w,o
800029d0:	9687a583          	lw	a1,-1688(a5)
800029d4:	08000813          	li	a6,128
800029d8:	00a585b3          	add	a1,a1,a0
800029dc:	01058023          	sb	a6,0(a1)
    u32 offset = num << uart8250_reg_shift;
800029e0:	96472503          	lw	a0,-1692(a4)
800029e4:	00100813          	li	a6,1
800029e8:	00a81533          	sll	a0,a6,a0
    writeb(val, uart8250_base + offset);
800029ec:	0140000f          	fence	w,o
800029f0:	9687a583          	lw	a1,-1688(a5)
800029f4:	00a585b3          	add	a1,a1,a0
800029f8:	00d58023          	sb	a3,0(a1)
    u32 offset = num << uart8250_reg_shift;
800029fc:	96472503          	lw	a0,-1692(a4)
80002a00:	00a61533          	sll	a0,a2,a0
    writeb(val, uart8250_base + offset);
80002a04:	0140000f          	fence	w,o
80002a08:	9687a583          	lw	a1,-1688(a5)
80002a0c:	00a585b3          	add	a1,a1,a0
80002a10:	00c58023          	sb	a2,0(a1)
    u32 offset = num << uart8250_reg_shift;
80002a14:	96472603          	lw	a2,-1692(a4)
80002a18:	00200593          	li	a1,2
80002a1c:	00c595b3          	sll	a1,a1,a2
    writeb(val, uart8250_base + offset);
80002a20:	0140000f          	fence	w,o
80002a24:	9687a603          	lw	a2,-1688(a5)
80002a28:	00b60633          	add	a2,a2,a1
80002a2c:	01060023          	sb	a6,0(a2)
    u32 offset = num << uart8250_reg_shift;
80002a30:	96472603          	lw	a2,-1692(a4)
80002a34:	00400593          	li	a1,4
80002a38:	00c595b3          	sll	a1,a1,a2
    writeb(val, uart8250_base + offset);
80002a3c:	0140000f          	fence	w,o
80002a40:	9687a603          	lw	a2,-1688(a5)
80002a44:	00b60633          	add	a2,a2,a1
80002a48:	00d60023          	sb	a3,0(a2)
    u32 offset = num << uart8250_reg_shift;
80002a4c:	96472603          	lw	a2,-1692(a4)
80002a50:	00700713          	li	a4,7
80002a54:	00c71733          	sll	a4,a4,a2
    writeb(val, uart8250_base + offset);
80002a58:	0140000f          	fence	w,o
80002a5c:	9687a783          	lw	a5,-1688(a5)
80002a60:	00e787b3          	add	a5,a5,a4
80002a64:	00d78023          	sb	a3,0(a5)
    // /* Read receive buffer */
    // get_reg(UART_RBR_OFFSET);
    /* Set scratchpad */
    set_reg(UART_SCR_OFFSET, 0x00);

    xdev_out(uart_putc);
80002a68:	800037b7          	lui	a5,0x80003
80002a6c:	93078793          	addi	a5,a5,-1744 # 80002930 <uart_putc>
80002a70:	80004737          	lui	a4,0x80004
80002a74:	96f72823          	sw	a5,-1680(a4) # 80003970 <xfunc_out>
    return 0;
80002a78:	00000513          	li	a0,0
80002a7c:	00008067          	ret

80002a80 <xputc>:

void xputc (char c)
{
	if (_CR_CRLF && c == '\n') xputc('\r');		/* CR -> CRLF */

	if (outptr) {
80002a80:	80004737          	lui	a4,0x80004
80002a84:	96c72783          	lw	a5,-1684(a4) # 8000396c <outptr>
80002a88:	00078a63          	beqz	a5,80002a9c <xputc+0x1c>
		*outptr++ = (unsigned char)c;
80002a8c:	00178693          	addi	a3,a5,1
80002a90:	00a78023          	sb	a0,0(a5)
80002a94:	96d72623          	sw	a3,-1684(a4)
		return;
80002a98:	00008067          	ret
	}

	if (xfunc_out) xfunc_out((unsigned char)c);
80002a9c:	800047b7          	lui	a5,0x80004
80002aa0:	9707a783          	lw	a5,-1680(a5) # 80003970 <xfunc_out>
80002aa4:	00078463          	beqz	a5,80002aac <xputc+0x2c>
80002aa8:	00078067          	jr	a5
}
80002aac:	00008067          	ret

80002ab0 <xputs>:
/*----------------------------------------------*/

void xputs (					/* Put a string to the default device */
	const char* str				/* Pointer to the string */
)
{
80002ab0:	ff010113          	addi	sp,sp,-16
80002ab4:	00812423          	sw	s0,8(sp)
80002ab8:	00112623          	sw	ra,12(sp)
80002abc:	00050413          	mv	s0,a0
	while (*str)
80002ac0:	00054503          	lbu	a0,0(a0)
80002ac4:	04050a63          	beqz	a0,80002b18 <xputs+0x68>
80002ac8:	00912223          	sw	s1,4(sp)
80002acc:	01212023          	sw	s2,0(sp)
80002ad0:	800044b7          	lui	s1,0x80004
	if (xfunc_out) xfunc_out((unsigned char)c);
80002ad4:	80004937          	lui	s2,0x80004
80002ad8:	0140006f          	j	80002aec <xputs+0x3c>
		*outptr++ = (unsigned char)c;
80002adc:	96e4a623          	sw	a4,-1684(s1) # 8000396c <outptr>
80002ae0:	00a78023          	sb	a0,0(a5)
	while (*str)
80002ae4:	00044503          	lbu	a0,0(s0)
80002ae8:	02050463          	beqz	a0,80002b10 <xputs+0x60>
	if (outptr) {
80002aec:	96c4a783          	lw	a5,-1684(s1)
		xputc(*str++);
80002af0:	00140413          	addi	s0,s0,1
		*outptr++ = (unsigned char)c;
80002af4:	00178713          	addi	a4,a5,1
	if (outptr) {
80002af8:	fe0792e3          	bnez	a5,80002adc <xputs+0x2c>
	if (xfunc_out) xfunc_out((unsigned char)c);
80002afc:	97092783          	lw	a5,-1680(s2) # 80003970 <xfunc_out>
80002b00:	fe0782e3          	beqz	a5,80002ae4 <xputs+0x34>
80002b04:	000780e7          	jalr	a5
	while (*str)
80002b08:	00044503          	lbu	a0,0(s0)
80002b0c:	fe0510e3          	bnez	a0,80002aec <xputs+0x3c>
80002b10:	00412483          	lw	s1,4(sp)
80002b14:	00012903          	lw	s2,0(sp)
}
80002b18:	00c12083          	lw	ra,12(sp)
80002b1c:	00812403          	lw	s0,8(sp)
80002b20:	01010113          	addi	sp,sp,16
80002b24:	00008067          	ret

80002b28 <xprintf>:

void xprintf (			/* Put a formatted string to the default device */
	const char*	fmt,	/* Pointer to the format string */
	...					/* Optional arguments */
)
{
80002b28:	f7010113          	addi	sp,sp,-144
80002b2c:	06912223          	sw	s1,100(sp)
80002b30:	05612823          	sw	s6,80(sp)
80002b34:	06112623          	sw	ra,108(sp)
80002b38:	06b12a23          	sw	a1,116(sp)
80002b3c:	06c12c23          	sw	a2,120(sp)
80002b40:	06d12e23          	sw	a3,124(sp)
80002b44:	08e12023          	sw	a4,128(sp)
80002b48:	08f12223          	sw	a5,132(sp)
80002b4c:	09012423          	sw	a6,136(sp)
80002b50:	09112623          	sw	a7,140(sp)
80002b54:	00050b13          	mv	s6,a0
		c = *fmt++;					/* Get a char */
80002b58:	00054503          	lbu	a0,0(a0)
	va_list arp;


	va_start(arp, fmt);
80002b5c:	07410493          	addi	s1,sp,116
80002b60:	00912e23          	sw	s1,28(sp)
		if (!c) break;				/* End of format? */
80002b64:	08050e63          	beqz	a0,80002c00 <xprintf+0xd8>
80002b68:	05412c23          	sw	s4,88(sp)
		switch (d) {				/* Type is... */
80002b6c:	80004a37          	lui	s4,0x80004
80002b70:	8fca0793          	addi	a5,s4,-1796 # 800038fc <errpat+0x228>
80002b74:	06812423          	sw	s0,104(sp)
80002b78:	07212023          	sw	s2,96(sp)
80002b7c:	05512a23          	sw	s5,84(sp)
80002b80:	03b12e23          	sw	s11,60(sp)
80002b84:	05312e23          	sw	s3,92(sp)
80002b88:	05712623          	sw	s7,76(sp)
80002b8c:	05812423          	sw	s8,72(sp)
80002b90:	05912223          	sw	s9,68(sp)
80002b94:	05a12023          	sw	s10,64(sp)
80002b98:	00f12623          	sw	a5,12(sp)
		c = *fmt++;					/* Get a char */
80002b9c:	001b0a93          	addi	s5,s6,1
		if (c != '%') {				/* Pass through it if not a % sequense */
80002ba0:	02500913          	li	s2,37
		for (w = 0; c >= '0' && c <= '9'; c = *fmt++)	/* Minimum width */
80002ba4:	00900d93          	li	s11,9
	if (xfunc_out) xfunc_out((unsigned char)c);
80002ba8:	80004437          	lui	s0,0x80004
		if (c != '%') {				/* Pass through it if not a % sequense */
80002bac:	07250463          	beq	a0,s2,80002c14 <xprintf+0xec>
	if (outptr) {
80002bb0:	80004737          	lui	a4,0x80004
80002bb4:	96c72783          	lw	a5,-1684(a4) # 8000396c <outptr>
80002bb8:	3e078a63          	beqz	a5,80002fac <xprintf+0x484>
		*outptr++ = (unsigned char)c;
80002bbc:	00178693          	addi	a3,a5,1
80002bc0:	00a78023          	sb	a0,0(a5)
80002bc4:	96d72623          	sw	a3,-1684(a4)
		c = *fmt++;					/* Get a char */
80002bc8:	000a8b13          	mv	s6,s5
80002bcc:	000b4503          	lbu	a0,0(s6)
80002bd0:	001b0a93          	addi	s5,s6,1
		if (!c) break;				/* End of format? */
80002bd4:	fc051ce3          	bnez	a0,80002bac <xprintf+0x84>
80002bd8:	06812403          	lw	s0,104(sp)
80002bdc:	06012903          	lw	s2,96(sp)
80002be0:	05c12983          	lw	s3,92(sp)
80002be4:	05812a03          	lw	s4,88(sp)
80002be8:	05412a83          	lw	s5,84(sp)
80002bec:	04c12b83          	lw	s7,76(sp)
80002bf0:	04812c03          	lw	s8,72(sp)
80002bf4:	04412c83          	lw	s9,68(sp)
80002bf8:	04012d03          	lw	s10,64(sp)
80002bfc:	03c12d83          	lw	s11,60(sp)
	xvprintf(fmt, arp);
	va_end(arp);
}
80002c00:	06c12083          	lw	ra,108(sp)
80002c04:	06412483          	lw	s1,100(sp)
80002c08:	05012b03          	lw	s6,80(sp)
80002c0c:	09010113          	addi	sp,sp,144
80002c10:	00008067          	ret
		c = *fmt++;					/* Get first char of the sequense */
80002c14:	001b4503          	lbu	a0,1(s6)
		if (c == '0') {				/* Flag: '0' padded */
80002c18:	03000793          	li	a5,48
80002c1c:	3af50063          	beq	a0,a5,80002fbc <xprintf+0x494>
			if (c == '-') {			/* Flag: left justified */
80002c20:	02d00793          	li	a5,45
80002c24:	3af50463          	beq	a0,a5,80002fcc <xprintf+0x4a4>
		c = *fmt++;					/* Get first char of the sequense */
80002c28:	002b0b13          	addi	s6,s6,2
		f = 0;
80002c2c:	00000593          	li	a1,0
		for (w = 0; c >= '0' && c <= '9'; c = *fmt++)	/* Minimum width */
80002c30:	fd050793          	addi	a5,a0,-48
80002c34:	0ff7f793          	zext.b	a5,a5
80002c38:	00000b93          	li	s7,0
80002c3c:	02fde663          	bltu	s11,a5,80002c68 <xprintf+0x140>
			w = w * 10 + c - '0';
80002c40:	002b9793          	slli	a5,s7,0x2
80002c44:	017787b3          	add	a5,a5,s7
		for (w = 0; c >= '0' && c <= '9'; c = *fmt++)	/* Minimum width */
80002c48:	001b0b13          	addi	s6,s6,1
			w = w * 10 + c - '0';
80002c4c:	00179793          	slli	a5,a5,0x1
80002c50:	00a787b3          	add	a5,a5,a0
		for (w = 0; c >= '0' && c <= '9'; c = *fmt++)	/* Minimum width */
80002c54:	fffb4503          	lbu	a0,-1(s6)
			w = w * 10 + c - '0';
80002c58:	fd078b93          	addi	s7,a5,-48
		for (w = 0; c >= '0' && c <= '9'; c = *fmt++)	/* Minimum width */
80002c5c:	fd050793          	addi	a5,a0,-48
80002c60:	0ff7f793          	zext.b	a5,a5
80002c64:	fcfdfee3          	bgeu	s11,a5,80002c40 <xprintf+0x118>
		if (c == 'l' || c == 'L') {	/* Prefix: Size is long int */
80002c68:	0df57793          	andi	a5,a0,223
80002c6c:	04c00713          	li	a4,76
80002c70:	00e79863          	bne	a5,a4,80002c80 <xprintf+0x158>
			f |= 4; c = *fmt++;
80002c74:	000b4503          	lbu	a0,0(s6)
80002c78:	0045e593          	ori	a1,a1,4
80002c7c:	001b0b13          	addi	s6,s6,1
		if (!c) break;				/* End of format? */
80002c80:	f4050ce3          	beqz	a0,80002bd8 <xprintf+0xb0>
		if (d >= 'a') d -= 0x20;
80002c84:	06000793          	li	a5,96
		d = c;
80002c88:	00050713          	mv	a4,a0
		if (d >= 'a') d -= 0x20;
80002c8c:	00a7f663          	bgeu	a5,a0,80002c98 <xprintf+0x170>
80002c90:	fe050713          	addi	a4,a0,-32
80002c94:	0ff77713          	zext.b	a4,a4
		switch (d) {				/* Type is... */
80002c98:	fbe70793          	addi	a5,a4,-66
80002c9c:	0ff7f793          	zext.b	a5,a5
80002ca0:	01600693          	li	a3,22
80002ca4:	00f6ec63          	bltu	a3,a5,80002cbc <xprintf+0x194>
80002ca8:	00c12683          	lw	a3,12(sp)
80002cac:	00279793          	slli	a5,a5,0x2
80002cb0:	00d787b3          	add	a5,a5,a3
80002cb4:	0007a783          	lw	a5,0(a5)
80002cb8:	00078067          	jr	a5
	if (outptr) {
80002cbc:	80004737          	lui	a4,0x80004
80002cc0:	96c72783          	lw	a5,-1684(a4) # 8000396c <outptr>
80002cc4:	34078a63          	beqz	a5,80003018 <xprintf+0x4f0>
		*outptr++ = (unsigned char)c;
80002cc8:	00178693          	addi	a3,a5,1
80002ccc:	00a78023          	sb	a0,0(a5)
80002cd0:	96d72623          	sw	a3,-1684(a4)
		return;
80002cd4:	ef9ff06f          	j	80002bcc <xprintf+0xa4>
		v = (f & 4) ? va_arg(arp, long) : ((d == 'D') ? (long)va_arg(arp, int) : (long)va_arg(arp, unsigned int));
80002cd8:	0045f793          	andi	a5,a1,4
			p = va_arg(arp, char*);
80002cdc:	00448613          	addi	a2,s1,4
		v = (f & 4) ? va_arg(arp, long) : ((d == 'D') ? (long)va_arg(arp, int) : (long)va_arg(arp, unsigned int));
80002ce0:	30078863          	beqz	a5,80002ff0 <xprintf+0x4c8>
		if (d == 'D' && (v & 0x80000000)) {
80002ce4:	fbc70793          	addi	a5,a4,-68
			p = va_arg(arp, char*);
80002ce8:	0004a703          	lw	a4,0(s1)
		if (d == 'D' && (v & 0x80000000)) {
80002cec:	42079063          	bnez	a5,8000310c <xprintf+0x5e4>
80002cf0:	40075e63          	bgez	a4,8000310c <xprintf+0x5e4>
			v = 0 - v;
80002cf4:	40e00733          	neg	a4,a4
			f |= 8;
80002cf8:	0085e593          	ori	a1,a1,8
80002cfc:	00060493          	mv	s1,a2
80002d00:	00800e13          	li	t3,8
80002d04:	00a00693          	li	a3,10
		i = 0;
80002d08:	f8850513          	addi	a0,a0,-120
80002d0c:	00700313          	li	t1,7
80002d10:	00051463          	bnez	a0,80002d18 <xprintf+0x1f0>
80002d14:	02700313          	li	t1,39
80002d18:	00000613          	li	a2,0
80002d1c:	02010a13          	addi	s4,sp,32
80002d20:	0080006f          	j	80002d28 <xprintf+0x200>
			s[i++] = d + '0';
80002d24:	000a8613          	mv	a2,s5
			d = (char)(v % r); v /= r;
80002d28:	02d777b3          	remu	a5,a4,a3
80002d2c:	00070513          	mv	a0,a4
80002d30:	02d75733          	divu	a4,a4,a3
			if (d > 9) d += (c == 'x') ? 0x27 : 0x07;
80002d34:	00fdf463          	bgeu	s11,a5,80002d3c <xprintf+0x214>
80002d38:	00f307b3          	add	a5,t1,a5
			s[i++] = d + '0';
80002d3c:	00160a93          	addi	s5,a2,1
80002d40:	03078793          	addi	a5,a5,48
80002d44:	015a08b3          	add	a7,s4,s5
80002d48:	fef88fa3          	sb	a5,-1(a7)
		} while (v && i < sizeof(s));
80002d4c:	00d56663          	bltu	a0,a3,80002d58 <xprintf+0x230>
80002d50:	ff160793          	addi	a5,a2,-15
80002d54:	fc0798e3          	bnez	a5,80002d24 <xprintf+0x1fc>
		if (f & 8) s[i++] = '-';
80002d58:	000e0a63          	beqz	t3,80002d6c <xprintf+0x244>
80002d5c:	002a87b3          	add	a5,s5,sp
80002d60:	02d00713          	li	a4,45
80002d64:	00260a93          	addi	s5,a2,2
80002d68:	02e78023          	sb	a4,32(a5)
		j = i; d = (f & 1) ? '0' : ' ';
80002d6c:	01f59793          	slli	a5,a1,0x1f
80002d70:	41f7d513          	srai	a0,a5,0x1f
80002d74:	01057c93          	andi	s9,a0,16
	if (outptr) {
80002d78:	80004c37          	lui	s8,0x80004
		while (!(f & 2) && j++ < w) xputc(d);
80002d7c:	0025f593          	andi	a1,a1,2
80002d80:	01512423          	sw	s5,8(sp)
	if (outptr) {
80002d84:	96cc2783          	lw	a5,-1684(s8) # 8000396c <outptr>
		j = i; d = (f & 1) ? '0' : ' ';
80002d88:	020c8c93          	addi	s9,s9,32
		while (!(f & 2) && j++ < w) xputc(d);
80002d8c:	04059a63          	bnez	a1,80002de0 <xprintf+0x2b8>
80002d90:	001b8713          	addi	a4,s7,1
80002d94:	00e12423          	sw	a4,8(sp)
80002d98:	00070d13          	mv	s10,a4
80002d9c:	001a8993          	addi	s3,s5,1
80002da0:	337afc63          	bgeu	s5,s7,800030d8 <xprintf+0x5b0>
	if (outptr) {
80002da4:	02079263          	bnez	a5,80002dc8 <xprintf+0x2a0>
	if (xfunc_out) xfunc_out((unsigned char)c);
80002da8:	97042683          	lw	a3,-1680(s0) # 80003970 <xfunc_out>
80002dac:	1e068a63          	beqz	a3,80002fa0 <xprintf+0x478>
80002db0:	000c8513          	mv	a0,s9
80002db4:	000680e7          	jalr	a3
	if (outptr) {
80002db8:	96cc2783          	lw	a5,-1684(s8)
		while (!(f & 2) && j++ < w) xputc(d);
80002dbc:	03798263          	beq	s3,s7,80002de0 <xprintf+0x2b8>
80002dc0:	00198993          	addi	s3,s3,1
	if (outptr) {
80002dc4:	fe0782e3          	beqz	a5,80002da8 <xprintf+0x280>
		*outptr++ = (unsigned char)c;
80002dc8:	00078693          	mv	a3,a5
80002dcc:	00178793          	addi	a5,a5,1
		while (!(f & 2) && j++ < w) xputc(d);
80002dd0:	00198993          	addi	s3,s3,1
		*outptr++ = (unsigned char)c;
80002dd4:	01968023          	sb	s9,0(a3)
80002dd8:	96fc2623          	sw	a5,-1684(s8)
		while (!(f & 2) && j++ < w) xputc(d);
80002ddc:	ffa996e3          	bne	s3,s10,80002dc8 <xprintf+0x2a0>
80002de0:	015a0ab3          	add	s5,s4,s5
80002de4:	01c0006f          	j	80002e00 <xprintf+0x2d8>
		*outptr++ = (unsigned char)c;
80002de8:	00178713          	addi	a4,a5,1
80002dec:	00a78023          	sb	a0,0(a5)
80002df0:	96ec2623          	sw	a4,-1684(s8)
		do xputc(s[--i]); while(i);
80002df4:	fffa8a93          	addi	s5,s5,-1
80002df8:	035a0263          	beq	s4,s5,80002e1c <xprintf+0x2f4>
	if (outptr) {
80002dfc:	96cc2783          	lw	a5,-1684(s8)
		do xputc(s[--i]); while(i);
80002e00:	fffac503          	lbu	a0,-1(s5)
	if (outptr) {
80002e04:	fe0792e3          	bnez	a5,80002de8 <xprintf+0x2c0>
	if (xfunc_out) xfunc_out((unsigned char)c);
80002e08:	97042783          	lw	a5,-1680(s0)
80002e0c:	fe0784e3          	beqz	a5,80002df4 <xprintf+0x2cc>
		do xputc(s[--i]); while(i);
80002e10:	fffa8a93          	addi	s5,s5,-1
	if (xfunc_out) xfunc_out((unsigned char)c);
80002e14:	000780e7          	jalr	a5
		do xputc(s[--i]); while(i);
80002e18:	ff5a12e3          	bne	s4,s5,80002dfc <xprintf+0x2d4>
		while (j++ < w) xputc(' ');
80002e1c:	00812783          	lw	a5,8(sp)
80002e20:	db77f6e3          	bgeu	a5,s7,80002bcc <xprintf+0xa4>
80002e24:	00178c93          	addi	s9,a5,1
	if (outptr) {
80002e28:	96cc2783          	lw	a5,-1684(s8)
	if (xfunc_out) xfunc_out((unsigned char)c);
80002e2c:	02000a93          	li	s5,32
	if (outptr) {
80002e30:	02078063          	beqz	a5,80002e50 <xprintf+0x328>
		*outptr++ = (unsigned char)c;
80002e34:	00178713          	addi	a4,a5,1
80002e38:	01578023          	sb	s5,0(a5)
80002e3c:	96ec2623          	sw	a4,-1684(s8)
		while (j++ < w) xputc(' ');
80002e40:	d99b86e3          	beq	s7,s9,80002bcc <xprintf+0xa4>
	if (outptr) {
80002e44:	96cc2783          	lw	a5,-1684(s8)
80002e48:	001c8c93          	addi	s9,s9,1
80002e4c:	fe0794e3          	bnez	a5,80002e34 <xprintf+0x30c>
	if (xfunc_out) xfunc_out((unsigned char)c);
80002e50:	97042783          	lw	a5,-1680(s0)
80002e54:	fe0786e3          	beqz	a5,80002e40 <xprintf+0x318>
80002e58:	02000513          	li	a0,32
80002e5c:	000780e7          	jalr	a5
80002e60:	fe1ff06f          	j	80002e40 <xprintf+0x318>
		v = (f & 4) ? va_arg(arp, long) : ((d == 'D') ? (long)va_arg(arp, int) : (long)va_arg(arp, unsigned int));
80002e64:	0045f793          	andi	a5,a1,4
80002e68:	16079a63          	bnez	a5,80002fdc <xprintf+0x4b4>
			r = 8; break;
80002e6c:	00800693          	li	a3,8
80002e70:	00448613          	addi	a2,s1,4
		v = (f & 4) ? va_arg(arp, long) : ((d == 'D') ? (long)va_arg(arp, int) : (long)va_arg(arp, unsigned int));
80002e74:	0004a703          	lw	a4,0(s1)
80002e78:	00000e13          	li	t3,0
80002e7c:	00060493          	mv	s1,a2
80002e80:	e89ff06f          	j	80002d08 <xprintf+0x1e0>
	if (outptr) {
80002e84:	80004737          	lui	a4,0x80004
80002e88:	96c72783          	lw	a5,-1684(a4) # 8000396c <outptr>
			xputc((char)va_arg(arp, int)); continue;
80002e8c:	0004c503          	lbu	a0,0(s1)
80002e90:	00448a93          	addi	s5,s1,4
	if (outptr) {
80002e94:	18078c63          	beqz	a5,8000302c <xprintf+0x504>
		*outptr++ = (unsigned char)c;
80002e98:	00178693          	addi	a3,a5,1
80002e9c:	00a78023          	sb	a0,0(a5)
80002ea0:	96d72623          	sw	a3,-1684(a4)
			xputc((char)va_arg(arp, int)); continue;
80002ea4:	000a8493          	mv	s1,s5
80002ea8:	d25ff06f          	j	80002bcc <xprintf+0xa4>
		v = (f & 4) ? va_arg(arp, long) : ((d == 'D') ? (long)va_arg(arp, int) : (long)va_arg(arp, unsigned int));
80002eac:	0045f793          	andi	a5,a1,4
80002eb0:	14078e63          	beqz	a5,8000300c <xprintf+0x4e4>
			p = va_arg(arp, char*);
80002eb4:	0004a703          	lw	a4,0(s1)
		v = (f & 4) ? va_arg(arp, long) : ((d == 'D') ? (long)va_arg(arp, int) : (long)va_arg(arp, unsigned int));
80002eb8:	00000e13          	li	t3,0
			p = va_arg(arp, char*);
80002ebc:	00448493          	addi	s1,s1,4
			r = 2; break;
80002ec0:	00200693          	li	a3,2
80002ec4:	e45ff06f          	j	80002d08 <xprintf+0x1e0>
		v = (f & 4) ? va_arg(arp, long) : ((d == 'D') ? (long)va_arg(arp, int) : (long)va_arg(arp, unsigned int));
80002ec8:	0045f793          	andi	a5,a1,4
80002ecc:	12078a63          	beqz	a5,80003000 <xprintf+0x4d8>
			p = va_arg(arp, char*);
80002ed0:	0004a703          	lw	a4,0(s1)
		v = (f & 4) ? va_arg(arp, long) : ((d == 'D') ? (long)va_arg(arp, int) : (long)va_arg(arp, unsigned int));
80002ed4:	00000e13          	li	t3,0
			p = va_arg(arp, char*);
80002ed8:	00448493          	addi	s1,s1,4
			r = 16; break;
80002edc:	01000693          	li	a3,16
80002ee0:	e29ff06f          	j	80002d08 <xprintf+0x1e0>
			p = va_arg(arp, char*);
80002ee4:	0004aa03          	lw	s4,0(s1)
			while (!(f & 2) && j++ < w) xputc(' ');
80002ee8:	0025f593          	andi	a1,a1,2
			p = va_arg(arp, char*);
80002eec:	00448493          	addi	s1,s1,4
			for (j = 0; p[j]; j++) ;
80002ef0:	000a4503          	lbu	a0,0(s4)
80002ef4:	1e050663          	beqz	a0,800030e0 <xprintf+0x5b8>
80002ef8:	00000a93          	li	s5,0
80002efc:	000a8d13          	mv	s10,s5
80002f00:	001a8a93          	addi	s5,s5,1
80002f04:	015a0733          	add	a4,s4,s5
80002f08:	00074703          	lbu	a4,0(a4)
80002f0c:	fe0718e3          	bnez	a4,80002efc <xprintf+0x3d4>
			while (!(f & 2) && j++ < w) xputc(' ');
80002f10:	12058a63          	beqz	a1,80003044 <xprintf+0x51c>
			while (j++ < w) xputc(' ');
80002f14:	002d0d13          	addi	s10,s10,2
80002f18:	80004c37          	lui	s8,0x80004
	if (xfunc_out) xfunc_out((unsigned char)c);
80002f1c:	80004cb7          	lui	s9,0x80004
80002f20:	0180006f          	j	80002f38 <xprintf+0x410>
		*outptr++ = (unsigned char)c;
80002f24:	00170693          	addi	a3,a4,1
80002f28:	00a70023          	sb	a0,0(a4)
80002f2c:	96dc2623          	sw	a3,-1684(s8) # 8000396c <outptr>
	while (*str)
80002f30:	000a4503          	lbu	a0,0(s4)
80002f34:	02050263          	beqz	a0,80002f58 <xprintf+0x430>
	if (outptr) {
80002f38:	96cc2703          	lw	a4,-1684(s8)
		xputc(*str++);
80002f3c:	001a0a13          	addi	s4,s4,1
	if (outptr) {
80002f40:	fe0712e3          	bnez	a4,80002f24 <xprintf+0x3fc>
	if (xfunc_out) xfunc_out((unsigned char)c);
80002f44:	970ca703          	lw	a4,-1680(s9) # 80003970 <xfunc_out>
80002f48:	fe0704e3          	beqz	a4,80002f30 <xprintf+0x408>
80002f4c:	000700e7          	jalr	a4
	while (*str)
80002f50:	000a4503          	lbu	a0,0(s4)
80002f54:	fe0512e3          	bnez	a0,80002f38 <xprintf+0x410>
			while (j++ < w) xputc(' ');
80002f58:	80004c37          	lui	s8,0x80004
	if (xfunc_out) xfunc_out((unsigned char)c);
80002f5c:	80004cb7          	lui	s9,0x80004
80002f60:	02000993          	li	s3,32
			while (j++ < w) xputc(' ');
80002f64:	c77af4e3          	bgeu	s5,s7,80002bcc <xprintf+0xa4>
	if (outptr) {
80002f68:	96cc2783          	lw	a5,-1684(s8) # 8000396c <outptr>
80002f6c:	02078063          	beqz	a5,80002f8c <xprintf+0x464>
		*outptr++ = (unsigned char)c;
80002f70:	00178713          	addi	a4,a5,1
80002f74:	01378023          	sb	s3,0(a5)
80002f78:	96ec2623          	sw	a4,-1684(s8)
			while (j++ < w) xputc(' ');
80002f7c:	c57d78e3          	bgeu	s10,s7,80002bcc <xprintf+0xa4>
	if (outptr) {
80002f80:	96cc2783          	lw	a5,-1684(s8)
80002f84:	001d0d13          	addi	s10,s10,1
80002f88:	fe0794e3          	bnez	a5,80002f70 <xprintf+0x448>
	if (xfunc_out) xfunc_out((unsigned char)c);
80002f8c:	970ca783          	lw	a5,-1680(s9) # 80003970 <xfunc_out>
80002f90:	fe0786e3          	beqz	a5,80002f7c <xprintf+0x454>
80002f94:	02000513          	li	a0,32
80002f98:	000780e7          	jalr	a5
80002f9c:	fe1ff06f          	j	80002f7c <xprintf+0x454>
		while (!(f & 2) && j++ < w) xputc(d);
80002fa0:	e57980e3          	beq	s3,s7,80002de0 <xprintf+0x2b8>
80002fa4:	00198993          	addi	s3,s3,1
80002fa8:	e01ff06f          	j	80002da8 <xprintf+0x280>
	if (xfunc_out) xfunc_out((unsigned char)c);
80002fac:	97042783          	lw	a5,-1680(s0)
80002fb0:	c0078ce3          	beqz	a5,80002bc8 <xprintf+0xa0>
80002fb4:	000780e7          	jalr	a5
80002fb8:	c11ff06f          	j	80002bc8 <xprintf+0xa0>
			f = 1; c = *fmt++;
80002fbc:	002b4503          	lbu	a0,2(s6)
80002fc0:	00100593          	li	a1,1
80002fc4:	003b0b13          	addi	s6,s6,3
80002fc8:	c69ff06f          	j	80002c30 <xprintf+0x108>
				f = 2; c = *fmt++;
80002fcc:	002b4503          	lbu	a0,2(s6)
80002fd0:	00200593          	li	a1,2
80002fd4:	003b0b13          	addi	s6,s6,3
80002fd8:	c59ff06f          	j	80002c30 <xprintf+0x108>
			p = va_arg(arp, char*);
80002fdc:	0004a703          	lw	a4,0(s1)
		v = (f & 4) ? va_arg(arp, long) : ((d == 'D') ? (long)va_arg(arp, int) : (long)va_arg(arp, unsigned int));
80002fe0:	00000e13          	li	t3,0
			p = va_arg(arp, char*);
80002fe4:	00448493          	addi	s1,s1,4
			r = 8; break;
80002fe8:	00800693          	li	a3,8
80002fec:	d1dff06f          	j	80002d08 <xprintf+0x1e0>
		v = (f & 4) ? va_arg(arp, long) : ((d == 'D') ? (long)va_arg(arp, int) : (long)va_arg(arp, unsigned int));
80002ff0:	04400793          	li	a5,68
80002ff4:	cef708e3          	beq	a4,a5,80002ce4 <xprintf+0x1bc>
80002ff8:	00a00693          	li	a3,10
80002ffc:	e79ff06f          	j	80002e74 <xprintf+0x34c>
			r = 16; break;
80003000:	01000693          	li	a3,16
80003004:	00448613          	addi	a2,s1,4
80003008:	e6dff06f          	j	80002e74 <xprintf+0x34c>
			r = 2; break;
8000300c:	00200693          	li	a3,2
80003010:	00448613          	addi	a2,s1,4
80003014:	e61ff06f          	j	80002e74 <xprintf+0x34c>
	if (xfunc_out) xfunc_out((unsigned char)c);
80003018:	800047b7          	lui	a5,0x80004
8000301c:	9707a783          	lw	a5,-1680(a5) # 80003970 <xfunc_out>
80003020:	ba0786e3          	beqz	a5,80002bcc <xprintf+0xa4>
80003024:	000780e7          	jalr	a5
80003028:	ba5ff06f          	j	80002bcc <xprintf+0xa4>
8000302c:	800047b7          	lui	a5,0x80004
80003030:	9707a783          	lw	a5,-1680(a5) # 80003970 <xfunc_out>
80003034:	e60788e3          	beqz	a5,80002ea4 <xprintf+0x37c>
80003038:	000780e7          	jalr	a5
			xputc((char)va_arg(arp, int)); continue;
8000303c:	000a8493          	mv	s1,s5
80003040:	b8dff06f          	j	80002bcc <xprintf+0xa4>
			while (j++ < w) xputc(' ');
80003044:	002d0c93          	addi	s9,s10,2
			while (!(f & 2) && j++ < w) xputc(' ');
80003048:	0b7afa63          	bgeu	s5,s7,800030fc <xprintf+0x5d4>
8000304c:	80004c37          	lui	s8,0x80004
	if (outptr) {
80003050:	96cc2703          	lw	a4,-1684(s8) # 8000396c <outptr>
			while (!(f & 2) && j++ < w) xputc(' ');
80003054:	000c8993          	mv	s3,s9
	if (xfunc_out) xfunc_out((unsigned char)c);
80003058:	80004d37          	lui	s10,0x80004
8000305c:	02000a93          	li	s5,32
	if (outptr) {
80003060:	02070063          	beqz	a4,80003080 <xprintf+0x558>
		*outptr++ = (unsigned char)c;
80003064:	00170613          	addi	a2,a4,1
80003068:	01570023          	sb	s5,0(a4)
8000306c:	96cc2623          	sw	a2,-1684(s8)
			while (!(f & 2) && j++ < w) xputc(' ');
80003070:	0379f263          	bgeu	s3,s7,80003094 <xprintf+0x56c>
	if (outptr) {
80003074:	96cc2703          	lw	a4,-1684(s8)
80003078:	00198993          	addi	s3,s3,1
8000307c:	fe0714e3          	bnez	a4,80003064 <xprintf+0x53c>
	if (xfunc_out) xfunc_out((unsigned char)c);
80003080:	970d2703          	lw	a4,-1680(s10) # 80003970 <xfunc_out>
80003084:	fe0706e3          	beqz	a4,80003070 <xprintf+0x548>
80003088:	02000513          	li	a0,32
8000308c:	000700e7          	jalr	a4
			while (!(f & 2) && j++ < w) xputc(' ');
80003090:	ff79e2e3          	bltu	s3,s7,80003074 <xprintf+0x54c>
80003094:	00000713          	li	a4,0
80003098:	039bf063          	bgeu	s7,s9,800030b8 <xprintf+0x590>
	while (*str)
8000309c:	000a4503          	lbu	a0,0(s4)
800030a0:	001c8a93          	addi	s5,s9,1
			while (j++ < w) xputc(' ');
800030a4:	002c8d13          	addi	s10,s9,2
800030a8:	00ea8ab3          	add	s5,s5,a4
800030ac:	00ed0d33          	add	s10,s10,a4
	while (*str)
800030b0:	e60516e3          	bnez	a0,80002f1c <xprintf+0x3f4>
800030b4:	ea5ff06f          	j	80002f58 <xprintf+0x430>
800030b8:	000a4503          	lbu	a0,0(s4)
800030bc:	419b8733          	sub	a4,s7,s9
800030c0:	001c8a93          	addi	s5,s9,1
			while (j++ < w) xputc(' ');
800030c4:	002c8d13          	addi	s10,s9,2
800030c8:	00ea8ab3          	add	s5,s5,a4
800030cc:	00ed0d33          	add	s10,s10,a4
	while (*str)
800030d0:	e40516e3          	bnez	a0,80002f1c <xprintf+0x3f4>
800030d4:	e85ff06f          	j	80002f58 <xprintf+0x430>
		while (!(f & 2) && j++ < w) xputc(d);
800030d8:	01312423          	sw	s3,8(sp)
800030dc:	d05ff06f          	j	80002de0 <xprintf+0x2b8>
			while (!(f & 2) && j++ < w) xputc(' ');
800030e0:	00058863          	beqz	a1,800030f0 <xprintf+0x5c8>
800030e4:	00100d13          	li	s10,1
			for (j = 0; p[j]; j++) ;
800030e8:	00000a93          	li	s5,0
800030ec:	e6dff06f          	j	80002f58 <xprintf+0x430>
			while (!(f & 2) && j++ < w) xputc(' ');
800030f0:	00100c93          	li	s9,1
800030f4:	f40b9ce3          	bnez	s7,8000304c <xprintf+0x524>
800030f8:	ad5ff06f          	j	80002bcc <xprintf+0xa4>
800030fc:	003d0d13          	addi	s10,s10,3
80003100:	000c8a93          	mv	s5,s9
	while (*str)
80003104:	80004c37          	lui	s8,0x80004
80003108:	e15ff06f          	j	80002f1c <xprintf+0x3f4>
8000310c:	00060493          	mv	s1,a2
80003110:	00000e13          	li	t3,0
80003114:	00a00693          	li	a3,10
80003118:	bf1ff06f          	j	80002d08 <xprintf+0x1e0>

8000311c <memset>:
8000311c:	00f00313          	li	t1,15
80003120:	00050713          	mv	a4,a0
80003124:	02c37e63          	bgeu	t1,a2,80003160 <memset+0x44>
80003128:	00f77793          	andi	a5,a4,15
8000312c:	0a079063          	bnez	a5,800031cc <memset+0xb0>
80003130:	08059263          	bnez	a1,800031b4 <memset+0x98>
80003134:	ff067693          	andi	a3,a2,-16
80003138:	00f67613          	andi	a2,a2,15
8000313c:	00e686b3          	add	a3,a3,a4
80003140:	00b72023          	sw	a1,0(a4)
80003144:	00b72223          	sw	a1,4(a4)
80003148:	00b72423          	sw	a1,8(a4)
8000314c:	00b72623          	sw	a1,12(a4)
80003150:	01070713          	addi	a4,a4,16
80003154:	fed766e3          	bltu	a4,a3,80003140 <memset+0x24>
80003158:	00061463          	bnez	a2,80003160 <memset+0x44>
8000315c:	00008067          	ret
80003160:	40c306b3          	sub	a3,t1,a2
80003164:	00269693          	slli	a3,a3,0x2
80003168:	00000297          	auipc	t0,0x0
8000316c:	005686b3          	add	a3,a3,t0
80003170:	00c68067          	jr	12(a3)
80003174:	00b70723          	sb	a1,14(a4)
80003178:	00b706a3          	sb	a1,13(a4)
8000317c:	00b70623          	sb	a1,12(a4)
80003180:	00b705a3          	sb	a1,11(a4)
80003184:	00b70523          	sb	a1,10(a4)
80003188:	00b704a3          	sb	a1,9(a4)
8000318c:	00b70423          	sb	a1,8(a4)
80003190:	00b703a3          	sb	a1,7(a4)
80003194:	00b70323          	sb	a1,6(a4)
80003198:	00b702a3          	sb	a1,5(a4)
8000319c:	00b70223          	sb	a1,4(a4)
800031a0:	00b701a3          	sb	a1,3(a4)
800031a4:	00b70123          	sb	a1,2(a4)
800031a8:	00b700a3          	sb	a1,1(a4)
800031ac:	00b70023          	sb	a1,0(a4)
800031b0:	00008067          	ret
800031b4:	0ff5f593          	zext.b	a1,a1
800031b8:	00859693          	slli	a3,a1,0x8
800031bc:	00d5e5b3          	or	a1,a1,a3
800031c0:	01059693          	slli	a3,a1,0x10
800031c4:	00d5e5b3          	or	a1,a1,a3
800031c8:	f6dff06f          	j	80003134 <memset+0x18>
800031cc:	00279693          	slli	a3,a5,0x2
800031d0:	00000297          	auipc	t0,0x0
800031d4:	005686b3          	add	a3,a3,t0
800031d8:	00008293          	mv	t0,ra
800031dc:	fa0680e7          	jalr	-96(a3)
800031e0:	00028093          	mv	ra,t0
800031e4:	ff078793          	addi	a5,a5,-16
800031e8:	40f70733          	sub	a4,a4,a5
800031ec:	00f60633          	add	a2,a2,a5
800031f0:	f6c378e3          	bgeu	t1,a2,80003160 <memset+0x44>
800031f4:	f3dff06f          	j	80003130 <memset+0x14>
