
dry:     file format elf32-littleriscv
dry


Disassembly of section .init:

80000000 <_start>:
_start():
/home/tututu/qimeng/simulator/baremetal/benchmarks/coremark/../../start.S:9
    .type _start,@function


_start:

  la gp, __global_pointer
80000000:	00005197          	auipc	gp,0x5
80000004:	e9018193          	addi	gp,gp,-368 # 80004e90 <__global_pointer>
/home/tututu/qimeng/simulator/baremetal/benchmarks/coremark/../../start.S:10
  la sp, _sp
80000008:	08000117          	auipc	sp,0x8000
8000000c:	ff810113          	addi	sp,sp,-8 # 88000000 <_sp>
/home/tututu/qimeng/simulator/baremetal/benchmarks/coremark/../../start.S:12

  call main
80000010:	00c000ef          	jal	ra,8000001c <main>
/home/tututu/qimeng/simulator/baremetal/benchmarks/coremark/../../start.S:13
  ebreak
80000014:	00100073          	ebreak

80000018 <loop>:
loop():
/home/tututu/qimeng/simulator/baremetal/benchmarks/coremark/../../start.S:16

loop:
    j loop
80000018:	0000006f          	jal	zero,80000018 <loop>

Disassembly of section .text:

8000001c <main>:
myalloc():
/home/tututu/qimeng/simulator/baremetal/benchmarks/dhrystone/dry.c:448

static char memory[1024];
static char *free_mem = &memory[0];

static char *myalloc(size_t size) {
  while ((unsigned long)free_mem % 4 != 0)
8000001c:	80004637          	lui	a2,0x80004
80000020:	69462783          	lw	a5,1684(a2) # 80004694 <free_mem>
main():
/home/tututu/qimeng/simulator/baremetal/benchmarks/dhrystone/dry.c:727
int main()
/*****/

/* main program, corresponds to procedures        */
/* Main and Proc_0 in the Ada version             */
{
80000024:	f5010113          	addi	sp,sp,-176
80000028:	0a112623          	sw	ra,172(sp)
8000002c:	0a812423          	sw	s0,168(sp)
80000030:	0a912223          	sw	s1,164(sp)
80000034:	0b212023          	sw	s2,160(sp)
80000038:	09312e23          	sw	s3,156(sp)
8000003c:	09412c23          	sw	s4,152(sp)
80000040:	09512a23          	sw	s5,148(sp)
80000044:	09612823          	sw	s6,144(sp)
80000048:	09712623          	sw	s7,140(sp)
8000004c:	09812423          	sw	s8,136(sp)
80000050:	09912223          	sw	s9,132(sp)
80000054:	09a12023          	sw	s10,128(sp)
80000058:	07b12e23          	sw	s11,124(sp)
myalloc():
/home/tututu/qimeng/simulator/baremetal/benchmarks/dhrystone/dry.c:448
  while ((unsigned long)free_mem % 4 != 0)
8000005c:	0037f713          	andi	a4,a5,3
80000060:	00070863          	beq	a4,zero,80000070 <main+0x54>
/home/tututu/qimeng/simulator/baremetal/benchmarks/dhrystone/dry.c:449
    free_mem++;
80000064:	00178793          	addi	a5,a5,1
/home/tututu/qimeng/simulator/baremetal/benchmarks/dhrystone/dry.c:448
  while ((unsigned long)free_mem % 4 != 0)
80000068:	0037f713          	andi	a4,a5,3
8000006c:	fe071ce3          	bne	a4,zero,80000064 <main+0x48>
main():
/home/tututu/qimeng/simulator/baremetal/benchmarks/dhrystone/dry.c:744 (discriminator 1)

  Number_Of_Runs = NUMBER_OF_RUNS;

  /* Initializations */

  Next_Ptr_Glob = (Rec_Pointer)myalloc(sizeof(Rec_Type));
80000070:	80004737          	lui	a4,0x80004
80000074:	66f72e23          	sw	a5,1660(a4) # 8000467c <Next_Ptr_Glob>
myalloc():
/home/tututu/qimeng/simulator/baremetal/benchmarks/dhrystone/dry.c:448
  while ((unsigned long)free_mem % 4 != 0)
80000078:	0037f693          	andi	a3,a5,3
/home/tututu/qimeng/simulator/baremetal/benchmarks/dhrystone/dry.c:451
  free_mem += size;
8000007c:	03078713          	addi	a4,a5,48
/home/tututu/qimeng/simulator/baremetal/benchmarks/dhrystone/dry.c:448
  while ((unsigned long)free_mem % 4 != 0)
80000080:	00068c63          	beq	a3,zero,80000098 <main+0x7c>
80000084:	03178693          	addi	a3,a5,49
80000088:	0036f593          	andi	a1,a3,3
8000008c:	00068713          	addi	a4,a3,0
80000090:	00168693          	addi	a3,a3,1
80000094:	fe059ae3          	bne	a1,zero,80000088 <main+0x6c>
main():
/home/tututu/qimeng/simulator/baremetal/benchmarks/dhrystone/dry.c:745 (discriminator 1)
  Ptr_Glob = (Rec_Pointer)myalloc(sizeof(Rec_Type));
80000098:	80004bb7          	lui	s7,0x80004
8000009c:	68eba023          	sw	a4,1664(s7) # 80004680 <Ptr_Glob>
/home/tututu/qimeng/simulator/baremetal/benchmarks/dhrystone/dry.c:747

  Ptr_Glob->Ptr_Comp = Next_Ptr_Glob;
800000a0:	00f72023          	sw	a5,0(a4)
/home/tututu/qimeng/simulator/baremetal/benchmarks/dhrystone/dry.c:748
  Ptr_Glob->Discr = Ident_1;
800000a4:	680ba503          	lw	a0,1664(s7)
/home/tututu/qimeng/simulator/baremetal/benchmarks/dhrystone/dry.c:750
  Ptr_Glob->variant.var_1.Enum_Comp = Ident_3;
  Ptr_Glob->variant.var_1.Int_Comp = 40;
800000a8:	02800793          	addi	a5,zero,40
/home/tututu/qimeng/simulator/baremetal/benchmarks/dhrystone/dry.c:749
  Ptr_Glob->variant.var_1.Enum_Comp = Ident_3;
800000ac:	00200693          	addi	a3,zero,2
/home/tututu/qimeng/simulator/baremetal/benchmarks/dhrystone/dry.c:750
  Ptr_Glob->variant.var_1.Int_Comp = 40;
800000b0:	00f52623          	sw	a5,12(a0)
myalloc():
/home/tututu/qimeng/simulator/baremetal/benchmarks/dhrystone/dry.c:451
  free_mem += size;
800000b4:	03070713          	addi	a4,a4,48
main():
/home/tututu/qimeng/simulator/baremetal/benchmarks/dhrystone/dry.c:751
  strcpy(Ptr_Glob->variant.var_1.Str_Comp, "DHRYSTONE PROGRAM, SOME STRING");
800000b8:	800017b7          	lui	a5,0x80001
/home/tututu/qimeng/simulator/baremetal/benchmarks/dhrystone/dry.c:749
  Ptr_Glob->variant.var_1.Enum_Comp = Ident_3;
800000bc:	00d52423          	sw	a3,8(a0)
myalloc():
/home/tututu/qimeng/simulator/baremetal/benchmarks/dhrystone/dry.c:451
  free_mem += size;
800000c0:	68e62a23          	sw	a4,1684(a2)
main():
/home/tututu/qimeng/simulator/baremetal/benchmarks/dhrystone/dry.c:748
  Ptr_Glob->Discr = Ident_1;
800000c4:	00052223          	sw	zero,4(a0)
/home/tututu/qimeng/simulator/baremetal/benchmarks/dhrystone/dry.c:751
  strcpy(Ptr_Glob->variant.var_1.Str_Comp, "DHRYSTONE PROGRAM, SOME STRING");
800000c8:	62c78593          	addi	a1,a5,1580 # 8000162c <strcmp+0x17c>
800000cc:	01f00613          	addi	a2,zero,31
800000d0:	01050513          	addi	a0,a0,16
800000d4:	2b4010ef          	jal	ra,80001388 <memcpy>
/home/tututu/qimeng/simulator/baremetal/benchmarks/dhrystone/dry.c:752
  strcpy(Str_1_Loc, "DHRYSTONE PROGRAM, 1'ST STRING");
800000d8:	800027b7          	lui	a5,0x80002
800000dc:	91878793          	addi	a5,a5,-1768 # 80001918 <strcmp+0x468>
800000e0:	0047a683          	lw	a3,4(a5)
800000e4:	0087a703          	lw	a4,8(a5)
800000e8:	0007a603          	lw	a2,0(a5)
800000ec:	02d12a23          	sw	a3,52(sp)
800000f0:	02e12c23          	sw	a4,56(sp)
800000f4:	0107a683          	lw	a3,16(a5)
800000f8:	0147a703          	lw	a4,20(a5)
800000fc:	02c12823          	sw	a2,48(sp)
80000100:	04d12023          	sw	a3,64(sp)
80000104:	00c7a603          	lw	a2,12(a5)
80000108:	0187a683          	lw	a3,24(a5)
8000010c:	04e12223          	sw	a4,68(sp)
80000110:	01c7d703          	lhu	a4,28(a5)
80000114:	01e7c783          	lbu	a5,30(a5)
/home/tututu/qimeng/simulator/baremetal/benchmarks/dhrystone/dry.c:754

  Arr_2_Glob[8][7] = 10;
80000118:	80002437          	lui	s0,0x80002
/home/tututu/qimeng/simulator/baremetal/benchmarks/dhrystone/dry.c:752
  strcpy(Str_1_Loc, "DHRYSTONE PROGRAM, 1'ST STRING");
8000011c:	04d12423          	sw	a3,72(sp)
80000120:	04f10723          	sb	a5,78(sp)
/home/tututu/qimeng/simulator/baremetal/benchmarks/dhrystone/dry.c:754
  Arr_2_Glob[8][7] = 10;
80000124:	800027b7          	lui	a5,0x80002
80000128:	98c78913          	addi	s2,a5,-1652 # 8000198c <strcmp+0x4dc>
/home/tututu/qimeng/simulator/baremetal/benchmarks/dhrystone/dry.c:778
      Proc_5();
      Proc_4();
      /* Ch_1_Glob == 'A', Ch_2_Glob == 'B', Bool_Glob == true */
      Int_1_Loc = 2;
      Int_2_Loc = 3;
      strcpy(Str_2_Loc, "DHRYSTONE PROGRAM, 2'ND STRING");
8000012c:	00092783          	lw	a5,0(s2)
/home/tututu/qimeng/simulator/baremetal/benchmarks/dhrystone/dry.c:752
  strcpy(Str_1_Loc, "DHRYSTONE PROGRAM, 1'ST STRING");
80000130:	04e11623          	sh	a4,76(sp)
80000134:	02c12e23          	sw	a2,60(sp)
/home/tututu/qimeng/simulator/baremetal/benchmarks/dhrystone/dry.c:778
      strcpy(Str_2_Loc, "DHRYSTONE PROGRAM, 2'ND STRING");
80000138:	00f12623          	sw	a5,12(sp)
8000013c:	00492783          	lw	a5,4(s2)
/home/tututu/qimeng/simulator/baremetal/benchmarks/dhrystone/dry.c:754
  Arr_2_Glob[8][7] = 10;
80000140:	f4440413          	addi	s0,s0,-188 # 80001f44 <Arr_2_Glob>
80000144:	800024b7          	lui	s1,0x80002
/home/tututu/qimeng/simulator/baremetal/benchmarks/dhrystone/dry.c:778
      strcpy(Str_2_Loc, "DHRYSTONE PROGRAM, 2'ND STRING");
80000148:	00f12823          	sw	a5,16(sp)
8000014c:	00892783          	lw	a5,8(s2)
/home/tututu/qimeng/simulator/baremetal/benchmarks/dhrystone/dry.c:762
  Done = false;
80000150:	80004737          	lui	a4,0x80004
80000154:	a7c48493          	addi	s1,s1,-1412 # 80001a7c <Arr_1_Glob>
/home/tututu/qimeng/simulator/baremetal/benchmarks/dhrystone/dry.c:778
      strcpy(Str_2_Loc, "DHRYSTONE PROGRAM, 2'ND STRING");
80000158:	00f12a23          	sw	a5,20(sp)
8000015c:	00c92783          	lw	a5,12(s2)
/home/tututu/qimeng/simulator/baremetal/benchmarks/dhrystone/dry.c:762
  Done = false;
80000160:	05200693          	addi	a3,zero,82
80000164:	80004a37          	lui	s4,0x80004
/home/tututu/qimeng/simulator/baremetal/benchmarks/dhrystone/dry.c:778
      strcpy(Str_2_Loc, "DHRYSTONE PROGRAM, 2'ND STRING");
80000168:	00f12c23          	sw	a5,24(sp)
8000016c:	01092783          	lw	a5,16(s2)
80000170:	800049b7          	lui	s3,0x80004
80000174:	80004c37          	lui	s8,0x80004
80000178:	00f12e23          	sw	a5,28(sp)
8000017c:	01492783          	lw	a5,20(s2)
80000180:	80004ab7          	lui	s5,0x80004
80000184:	00100c93          	addi	s9,zero,1
80000188:	02f12023          	sw	a5,32(sp)
8000018c:	01892783          	lw	a5,24(s2)
80000190:	02f12223          	sw	a5,36(sp)
/home/tututu/qimeng/simulator/baremetal/benchmarks/dhrystone/dry.c:754
  Arr_2_Glob[8][7] = 10;
80000194:	00a00793          	addi	a5,zero,10
80000198:	64f42e23          	sw	a5,1628(s0)
/home/tututu/qimeng/simulator/baremetal/benchmarks/dhrystone/dry.c:762
  Done = false;
8000019c:	800037b7          	lui	a5,0x80003
800001a0:	f4478793          	addi	a5,a5,-188 # 80002f44 <Arr_2_Glob+0x1000>
800001a4:	66072423          	sw	zero,1640(a4) # 80004668 <Done>
/home/tututu/qimeng/simulator/baremetal/benchmarks/dhrystone/dry.c:771 (discriminator 1)
    for (Run_Index = 1; Run_Index <= Number_Of_Runs; ++Run_Index) {
800001a8:	02f12423          	sw	a5,40(sp)
/home/tututu/qimeng/simulator/baremetal/benchmarks/dhrystone/dry.c:778
      strcpy(Str_2_Loc, "DHRYSTONE PROGRAM, 2'ND STRING");
800001ac:	00c12603          	lw	a2,12(sp)
800001b0:	01c95703          	lhu	a4,28(s2)
800001b4:	01e94783          	lbu	a5,30(s2)
800001b8:	04c12823          	sw	a2,80(sp)
800001bc:	01012603          	lw	a2,16(sp)
800001c0:	06e11623          	sh	a4,108(sp)
Proc_5():
/home/tututu/qimeng/simulator/baremetal/benchmarks/dhrystone/dry.c:544
  Ch_1_Glob = 'A';
800001c4:	04100d13          	addi	s10,zero,65
main():
/home/tututu/qimeng/simulator/baremetal/benchmarks/dhrystone/dry.c:778
      strcpy(Str_2_Loc, "DHRYSTONE PROGRAM, 2'ND STRING");
800001c8:	04c12a23          	sw	a2,84(sp)
800001cc:	01412603          	lw	a2,20(sp)
Proc_4():
/home/tututu/qimeng/simulator/baremetal/benchmarks/dhrystone/dry.c:537
  Ch_2_Glob = 'B';
800001d0:	04200713          	addi	a4,zero,66
800001d4:	66e98823          	sb	a4,1648(s3) # 80004670 <Ch_2_Glob>
main():
/home/tututu/qimeng/simulator/baremetal/benchmarks/dhrystone/dry.c:778
      strcpy(Str_2_Loc, "DHRYSTONE PROGRAM, 2'ND STRING");
800001d8:	04c12c23          	sw	a2,88(sp)
800001dc:	01812603          	lw	a2,24(sp)
800001e0:	06f10723          	sb	a5,110(sp)
Proc_5():
/home/tututu/qimeng/simulator/baremetal/benchmarks/dhrystone/dry.c:544
  Ch_1_Glob = 'A';
800001e4:	67aa08a3          	sb	s10,1649(s4) # 80004671 <Ch_1_Glob>
main():
/home/tututu/qimeng/simulator/baremetal/benchmarks/dhrystone/dry.c:778
      strcpy(Str_2_Loc, "DHRYSTONE PROGRAM, 2'ND STRING");
800001e8:	04c12e23          	sw	a2,92(sp)
800001ec:	01c12603          	lw	a2,28(sp)
Func_1():
/home/tututu/qimeng/simulator/baremetal/benchmarks/dhrystone/dry.c:653
  if (Ch_2_Loc != Ch_2_Par_Val)
800001f0:	05900713          	addi	a4,zero,89
main():
/home/tututu/qimeng/simulator/baremetal/benchmarks/dhrystone/dry.c:778
      strcpy(Str_2_Loc, "DHRYSTONE PROGRAM, 2'ND STRING");
800001f4:	06c12023          	sw	a2,96(sp)
800001f8:	02012603          	lw	a2,32(sp)
800001fc:	06c12223          	sw	a2,100(sp)
80000200:	02412603          	lw	a2,36(sp)
80000204:	06c12423          	sw	a2,104(sp)
Func_1():
/home/tututu/qimeng/simulator/baremetal/benchmarks/dhrystone/dry.c:653
  if (Ch_2_Loc != Ch_2_Par_Val)
80000208:	16e68a63          	beq	a3,a4,8000037c <main+0x360>
Func_2():
/home/tututu/qimeng/simulator/baremetal/benchmarks/dhrystone/dry.c:691
    if (strcmp(Str_1_Par_Ref, Str_2_Par_Ref) > 0) {
8000020c:	05010593          	addi	a1,sp,80
80000210:	03010513          	addi	a0,sp,48
80000214:	29c010ef          	jal	ra,800014b0 <strcmp>
Proc_8():
/home/tututu/qimeng/simulator/baremetal/benchmarks/dhrystone/dry.c:633
  Arr_2_Par_Ref[Int_Loc][Int_Loc - 1] += 1;
80000218:	65c42703          	lw	a4,1628(s0)
/home/tututu/qimeng/simulator/baremetal/benchmarks/dhrystone/dry.c:634
  Arr_2_Par_Ref[Int_Loc + 20][Int_Loc] = Arr_1_Par_Ref[Int_Loc];
8000021c:	02812783          	lw	a5,40(sp)
main():
/home/tututu/qimeng/simulator/baremetal/benchmarks/dhrystone/dry.c:780 (discriminator 1)
      Enum_Loc = Ident_2;
      Bool_Glob = !Func_2(Str_1_Loc, Str_2_Loc);
80000220:	00152513          	slti	a0,a0,1
Proc_8():
/home/tututu/qimeng/simulator/baremetal/benchmarks/dhrystone/dry.c:633
  Arr_2_Par_Ref[Int_Loc][Int_Loc - 1] += 1;
80000224:	00170713          	addi	a4,a4,1
main():
/home/tututu/qimeng/simulator/baremetal/benchmarks/dhrystone/dry.c:780 (discriminator 1)
      Bool_Glob = !Func_2(Str_1_Loc, Str_2_Loc);
80000228:	66ac2a23          	sw	a0,1652(s8) # 80004674 <Bool_Glob>
Proc_8():
/home/tututu/qimeng/simulator/baremetal/benchmarks/dhrystone/dry.c:633
  Arr_2_Par_Ref[Int_Loc][Int_Loc - 1] += 1;
8000022c:	64e42e23          	sw	a4,1628(s0)
main():
/home/tututu/qimeng/simulator/baremetal/benchmarks/dhrystone/dry.c:793
        Int_1_Loc += 1;
      } /* while */
      /* Int_1_Loc == 3, Int_2_Loc == 3, Int_3_Loc == 7 */
      Proc_8(Arr_1_Glob, Arr_2_Glob, Int_1_Loc, Int_3_Loc);
      /* Int_Glob == 5 */
      Proc_1(Ptr_Glob);
80000230:	680ba503          	lw	a0,1664(s7)
Proc_8():
/home/tututu/qimeng/simulator/baremetal/benchmarks/dhrystone/dry.c:635
  Int_Glob = 5;
80000234:	00500713          	addi	a4,zero,5
80000238:	66eaac23          	sw	a4,1656(s5) # 80004678 <Int_Glob>
/home/tututu/qimeng/simulator/baremetal/benchmarks/dhrystone/dry.c:628
  Arr_1_Par_Ref[Int_Loc] = Int_2_Par_Val;
8000023c:	00700713          	addi	a4,zero,7
80000240:	02e4a023          	sw	a4,32(s1)
/home/tututu/qimeng/simulator/baremetal/benchmarks/dhrystone/dry.c:629
  Arr_1_Par_Ref[Int_Loc + 1] = Arr_1_Par_Ref[Int_Loc];
80000244:	02e4a223          	sw	a4,36(s1)
/home/tututu/qimeng/simulator/baremetal/benchmarks/dhrystone/dry.c:634
  Arr_2_Par_Ref[Int_Loc + 20][Int_Loc] = Arr_1_Par_Ref[Int_Loc];
80000248:	60e7a023          	sw	a4,1536(a5)
/home/tututu/qimeng/simulator/baremetal/benchmarks/dhrystone/dry.c:630
  Arr_1_Par_Ref[Int_Loc + 30] = Int_Loc;
8000024c:	00800713          	addi	a4,zero,8
80000250:	08e4ac23          	sw	a4,152(s1)
/home/tututu/qimeng/simulator/baremetal/benchmarks/dhrystone/dry.c:632
    Arr_2_Par_Ref[Int_Loc][Int_Index] = Int_Loc;
80000254:	66e42023          	sw	a4,1632(s0)
80000258:	66e42223          	sw	a4,1636(s0)
main():
/home/tututu/qimeng/simulator/baremetal/benchmarks/dhrystone/dry.c:793
      Proc_1(Ptr_Glob);
8000025c:	784000ef          	jal	ra,800009e0 <Proc_1>
/home/tututu/qimeng/simulator/baremetal/benchmarks/dhrystone/dry.c:794 (discriminator 1)
      for (Ch_Index = 'A'; Ch_Index <= Ch_2_Glob; ++Ch_Index)
80000260:	6709c603          	lbu	a2,1648(s3)
80000264:	04000713          	addi	a4,zero,64
80000268:	64c77c63          	bgeu	a4,a2,800008c0 <main+0x8a4>
8000026c:	800026b7          	lui	a3,0x80002
/home/tututu/qimeng/simulator/baremetal/benchmarks/dhrystone/dry.c:794
80000270:	000d0793          	addi	a5,s10,0
80000274:	a0068693          	addi	a3,a3,-1536 # 80001a00 <strcmp+0x550>
/home/tututu/qimeng/simulator/baremetal/benchmarks/dhrystone/dry.c:794 (discriminator 1)
80000278:	00000e13          	addi	t3,zero,0
8000027c:	00000893          	addi	a7,zero,0
/home/tututu/qimeng/simulator/baremetal/benchmarks/dhrystone/dry.c:779
      Enum_Loc = Ident_2;
80000280:	00100d13          	addi	s10,zero,1
/home/tututu/qimeng/simulator/baremetal/benchmarks/dhrystone/dry.c:777
      Int_2_Loc = 3;
80000284:	00300513          	addi	a0,zero,3
Func_1():
/home/tututu/qimeng/simulator/baremetal/benchmarks/dhrystone/dry.c:653
  if (Ch_2_Loc != Ch_2_Par_Val)
80000288:	04300593          	addi	a1,zero,67
8000028c:	06b78463          	beq	a5,a1,800002f4 <main+0x2d8>
/home/tututu/qimeng/simulator/baremetal/benchmarks/dhrystone/dry.c:655
    return (Ident_1);
80000290:	00000713          	addi	a4,zero,0
main():
/home/tututu/qimeng/simulator/baremetal/benchmarks/dhrystone/dry.c:797 (discriminator 1)
      /* loop body executed twice */
      {
        if (Enum_Loc == Func_1(Ch_Index, 'C'))
80000294:	07a70663          	beq	a4,s10,80000300 <main+0x2e4>
/home/tututu/qimeng/simulator/baremetal/benchmarks/dhrystone/dry.c:794 (discriminator 2)
      for (Ch_Index = 'A'; Ch_Index <= Ch_2_Glob; ++Ch_Index)
80000298:	00178793          	addi	a5,a5,1
8000029c:	0ff7f793          	andi	a5,a5,255
/home/tututu/qimeng/simulator/baremetal/benchmarks/dhrystone/dry.c:794 (discriminator 1)
800002a0:	fef676e3          	bgeu	a2,a5,8000028c <main+0x270>
800002a4:	000e0463          	beq	t3,zero,800002ac <main+0x290>
/home/tututu/qimeng/simulator/baremetal/benchmarks/dhrystone/dry.c:794
800002a8:	676aac23          	sw	s6,1656(s5)
/home/tututu/qimeng/simulator/baremetal/benchmarks/dhrystone/dry.c:807
          Int_2_Loc = Run_Index;
          Int_Glob = Run_Index;
        }
      }
      /* Int_1_Loc == 3, Int_2_Loc == 3, Int_3_Loc == 7 */
      Int_2_Loc = Int_2_Loc * Int_1_Loc;
800002ac:	00151793          	slli	a5,a0,0x1
800002b0:	00a78db3          	add	s11,a5,a0
/home/tututu/qimeng/simulator/baremetal/benchmarks/dhrystone/dry.c:808
      Int_1_Loc = Int_2_Loc / Int_3_Loc;
800002b4:	000d8513          	addi	a0,s11,0
800002b8:	0c088c63          	beq	a7,zero,80000390 <main+0x374>
800002bc:	04300713          	addi	a4,zero,67
800002c0:	00700593          	addi	a1,zero,7
800002c4:	66ea08a3          	sb	a4,1649(s4)
800002c8:	00c010ef          	jal	ra,800012d4 <__divsi3>
/home/tututu/qimeng/simulator/baremetal/benchmarks/dhrystone/dry.c:809
      Int_2_Loc = 7 * (Int_2_Loc - Int_3_Loc) - Int_1_Loc;
800002cc:	ff9d8793          	addi	a5,s11,-7
800002d0:	00379713          	slli	a4,a5,0x3
800002d4:	40f70733          	sub	a4,a4,a5
800002d8:	40a70733          	sub	a4,a4,a0
/home/tututu/qimeng/simulator/baremetal/benchmarks/dhrystone/dry.c:771 (discriminator 1)
    for (Run_Index = 1; Run_Index <= Number_Of_Runs; ++Run_Index) {
800002dc:	000027b7          	lui	a5,0x2
/home/tututu/qimeng/simulator/baremetal/benchmarks/dhrystone/dry.c:771 (discriminator 2)
800002e0:	001c8c93          	addi	s9,s9,1
/home/tututu/qimeng/simulator/baremetal/benchmarks/dhrystone/dry.c:771 (discriminator 1)
800002e4:	71178793          	addi	a5,a5,1809 # 2711 <__stack_size-0x1ffd8ef>
800002e8:	0efc8863          	beq	s9,a5,800003d8 <main+0x3bc>
Func_2():
/home/tututu/qimeng/simulator/baremetal/benchmarks/dhrystone/dry.c:677
    if (Func_1(Str_1_Par_Ref[Int_Loc], Str_2_Par_Ref[Int_Loc + 1]) == Ident_1)
800002ec:	03214683          	lbu	a3,50(sp)
800002f0:	ebdff06f          	jal	zero,800001ac <main+0x190>
Func_1():
/home/tututu/qimeng/simulator/baremetal/benchmarks/dhrystone/dry.c:677
800002f4:	00100893          	addi	a7,zero,1
/home/tututu/qimeng/simulator/baremetal/benchmarks/dhrystone/dry.c:659
    return (Ident_2);
800002f8:	00088713          	addi	a4,a7,0
main():
/home/tututu/qimeng/simulator/baremetal/benchmarks/dhrystone/dry.c:797 (discriminator 1)
        if (Enum_Loc == Func_1(Ch_Index, 'C'))
800002fc:	f9a71ee3          	bne	a4,s10,80000298 <main+0x27c>
/home/tututu/qimeng/simulator/baremetal/benchmarks/dhrystone/dry.c:801
          strcpy(Str_2_Loc, "DHRYSTONE PROGRAM, 3'RD STRING");
80000300:	0006af83          	lw	t6,0(a3)
80000304:	0046af03          	lw	t5,4(a3)
80000308:	0086ae83          	lw	t4,8(a3)
8000030c:	00c6ae03          	lw	t3,12(a3)
80000310:	0106a303          	lw	t1,16(a3)
80000314:	0146a803          	lw	a6,20(a3)
80000318:	0186a503          	lw	a0,24(a3)
8000031c:	01c6d703          	lhu	a4,28(a3)
/home/tututu/qimeng/simulator/baremetal/benchmarks/dhrystone/dry.c:794 (discriminator 2)
      for (Ch_Index = 'A'; Ch_Index <= Ch_2_Glob; ++Ch_Index)
80000320:	00178793          	addi	a5,a5,1
80000324:	0ff7f793          	andi	a5,a5,255
/home/tututu/qimeng/simulator/baremetal/benchmarks/dhrystone/dry.c:801
          strcpy(Str_2_Loc, "DHRYSTONE PROGRAM, 3'RD STRING");
80000328:	06e11623          	sh	a4,108(sp)
8000032c:	01e6c703          	lbu	a4,30(a3)
80000330:	05f12823          	sw	t6,80(sp)
80000334:	05e12a23          	sw	t5,84(sp)
80000338:	05d12c23          	sw	t4,88(sp)
8000033c:	05c12e23          	sw	t3,92(sp)
80000340:	06612023          	sw	t1,96(sp)
80000344:	07012223          	sw	a6,100(sp)
80000348:	06a12423          	sw	a0,104(sp)
8000034c:	06e10723          	sb	a4,110(sp)
/home/tututu/qimeng/simulator/baremetal/benchmarks/dhrystone/dry.c:794 (discriminator 1)
      for (Ch_Index = 'A'; Ch_Index <= Ch_2_Glob; ++Ch_Index)
80000350:	02f66863          	bltu	a2,a5,80000380 <main+0x364>
Func_1():
/home/tututu/qimeng/simulator/baremetal/benchmarks/dhrystone/dry.c:653
  if (Ch_2_Loc != Ch_2_Par_Val)
80000354:	fcb794e3          	bne	a5,a1,8000031c <main+0x300>
main():
/home/tututu/qimeng/simulator/baremetal/benchmarks/dhrystone/dry.c:794 (discriminator 1)
      for (Ch_Index = 'A'; Ch_Index <= Ch_2_Glob; ++Ch_Index)
80000358:	00100e13          	addi	t3,zero,1
8000035c:	000e0893          	addi	a7,t3,0
/home/tututu/qimeng/simulator/baremetal/benchmarks/dhrystone/dry.c:794 (discriminator 2)
80000360:	04400793          	addi	a5,zero,68
Proc_6():
/home/tututu/qimeng/simulator/baremetal/benchmarks/dhrystone/dry.c:586
    *Enum_Ref_Par = Ident_1;
80000364:	00000d13          	addi	s10,zero,0
main():
/home/tututu/qimeng/simulator/baremetal/benchmarks/dhrystone/dry.c:794 (discriminator 1)
      for (Ch_Index = 'A'; Ch_Index <= Ch_2_Glob; ++Ch_Index)
80000368:	56c5f663          	bgeu	a1,a2,800008d4 <main+0x8b8>
/home/tututu/qimeng/simulator/baremetal/benchmarks/dhrystone/dry.c:802
          Int_2_Loc = Run_Index;
8000036c:	000c8513          	addi	a0,s9,0
/home/tututu/qimeng/simulator/baremetal/benchmarks/dhrystone/dry.c:803
          Int_Glob = Run_Index;
80000370:	000c8b13          	addi	s6,s9,0
Func_1():
/home/tututu/qimeng/simulator/baremetal/benchmarks/dhrystone/dry.c:655
    return (Ident_1);
80000374:	00000713          	addi	a4,zero,0
80000378:	f1dff06f          	jal	zero,80000294 <main+0x278>
/home/tututu/qimeng/simulator/baremetal/benchmarks/dhrystone/dry.c:653
  if (Ch_2_Loc != Ch_2_Par_Val)
8000037c:	0000006f          	jal	zero,8000037c <main+0x360>
main():
/home/tututu/qimeng/simulator/baremetal/benchmarks/dhrystone/dry.c:802
          Int_2_Loc = Run_Index;
80000380:	000c8513          	addi	a0,s9,0
/home/tututu/qimeng/simulator/baremetal/benchmarks/dhrystone/dry.c:803
          Int_Glob = Run_Index;
80000384:	000c8b13          	addi	s6,s9,0
Proc_6():
/home/tututu/qimeng/simulator/baremetal/benchmarks/dhrystone/dry.c:586
    *Enum_Ref_Par = Ident_1;
80000388:	00000d13          	addi	s10,zero,0
8000038c:	f1dff06f          	jal	zero,800002a8 <main+0x28c>
Proc_2():
/home/tututu/qimeng/simulator/baremetal/benchmarks/dhrystone/dry.c:505
    if (Ch_1_Glob == 'A')
80000390:	671a4683          	lbu	a3,1649(s4)
main():
/home/tututu/qimeng/simulator/baremetal/benchmarks/dhrystone/dry.c:808
      Int_1_Loc = Int_2_Loc / Int_3_Loc;
80000394:	00700593          	addi	a1,zero,7
Proc_2():
/home/tututu/qimeng/simulator/baremetal/benchmarks/dhrystone/dry.c:505
    if (Ch_1_Glob == 'A')
80000398:	02d12623          	sw	a3,44(sp)
main():
/home/tututu/qimeng/simulator/baremetal/benchmarks/dhrystone/dry.c:808
      Int_1_Loc = Int_2_Loc / Int_3_Loc;
8000039c:	739000ef          	jal	ra,800012d4 <__divsi3>
/home/tututu/qimeng/simulator/baremetal/benchmarks/dhrystone/dry.c:809
      Int_2_Loc = 7 * (Int_2_Loc - Int_3_Loc) - Int_1_Loc;
800003a0:	ff9d8793          	addi	a5,s11,-7
800003a4:	00379713          	slli	a4,a5,0x3
800003a8:	02c12683          	lw	a3,44(sp)
800003ac:	40f70733          	sub	a4,a4,a5
800003b0:	40a70733          	sub	a4,a4,a0
Proc_2():
/home/tututu/qimeng/simulator/baremetal/benchmarks/dhrystone/dry.c:505
    if (Ch_1_Glob == 'A')
800003b4:	04100793          	addi	a5,zero,65
800003b8:	f2f692e3          	bne	a3,a5,800002dc <main+0x2c0>
/home/tututu/qimeng/simulator/baremetal/benchmarks/dhrystone/dry.c:509
      *Int_Par_Ref = Int_Loc - Int_Glob;
800003bc:	678aa783          	lw	a5,1656(s5)
/home/tututu/qimeng/simulator/baremetal/benchmarks/dhrystone/dry.c:508
      Int_Loc -= 1;
800003c0:	00950513          	addi	a0,a0,9
main():
/home/tututu/qimeng/simulator/baremetal/benchmarks/dhrystone/dry.c:771 (discriminator 2)
    for (Run_Index = 1; Run_Index <= Number_Of_Runs; ++Run_Index) {
800003c4:	001c8c93          	addi	s9,s9,1
Proc_2():
/home/tututu/qimeng/simulator/baremetal/benchmarks/dhrystone/dry.c:509
      *Int_Par_Ref = Int_Loc - Int_Glob;
800003c8:	40f50533          	sub	a0,a0,a5
main():
/home/tututu/qimeng/simulator/baremetal/benchmarks/dhrystone/dry.c:771 (discriminator 1)
    for (Run_Index = 1; Run_Index <= Number_Of_Runs; ++Run_Index) {
800003cc:	000027b7          	lui	a5,0x2
800003d0:	71178793          	addi	a5,a5,1809 # 2711 <__stack_size-0x1ffd8ef>
800003d4:	f0fc9ce3          	bne	s9,a5,800002ec <main+0x2d0>
/home/tututu/qimeng/simulator/baremetal/benchmarks/dhrystone/dry.c:823
    /**************/

    Done = true;
  }

  if (!check(Int_Glob == 5)) {
800003d8:	678aa583          	lw	a1,1656(s5)
800003dc:	00070693          	addi	a3,a4,0
/home/tututu/qimeng/simulator/baremetal/benchmarks/dhrystone/dry.c:820
    Done = true;
800003e0:	80004637          	lui	a2,0x80004
800003e4:	00100713          	addi	a4,zero,1
800003e8:	66e62423          	sw	a4,1640(a2) # 80004668 <Done>
check():
/home/tututu/qimeng/simulator/baremetal/benchmarks/dhrystone/dry.c:718
  if (!cond)
800003ec:	00500a93          	addi	s5,zero,5
main():
/home/tututu/qimeng/simulator/baremetal/benchmarks/dhrystone/dry.c:823
  if (!check(Int_Glob == 5)) {
800003f0:	00050793          	addi	a5,a0,0
800003f4:	000d0c93          	addi	s9,s10,0
check():
/home/tututu/qimeng/simulator/baremetal/benchmarks/dhrystone/dry.c:718
  if (!cond)
800003f8:	4f558463          	beq	a1,s5,800008e0 <main+0x8c4>
800003fc:	00a12823          	sw	a0,16(sp)
main():
/home/tututu/qimeng/simulator/baremetal/benchmarks/dhrystone/dry.c:824
    xprintf("Int_Glob:            %d\n", Int_Glob);
80000400:	80001537          	lui	a0,0x80001
80000404:	65050513          	addi	a0,a0,1616 # 80001650 <strcmp+0x1a0>
check():
/home/tututu/qimeng/simulator/baremetal/benchmarks/dhrystone/dry.c:719
    pass = false;
80000408:	80004937          	lui	s2,0x80004
8000040c:	00d12623          	sw	a3,12(sp)
80000410:	68092823          	sw	zero,1680(s2) # 80004690 <pass>
main():
/home/tututu/qimeng/simulator/baremetal/benchmarks/dhrystone/dry.c:824
    xprintf("Int_Glob:            %d\n", Int_Glob);
80000414:	0cd000ef          	jal	ra,80000ce0 <xprintf>
/home/tututu/qimeng/simulator/baremetal/benchmarks/dhrystone/dry.c:825
    xprintf("        should be:   %d\n", 5);
80000418:	80001537          	lui	a0,0x80001
8000041c:	000a8593          	addi	a1,s5,0
80000420:	66c50513          	addi	a0,a0,1644 # 8000166c <strcmp+0x1bc>
80000424:	0bd000ef          	jal	ra,80000ce0 <xprintf>
80000428:	01012783          	lw	a5,16(sp)
8000042c:	00c12683          	lw	a3,12(sp)
/home/tututu/qimeng/simulator/baremetal/benchmarks/dhrystone/dry.c:827
  }
  if (!check(Bool_Glob == 1)) {
80000430:	674c2583          	lw	a1,1652(s8)
check():
/home/tututu/qimeng/simulator/baremetal/benchmarks/dhrystone/dry.c:718
  if (!cond)
80000434:	00100a93          	addi	s5,zero,1
80000438:	03558a63          	beq	a1,s5,8000046c <main+0x450>
main():
/home/tututu/qimeng/simulator/baremetal/benchmarks/dhrystone/dry.c:828
    xprintf("Bool_Glob:           %d\n", Bool_Glob);
8000043c:	80001537          	lui	a0,0x80001
80000440:	68850513          	addi	a0,a0,1672 # 80001688 <strcmp+0x1d8>
80000444:	00f12823          	sw	a5,16(sp)
80000448:	00d12623          	sw	a3,12(sp)
check():
/home/tututu/qimeng/simulator/baremetal/benchmarks/dhrystone/dry.c:719
    pass = false;
8000044c:	68092823          	sw	zero,1680(s2)
main():
/home/tututu/qimeng/simulator/baremetal/benchmarks/dhrystone/dry.c:828
    xprintf("Bool_Glob:           %d\n", Bool_Glob);
80000450:	091000ef          	jal	ra,80000ce0 <xprintf>
/home/tututu/qimeng/simulator/baremetal/benchmarks/dhrystone/dry.c:829
    xprintf("        should be:   %d\n", 1);
80000454:	80001537          	lui	a0,0x80001
80000458:	000a8593          	addi	a1,s5,0
8000045c:	66c50513          	addi	a0,a0,1644 # 8000166c <strcmp+0x1bc>
80000460:	081000ef          	jal	ra,80000ce0 <xprintf>
80000464:	01012783          	lw	a5,16(sp)
80000468:	00c12683          	lw	a3,12(sp)
/home/tututu/qimeng/simulator/baremetal/benchmarks/dhrystone/dry.c:831
  }
  if (!check(Ch_1_Glob == 'A')) {
8000046c:	671a4583          	lbu	a1,1649(s4)
check():
/home/tututu/qimeng/simulator/baremetal/benchmarks/dhrystone/dry.c:718
  if (!cond)
80000470:	04100a13          	addi	s4,zero,65
80000474:	03458a63          	beq	a1,s4,800004a8 <main+0x48c>
main():
/home/tututu/qimeng/simulator/baremetal/benchmarks/dhrystone/dry.c:832
    xprintf("Ch_1_Glob:           %c\n", Ch_1_Glob);
80000478:	80001537          	lui	a0,0x80001
8000047c:	6a450513          	addi	a0,a0,1700 # 800016a4 <strcmp+0x1f4>
80000480:	00f12823          	sw	a5,16(sp)
80000484:	00d12623          	sw	a3,12(sp)
check():
/home/tututu/qimeng/simulator/baremetal/benchmarks/dhrystone/dry.c:719
    pass = false;
80000488:	68092823          	sw	zero,1680(s2)
main():
/home/tututu/qimeng/simulator/baremetal/benchmarks/dhrystone/dry.c:832
    xprintf("Ch_1_Glob:           %c\n", Ch_1_Glob);
8000048c:	055000ef          	jal	ra,80000ce0 <xprintf>
/home/tututu/qimeng/simulator/baremetal/benchmarks/dhrystone/dry.c:833
    xprintf("        should be:   %c\n", 'A');
80000490:	80001537          	lui	a0,0x80001
80000494:	000a0593          	addi	a1,s4,0
80000498:	6c050513          	addi	a0,a0,1728 # 800016c0 <strcmp+0x210>
8000049c:	045000ef          	jal	ra,80000ce0 <xprintf>
800004a0:	01012783          	lw	a5,16(sp)
800004a4:	00c12683          	lw	a3,12(sp)
/home/tututu/qimeng/simulator/baremetal/benchmarks/dhrystone/dry.c:835
  }
  if (!check(Ch_2_Glob == 'B')) {
800004a8:	6709c583          	lbu	a1,1648(s3)
check():
/home/tututu/qimeng/simulator/baremetal/benchmarks/dhrystone/dry.c:718
  if (!cond)
800004ac:	04200993          	addi	s3,zero,66
800004b0:	03358a63          	beq	a1,s3,800004e4 <main+0x4c8>
main():
/home/tututu/qimeng/simulator/baremetal/benchmarks/dhrystone/dry.c:836
    xprintf("Ch_2_Glob:           %c\n", Ch_2_Glob);
800004b4:	80001537          	lui	a0,0x80001
800004b8:	6dc50513          	addi	a0,a0,1756 # 800016dc <strcmp+0x22c>
800004bc:	00f12823          	sw	a5,16(sp)
800004c0:	00d12623          	sw	a3,12(sp)
check():
/home/tututu/qimeng/simulator/baremetal/benchmarks/dhrystone/dry.c:719
    pass = false;
800004c4:	68092823          	sw	zero,1680(s2)
main():
/home/tututu/qimeng/simulator/baremetal/benchmarks/dhrystone/dry.c:836
    xprintf("Ch_2_Glob:           %c\n", Ch_2_Glob);
800004c8:	019000ef          	jal	ra,80000ce0 <xprintf>
/home/tututu/qimeng/simulator/baremetal/benchmarks/dhrystone/dry.c:837
    xprintf("        should be:   %c\n", 'B');
800004cc:	80001537          	lui	a0,0x80001
800004d0:	00098593          	addi	a1,s3,0
800004d4:	6c050513          	addi	a0,a0,1728 # 800016c0 <strcmp+0x210>
800004d8:	009000ef          	jal	ra,80000ce0 <xprintf>
800004dc:	01012783          	lw	a5,16(sp)
800004e0:	00c12683          	lw	a3,12(sp)
/home/tututu/qimeng/simulator/baremetal/benchmarks/dhrystone/dry.c:839
  }
  if (!check(Arr_1_Glob[8] == 7)) {
800004e4:	0204a583          	lw	a1,32(s1)
check():
/home/tututu/qimeng/simulator/baremetal/benchmarks/dhrystone/dry.c:718
  if (!cond)
800004e8:	00700493          	addi	s1,zero,7
800004ec:	02958a63          	beq	a1,s1,80000520 <main+0x504>
main():
/home/tututu/qimeng/simulator/baremetal/benchmarks/dhrystone/dry.c:840
    xprintf("Arr_1_Glob[8]:       %d\n", Arr_1_Glob[8]);
800004f0:	80001537          	lui	a0,0x80001
800004f4:	6f850513          	addi	a0,a0,1784 # 800016f8 <strcmp+0x248>
800004f8:	00f12823          	sw	a5,16(sp)
800004fc:	00d12623          	sw	a3,12(sp)
check():
/home/tututu/qimeng/simulator/baremetal/benchmarks/dhrystone/dry.c:719
    pass = false;
80000500:	68092823          	sw	zero,1680(s2)
main():
/home/tututu/qimeng/simulator/baremetal/benchmarks/dhrystone/dry.c:840
    xprintf("Arr_1_Glob[8]:       %d\n", Arr_1_Glob[8]);
80000504:	7dc000ef          	jal	ra,80000ce0 <xprintf>
/home/tututu/qimeng/simulator/baremetal/benchmarks/dhrystone/dry.c:841
    xprintf("        should be:   %d\n", 7);
80000508:	80001537          	lui	a0,0x80001
8000050c:	00048593          	addi	a1,s1,0
80000510:	66c50513          	addi	a0,a0,1644 # 8000166c <strcmp+0x1bc>
80000514:	7cc000ef          	jal	ra,80000ce0 <xprintf>
80000518:	01012783          	lw	a5,16(sp)
8000051c:	00c12683          	lw	a3,12(sp)
/home/tututu/qimeng/simulator/baremetal/benchmarks/dhrystone/dry.c:843
  }
  if (!check(Arr_2_Glob[8][7] == Number_Of_Runs + 10)) {
80000520:	65c42583          	lw	a1,1628(s0)
check():
/home/tututu/qimeng/simulator/baremetal/benchmarks/dhrystone/dry.c:718
  if (!cond)
80000524:	00002737          	lui	a4,0x2
80000528:	71a70713          	addi	a4,a4,1818 # 271a <__stack_size-0x1ffd8e6>
8000052c:	02e58863          	beq	a1,a4,8000055c <main+0x540>
main():
/home/tututu/qimeng/simulator/baremetal/benchmarks/dhrystone/dry.c:844
    xprintf("Arr_2_Glob[8][7]:    %d\n", Arr_2_Glob[8][7]);
80000530:	80001537          	lui	a0,0x80001
80000534:	71450513          	addi	a0,a0,1812 # 80001714 <strcmp+0x264>
80000538:	00f12823          	sw	a5,16(sp)
8000053c:	00d12623          	sw	a3,12(sp)
check():
/home/tututu/qimeng/simulator/baremetal/benchmarks/dhrystone/dry.c:719
    pass = false;
80000540:	68092823          	sw	zero,1680(s2)
main():
/home/tututu/qimeng/simulator/baremetal/benchmarks/dhrystone/dry.c:844
    xprintf("Arr_2_Glob[8][7]:    %d\n", Arr_2_Glob[8][7]);
80000544:	79c000ef          	jal	ra,80000ce0 <xprintf>
/home/tututu/qimeng/simulator/baremetal/benchmarks/dhrystone/dry.c:845
    xprintf("        should be:   Number_Of_Runs + 10\n");
80000548:	80001537          	lui	a0,0x80001
8000054c:	73050513          	addi	a0,a0,1840 # 80001730 <strcmp+0x280>
80000550:	790000ef          	jal	ra,80000ce0 <xprintf>
80000554:	01012783          	lw	a5,16(sp)
80000558:	00c12683          	lw	a3,12(sp)
/home/tututu/qimeng/simulator/baremetal/benchmarks/dhrystone/dry.c:848
  }

  if (!check((int)Ptr_Glob->Discr == 0)) {
8000055c:	680ba703          	lw	a4,1664(s7)
80000560:	00472583          	lw	a1,4(a4)
check():
/home/tututu/qimeng/simulator/baremetal/benchmarks/dhrystone/dry.c:718
  if (!cond)
80000564:	02058a63          	beq	a1,zero,80000598 <main+0x57c>
main():
/home/tututu/qimeng/simulator/baremetal/benchmarks/dhrystone/dry.c:849
    xprintf("Ptr_Glob->Discr:             %d\n", Ptr_Glob->Discr);
80000568:	80001537          	lui	a0,0x80001
8000056c:	75c50513          	addi	a0,a0,1884 # 8000175c <strcmp+0x2ac>
80000570:	00f12823          	sw	a5,16(sp)
80000574:	00d12623          	sw	a3,12(sp)
check():
/home/tututu/qimeng/simulator/baremetal/benchmarks/dhrystone/dry.c:719
    pass = false;
80000578:	68092823          	sw	zero,1680(s2)
main():
/home/tututu/qimeng/simulator/baremetal/benchmarks/dhrystone/dry.c:849
    xprintf("Ptr_Glob->Discr:             %d\n", Ptr_Glob->Discr);
8000057c:	764000ef          	jal	ra,80000ce0 <xprintf>
/home/tututu/qimeng/simulator/baremetal/benchmarks/dhrystone/dry.c:850
    xprintf("        should be:   %d\n", 0);
80000580:	80001537          	lui	a0,0x80001
80000584:	66c50513          	addi	a0,a0,1644 # 8000166c <strcmp+0x1bc>
80000588:	00000593          	addi	a1,zero,0
8000058c:	754000ef          	jal	ra,80000ce0 <xprintf>
80000590:	01012783          	lw	a5,16(sp)
80000594:	00c12683          	lw	a3,12(sp)
/home/tututu/qimeng/simulator/baremetal/benchmarks/dhrystone/dry.c:852
  }
  if (!check(Ptr_Glob->variant.var_1.Enum_Comp == 2)) {
80000598:	680ba703          	lw	a4,1664(s7)
check():
/home/tututu/qimeng/simulator/baremetal/benchmarks/dhrystone/dry.c:718
  if (!cond)
8000059c:	00200413          	addi	s0,zero,2
main():
/home/tututu/qimeng/simulator/baremetal/benchmarks/dhrystone/dry.c:852
  if (!check(Ptr_Glob->variant.var_1.Enum_Comp == 2)) {
800005a0:	00872583          	lw	a1,8(a4)
check():
/home/tututu/qimeng/simulator/baremetal/benchmarks/dhrystone/dry.c:718
  if (!cond)
800005a4:	02858a63          	beq	a1,s0,800005d8 <main+0x5bc>
main():
/home/tututu/qimeng/simulator/baremetal/benchmarks/dhrystone/dry.c:853
    xprintf("Ptr_Glob->Enum_Comp:         %d\n",
800005a8:	80001537          	lui	a0,0x80001
800005ac:	78050513          	addi	a0,a0,1920 # 80001780 <strcmp+0x2d0>
800005b0:	00f12823          	sw	a5,16(sp)
800005b4:	00d12623          	sw	a3,12(sp)
check():
/home/tututu/qimeng/simulator/baremetal/benchmarks/dhrystone/dry.c:719
    pass = false;
800005b8:	68092823          	sw	zero,1680(s2)
main():
/home/tututu/qimeng/simulator/baremetal/benchmarks/dhrystone/dry.c:853
    xprintf("Ptr_Glob->Enum_Comp:         %d\n",
800005bc:	724000ef          	jal	ra,80000ce0 <xprintf>
/home/tututu/qimeng/simulator/baremetal/benchmarks/dhrystone/dry.c:855
            Ptr_Glob->variant.var_1.Enum_Comp);
    xprintf("        should be:   %d\n", 2);
800005c0:	80001537          	lui	a0,0x80001
800005c4:	00040593          	addi	a1,s0,0
800005c8:	66c50513          	addi	a0,a0,1644 # 8000166c <strcmp+0x1bc>
800005cc:	714000ef          	jal	ra,80000ce0 <xprintf>
800005d0:	01012783          	lw	a5,16(sp)
800005d4:	00c12683          	lw	a3,12(sp)
/home/tututu/qimeng/simulator/baremetal/benchmarks/dhrystone/dry.c:857
  }
  if (!check(Ptr_Glob->variant.var_1.Int_Comp == 17)) {
800005d8:	680ba703          	lw	a4,1664(s7)
check():
/home/tututu/qimeng/simulator/baremetal/benchmarks/dhrystone/dry.c:718
  if (!cond)
800005dc:	01100413          	addi	s0,zero,17
main():
/home/tututu/qimeng/simulator/baremetal/benchmarks/dhrystone/dry.c:857
  if (!check(Ptr_Glob->variant.var_1.Int_Comp == 17)) {
800005e0:	00c72583          	lw	a1,12(a4)
check():
/home/tututu/qimeng/simulator/baremetal/benchmarks/dhrystone/dry.c:718
  if (!cond)
800005e4:	02858a63          	beq	a1,s0,80000618 <main+0x5fc>
main():
/home/tututu/qimeng/simulator/baremetal/benchmarks/dhrystone/dry.c:858
    xprintf("Ptr_Glob->Int_Comp:          %d\n",
800005e8:	80001537          	lui	a0,0x80001
800005ec:	7a450513          	addi	a0,a0,1956 # 800017a4 <strcmp+0x2f4>
800005f0:	00f12823          	sw	a5,16(sp)
800005f4:	00d12623          	sw	a3,12(sp)
check():
/home/tututu/qimeng/simulator/baremetal/benchmarks/dhrystone/dry.c:719
    pass = false;
800005f8:	68092823          	sw	zero,1680(s2)
main():
/home/tututu/qimeng/simulator/baremetal/benchmarks/dhrystone/dry.c:858
    xprintf("Ptr_Glob->Int_Comp:          %d\n",
800005fc:	6e4000ef          	jal	ra,80000ce0 <xprintf>
/home/tututu/qimeng/simulator/baremetal/benchmarks/dhrystone/dry.c:860
            Ptr_Glob->variant.var_1.Int_Comp);
    xprintf("        should be:   %d\n", 17);
80000600:	80001537          	lui	a0,0x80001
80000604:	00040593          	addi	a1,s0,0
80000608:	66c50513          	addi	a0,a0,1644 # 8000166c <strcmp+0x1bc>
8000060c:	6d4000ef          	jal	ra,80000ce0 <xprintf>
80000610:	01012783          	lw	a5,16(sp)
80000614:	00c12683          	lw	a3,12(sp)
/home/tututu/qimeng/simulator/baremetal/benchmarks/dhrystone/dry.c:862
  }
  if (!check(strcmp(Ptr_Glob->variant.var_1.Str_Comp,
80000618:	680ba403          	lw	s0,1664(s7)
8000061c:	00f12823          	sw	a5,16(sp)
80000620:	800017b7          	lui	a5,0x80001
80000624:	01040413          	addi	s0,s0,16
80000628:	62c78593          	addi	a1,a5,1580 # 8000162c <strcmp+0x17c>
8000062c:	00040513          	addi	a0,s0,0
80000630:	00d12623          	sw	a3,12(sp)
80000634:	67d000ef          	jal	ra,800014b0 <strcmp>
check():
/home/tututu/qimeng/simulator/baremetal/benchmarks/dhrystone/dry.c:718
  if (!cond)
80000638:	00c12683          	lw	a3,12(sp)
8000063c:	01012783          	lw	a5,16(sp)
80000640:	02050663          	beq	a0,zero,8000066c <main+0x650>
main():
/home/tututu/qimeng/simulator/baremetal/benchmarks/dhrystone/dry.c:864
                    "DHRYSTONE PROGRAM, SOME STRING") == 0)) {
    xprintf("Ptr_Glob->Str_Comp:          %s\n",
80000644:	80001537          	lui	a0,0x80001
80000648:	00040593          	addi	a1,s0,0
8000064c:	7c850513          	addi	a0,a0,1992 # 800017c8 <strcmp+0x318>
check():
/home/tututu/qimeng/simulator/baremetal/benchmarks/dhrystone/dry.c:719
    pass = false;
80000650:	68092823          	sw	zero,1680(s2)
main():
/home/tututu/qimeng/simulator/baremetal/benchmarks/dhrystone/dry.c:864
    xprintf("Ptr_Glob->Str_Comp:          %s\n",
80000654:	68c000ef          	jal	ra,80000ce0 <xprintf>
/home/tututu/qimeng/simulator/baremetal/benchmarks/dhrystone/dry.c:866
            Ptr_Glob->variant.var_1.Str_Comp);
    xprintf("        should be:   DHRYSTONE PROGRAM, SOME STRING\n");
80000658:	80001537          	lui	a0,0x80001
8000065c:	7ec50513          	addi	a0,a0,2028 # 800017ec <strcmp+0x33c>
80000660:	680000ef          	jal	ra,80000ce0 <xprintf>
80000664:	01012783          	lw	a5,16(sp)
80000668:	00c12683          	lw	a3,12(sp)
/home/tututu/qimeng/simulator/baremetal/benchmarks/dhrystone/dry.c:869
  }

  if (!check((int)Next_Ptr_Glob->Discr == 0)) {
8000066c:	80004737          	lui	a4,0x80004
80000670:	67c72703          	lw	a4,1660(a4) # 8000467c <Next_Ptr_Glob>
80000674:	00472583          	lw	a1,4(a4)
check():
/home/tututu/qimeng/simulator/baremetal/benchmarks/dhrystone/dry.c:718
  if (!cond)
80000678:	02058a63          	beq	a1,zero,800006ac <main+0x690>
main():
/home/tututu/qimeng/simulator/baremetal/benchmarks/dhrystone/dry.c:870
    xprintf("Next_Ptr_Glob->Discr:             %d\n", Next_Ptr_Glob->Discr);
8000067c:	80002537          	lui	a0,0x80002
80000680:	82450513          	addi	a0,a0,-2012 # 80001824 <strcmp+0x374>
80000684:	00f12823          	sw	a5,16(sp)
80000688:	00d12623          	sw	a3,12(sp)
check():
/home/tututu/qimeng/simulator/baremetal/benchmarks/dhrystone/dry.c:719
    pass = false;
8000068c:	68092823          	sw	zero,1680(s2)
main():
/home/tututu/qimeng/simulator/baremetal/benchmarks/dhrystone/dry.c:870
    xprintf("Next_Ptr_Glob->Discr:             %d\n", Next_Ptr_Glob->Discr);
80000690:	650000ef          	jal	ra,80000ce0 <xprintf>
/home/tututu/qimeng/simulator/baremetal/benchmarks/dhrystone/dry.c:871
    xprintf("        should be:   %d\n", 0);
80000694:	80001537          	lui	a0,0x80001
80000698:	66c50513          	addi	a0,a0,1644 # 8000166c <strcmp+0x1bc>
8000069c:	00000593          	addi	a1,zero,0
800006a0:	640000ef          	jal	ra,80000ce0 <xprintf>
800006a4:	01012783          	lw	a5,16(sp)
800006a8:	00c12683          	lw	a3,12(sp)
/home/tututu/qimeng/simulator/baremetal/benchmarks/dhrystone/dry.c:873
  }
  if (!check(Next_Ptr_Glob->variant.var_1.Enum_Comp == 1)) {
800006ac:	80004737          	lui	a4,0x80004
800006b0:	67c72703          	lw	a4,1660(a4) # 8000467c <Next_Ptr_Glob>
check():
/home/tututu/qimeng/simulator/baremetal/benchmarks/dhrystone/dry.c:718
  if (!cond)
800006b4:	00100413          	addi	s0,zero,1
main():
/home/tututu/qimeng/simulator/baremetal/benchmarks/dhrystone/dry.c:873
  if (!check(Next_Ptr_Glob->variant.var_1.Enum_Comp == 1)) {
800006b8:	00872583          	lw	a1,8(a4)
check():
/home/tututu/qimeng/simulator/baremetal/benchmarks/dhrystone/dry.c:718
  if (!cond)
800006bc:	02858a63          	beq	a1,s0,800006f0 <main+0x6d4>
main():
/home/tututu/qimeng/simulator/baremetal/benchmarks/dhrystone/dry.c:874
    xprintf("Next_Ptr_Glob->Enum_Comp:         %d\n",
800006c0:	80002537          	lui	a0,0x80002
800006c4:	84c50513          	addi	a0,a0,-1972 # 8000184c <strcmp+0x39c>
800006c8:	00f12823          	sw	a5,16(sp)
800006cc:	00d12623          	sw	a3,12(sp)
check():
/home/tututu/qimeng/simulator/baremetal/benchmarks/dhrystone/dry.c:719
    pass = false;
800006d0:	68092823          	sw	zero,1680(s2)
main():
/home/tututu/qimeng/simulator/baremetal/benchmarks/dhrystone/dry.c:874
    xprintf("Next_Ptr_Glob->Enum_Comp:         %d\n",
800006d4:	60c000ef          	jal	ra,80000ce0 <xprintf>
/home/tututu/qimeng/simulator/baremetal/benchmarks/dhrystone/dry.c:876
            Next_Ptr_Glob->variant.var_1.Enum_Comp);
    xprintf("        should be:   %d\n", 1);
800006d8:	80001537          	lui	a0,0x80001
800006dc:	00040593          	addi	a1,s0,0
800006e0:	66c50513          	addi	a0,a0,1644 # 8000166c <strcmp+0x1bc>
800006e4:	5fc000ef          	jal	ra,80000ce0 <xprintf>
800006e8:	01012783          	lw	a5,16(sp)
800006ec:	00c12683          	lw	a3,12(sp)
/home/tututu/qimeng/simulator/baremetal/benchmarks/dhrystone/dry.c:878
  }
  if (!check(Next_Ptr_Glob->variant.var_1.Int_Comp == 18)) {
800006f0:	80004737          	lui	a4,0x80004
800006f4:	67c72703          	lw	a4,1660(a4) # 8000467c <Next_Ptr_Glob>
check():
/home/tututu/qimeng/simulator/baremetal/benchmarks/dhrystone/dry.c:718
  if (!cond)
800006f8:	01200413          	addi	s0,zero,18
main():
/home/tututu/qimeng/simulator/baremetal/benchmarks/dhrystone/dry.c:878
  if (!check(Next_Ptr_Glob->variant.var_1.Int_Comp == 18)) {
800006fc:	00c72583          	lw	a1,12(a4)
check():
/home/tututu/qimeng/simulator/baremetal/benchmarks/dhrystone/dry.c:718
  if (!cond)
80000700:	02858a63          	beq	a1,s0,80000734 <main+0x718>
main():
/home/tututu/qimeng/simulator/baremetal/benchmarks/dhrystone/dry.c:879
    xprintf("Next_Ptr_Glob->Int_Comp:          %d\n",
80000704:	80002537          	lui	a0,0x80002
80000708:	87450513          	addi	a0,a0,-1932 # 80001874 <strcmp+0x3c4>
8000070c:	00f12823          	sw	a5,16(sp)
80000710:	00d12623          	sw	a3,12(sp)
check():
/home/tututu/qimeng/simulator/baremetal/benchmarks/dhrystone/dry.c:719
    pass = false;
80000714:	68092823          	sw	zero,1680(s2)
main():
/home/tututu/qimeng/simulator/baremetal/benchmarks/dhrystone/dry.c:879
    xprintf("Next_Ptr_Glob->Int_Comp:          %d\n",
80000718:	5c8000ef          	jal	ra,80000ce0 <xprintf>
/home/tututu/qimeng/simulator/baremetal/benchmarks/dhrystone/dry.c:881
            Next_Ptr_Glob->variant.var_1.Int_Comp);
    xprintf("        should be:   %d\n", 18);
8000071c:	80001537          	lui	a0,0x80001
80000720:	00040593          	addi	a1,s0,0
80000724:	66c50513          	addi	a0,a0,1644 # 8000166c <strcmp+0x1bc>
80000728:	5b8000ef          	jal	ra,80000ce0 <xprintf>
8000072c:	01012783          	lw	a5,16(sp)
80000730:	00c12683          	lw	a3,12(sp)
/home/tututu/qimeng/simulator/baremetal/benchmarks/dhrystone/dry.c:883
  }
  if (!check(strcmp(Next_Ptr_Glob->variant.var_1.Str_Comp,
80000734:	00f12823          	sw	a5,16(sp)
80000738:	800047b7          	lui	a5,0x80004
8000073c:	67c7a403          	lw	s0,1660(a5) # 8000467c <Next_Ptr_Glob>
80000740:	800017b7          	lui	a5,0x80001
80000744:	62c78593          	addi	a1,a5,1580 # 8000162c <strcmp+0x17c>
80000748:	01040413          	addi	s0,s0,16
8000074c:	00040513          	addi	a0,s0,0
80000750:	00d12623          	sw	a3,12(sp)
80000754:	55d000ef          	jal	ra,800014b0 <strcmp>
check():
/home/tututu/qimeng/simulator/baremetal/benchmarks/dhrystone/dry.c:718
  if (!cond)
80000758:	00c12683          	lw	a3,12(sp)
8000075c:	01012783          	lw	a5,16(sp)
80000760:	02050663          	beq	a0,zero,8000078c <main+0x770>
main():
/home/tututu/qimeng/simulator/baremetal/benchmarks/dhrystone/dry.c:885
                    "DHRYSTONE PROGRAM, SOME STRING") == 0)) {
    xprintf("Next_Ptr_Glob->Str_Comp:          %s\n",
80000764:	80002537          	lui	a0,0x80002
80000768:	00040593          	addi	a1,s0,0
8000076c:	89c50513          	addi	a0,a0,-1892 # 8000189c <strcmp+0x3ec>
check():
/home/tututu/qimeng/simulator/baremetal/benchmarks/dhrystone/dry.c:719
    pass = false;
80000770:	68092823          	sw	zero,1680(s2)
main():
/home/tututu/qimeng/simulator/baremetal/benchmarks/dhrystone/dry.c:885
    xprintf("Next_Ptr_Glob->Str_Comp:          %s\n",
80000774:	56c000ef          	jal	ra,80000ce0 <xprintf>
/home/tututu/qimeng/simulator/baremetal/benchmarks/dhrystone/dry.c:887
            Next_Ptr_Glob->variant.var_1.Str_Comp);
    xprintf("        should be:   DHRYSTONE PROGRAM, SOME STRING\n");
80000778:	80001537          	lui	a0,0x80001
8000077c:	7ec50513          	addi	a0,a0,2028 # 800017ec <strcmp+0x33c>
80000780:	560000ef          	jal	ra,80000ce0 <xprintf>
80000784:	01012783          	lw	a5,16(sp)
80000788:	00c12683          	lw	a3,12(sp)
check():
/home/tututu/qimeng/simulator/baremetal/benchmarks/dhrystone/dry.c:718
  if (!cond)
8000078c:	00500413          	addi	s0,zero,5
80000790:	02878863          	beq	a5,s0,800007c0 <main+0x7a4>
main():
/home/tututu/qimeng/simulator/baremetal/benchmarks/dhrystone/dry.c:891
  }

  if (!check(Int_1_Loc == 5)) {
    xprintf("Int_1_Loc:           %d\n", Int_1_Loc);
80000794:	80002537          	lui	a0,0x80002
80000798:	00078593          	addi	a1,a5,0
8000079c:	8c450513          	addi	a0,a0,-1852 # 800018c4 <strcmp+0x414>
800007a0:	00d12623          	sw	a3,12(sp)
check():
/home/tututu/qimeng/simulator/baremetal/benchmarks/dhrystone/dry.c:719
    pass = false;
800007a4:	68092823          	sw	zero,1680(s2)
main():
/home/tututu/qimeng/simulator/baremetal/benchmarks/dhrystone/dry.c:891
    xprintf("Int_1_Loc:           %d\n", Int_1_Loc);
800007a8:	538000ef          	jal	ra,80000ce0 <xprintf>
/home/tututu/qimeng/simulator/baremetal/benchmarks/dhrystone/dry.c:892
    xprintf("        should be:   %d\n", 5);
800007ac:	80001537          	lui	a0,0x80001
800007b0:	00040593          	addi	a1,s0,0
800007b4:	66c50513          	addi	a0,a0,1644 # 8000166c <strcmp+0x1bc>
800007b8:	528000ef          	jal	ra,80000ce0 <xprintf>
800007bc:	00c12683          	lw	a3,12(sp)
check():
/home/tututu/qimeng/simulator/baremetal/benchmarks/dhrystone/dry.c:718
  if (!cond)
800007c0:	00d00413          	addi	s0,zero,13
800007c4:	02868463          	beq	a3,s0,800007ec <main+0x7d0>
main():
/home/tututu/qimeng/simulator/baremetal/benchmarks/dhrystone/dry.c:895
  }
  if (!check(Int_2_Loc == 13)) {
    xprintf("Int_2_Loc:           %d\n", Int_2_Loc);
800007c8:	80002537          	lui	a0,0x80002
800007cc:	00068593          	addi	a1,a3,0
800007d0:	8e050513          	addi	a0,a0,-1824 # 800018e0 <strcmp+0x430>
check():
/home/tututu/qimeng/simulator/baremetal/benchmarks/dhrystone/dry.c:719
    pass = false;
800007d4:	68092823          	sw	zero,1680(s2)
main():
/home/tututu/qimeng/simulator/baremetal/benchmarks/dhrystone/dry.c:895
    xprintf("Int_2_Loc:           %d\n", Int_2_Loc);
800007d8:	508000ef          	jal	ra,80000ce0 <xprintf>
/home/tututu/qimeng/simulator/baremetal/benchmarks/dhrystone/dry.c:896
    xprintf("        should be:   %d\n", 13);
800007dc:	80001537          	lui	a0,0x80001
800007e0:	00040593          	addi	a1,s0,0
800007e4:	66c50513          	addi	a0,a0,1644 # 8000166c <strcmp+0x1bc>
800007e8:	4f8000ef          	jal	ra,80000ce0 <xprintf>
check():
/home/tututu/qimeng/simulator/baremetal/benchmarks/dhrystone/dry.c:718
  if (!cond)
800007ec:	020c9463          	bne	s9,zero,80000814 <main+0x7f8>
main():
/home/tututu/qimeng/simulator/baremetal/benchmarks/dhrystone/dry.c:903
  if (!check(Int_3_Loc == 7)) {
    xprintf("Int_3_Loc:           %d\n", Int_3_Loc);
    xprintf("        should be:   %d\n", 7);
  }
  if (!check(Enum_Loc == 1)) {
    xprintf("Enum_Loc:            %d\n", Enum_Loc);
800007f0:	80002537          	lui	a0,0x80002
800007f4:	8fc50513          	addi	a0,a0,-1796 # 800018fc <strcmp+0x44c>
800007f8:	00000593          	addi	a1,zero,0
check():
/home/tututu/qimeng/simulator/baremetal/benchmarks/dhrystone/dry.c:719
    pass = false;
800007fc:	68092823          	sw	zero,1680(s2)
main():
/home/tututu/qimeng/simulator/baremetal/benchmarks/dhrystone/dry.c:903
    xprintf("Enum_Loc:            %d\n", Enum_Loc);
80000800:	4e0000ef          	jal	ra,80000ce0 <xprintf>
/home/tututu/qimeng/simulator/baremetal/benchmarks/dhrystone/dry.c:904
    xprintf("        should be:   %d\n", 1);
80000804:	80001537          	lui	a0,0x80001
80000808:	66c50513          	addi	a0,a0,1644 # 8000166c <strcmp+0x1bc>
8000080c:	00100593          	addi	a1,zero,1
80000810:	4d0000ef          	jal	ra,80000ce0 <xprintf>
/home/tututu/qimeng/simulator/baremetal/benchmarks/dhrystone/dry.c:907
  }

  if (!check(strcmp(Str_1_Loc, "DHRYSTONE PROGRAM, 1'ST STRING") == 0)) {
80000814:	800027b7          	lui	a5,0x80002
80000818:	91878593          	addi	a1,a5,-1768 # 80001918 <strcmp+0x468>
8000081c:	03010513          	addi	a0,sp,48
80000820:	491000ef          	jal	ra,800014b0 <strcmp>
check():
/home/tututu/qimeng/simulator/baremetal/benchmarks/dhrystone/dry.c:718
  if (!cond)
80000824:	02050263          	beq	a0,zero,80000848 <main+0x82c>
main():
/home/tututu/qimeng/simulator/baremetal/benchmarks/dhrystone/dry.c:908
    xprintf("Str_1_Loc:           %s\n", Str_1_Loc);
80000828:	80002537          	lui	a0,0x80002
8000082c:	93850513          	addi	a0,a0,-1736 # 80001938 <strcmp+0x488>
80000830:	03010593          	addi	a1,sp,48
check():
/home/tututu/qimeng/simulator/baremetal/benchmarks/dhrystone/dry.c:719
    pass = false;
80000834:	68092823          	sw	zero,1680(s2)
main():
/home/tututu/qimeng/simulator/baremetal/benchmarks/dhrystone/dry.c:908
    xprintf("Str_1_Loc:           %s\n", Str_1_Loc);
80000838:	4a8000ef          	jal	ra,80000ce0 <xprintf>
/home/tututu/qimeng/simulator/baremetal/benchmarks/dhrystone/dry.c:909
    xprintf("        should be:   DHRYSTONE PROGRAM, 1'ST STRING\n");
8000083c:	80002537          	lui	a0,0x80002
80000840:	95450513          	addi	a0,a0,-1708 # 80001954 <strcmp+0x4a4>
80000844:	49c000ef          	jal	ra,80000ce0 <xprintf>
/home/tututu/qimeng/simulator/baremetal/benchmarks/dhrystone/dry.c:911
  }
  if (!check(strcmp(Str_2_Loc, "DHRYSTONE PROGRAM, 2'ND STRING") == 0)) {
80000848:	800027b7          	lui	a5,0x80002
8000084c:	98c78593          	addi	a1,a5,-1652 # 8000198c <strcmp+0x4dc>
80000850:	05010513          	addi	a0,sp,80
80000854:	45d000ef          	jal	ra,800014b0 <strcmp>
check():
/home/tututu/qimeng/simulator/baremetal/benchmarks/dhrystone/dry.c:718
  if (!cond)
80000858:	02050263          	beq	a0,zero,8000087c <main+0x860>
main():
/home/tututu/qimeng/simulator/baremetal/benchmarks/dhrystone/dry.c:912
    xprintf("Str_2_Loc:           %s\n", Str_2_Loc);
8000085c:	80002537          	lui	a0,0x80002
80000860:	9ac50513          	addi	a0,a0,-1620 # 800019ac <strcmp+0x4fc>
80000864:	05010593          	addi	a1,sp,80
check():
/home/tututu/qimeng/simulator/baremetal/benchmarks/dhrystone/dry.c:719
    pass = false;
80000868:	68092823          	sw	zero,1680(s2)
main():
/home/tututu/qimeng/simulator/baremetal/benchmarks/dhrystone/dry.c:912
    xprintf("Str_2_Loc:           %s\n", Str_2_Loc);
8000086c:	474000ef          	jal	ra,80000ce0 <xprintf>
/home/tututu/qimeng/simulator/baremetal/benchmarks/dhrystone/dry.c:913
    xprintf("        should be:   DHRYSTONE PROGRAM, 2'ND STRING\n");
80000870:	80002537          	lui	a0,0x80002
80000874:	9c850513          	addi	a0,a0,-1592 # 800019c8 <strcmp+0x518>
80000878:	468000ef          	jal	ra,80000ce0 <xprintf>
/home/tututu/qimeng/simulator/baremetal/benchmarks/dhrystone/dry.c:922
  // xprintf("==================================================\n");
  // xprintf("Dhrystone %s         %d Marks\n", pass ? "PASS" : "FAIL",
  //         880900 / (int)User_Time * NUMBER_OF_RUNS / 500000);
  // xprintf("                   vs. 100000 Marks (i7-7700K @ 4.20GHz)\n");

  return (pass ? 0 : 1);
8000087c:	69092503          	lw	a0,1680(s2)
/home/tututu/qimeng/simulator/baremetal/benchmarks/dhrystone/dry.c:923
}
80000880:	0ac12083          	lw	ra,172(sp)
80000884:	0a812403          	lw	s0,168(sp)
80000888:	0a412483          	lw	s1,164(sp)
8000088c:	0a012903          	lw	s2,160(sp)
80000890:	09c12983          	lw	s3,156(sp)
80000894:	09812a03          	lw	s4,152(sp)
80000898:	09412a83          	lw	s5,148(sp)
8000089c:	09012b03          	lw	s6,144(sp)
800008a0:	08c12b83          	lw	s7,140(sp)
800008a4:	08812c03          	lw	s8,136(sp)
800008a8:	08412c83          	lw	s9,132(sp)
800008ac:	08012d03          	lw	s10,128(sp)
800008b0:	07c12d83          	lw	s11,124(sp)
800008b4:	00153513          	sltiu	a0,a0,1
800008b8:	0b010113          	addi	sp,sp,176
800008bc:	00008067          	jalr	zero,0(ra)
Proc_2():
/home/tututu/qimeng/simulator/baremetal/benchmarks/dhrystone/dry.c:505
    if (Ch_1_Glob == 'A')
800008c0:	00100513          	addi	a0,zero,1
800008c4:	671a4683          	lbu	a3,1649(s4)
main():
/home/tututu/qimeng/simulator/baremetal/benchmarks/dhrystone/dry.c:779
      Enum_Loc = Ident_2;
800008c8:	00050d13          	addi	s10,a0,0
Proc_2():
/home/tututu/qimeng/simulator/baremetal/benchmarks/dhrystone/dry.c:505
    if (Ch_1_Glob == 'A')
800008cc:	00d00713          	addi	a4,zero,13
800008d0:	ae5ff06f          	jal	zero,800003b4 <main+0x398>
main():
/home/tututu/qimeng/simulator/baremetal/benchmarks/dhrystone/dry.c:803
          Int_Glob = Run_Index;
800008d4:	000c8b13          	addi	s6,s9,0
/home/tututu/qimeng/simulator/baremetal/benchmarks/dhrystone/dry.c:802
          Int_2_Loc = Run_Index;
800008d8:	000c8513          	addi	a0,s9,0
800008dc:	9cdff06f          	jal	zero,800002a8 <main+0x28c>
800008e0:	80004937          	lui	s2,0x80004
800008e4:	b4dff06f          	jal	zero,80000430 <main+0x414>

800008e8 <Proc_2>:
Proc_2():
/home/tututu/qimeng/simulator/baremetal/benchmarks/dhrystone/dry.c:505
    if (Ch_1_Glob == 'A')
800008e8:	800047b7          	lui	a5,0x80004
800008ec:	6717c703          	lbu	a4,1649(a5) # 80004671 <Ch_1_Glob>
800008f0:	04100793          	addi	a5,zero,65
800008f4:	00f70463          	beq	a4,a5,800008fc <Proc_2+0x14>
/home/tututu/qimeng/simulator/baremetal/benchmarks/dhrystone/dry.c:513
} /* Proc_2 */
800008f8:	00008067          	jalr	zero,0(ra)
/home/tututu/qimeng/simulator/baremetal/benchmarks/dhrystone/dry.c:508
      Int_Loc -= 1;
800008fc:	00052783          	lw	a5,0(a0)
/home/tututu/qimeng/simulator/baremetal/benchmarks/dhrystone/dry.c:509
      *Int_Par_Ref = Int_Loc - Int_Glob;
80000900:	80004737          	lui	a4,0x80004
80000904:	67872703          	lw	a4,1656(a4) # 80004678 <Int_Glob>
/home/tututu/qimeng/simulator/baremetal/benchmarks/dhrystone/dry.c:508
      Int_Loc -= 1;
80000908:	00978793          	addi	a5,a5,9
/home/tututu/qimeng/simulator/baremetal/benchmarks/dhrystone/dry.c:509
      *Int_Par_Ref = Int_Loc - Int_Glob;
8000090c:	40e787b3          	sub	a5,a5,a4
80000910:	00f52023          	sw	a5,0(a0)
/home/tututu/qimeng/simulator/baremetal/benchmarks/dhrystone/dry.c:513
} /* Proc_2 */
80000914:	00008067          	jalr	zero,0(ra)

80000918 <Proc_3>:
Proc_3():
/home/tututu/qimeng/simulator/baremetal/benchmarks/dhrystone/dry.c:523
  if (Ptr_Glob != Null)
80000918:	80004737          	lui	a4,0x80004
8000091c:	68072783          	lw	a5,1664(a4) # 80004680 <Ptr_Glob>
80000920:	00078863          	beq	a5,zero,80000930 <Proc_3+0x18>
/home/tututu/qimeng/simulator/baremetal/benchmarks/dhrystone/dry.c:525
    *Ptr_Ref_Par = Ptr_Glob->Ptr_Comp;
80000924:	0007a783          	lw	a5,0(a5)
80000928:	00f52023          	sw	a5,0(a0)
/home/tututu/qimeng/simulator/baremetal/benchmarks/dhrystone/dry.c:526
  Proc_7(10, Int_Glob, &Ptr_Glob->variant.var_1.Int_Comp);
8000092c:	68072783          	lw	a5,1664(a4)
80000930:	80004737          	lui	a4,0x80004
Proc_7():
/home/tututu/qimeng/simulator/baremetal/benchmarks/dhrystone/dry.c:611
  *Int_Par_Ref = Int_2_Par_Val + Int_Loc;
80000934:	67872703          	lw	a4,1656(a4) # 80004678 <Int_Glob>
80000938:	00c70713          	addi	a4,a4,12
8000093c:	00e7a623          	sw	a4,12(a5)
Proc_3():
/home/tututu/qimeng/simulator/baremetal/benchmarks/dhrystone/dry.c:527
} /* Proc_3 */
80000940:	00008067          	jalr	zero,0(ra)

80000944 <Proc_4>:
Proc_4():
/home/tututu/qimeng/simulator/baremetal/benchmarks/dhrystone/dry.c:535
  Bool_Loc = Ch_1_Glob == 'A';
80000944:	800047b7          	lui	a5,0x80004
80000948:	6717c783          	lbu	a5,1649(a5) # 80004671 <Ch_1_Glob>
/home/tututu/qimeng/simulator/baremetal/benchmarks/dhrystone/dry.c:536
  Bool_Glob = Bool_Loc | Bool_Glob;
8000094c:	80004737          	lui	a4,0x80004
80000950:	67472683          	lw	a3,1652(a4) # 80004674 <Bool_Glob>
/home/tututu/qimeng/simulator/baremetal/benchmarks/dhrystone/dry.c:535
  Bool_Loc = Ch_1_Glob == 'A';
80000954:	fbf78793          	addi	a5,a5,-65
80000958:	0017b793          	sltiu	a5,a5,1
/home/tututu/qimeng/simulator/baremetal/benchmarks/dhrystone/dry.c:536
  Bool_Glob = Bool_Loc | Bool_Glob;
8000095c:	00d7e7b3          	or	a5,a5,a3
/home/tututu/qimeng/simulator/baremetal/benchmarks/dhrystone/dry.c:537
  Ch_2_Glob = 'B';
80000960:	04200613          	addi	a2,zero,66
80000964:	800046b7          	lui	a3,0x80004
/home/tututu/qimeng/simulator/baremetal/benchmarks/dhrystone/dry.c:536
  Bool_Glob = Bool_Loc | Bool_Glob;
80000968:	66f72a23          	sw	a5,1652(a4)
/home/tututu/qimeng/simulator/baremetal/benchmarks/dhrystone/dry.c:537
  Ch_2_Glob = 'B';
8000096c:	66c68823          	sb	a2,1648(a3) # 80004670 <Ch_2_Glob>
/home/tututu/qimeng/simulator/baremetal/benchmarks/dhrystone/dry.c:538
} /* Proc_4 */
80000970:	00008067          	jalr	zero,0(ra)

80000974 <Proc_5>:
Proc_5():
/home/tututu/qimeng/simulator/baremetal/benchmarks/dhrystone/dry.c:544
  Ch_1_Glob = 'A';
80000974:	80004737          	lui	a4,0x80004
80000978:	04100693          	addi	a3,zero,65
/home/tututu/qimeng/simulator/baremetal/benchmarks/dhrystone/dry.c:545
  Bool_Glob = false;
8000097c:	800047b7          	lui	a5,0x80004
/home/tututu/qimeng/simulator/baremetal/benchmarks/dhrystone/dry.c:544
  Ch_1_Glob = 'A';
80000980:	66d708a3          	sb	a3,1649(a4) # 80004671 <Ch_1_Glob>
/home/tututu/qimeng/simulator/baremetal/benchmarks/dhrystone/dry.c:545
  Bool_Glob = false;
80000984:	6607aa23          	sw	zero,1652(a5) # 80004674 <Bool_Glob>
/home/tututu/qimeng/simulator/baremetal/benchmarks/dhrystone/dry.c:546
} /* Proc_5 */
80000988:	00008067          	jalr	zero,0(ra)

8000098c <Proc_6>:
Func_3():
/home/tututu/qimeng/simulator/baremetal/benchmarks/dhrystone/dry.c:709
  if (Enum_Loc == Ident_3)
8000098c:	00200793          	addi	a5,zero,2
80000990:	02f50e63          	beq	a0,a5,800009cc <Proc_6+0x40>
Proc_6():
/home/tututu/qimeng/simulator/baremetal/benchmarks/dhrystone/dry.c:583
    *Enum_Ref_Par = Ident_4;
80000994:	00300713          	addi	a4,zero,3
80000998:	00e5a023          	sw	a4,0(a1)
/home/tututu/qimeng/simulator/baremetal/benchmarks/dhrystone/dry.c:584
  switch (Enum_Val_Par) {
8000099c:	00100713          	addi	a4,zero,1
800009a0:	00e50a63          	beq	a0,a4,800009b4 <Proc_6+0x28>
800009a4:	00400713          	addi	a4,zero,4
800009a8:	02e50863          	beq	a0,a4,800009d8 <Proc_6+0x4c>
800009ac:	00050c63          	beq	a0,zero,800009c4 <Proc_6+0x38>
/home/tututu/qimeng/simulator/baremetal/benchmarks/dhrystone/dry.c:604
} /* Proc_6 */
800009b0:	00008067          	jalr	zero,0(ra)
/home/tututu/qimeng/simulator/baremetal/benchmarks/dhrystone/dry.c:589
    if (Int_Glob > 100)
800009b4:	800047b7          	lui	a5,0x80004
800009b8:	6787a703          	lw	a4,1656(a5) # 80004678 <Int_Glob>
800009bc:	06400793          	addi	a5,zero,100
800009c0:	fee7d8e3          	bge	a5,a4,800009b0 <Proc_6+0x24>
/home/tututu/qimeng/simulator/baremetal/benchmarks/dhrystone/dry.c:591
      *Enum_Ref_Par = Ident_1;
800009c4:	0005a023          	sw	zero,0(a1)
800009c8:	00008067          	jalr	zero,0(ra)
/home/tututu/qimeng/simulator/baremetal/benchmarks/dhrystone/dry.c:596
    *Enum_Ref_Par = Ident_2;
800009cc:	00100793          	addi	a5,zero,1
800009d0:	00f5a023          	sw	a5,0(a1)
/home/tututu/qimeng/simulator/baremetal/benchmarks/dhrystone/dry.c:597
    break;
800009d4:	00008067          	jalr	zero,0(ra)
/home/tututu/qimeng/simulator/baremetal/benchmarks/dhrystone/dry.c:601
    *Enum_Ref_Par = Ident_3;
800009d8:	00f5a023          	sw	a5,0(a1)
/home/tututu/qimeng/simulator/baremetal/benchmarks/dhrystone/dry.c:604
} /* Proc_6 */
800009dc:	00008067          	jalr	zero,0(ra)

800009e0 <Proc_1>:
Proc_1():
/home/tututu/qimeng/simulator/baremetal/benchmarks/dhrystone/dry.c:473
  structassign(*Ptr_Val_Par->Ptr_Comp, *Ptr_Glob);
800009e0:	800046b7          	lui	a3,0x80004
800009e4:	6806a703          	lw	a4,1664(a3) # 80004680 <Ptr_Glob>
/home/tututu/qimeng/simulator/baremetal/benchmarks/dhrystone/dry.c:468
  REG Rec_Pointer Next_Record = Ptr_Val_Par->Ptr_Comp;
800009e8:	00052783          	lw	a5,0(a0)
/home/tututu/qimeng/simulator/baremetal/benchmarks/dhrystone/dry.c:473
  structassign(*Ptr_Val_Par->Ptr_Comp, *Ptr_Glob);
800009ec:	02872603          	lw	a2,40(a4)
800009f0:	00072383          	lw	t2,0(a4)
800009f4:	00472283          	lw	t0,4(a4)
800009f8:	00872f83          	lw	t6,8(a4)
800009fc:	00c72f03          	lw	t5,12(a4)
80000a00:	01072e83          	lw	t4,16(a4)
80000a04:	01472e03          	lw	t3,20(a4)
80000a08:	01872303          	lw	t1,24(a4)
80000a0c:	01c72883          	lw	a7,28(a4)
80000a10:	02072803          	lw	a6,32(a4)
80000a14:	02472583          	lw	a1,36(a4)
80000a18:	0077a023          	sw	t2,0(a5)
80000a1c:	01e7a623          	sw	t5,12(a5)
80000a20:	0057a223          	sw	t0,4(a5)
80000a24:	01f7a423          	sw	t6,8(a5)
80000a28:	01d7a823          	sw	t4,16(a5)
80000a2c:	01c7aa23          	sw	t3,20(a5)
80000a30:	0067ac23          	sw	t1,24(a5)
80000a34:	0117ae23          	sw	a7,28(a5)
80000a38:	0307a023          	sw	a6,32(a5)
80000a3c:	02b7a223          	sw	a1,36(a5)
80000a40:	02c7a423          	sw	a2,40(a5)
80000a44:	02c72603          	lw	a2,44(a4)
/home/tututu/qimeng/simulator/baremetal/benchmarks/dhrystone/dry.c:474
  Ptr_Val_Par->variant.var_1.Int_Comp = 5;
80000a48:	00500713          	addi	a4,zero,5
/home/tututu/qimeng/simulator/baremetal/benchmarks/dhrystone/dry.c:473
  structassign(*Ptr_Val_Par->Ptr_Comp, *Ptr_Glob);
80000a4c:	02c7a623          	sw	a2,44(a5)
/home/tututu/qimeng/simulator/baremetal/benchmarks/dhrystone/dry.c:474
  Ptr_Val_Par->variant.var_1.Int_Comp = 5;
80000a50:	00e52623          	sw	a4,12(a0)
/home/tututu/qimeng/simulator/baremetal/benchmarks/dhrystone/dry.c:475
  Next_Record->variant.var_1.Int_Comp = Ptr_Val_Par->variant.var_1.Int_Comp;
80000a54:	00e7a623          	sw	a4,12(a5)
/home/tututu/qimeng/simulator/baremetal/benchmarks/dhrystone/dry.c:476
  Next_Record->Ptr_Comp = Ptr_Val_Par->Ptr_Comp;
80000a58:	00052703          	lw	a4,0(a0)
80000a5c:	00e7a023          	sw	a4,0(a5)
Proc_3():
/home/tututu/qimeng/simulator/baremetal/benchmarks/dhrystone/dry.c:523
  if (Ptr_Glob != Null)
80000a60:	6806a703          	lw	a4,1664(a3)
80000a64:	00070863          	beq	a4,zero,80000a74 <Proc_1+0x94>
/home/tututu/qimeng/simulator/baremetal/benchmarks/dhrystone/dry.c:525
    *Ptr_Ref_Par = Ptr_Glob->Ptr_Comp;
80000a68:	00072703          	lw	a4,0(a4)
80000a6c:	00e7a023          	sw	a4,0(a5)
/home/tututu/qimeng/simulator/baremetal/benchmarks/dhrystone/dry.c:526
  Proc_7(10, Int_Glob, &Ptr_Glob->variant.var_1.Int_Comp);
80000a70:	6806a703          	lw	a4,1664(a3)
80000a74:	800046b7          	lui	a3,0x80004
Proc_7():
/home/tututu/qimeng/simulator/baremetal/benchmarks/dhrystone/dry.c:611
  *Int_Par_Ref = Int_2_Par_Val + Int_Loc;
80000a78:	6786a683          	lw	a3,1656(a3) # 80004678 <Int_Glob>
80000a7c:	00c68693          	addi	a3,a3,12
80000a80:	00d72623          	sw	a3,12(a4)
Proc_1():
/home/tututu/qimeng/simulator/baremetal/benchmarks/dhrystone/dry.c:480
  if (Next_Record->Discr == Ident_1)
80000a84:	0047a683          	lw	a3,4(a5)
80000a88:	06068663          	beq	a3,zero,80000af4 <Proc_1+0x114>
/home/tututu/qimeng/simulator/baremetal/benchmarks/dhrystone/dry.c:490
    structassign(*Ptr_Val_Par, *Ptr_Val_Par->Ptr_Comp);
80000a8c:	00052783          	lw	a5,0(a0)
80000a90:	0007af83          	lw	t6,0(a5)
80000a94:	0047af03          	lw	t5,4(a5)
80000a98:	0087ae83          	lw	t4,8(a5)
80000a9c:	00c7ae03          	lw	t3,12(a5)
80000aa0:	0107a303          	lw	t1,16(a5)
80000aa4:	0147a883          	lw	a7,20(a5)
80000aa8:	0187a803          	lw	a6,24(a5)
80000aac:	01c7a583          	lw	a1,28(a5)
80000ab0:	0207a603          	lw	a2,32(a5)
80000ab4:	0247a683          	lw	a3,36(a5)
80000ab8:	0287a703          	lw	a4,40(a5)
80000abc:	01f52023          	sw	t6,0(a0)
80000ac0:	01e52223          	sw	t5,4(a0)
80000ac4:	01d52423          	sw	t4,8(a0)
80000ac8:	01c52623          	sw	t3,12(a0)
80000acc:	00652823          	sw	t1,16(a0)
80000ad0:	01152a23          	sw	a7,20(a0)
80000ad4:	01052c23          	sw	a6,24(a0)
80000ad8:	00b52e23          	sw	a1,28(a0)
80000adc:	02c52023          	sw	a2,32(a0)
80000ae0:	02d52223          	sw	a3,36(a0)
80000ae4:	02e52423          	sw	a4,40(a0)
80000ae8:	02c7a783          	lw	a5,44(a5)
80000aec:	02f52623          	sw	a5,44(a0)
80000af0:	00008067          	jalr	zero,0(ra)
/home/tututu/qimeng/simulator/baremetal/benchmarks/dhrystone/dry.c:467
{
80000af4:	fe010113          	addi	sp,sp,-32
80000af8:	00112e23          	sw	ra,28(sp)
/home/tututu/qimeng/simulator/baremetal/benchmarks/dhrystone/dry.c:483
    Next_Record->variant.var_1.Int_Comp = 6;
80000afc:	00600693          	addi	a3,zero,6
80000b00:	00d7a623          	sw	a3,12(a5)
/home/tututu/qimeng/simulator/baremetal/benchmarks/dhrystone/dry.c:484
    Proc_6(Ptr_Val_Par->variant.var_1.Enum_Comp,
80000b04:	00852503          	lw	a0,8(a0)
80000b08:	00878593          	addi	a1,a5,8
80000b0c:	00e12623          	sw	a4,12(sp)
80000b10:	00f12423          	sw	a5,8(sp)
80000b14:	e79ff0ef          	jal	ra,8000098c <Proc_6>
/home/tututu/qimeng/simulator/baremetal/benchmarks/dhrystone/dry.c:486
    Next_Record->Ptr_Comp = Ptr_Glob->Ptr_Comp;
80000b18:	00c12703          	lw	a4,12(sp)
Proc_7():
/home/tututu/qimeng/simulator/baremetal/benchmarks/dhrystone/dry.c:611
  *Int_Par_Ref = Int_2_Par_Val + Int_Loc;
80000b1c:	00812783          	lw	a5,8(sp)
Proc_1():
/home/tututu/qimeng/simulator/baremetal/benchmarks/dhrystone/dry.c:491
} /* Proc_1 */
80000b20:	01c12083          	lw	ra,28(sp)
/home/tututu/qimeng/simulator/baremetal/benchmarks/dhrystone/dry.c:486
    Next_Record->Ptr_Comp = Ptr_Glob->Ptr_Comp;
80000b24:	00072703          	lw	a4,0(a4)
Proc_7():
/home/tututu/qimeng/simulator/baremetal/benchmarks/dhrystone/dry.c:611
  *Int_Par_Ref = Int_2_Par_Val + Int_Loc;
80000b28:	01200693          	addi	a3,zero,18
80000b2c:	00d7a623          	sw	a3,12(a5)
Proc_1():
/home/tututu/qimeng/simulator/baremetal/benchmarks/dhrystone/dry.c:486
    Next_Record->Ptr_Comp = Ptr_Glob->Ptr_Comp;
80000b30:	00e7a023          	sw	a4,0(a5)
/home/tututu/qimeng/simulator/baremetal/benchmarks/dhrystone/dry.c:491
} /* Proc_1 */
80000b34:	02010113          	addi	sp,sp,32
80000b38:	00008067          	jalr	zero,0(ra)

80000b3c <Proc_7>:
Proc_7():
/home/tututu/qimeng/simulator/baremetal/benchmarks/dhrystone/dry.c:610
  Int_Loc = Int_1_Par_Val + 2;
80000b3c:	00250513          	addi	a0,a0,2
/home/tututu/qimeng/simulator/baremetal/benchmarks/dhrystone/dry.c:611
  *Int_Par_Ref = Int_2_Par_Val + Int_Loc;
80000b40:	00b50533          	add	a0,a0,a1
80000b44:	00a62023          	sw	a0,0(a2)
/home/tututu/qimeng/simulator/baremetal/benchmarks/dhrystone/dry.c:612
} /* Proc_7 */
80000b48:	00008067          	jalr	zero,0(ra)

80000b4c <Proc_8>:
Proc_8():
/home/tututu/qimeng/simulator/baremetal/benchmarks/dhrystone/dry.c:627
  Int_Loc = Int_1_Par_Val + 5;
80000b4c:	00560713          	addi	a4,a2,5
/home/tututu/qimeng/simulator/baremetal/benchmarks/dhrystone/dry.c:632
    Arr_2_Par_Ref[Int_Loc][Int_Index] = Int_Loc;
80000b50:	00171793          	slli	a5,a4,0x1
80000b54:	00e787b3          	add	a5,a5,a4
80000b58:	00379793          	slli	a5,a5,0x3
80000b5c:	00e787b3          	add	a5,a5,a4
/home/tututu/qimeng/simulator/baremetal/benchmarks/dhrystone/dry.c:628
  Arr_1_Par_Ref[Int_Loc] = Int_2_Par_Val;
80000b60:	00271813          	slli	a6,a4,0x2
/home/tututu/qimeng/simulator/baremetal/benchmarks/dhrystone/dry.c:632
    Arr_2_Par_Ref[Int_Loc][Int_Index] = Int_Loc;
80000b64:	00379793          	slli	a5,a5,0x3
80000b68:	00261613          	slli	a2,a2,0x2
/home/tututu/qimeng/simulator/baremetal/benchmarks/dhrystone/dry.c:628
  Arr_1_Par_Ref[Int_Loc] = Int_2_Par_Val;
80000b6c:	01050533          	add	a0,a0,a6
80000b70:	00c78833          	add	a6,a5,a2
80000b74:	00d52023          	sw	a3,0(a0)
/home/tututu/qimeng/simulator/baremetal/benchmarks/dhrystone/dry.c:629
  Arr_1_Par_Ref[Int_Loc + 1] = Arr_1_Par_Ref[Int_Loc];
80000b78:	00d52223          	sw	a3,4(a0)
/home/tututu/qimeng/simulator/baremetal/benchmarks/dhrystone/dry.c:630
  Arr_1_Par_Ref[Int_Loc + 30] = Int_Loc;
80000b7c:	06e52c23          	sw	a4,120(a0)
/home/tututu/qimeng/simulator/baremetal/benchmarks/dhrystone/dry.c:632
    Arr_2_Par_Ref[Int_Loc][Int_Index] = Int_Loc;
80000b80:	010586b3          	add	a3,a1,a6
/home/tututu/qimeng/simulator/baremetal/benchmarks/dhrystone/dry.c:633
  Arr_2_Par_Ref[Int_Loc][Int_Loc - 1] += 1;
80000b84:	0106a803          	lw	a6,16(a3)
/home/tututu/qimeng/simulator/baremetal/benchmarks/dhrystone/dry.c:632
    Arr_2_Par_Ref[Int_Loc][Int_Index] = Int_Loc;
80000b88:	00e6aa23          	sw	a4,20(a3)
80000b8c:	00e6ac23          	sw	a4,24(a3)
/home/tututu/qimeng/simulator/baremetal/benchmarks/dhrystone/dry.c:633
  Arr_2_Par_Ref[Int_Loc][Int_Loc - 1] += 1;
80000b90:	00180713          	addi	a4,a6,1
80000b94:	00e6a823          	sw	a4,16(a3)
/home/tututu/qimeng/simulator/baremetal/benchmarks/dhrystone/dry.c:634
  Arr_2_Par_Ref[Int_Loc + 20][Int_Loc] = Arr_1_Par_Ref[Int_Loc];
80000b98:	00052683          	lw	a3,0(a0)
80000b9c:	00f585b3          	add	a1,a1,a5
80000ba0:	00c585b3          	add	a1,a1,a2
80000ba4:	7ff58593          	addi	a1,a1,2047
/home/tututu/qimeng/simulator/baremetal/benchmarks/dhrystone/dry.c:635
  Int_Glob = 5;
80000ba8:	800047b7          	lui	a5,0x80004
80000bac:	00500713          	addi	a4,zero,5
/home/tututu/qimeng/simulator/baremetal/benchmarks/dhrystone/dry.c:634
  Arr_2_Par_Ref[Int_Loc + 20][Int_Loc] = Arr_1_Par_Ref[Int_Loc];
80000bb0:	7ad5aaa3          	sw	a3,1973(a1)
/home/tututu/qimeng/simulator/baremetal/benchmarks/dhrystone/dry.c:635
  Int_Glob = 5;
80000bb4:	66e7ac23          	sw	a4,1656(a5) # 80004678 <Int_Glob>
/home/tututu/qimeng/simulator/baremetal/benchmarks/dhrystone/dry.c:636
} /* Proc_8 */
80000bb8:	00008067          	jalr	zero,0(ra)

80000bbc <Func_1>:
Func_1():
/home/tututu/qimeng/simulator/baremetal/benchmarks/dhrystone/dry.c:653
  if (Ch_2_Loc != Ch_2_Par_Val)
80000bbc:	00b50663          	beq	a0,a1,80000bc8 <Func_1+0xc>
/home/tututu/qimeng/simulator/baremetal/benchmarks/dhrystone/dry.c:655
    return (Ident_1);
80000bc0:	00000513          	addi	a0,zero,0
/home/tututu/qimeng/simulator/baremetal/benchmarks/dhrystone/dry.c:661
} /* Func_1 */
80000bc4:	00008067          	jalr	zero,0(ra)
/home/tututu/qimeng/simulator/baremetal/benchmarks/dhrystone/dry.c:658
    Ch_1_Glob = Ch_1_Loc;
80000bc8:	800047b7          	lui	a5,0x80004
80000bcc:	66a788a3          	sb	a0,1649(a5) # 80004671 <Ch_1_Glob>
/home/tututu/qimeng/simulator/baremetal/benchmarks/dhrystone/dry.c:659
    return (Ident_2);
80000bd0:	00100513          	addi	a0,zero,1
80000bd4:	00008067          	jalr	zero,0(ra)

80000bd8 <Func_2>:
/home/tututu/qimeng/simulator/baremetal/benchmarks/dhrystone/dry.c:653
  if (Ch_2_Loc != Ch_2_Par_Val)
80000bd8:	00254783          	lbu	a5,2(a0)
80000bdc:	0035c703          	lbu	a4,3(a1)
80000be0:	02f70c63          	beq	a4,a5,80000c18 <Func_2+0x40>
Func_2():
/home/tututu/qimeng/simulator/baremetal/benchmarks/dhrystone/dry.c:671
{
80000be4:	ff010113          	addi	sp,sp,-16
80000be8:	00112623          	sw	ra,12(sp)
/home/tututu/qimeng/simulator/baremetal/benchmarks/dhrystone/dry.c:691
    if (strcmp(Str_1_Par_Ref, Str_2_Par_Ref) > 0) {
80000bec:	0c5000ef          	jal	ra,800014b0 <strcmp>
/home/tututu/qimeng/simulator/baremetal/benchmarks/dhrystone/dry.c:696
      return (false);
80000bf0:	00000793          	addi	a5,zero,0
/home/tututu/qimeng/simulator/baremetal/benchmarks/dhrystone/dry.c:691 (discriminator 1)
    if (strcmp(Str_1_Par_Ref, Str_2_Par_Ref) > 0) {
80000bf4:	00a05a63          	bge	zero,a0,80000c08 <Func_2+0x30>
/home/tututu/qimeng/simulator/baremetal/benchmarks/dhrystone/dry.c:693
      Int_Glob = Int_Loc;
80000bf8:	800047b7          	lui	a5,0x80004
80000bfc:	00a00713          	addi	a4,zero,10
80000c00:	66e7ac23          	sw	a4,1656(a5) # 80004678 <Int_Glob>
/home/tututu/qimeng/simulator/baremetal/benchmarks/dhrystone/dry.c:694
      return (true);
80000c04:	00100793          	addi	a5,zero,1
/home/tututu/qimeng/simulator/baremetal/benchmarks/dhrystone/dry.c:698
} /* Func_2 */
80000c08:	00c12083          	lw	ra,12(sp)
80000c0c:	00078513          	addi	a0,a5,0
80000c10:	01010113          	addi	sp,sp,16
80000c14:	00008067          	jalr	zero,0(ra)
Func_1():
/home/tututu/qimeng/simulator/baremetal/benchmarks/dhrystone/dry.c:653
  if (Ch_2_Loc != Ch_2_Par_Val)
80000c18:	0000006f          	jal	zero,80000c18 <Func_2+0x40>

80000c1c <Func_3>:
Func_3():
/home/tututu/qimeng/simulator/baremetal/benchmarks/dhrystone/dry.c:709
  if (Enum_Loc == Ident_3)
80000c1c:	ffe50513          	addi	a0,a0,-2
/home/tututu/qimeng/simulator/baremetal/benchmarks/dhrystone/dry.c:714
} /* Func_3 */
80000c20:	00153513          	sltiu	a0,a0,1
80000c24:	00008067          	jalr	zero,0(ra)

80000c28 <check>:
check():
/home/tututu/qimeng/simulator/baremetal/benchmarks/dhrystone/dry.c:718
  if (!cond)
80000c28:	00051663          	bne	a0,zero,80000c34 <check+0xc>
/home/tututu/qimeng/simulator/baremetal/benchmarks/dhrystone/dry.c:719
    pass = false;
80000c2c:	800047b7          	lui	a5,0x80004
80000c30:	6807a823          	sw	zero,1680(a5) # 80004690 <pass>
/home/tututu/qimeng/simulator/baremetal/benchmarks/dhrystone/dry.c:721
}
80000c34:	00008067          	jalr	zero,0(ra)

80000c38 <xputc>:
xputc():
/home/tututu/qimeng/simulator/baremetal/benchmarks/coremark/../../lib/xprintf.c:30

void xputc (char c)
{
	if (_CR_CRLF && c == '\n') xputc('\r');		/* CR -> CRLF */

	if (outptr) {
80000c38:	80004737          	lui	a4,0x80004
80000c3c:	68472783          	lw	a5,1668(a4) # 80004684 <outptr>
80000c40:	00078a63          	beq	a5,zero,80000c54 <xputc+0x1c>
/home/tututu/qimeng/simulator/baremetal/benchmarks/coremark/../../lib/xprintf.c:31
		*outptr++ = (unsigned char)c;
80000c44:	00178693          	addi	a3,a5,1
80000c48:	00a78023          	sb	a0,0(a5)
80000c4c:	68d72223          	sw	a3,1668(a4)
/home/tututu/qimeng/simulator/baremetal/benchmarks/coremark/../../lib/xprintf.c:32
		return;
80000c50:	00008067          	jalr	zero,0(ra)
/home/tututu/qimeng/simulator/baremetal/benchmarks/coremark/../../lib/xprintf.c:35
	}

	if (xfunc_out) xfunc_out((unsigned char)c);
80000c54:	800047b7          	lui	a5,0x80004
80000c58:	6887a783          	lw	a5,1672(a5) # 80004688 <xfunc_out>
80000c5c:	00078463          	beq	a5,zero,80000c64 <xputc+0x2c>
/home/tututu/qimeng/simulator/baremetal/benchmarks/coremark/../../lib/xprintf.c:35 (discriminator 1)
80000c60:	00078067          	jalr	zero,0(a5)
/home/tututu/qimeng/simulator/baremetal/benchmarks/coremark/../../lib/xprintf.c:36
}
80000c64:	00008067          	jalr	zero,0(ra)

80000c68 <xputs>:
xputs():
/home/tututu/qimeng/simulator/baremetal/benchmarks/coremark/../../lib/xprintf.c:46
/*----------------------------------------------*/

void xputs (					/* Put a string to the default device */
	const char* str				/* Pointer to the string */
)
{
80000c68:	ff010113          	addi	sp,sp,-16
80000c6c:	00812423          	sw	s0,8(sp)
80000c70:	00112623          	sw	ra,12(sp)
80000c74:	00050413          	addi	s0,a0,0
/home/tututu/qimeng/simulator/baremetal/benchmarks/coremark/../../lib/xprintf.c:47
	while (*str)
80000c78:	00054503          	lbu	a0,0(a0)
80000c7c:	04050a63          	beq	a0,zero,80000cd0 <xputs+0x68>
80000c80:	00912223          	sw	s1,4(sp)
80000c84:	01212023          	sw	s2,0(sp)
80000c88:	800044b7          	lui	s1,0x80004
xputc():
/home/tututu/qimeng/simulator/baremetal/benchmarks/coremark/../../lib/xprintf.c:35
	if (xfunc_out) xfunc_out((unsigned char)c);
80000c8c:	80004937          	lui	s2,0x80004
80000c90:	0140006f          	jal	zero,80000ca4 <xputs+0x3c>
/home/tututu/qimeng/simulator/baremetal/benchmarks/coremark/../../lib/xprintf.c:31
		*outptr++ = (unsigned char)c;
80000c94:	68e4a223          	sw	a4,1668(s1) # 80004684 <outptr>
80000c98:	00a78023          	sb	a0,0(a5)
xputs():
/home/tututu/qimeng/simulator/baremetal/benchmarks/coremark/../../lib/xprintf.c:47
	while (*str)
80000c9c:	00044503          	lbu	a0,0(s0)
80000ca0:	02050463          	beq	a0,zero,80000cc8 <xputs+0x60>
xputc():
/home/tututu/qimeng/simulator/baremetal/benchmarks/coremark/../../lib/xprintf.c:30
	if (outptr) {
80000ca4:	6844a783          	lw	a5,1668(s1)
xputs():
/home/tututu/qimeng/simulator/baremetal/benchmarks/coremark/../../lib/xprintf.c:48
		xputc(*str++);
80000ca8:	00140413          	addi	s0,s0,1
xputc():
/home/tututu/qimeng/simulator/baremetal/benchmarks/coremark/../../lib/xprintf.c:31
		*outptr++ = (unsigned char)c;
80000cac:	00178713          	addi	a4,a5,1
/home/tututu/qimeng/simulator/baremetal/benchmarks/coremark/../../lib/xprintf.c:30
	if (outptr) {
80000cb0:	fe0792e3          	bne	a5,zero,80000c94 <xputs+0x2c>
/home/tututu/qimeng/simulator/baremetal/benchmarks/coremark/../../lib/xprintf.c:35
	if (xfunc_out) xfunc_out((unsigned char)c);
80000cb4:	68892783          	lw	a5,1672(s2) # 80004688 <xfunc_out>
80000cb8:	fe0782e3          	beq	a5,zero,80000c9c <xputs+0x34>
/home/tututu/qimeng/simulator/baremetal/benchmarks/coremark/../../lib/xprintf.c:35 (discriminator 1)
80000cbc:	000780e7          	jalr	ra,0(a5)
xputs():
/home/tututu/qimeng/simulator/baremetal/benchmarks/coremark/../../lib/xprintf.c:47
	while (*str)
80000cc0:	00044503          	lbu	a0,0(s0)
80000cc4:	fe0510e3          	bne	a0,zero,80000ca4 <xputs+0x3c>
80000cc8:	00412483          	lw	s1,4(sp)
80000ccc:	00012903          	lw	s2,0(sp)
/home/tututu/qimeng/simulator/baremetal/benchmarks/coremark/../../lib/xprintf.c:49
}
80000cd0:	00c12083          	lw	ra,12(sp)
80000cd4:	00812403          	lw	s0,8(sp)
80000cd8:	01010113          	addi	sp,sp,16
80000cdc:	00008067          	jalr	zero,0(ra)

80000ce0 <xprintf>:
xprintf():
/home/tututu/qimeng/simulator/baremetal/benchmarks/coremark/../../lib/xprintf.c:150

void xprintf (			/* Put a formatted string to the default device */
	const char*	fmt,	/* Pointer to the format string */
	...					/* Optional arguments */
)
{
80000ce0:	f7010113          	addi	sp,sp,-144
80000ce4:	06912223          	sw	s1,100(sp)
80000ce8:	05612823          	sw	s6,80(sp)
80000cec:	06112623          	sw	ra,108(sp)
80000cf0:	06b12a23          	sw	a1,116(sp)
80000cf4:	06c12c23          	sw	a2,120(sp)
80000cf8:	06d12e23          	sw	a3,124(sp)
80000cfc:	08e12023          	sw	a4,128(sp)
80000d00:	08f12223          	sw	a5,132(sp)
80000d04:	09012423          	sw	a6,136(sp)
80000d08:	09112623          	sw	a7,140(sp)
80000d0c:	00050b13          	addi	s6,a0,0
xvprintf():
/home/tututu/qimeng/simulator/baremetal/benchmarks/coremark/../../lib/xprintf.c:81
		c = *fmt++;					/* Get a char */
80000d10:	00054503          	lbu	a0,0(a0)
xprintf():
/home/tututu/qimeng/simulator/baremetal/benchmarks/coremark/../../lib/xprintf.c:154
	va_list arp;


	va_start(arp, fmt);
80000d14:	07410493          	addi	s1,sp,116
80000d18:	00912e23          	sw	s1,28(sp)
xvprintf():
/home/tututu/qimeng/simulator/baremetal/benchmarks/coremark/../../lib/xprintf.c:82
		if (!c) break;				/* End of format? */
80000d1c:	08050e63          	beq	a0,zero,80000db8 <xprintf+0xd8>
80000d20:	05412c23          	sw	s4,88(sp)
/home/tututu/qimeng/simulator/baremetal/benchmarks/coremark/../../lib/xprintf.c:103
		switch (d) {				/* Type is... */
80000d24:	80002a37          	lui	s4,0x80002
80000d28:	a20a0793          	addi	a5,s4,-1504 # 80001a20 <strcmp+0x570>
80000d2c:	06812423          	sw	s0,104(sp)
80000d30:	07212023          	sw	s2,96(sp)
80000d34:	05512a23          	sw	s5,84(sp)
80000d38:	03b12e23          	sw	s11,60(sp)
80000d3c:	05312e23          	sw	s3,92(sp)
80000d40:	05712623          	sw	s7,76(sp)
80000d44:	05812423          	sw	s8,72(sp)
80000d48:	05912223          	sw	s9,68(sp)
80000d4c:	05a12023          	sw	s10,64(sp)
80000d50:	00f12623          	sw	a5,12(sp)
/home/tututu/qimeng/simulator/baremetal/benchmarks/coremark/../../lib/xprintf.c:81
		c = *fmt++;					/* Get a char */
80000d54:	001b0a93          	addi	s5,s6,1
/home/tututu/qimeng/simulator/baremetal/benchmarks/coremark/../../lib/xprintf.c:83
		if (c != '%') {				/* Pass through it if not a % sequense */
80000d58:	02500913          	addi	s2,zero,37
/home/tututu/qimeng/simulator/baremetal/benchmarks/coremark/../../lib/xprintf.c:95 (discriminator 1)
		for (w = 0; c >= '0' && c <= '9'; c = *fmt++)	/* Minimum width */
80000d5c:	00900d93          	addi	s11,zero,9
xputc():
/home/tututu/qimeng/simulator/baremetal/benchmarks/coremark/../../lib/xprintf.c:35
	if (xfunc_out) xfunc_out((unsigned char)c);
80000d60:	80004437          	lui	s0,0x80004
xvprintf():
/home/tututu/qimeng/simulator/baremetal/benchmarks/coremark/../../lib/xprintf.c:83
		if (c != '%') {				/* Pass through it if not a % sequense */
80000d64:	07250463          	beq	a0,s2,80000dcc <xprintf+0xec>
xputc():
/home/tututu/qimeng/simulator/baremetal/benchmarks/coremark/../../lib/xprintf.c:30
	if (outptr) {
80000d68:	80004737          	lui	a4,0x80004
80000d6c:	68472783          	lw	a5,1668(a4) # 80004684 <outptr>
80000d70:	3e078a63          	beq	a5,zero,80001164 <xprintf+0x484>
/home/tututu/qimeng/simulator/baremetal/benchmarks/coremark/../../lib/xprintf.c:31
		*outptr++ = (unsigned char)c;
80000d74:	00178693          	addi	a3,a5,1
80000d78:	00a78023          	sb	a0,0(a5)
80000d7c:	68d72223          	sw	a3,1668(a4)
xvprintf():
/home/tututu/qimeng/simulator/baremetal/benchmarks/coremark/../../lib/xprintf.c:81
		c = *fmt++;					/* Get a char */
80000d80:	000a8b13          	addi	s6,s5,0
80000d84:	000b4503          	lbu	a0,0(s6)
80000d88:	001b0a93          	addi	s5,s6,1
/home/tututu/qimeng/simulator/baremetal/benchmarks/coremark/../../lib/xprintf.c:82
		if (!c) break;				/* End of format? */
80000d8c:	fc051ce3          	bne	a0,zero,80000d64 <xprintf+0x84>
80000d90:	06812403          	lw	s0,104(sp)
80000d94:	06012903          	lw	s2,96(sp)
80000d98:	05c12983          	lw	s3,92(sp)
80000d9c:	05812a03          	lw	s4,88(sp)
80000da0:	05412a83          	lw	s5,84(sp)
80000da4:	04c12b83          	lw	s7,76(sp)
80000da8:	04812c03          	lw	s8,72(sp)
80000dac:	04412c83          	lw	s9,68(sp)
80000db0:	04012d03          	lw	s10,64(sp)
80000db4:	03c12d83          	lw	s11,60(sp)
xprintf():
/home/tututu/qimeng/simulator/baremetal/benchmarks/coremark/../../lib/xprintf.c:157
	xvprintf(fmt, arp);
	va_end(arp);
}
80000db8:	06c12083          	lw	ra,108(sp)
80000dbc:	06412483          	lw	s1,100(sp)
80000dc0:	05012b03          	lw	s6,80(sp)
80000dc4:	09010113          	addi	sp,sp,144
80000dc8:	00008067          	jalr	zero,0(ra)
xvprintf():
/home/tututu/qimeng/simulator/baremetal/benchmarks/coremark/../../lib/xprintf.c:87
		c = *fmt++;					/* Get first char of the sequense */
80000dcc:	001b4503          	lbu	a0,1(s6)
/home/tututu/qimeng/simulator/baremetal/benchmarks/coremark/../../lib/xprintf.c:88
		if (c == '0') {				/* Flag: '0' padded */
80000dd0:	03000793          	addi	a5,zero,48
80000dd4:	3af50063          	beq	a0,a5,80001174 <xprintf+0x494>
/home/tututu/qimeng/simulator/baremetal/benchmarks/coremark/../../lib/xprintf.c:91
			if (c == '-') {			/* Flag: left justified */
80000dd8:	02d00793          	addi	a5,zero,45
80000ddc:	3af50463          	beq	a0,a5,80001184 <xprintf+0x4a4>
/home/tututu/qimeng/simulator/baremetal/benchmarks/coremark/../../lib/xprintf.c:87
		c = *fmt++;					/* Get first char of the sequense */
80000de0:	002b0b13          	addi	s6,s6,2
/home/tututu/qimeng/simulator/baremetal/benchmarks/coremark/../../lib/xprintf.c:86
		f = 0;
80000de4:	00000593          	addi	a1,zero,0
/home/tututu/qimeng/simulator/baremetal/benchmarks/coremark/../../lib/xprintf.c:95 (discriminator 1)
		for (w = 0; c >= '0' && c <= '9'; c = *fmt++)	/* Minimum width */
80000de8:	fd050793          	addi	a5,a0,-48
80000dec:	0ff7f793          	andi	a5,a5,255
/home/tututu/qimeng/simulator/baremetal/benchmarks/coremark/../../lib/xprintf.c:95
80000df0:	00000b93          	addi	s7,zero,0
/home/tututu/qimeng/simulator/baremetal/benchmarks/coremark/../../lib/xprintf.c:95 (discriminator 1)
80000df4:	02fde663          	bltu	s11,a5,80000e20 <xprintf+0x140>
/home/tututu/qimeng/simulator/baremetal/benchmarks/coremark/../../lib/xprintf.c:96
			w = w * 10 + c - '0';
80000df8:	002b9793          	slli	a5,s7,0x2
80000dfc:	017787b3          	add	a5,a5,s7
/home/tututu/qimeng/simulator/baremetal/benchmarks/coremark/../../lib/xprintf.c:95 (discriminator 3)
		for (w = 0; c >= '0' && c <= '9'; c = *fmt++)	/* Minimum width */
80000e00:	001b0b13          	addi	s6,s6,1
/home/tututu/qimeng/simulator/baremetal/benchmarks/coremark/../../lib/xprintf.c:96
			w = w * 10 + c - '0';
80000e04:	00179793          	slli	a5,a5,0x1
80000e08:	00a787b3          	add	a5,a5,a0
/home/tututu/qimeng/simulator/baremetal/benchmarks/coremark/../../lib/xprintf.c:95 (discriminator 3)
		for (w = 0; c >= '0' && c <= '9'; c = *fmt++)	/* Minimum width */
80000e0c:	fffb4503          	lbu	a0,-1(s6)
/home/tututu/qimeng/simulator/baremetal/benchmarks/coremark/../../lib/xprintf.c:96
			w = w * 10 + c - '0';
80000e10:	fd078b93          	addi	s7,a5,-48
/home/tututu/qimeng/simulator/baremetal/benchmarks/coremark/../../lib/xprintf.c:95 (discriminator 1)
		for (w = 0; c >= '0' && c <= '9'; c = *fmt++)	/* Minimum width */
80000e14:	fd050793          	addi	a5,a0,-48
80000e18:	0ff7f793          	andi	a5,a5,255
80000e1c:	fcfdfee3          	bgeu	s11,a5,80000df8 <xprintf+0x118>
/home/tututu/qimeng/simulator/baremetal/benchmarks/coremark/../../lib/xprintf.c:97
		if (c == 'l' || c == 'L') {	/* Prefix: Size is long int */
80000e20:	0df57793          	andi	a5,a0,223
80000e24:	04c00713          	addi	a4,zero,76
80000e28:	00e79863          	bne	a5,a4,80000e38 <xprintf+0x158>
/home/tututu/qimeng/simulator/baremetal/benchmarks/coremark/../../lib/xprintf.c:98
			f |= 4; c = *fmt++;
80000e2c:	000b4503          	lbu	a0,0(s6)
80000e30:	0045e593          	ori	a1,a1,4
80000e34:	001b0b13          	addi	s6,s6,1
/home/tututu/qimeng/simulator/baremetal/benchmarks/coremark/../../lib/xprintf.c:100
		if (!c) break;				/* End of format? */
80000e38:	f4050ce3          	beq	a0,zero,80000d90 <xprintf+0xb0>
/home/tututu/qimeng/simulator/baremetal/benchmarks/coremark/../../lib/xprintf.c:102
		if (d >= 'a') d -= 0x20;
80000e3c:	06000793          	addi	a5,zero,96
/home/tututu/qimeng/simulator/baremetal/benchmarks/coremark/../../lib/xprintf.c:101
		d = c;
80000e40:	00050713          	addi	a4,a0,0
/home/tututu/qimeng/simulator/baremetal/benchmarks/coremark/../../lib/xprintf.c:102
		if (d >= 'a') d -= 0x20;
80000e44:	00a7f663          	bgeu	a5,a0,80000e50 <xprintf+0x170>
80000e48:	fe050713          	addi	a4,a0,-32
80000e4c:	0ff77713          	andi	a4,a4,255
/home/tututu/qimeng/simulator/baremetal/benchmarks/coremark/../../lib/xprintf.c:103
		switch (d) {				/* Type is... */
80000e50:	fbe70793          	addi	a5,a4,-66
80000e54:	0ff7f793          	andi	a5,a5,255
80000e58:	01600693          	addi	a3,zero,22
80000e5c:	00f6ec63          	bltu	a3,a5,80000e74 <xprintf+0x194>
80000e60:	00c12683          	lw	a3,12(sp)
80000e64:	00279793          	slli	a5,a5,0x2
80000e68:	00d787b3          	add	a5,a5,a3
80000e6c:	0007a783          	lw	a5,0(a5)
80000e70:	00078067          	jalr	zero,0(a5)
xputc():
/home/tututu/qimeng/simulator/baremetal/benchmarks/coremark/../../lib/xprintf.c:30
	if (outptr) {
80000e74:	80004737          	lui	a4,0x80004
80000e78:	68472783          	lw	a5,1668(a4) # 80004684 <outptr>
80000e7c:	34078a63          	beq	a5,zero,800011d0 <xprintf+0x4f0>
/home/tututu/qimeng/simulator/baremetal/benchmarks/coremark/../../lib/xprintf.c:31
		*outptr++ = (unsigned char)c;
80000e80:	00178693          	addi	a3,a5,1
80000e84:	00a78023          	sb	a0,0(a5)
80000e88:	68d72223          	sw	a3,1668(a4)
/home/tututu/qimeng/simulator/baremetal/benchmarks/coremark/../../lib/xprintf.c:32
		return;
80000e8c:	ef9ff06f          	jal	zero,80000d84 <xprintf+0xa4>
xvprintf():
/home/tututu/qimeng/simulator/baremetal/benchmarks/coremark/../../lib/xprintf.c:127
		v = (f & 4) ? va_arg(arp, long) : ((d == 'D') ? (long)va_arg(arp, int) : (long)va_arg(arp, unsigned int));
80000e90:	0045f793          	andi	a5,a1,4
/home/tututu/qimeng/simulator/baremetal/benchmarks/coremark/../../lib/xprintf.c:105
			p = va_arg(arp, char*);
80000e94:	00448613          	addi	a2,s1,4
/home/tututu/qimeng/simulator/baremetal/benchmarks/coremark/../../lib/xprintf.c:127
		v = (f & 4) ? va_arg(arp, long) : ((d == 'D') ? (long)va_arg(arp, int) : (long)va_arg(arp, unsigned int));
80000e98:	30078863          	beq	a5,zero,800011a8 <xprintf+0x4c8>
/home/tututu/qimeng/simulator/baremetal/benchmarks/coremark/../../lib/xprintf.c:128
		if (d == 'D' && (v & 0x80000000)) {
80000e9c:	fbc70793          	addi	a5,a4,-68
/home/tututu/qimeng/simulator/baremetal/benchmarks/coremark/../../lib/xprintf.c:105
			p = va_arg(arp, char*);
80000ea0:	0004a703          	lw	a4,0(s1)
/home/tututu/qimeng/simulator/baremetal/benchmarks/coremark/../../lib/xprintf.c:128
		if (d == 'D' && (v & 0x80000000)) {
80000ea4:	42079063          	bne	a5,zero,800012c4 <xprintf+0x5e4>
80000ea8:	40075e63          	bge	a4,zero,800012c4 <xprintf+0x5e4>
/home/tututu/qimeng/simulator/baremetal/benchmarks/coremark/../../lib/xprintf.c:129
			v = 0 - v;
80000eac:	40e00733          	sub	a4,zero,a4
/home/tututu/qimeng/simulator/baremetal/benchmarks/coremark/../../lib/xprintf.c:130
			f |= 8;
80000eb0:	0085e593          	ori	a1,a1,8
80000eb4:	00060493          	addi	s1,a2,0
80000eb8:	00800e13          	addi	t3,zero,8
80000ebc:	00a00693          	addi	a3,zero,10
/home/tututu/qimeng/simulator/baremetal/benchmarks/coremark/../../lib/xprintf.c:132
		i = 0;
80000ec0:	f8850513          	addi	a0,a0,-120
80000ec4:	00700313          	addi	t1,zero,7
80000ec8:	00051463          	bne	a0,zero,80000ed0 <xprintf+0x1f0>
80000ecc:	02700313          	addi	t1,zero,39
80000ed0:	00000613          	addi	a2,zero,0
80000ed4:	02010a13          	addi	s4,sp,32
80000ed8:	0080006f          	jal	zero,80000ee0 <xprintf+0x200>
/home/tututu/qimeng/simulator/baremetal/benchmarks/coremark/../../lib/xprintf.c:136
			s[i++] = d + '0';
80000edc:	000a8613          	addi	a2,s5,0
/home/tututu/qimeng/simulator/baremetal/benchmarks/coremark/../../lib/xprintf.c:134
			d = (char)(v % r); v /= r;
80000ee0:	02d777b3          	remu	a5,a4,a3
80000ee4:	00070513          	addi	a0,a4,0
80000ee8:	02d75733          	divu	a4,a4,a3
/home/tututu/qimeng/simulator/baremetal/benchmarks/coremark/../../lib/xprintf.c:135
			if (d > 9) d += (c == 'x') ? 0x27 : 0x07;
80000eec:	00fdf463          	bgeu	s11,a5,80000ef4 <xprintf+0x214>
/home/tututu/qimeng/simulator/baremetal/benchmarks/coremark/../../lib/xprintf.c:135 (discriminator 5)
80000ef0:	00f307b3          	add	a5,t1,a5
/home/tututu/qimeng/simulator/baremetal/benchmarks/coremark/../../lib/xprintf.c:136
			s[i++] = d + '0';
80000ef4:	00160a93          	addi	s5,a2,1
80000ef8:	03078793          	addi	a5,a5,48
80000efc:	015a08b3          	add	a7,s4,s5
80000f00:	fef88fa3          	sb	a5,-1(a7)
/home/tututu/qimeng/simulator/baremetal/benchmarks/coremark/../../lib/xprintf.c:137
		} while (v && i < sizeof(s));
80000f04:	00d56663          	bltu	a0,a3,80000f10 <xprintf+0x230>
80000f08:	ff160793          	addi	a5,a2,-15
80000f0c:	fc0798e3          	bne	a5,zero,80000edc <xprintf+0x1fc>
/home/tututu/qimeng/simulator/baremetal/benchmarks/coremark/../../lib/xprintf.c:138
		if (f & 8) s[i++] = '-';
80000f10:	000e0a63          	beq	t3,zero,80000f24 <xprintf+0x244>
80000f14:	002a87b3          	add	a5,s5,sp
80000f18:	02d00713          	addi	a4,zero,45
80000f1c:	00260a93          	addi	s5,a2,2
80000f20:	02e78023          	sb	a4,32(a5)
/home/tututu/qimeng/simulator/baremetal/benchmarks/coremark/../../lib/xprintf.c:139 (discriminator 2)
		j = i; d = (f & 1) ? '0' : ' ';
80000f24:	01f59793          	slli	a5,a1,0x1f
80000f28:	41f7d513          	srai	a0,a5,0x1f
/home/tututu/qimeng/simulator/baremetal/benchmarks/coremark/../../lib/xprintf.c:139
80000f2c:	01057c93          	andi	s9,a0,16
xputc():
/home/tututu/qimeng/simulator/baremetal/benchmarks/coremark/../../lib/xprintf.c:30
	if (outptr) {
80000f30:	80004c37          	lui	s8,0x80004
xvprintf():
/home/tututu/qimeng/simulator/baremetal/benchmarks/coremark/../../lib/xprintf.c:140 (discriminator 2)
		while (!(f & 2) && j++ < w) xputc(d);
80000f34:	0025f593          	andi	a1,a1,2
/home/tututu/qimeng/simulator/baremetal/benchmarks/coremark/../../lib/xprintf.c:140
80000f38:	01512423          	sw	s5,8(sp)
xputc():
/home/tututu/qimeng/simulator/baremetal/benchmarks/coremark/../../lib/xprintf.c:30
	if (outptr) {
80000f3c:	684c2783          	lw	a5,1668(s8) # 80004684 <outptr>
xvprintf():
/home/tututu/qimeng/simulator/baremetal/benchmarks/coremark/../../lib/xprintf.c:139 (discriminator 2)
		j = i; d = (f & 1) ? '0' : ' ';
80000f40:	020c8c93          	addi	s9,s9,32
/home/tututu/qimeng/simulator/baremetal/benchmarks/coremark/../../lib/xprintf.c:140
		while (!(f & 2) && j++ < w) xputc(d);
80000f44:	04059a63          	bne	a1,zero,80000f98 <xprintf+0x2b8>
80000f48:	001b8713          	addi	a4,s7,1
80000f4c:	00e12423          	sw	a4,8(sp)
80000f50:	00070d13          	addi	s10,a4,0
/home/tututu/qimeng/simulator/baremetal/benchmarks/coremark/../../lib/xprintf.c:140 (discriminator 3)
80000f54:	001a8993          	addi	s3,s5,1
/home/tututu/qimeng/simulator/baremetal/benchmarks/coremark/../../lib/xprintf.c:140
80000f58:	337afc63          	bgeu	s5,s7,80001290 <xprintf+0x5b0>
xputc():
/home/tututu/qimeng/simulator/baremetal/benchmarks/coremark/../../lib/xprintf.c:30
	if (outptr) {
80000f5c:	02079263          	bne	a5,zero,80000f80 <xprintf+0x2a0>
/home/tututu/qimeng/simulator/baremetal/benchmarks/coremark/../../lib/xprintf.c:35
	if (xfunc_out) xfunc_out((unsigned char)c);
80000f60:	68842683          	lw	a3,1672(s0) # 80004688 <xfunc_out>
80000f64:	1e068a63          	beq	a3,zero,80001158 <xprintf+0x478>
/home/tututu/qimeng/simulator/baremetal/benchmarks/coremark/../../lib/xprintf.c:35 (discriminator 1)
80000f68:	000c8513          	addi	a0,s9,0
80000f6c:	000680e7          	jalr	ra,0(a3)
/home/tututu/qimeng/simulator/baremetal/benchmarks/coremark/../../lib/xprintf.c:30
	if (outptr) {
80000f70:	684c2783          	lw	a5,1668(s8)
xvprintf():
/home/tututu/qimeng/simulator/baremetal/benchmarks/coremark/../../lib/xprintf.c:140 (discriminator 3)
		while (!(f & 2) && j++ < w) xputc(d);
80000f74:	03798263          	beq	s3,s7,80000f98 <xprintf+0x2b8>
/home/tututu/qimeng/simulator/baremetal/benchmarks/coremark/../../lib/xprintf.c:140
80000f78:	00198993          	addi	s3,s3,1
xputc():
/home/tututu/qimeng/simulator/baremetal/benchmarks/coremark/../../lib/xprintf.c:30
	if (outptr) {
80000f7c:	fe0782e3          	beq	a5,zero,80000f60 <xprintf+0x280>
/home/tututu/qimeng/simulator/baremetal/benchmarks/coremark/../../lib/xprintf.c:31
		*outptr++ = (unsigned char)c;
80000f80:	00078693          	addi	a3,a5,0
80000f84:	00178793          	addi	a5,a5,1
xvprintf():
/home/tututu/qimeng/simulator/baremetal/benchmarks/coremark/../../lib/xprintf.c:140 (discriminator 3)
		while (!(f & 2) && j++ < w) xputc(d);
80000f88:	00198993          	addi	s3,s3,1
xputc():
/home/tututu/qimeng/simulator/baremetal/benchmarks/coremark/../../lib/xprintf.c:31
		*outptr++ = (unsigned char)c;
80000f8c:	01968023          	sb	s9,0(a3)
80000f90:	68fc2223          	sw	a5,1668(s8)
xvprintf():
/home/tututu/qimeng/simulator/baremetal/benchmarks/coremark/../../lib/xprintf.c:140 (discriminator 3)
		while (!(f & 2) && j++ < w) xputc(d);
80000f94:	ffa996e3          	bne	s3,s10,80000f80 <xprintf+0x2a0>
/home/tututu/qimeng/simulator/baremetal/benchmarks/coremark/../../lib/xprintf.c:140
80000f98:	015a0ab3          	add	s5,s4,s5
80000f9c:	01c0006f          	jal	zero,80000fb8 <xprintf+0x2d8>
xputc():
/home/tututu/qimeng/simulator/baremetal/benchmarks/coremark/../../lib/xprintf.c:31
		*outptr++ = (unsigned char)c;
80000fa0:	00178713          	addi	a4,a5,1
80000fa4:	00a78023          	sb	a0,0(a5)
80000fa8:	68ec2223          	sw	a4,1668(s8)
xvprintf():
/home/tututu/qimeng/simulator/baremetal/benchmarks/coremark/../../lib/xprintf.c:141 (discriminator 2)
		do xputc(s[--i]); while(i);
80000fac:	fffa8a93          	addi	s5,s5,-1
/home/tututu/qimeng/simulator/baremetal/benchmarks/coremark/../../lib/xprintf.c:141
80000fb0:	035a0263          	beq	s4,s5,80000fd4 <xprintf+0x2f4>
xputc():
/home/tututu/qimeng/simulator/baremetal/benchmarks/coremark/../../lib/xprintf.c:30
	if (outptr) {
80000fb4:	684c2783          	lw	a5,1668(s8)
xvprintf():
/home/tututu/qimeng/simulator/baremetal/benchmarks/coremark/../../lib/xprintf.c:141
		do xputc(s[--i]); while(i);
80000fb8:	fffac503          	lbu	a0,-1(s5)
xputc():
/home/tututu/qimeng/simulator/baremetal/benchmarks/coremark/../../lib/xprintf.c:30
	if (outptr) {
80000fbc:	fe0792e3          	bne	a5,zero,80000fa0 <xprintf+0x2c0>
/home/tututu/qimeng/simulator/baremetal/benchmarks/coremark/../../lib/xprintf.c:35
	if (xfunc_out) xfunc_out((unsigned char)c);
80000fc0:	68842783          	lw	a5,1672(s0)
80000fc4:	fe0784e3          	beq	a5,zero,80000fac <xprintf+0x2cc>
xvprintf():
/home/tututu/qimeng/simulator/baremetal/benchmarks/coremark/../../lib/xprintf.c:141 (discriminator 2)
		do xputc(s[--i]); while(i);
80000fc8:	fffa8a93          	addi	s5,s5,-1
xputc():
/home/tututu/qimeng/simulator/baremetal/benchmarks/coremark/../../lib/xprintf.c:35 (discriminator 1)
	if (xfunc_out) xfunc_out((unsigned char)c);
80000fcc:	000780e7          	jalr	ra,0(a5)
xvprintf():
/home/tututu/qimeng/simulator/baremetal/benchmarks/coremark/../../lib/xprintf.c:141 (discriminator 2)
		do xputc(s[--i]); while(i);
80000fd0:	ff5a12e3          	bne	s4,s5,80000fb4 <xprintf+0x2d4>
/home/tututu/qimeng/simulator/baremetal/benchmarks/coremark/../../lib/xprintf.c:142
		while (j++ < w) xputc(' ');
80000fd4:	00812783          	lw	a5,8(sp)
80000fd8:	db77f6e3          	bgeu	a5,s7,80000d84 <xprintf+0xa4>
80000fdc:	00178c93          	addi	s9,a5,1
xputc():
/home/tututu/qimeng/simulator/baremetal/benchmarks/coremark/../../lib/xprintf.c:30
	if (outptr) {
80000fe0:	684c2783          	lw	a5,1668(s8)
/home/tututu/qimeng/simulator/baremetal/benchmarks/coremark/../../lib/xprintf.c:35 (discriminator 1)
	if (xfunc_out) xfunc_out((unsigned char)c);
80000fe4:	02000a93          	addi	s5,zero,32
/home/tututu/qimeng/simulator/baremetal/benchmarks/coremark/../../lib/xprintf.c:30
	if (outptr) {
80000fe8:	02078063          	beq	a5,zero,80001008 <xprintf+0x328>
/home/tututu/qimeng/simulator/baremetal/benchmarks/coremark/../../lib/xprintf.c:31
		*outptr++ = (unsigned char)c;
80000fec:	00178713          	addi	a4,a5,1
80000ff0:	01578023          	sb	s5,0(a5)
80000ff4:	68ec2223          	sw	a4,1668(s8)
xvprintf():
/home/tututu/qimeng/simulator/baremetal/benchmarks/coremark/../../lib/xprintf.c:142
		while (j++ < w) xputc(' ');
80000ff8:	d99b86e3          	beq	s7,s9,80000d84 <xprintf+0xa4>
xputc():
/home/tututu/qimeng/simulator/baremetal/benchmarks/coremark/../../lib/xprintf.c:30
	if (outptr) {
80000ffc:	684c2783          	lw	a5,1668(s8)
xvprintf():
/home/tututu/qimeng/simulator/baremetal/benchmarks/coremark/../../lib/xprintf.c:30
80001000:	001c8c93          	addi	s9,s9,1
xputc():
/home/tututu/qimeng/simulator/baremetal/benchmarks/coremark/../../lib/xprintf.c:30
80001004:	fe0794e3          	bne	a5,zero,80000fec <xprintf+0x30c>
/home/tututu/qimeng/simulator/baremetal/benchmarks/coremark/../../lib/xprintf.c:35
	if (xfunc_out) xfunc_out((unsigned char)c);
80001008:	68842783          	lw	a5,1672(s0)
8000100c:	fe0786e3          	beq	a5,zero,80000ff8 <xprintf+0x318>
/home/tututu/qimeng/simulator/baremetal/benchmarks/coremark/../../lib/xprintf.c:35 (discriminator 1)
80001010:	02000513          	addi	a0,zero,32
80001014:	000780e7          	jalr	ra,0(a5)
80001018:	fe1ff06f          	jal	zero,80000ff8 <xprintf+0x318>
xvprintf():
/home/tututu/qimeng/simulator/baremetal/benchmarks/coremark/../../lib/xprintf.c:127
		v = (f & 4) ? va_arg(arp, long) : ((d == 'D') ? (long)va_arg(arp, int) : (long)va_arg(arp, unsigned int));
8000101c:	0045f793          	andi	a5,a1,4
80001020:	16079a63          	bne	a5,zero,80001194 <xprintf+0x4b4>
/home/tututu/qimeng/simulator/baremetal/benchmarks/coremark/../../lib/xprintf.c:116
			r = 8; break;
80001024:	00800693          	addi	a3,zero,8
80001028:	00448613          	addi	a2,s1,4
/home/tututu/qimeng/simulator/baremetal/benchmarks/coremark/../../lib/xprintf.c:127 (discriminator 5)
		v = (f & 4) ? va_arg(arp, long) : ((d == 'D') ? (long)va_arg(arp, int) : (long)va_arg(arp, unsigned int));
8000102c:	0004a703          	lw	a4,0(s1)
80001030:	00000e13          	addi	t3,zero,0
80001034:	00060493          	addi	s1,a2,0
80001038:	e89ff06f          	jal	zero,80000ec0 <xprintf+0x1e0>
xputc():
/home/tututu/qimeng/simulator/baremetal/benchmarks/coremark/../../lib/xprintf.c:30
	if (outptr) {
8000103c:	80004737          	lui	a4,0x80004
80001040:	68472783          	lw	a5,1668(a4) # 80004684 <outptr>
xvprintf():
/home/tututu/qimeng/simulator/baremetal/benchmarks/coremark/../../lib/xprintf.c:112 (discriminator 1)
			xputc((char)va_arg(arp, int)); continue;
80001044:	0004c503          	lbu	a0,0(s1)
/home/tututu/qimeng/simulator/baremetal/benchmarks/coremark/../../lib/xprintf.c:112
80001048:	00448a93          	addi	s5,s1,4
xputc():
/home/tututu/qimeng/simulator/baremetal/benchmarks/coremark/../../lib/xprintf.c:30
	if (outptr) {
8000104c:	18078c63          	beq	a5,zero,800011e4 <xprintf+0x504>
/home/tututu/qimeng/simulator/baremetal/benchmarks/coremark/../../lib/xprintf.c:31
		*outptr++ = (unsigned char)c;
80001050:	00178693          	addi	a3,a5,1
80001054:	00a78023          	sb	a0,0(a5)
80001058:	68d72223          	sw	a3,1668(a4)
xvprintf():
/home/tututu/qimeng/simulator/baremetal/benchmarks/coremark/../../lib/xprintf.c:112
			xputc((char)va_arg(arp, int)); continue;
8000105c:	000a8493          	addi	s1,s5,0
80001060:	d25ff06f          	jal	zero,80000d84 <xprintf+0xa4>
/home/tututu/qimeng/simulator/baremetal/benchmarks/coremark/../../lib/xprintf.c:127
		v = (f & 4) ? va_arg(arp, long) : ((d == 'D') ? (long)va_arg(arp, int) : (long)va_arg(arp, unsigned int));
80001064:	0045f793          	andi	a5,a1,4
80001068:	14078e63          	beq	a5,zero,800011c4 <xprintf+0x4e4>
/home/tututu/qimeng/simulator/baremetal/benchmarks/coremark/../../lib/xprintf.c:105
			p = va_arg(arp, char*);
8000106c:	0004a703          	lw	a4,0(s1)
/home/tututu/qimeng/simulator/baremetal/benchmarks/coremark/../../lib/xprintf.c:127 (discriminator 3)
		v = (f & 4) ? va_arg(arp, long) : ((d == 'D') ? (long)va_arg(arp, int) : (long)va_arg(arp, unsigned int));
80001070:	00000e13          	addi	t3,zero,0
/home/tututu/qimeng/simulator/baremetal/benchmarks/coremark/../../lib/xprintf.c:105
			p = va_arg(arp, char*);
80001074:	00448493          	addi	s1,s1,4
/home/tututu/qimeng/simulator/baremetal/benchmarks/coremark/../../lib/xprintf.c:114
			r = 2; break;
80001078:	00200693          	addi	a3,zero,2
8000107c:	e45ff06f          	jal	zero,80000ec0 <xprintf+0x1e0>
/home/tututu/qimeng/simulator/baremetal/benchmarks/coremark/../../lib/xprintf.c:127
		v = (f & 4) ? va_arg(arp, long) : ((d == 'D') ? (long)va_arg(arp, int) : (long)va_arg(arp, unsigned int));
80001080:	0045f793          	andi	a5,a1,4
80001084:	12078a63          	beq	a5,zero,800011b8 <xprintf+0x4d8>
/home/tututu/qimeng/simulator/baremetal/benchmarks/coremark/../../lib/xprintf.c:105
			p = va_arg(arp, char*);
80001088:	0004a703          	lw	a4,0(s1)
/home/tututu/qimeng/simulator/baremetal/benchmarks/coremark/../../lib/xprintf.c:127 (discriminator 3)
		v = (f & 4) ? va_arg(arp, long) : ((d == 'D') ? (long)va_arg(arp, int) : (long)va_arg(arp, unsigned int));
8000108c:	00000e13          	addi	t3,zero,0
/home/tututu/qimeng/simulator/baremetal/benchmarks/coremark/../../lib/xprintf.c:105
			p = va_arg(arp, char*);
80001090:	00448493          	addi	s1,s1,4
/home/tututu/qimeng/simulator/baremetal/benchmarks/coremark/../../lib/xprintf.c:121
			r = 16; break;
80001094:	01000693          	addi	a3,zero,16
80001098:	e29ff06f          	jal	zero,80000ec0 <xprintf+0x1e0>
/home/tututu/qimeng/simulator/baremetal/benchmarks/coremark/../../lib/xprintf.c:105
			p = va_arg(arp, char*);
8000109c:	0004aa03          	lw	s4,0(s1)
/home/tututu/qimeng/simulator/baremetal/benchmarks/coremark/../../lib/xprintf.c:107 (discriminator 2)
			while (!(f & 2) && j++ < w) xputc(' ');
800010a0:	0025f593          	andi	a1,a1,2
/home/tututu/qimeng/simulator/baremetal/benchmarks/coremark/../../lib/xprintf.c:105
			p = va_arg(arp, char*);
800010a4:	00448493          	addi	s1,s1,4
/home/tututu/qimeng/simulator/baremetal/benchmarks/coremark/../../lib/xprintf.c:106
			for (j = 0; p[j]; j++) ;
800010a8:	000a4503          	lbu	a0,0(s4)
800010ac:	1e050663          	beq	a0,zero,80001298 <xprintf+0x5b8>
800010b0:	00000a93          	addi	s5,zero,0
/home/tututu/qimeng/simulator/baremetal/benchmarks/coremark/../../lib/xprintf.c:106 (discriminator 3)
800010b4:	000a8d13          	addi	s10,s5,0
800010b8:	001a8a93          	addi	s5,s5,1
/home/tututu/qimeng/simulator/baremetal/benchmarks/coremark/../../lib/xprintf.c:106
800010bc:	015a0733          	add	a4,s4,s5
800010c0:	00074703          	lbu	a4,0(a4)
800010c4:	fe0718e3          	bne	a4,zero,800010b4 <xprintf+0x3d4>
/home/tututu/qimeng/simulator/baremetal/benchmarks/coremark/../../lib/xprintf.c:107 (discriminator 2)
			while (!(f & 2) && j++ < w) xputc(' ');
800010c8:	12058a63          	beq	a1,zero,800011fc <xprintf+0x51c>
/home/tututu/qimeng/simulator/baremetal/benchmarks/coremark/../../lib/xprintf.c:109
			while (j++ < w) xputc(' ');
800010cc:	002d0d13          	addi	s10,s10,2
800010d0:	80004c37          	lui	s8,0x80004
xputc():
/home/tututu/qimeng/simulator/baremetal/benchmarks/coremark/../../lib/xprintf.c:35
	if (xfunc_out) xfunc_out((unsigned char)c);
800010d4:	80004cb7          	lui	s9,0x80004
800010d8:	0180006f          	jal	zero,800010f0 <xprintf+0x410>
/home/tututu/qimeng/simulator/baremetal/benchmarks/coremark/../../lib/xprintf.c:31
		*outptr++ = (unsigned char)c;
800010dc:	00170693          	addi	a3,a4,1
800010e0:	00a70023          	sb	a0,0(a4)
800010e4:	68dc2223          	sw	a3,1668(s8) # 80004684 <outptr>
xputs():
/home/tututu/qimeng/simulator/baremetal/benchmarks/coremark/../../lib/xprintf.c:47
	while (*str)
800010e8:	000a4503          	lbu	a0,0(s4)
800010ec:	02050263          	beq	a0,zero,80001110 <xprintf+0x430>
xputc():
/home/tututu/qimeng/simulator/baremetal/benchmarks/coremark/../../lib/xprintf.c:30
	if (outptr) {
800010f0:	684c2703          	lw	a4,1668(s8)
xputs():
/home/tututu/qimeng/simulator/baremetal/benchmarks/coremark/../../lib/xprintf.c:48
		xputc(*str++);
800010f4:	001a0a13          	addi	s4,s4,1
xputc():
/home/tututu/qimeng/simulator/baremetal/benchmarks/coremark/../../lib/xprintf.c:30
	if (outptr) {
800010f8:	fe0712e3          	bne	a4,zero,800010dc <xprintf+0x3fc>
/home/tututu/qimeng/simulator/baremetal/benchmarks/coremark/../../lib/xprintf.c:35
	if (xfunc_out) xfunc_out((unsigned char)c);
800010fc:	688ca703          	lw	a4,1672(s9) # 80004688 <xfunc_out>
80001100:	fe0704e3          	beq	a4,zero,800010e8 <xprintf+0x408>
/home/tututu/qimeng/simulator/baremetal/benchmarks/coremark/../../lib/xprintf.c:35 (discriminator 1)
80001104:	000700e7          	jalr	ra,0(a4)
xputs():
/home/tututu/qimeng/simulator/baremetal/benchmarks/coremark/../../lib/xprintf.c:47
	while (*str)
80001108:	000a4503          	lbu	a0,0(s4)
8000110c:	fe0512e3          	bne	a0,zero,800010f0 <xprintf+0x410>
xvprintf():
/home/tututu/qimeng/simulator/baremetal/benchmarks/coremark/../../lib/xprintf.c:109
			while (j++ < w) xputc(' ');
80001110:	80004c37          	lui	s8,0x80004
xputc():
/home/tututu/qimeng/simulator/baremetal/benchmarks/coremark/../../lib/xprintf.c:35
	if (xfunc_out) xfunc_out((unsigned char)c);
80001114:	80004cb7          	lui	s9,0x80004
/home/tututu/qimeng/simulator/baremetal/benchmarks/coremark/../../lib/xprintf.c:35 (discriminator 1)
80001118:	02000993          	addi	s3,zero,32
xvprintf():
/home/tututu/qimeng/simulator/baremetal/benchmarks/coremark/../../lib/xprintf.c:109 (discriminator 2)
			while (j++ < w) xputc(' ');
8000111c:	c77af4e3          	bgeu	s5,s7,80000d84 <xprintf+0xa4>
xputc():
/home/tututu/qimeng/simulator/baremetal/benchmarks/coremark/../../lib/xprintf.c:30
	if (outptr) {
80001120:	684c2783          	lw	a5,1668(s8) # 80004684 <outptr>
80001124:	02078063          	beq	a5,zero,80001144 <xprintf+0x464>
/home/tututu/qimeng/simulator/baremetal/benchmarks/coremark/../../lib/xprintf.c:31
		*outptr++ = (unsigned char)c;
80001128:	00178713          	addi	a4,a5,1
8000112c:	01378023          	sb	s3,0(a5)
80001130:	68ec2223          	sw	a4,1668(s8)
xvprintf():
/home/tututu/qimeng/simulator/baremetal/benchmarks/coremark/../../lib/xprintf.c:109
			while (j++ < w) xputc(' ');
80001134:	c57d78e3          	bgeu	s10,s7,80000d84 <xprintf+0xa4>
xputc():
/home/tututu/qimeng/simulator/baremetal/benchmarks/coremark/../../lib/xprintf.c:30
	if (outptr) {
80001138:	684c2783          	lw	a5,1668(s8)
xvprintf():
/home/tututu/qimeng/simulator/baremetal/benchmarks/coremark/../../lib/xprintf.c:30
8000113c:	001d0d13          	addi	s10,s10,1
xputc():
/home/tututu/qimeng/simulator/baremetal/benchmarks/coremark/../../lib/xprintf.c:30
80001140:	fe0794e3          	bne	a5,zero,80001128 <xprintf+0x448>
/home/tututu/qimeng/simulator/baremetal/benchmarks/coremark/../../lib/xprintf.c:35
	if (xfunc_out) xfunc_out((unsigned char)c);
80001144:	688ca783          	lw	a5,1672(s9) # 80004688 <xfunc_out>
80001148:	fe0786e3          	beq	a5,zero,80001134 <xprintf+0x454>
/home/tututu/qimeng/simulator/baremetal/benchmarks/coremark/../../lib/xprintf.c:35 (discriminator 1)
8000114c:	02000513          	addi	a0,zero,32
80001150:	000780e7          	jalr	ra,0(a5)
80001154:	fe1ff06f          	jal	zero,80001134 <xprintf+0x454>
xvprintf():
/home/tututu/qimeng/simulator/baremetal/benchmarks/coremark/../../lib/xprintf.c:140 (discriminator 3)
		while (!(f & 2) && j++ < w) xputc(d);
80001158:	e57980e3          	beq	s3,s7,80000f98 <xprintf+0x2b8>
/home/tututu/qimeng/simulator/baremetal/benchmarks/coremark/../../lib/xprintf.c:140
8000115c:	00198993          	addi	s3,s3,1
80001160:	e01ff06f          	jal	zero,80000f60 <xprintf+0x280>
xputc():
/home/tututu/qimeng/simulator/baremetal/benchmarks/coremark/../../lib/xprintf.c:35
	if (xfunc_out) xfunc_out((unsigned char)c);
80001164:	68842783          	lw	a5,1672(s0)
80001168:	c0078ce3          	beq	a5,zero,80000d80 <xprintf+0xa0>
/home/tututu/qimeng/simulator/baremetal/benchmarks/coremark/../../lib/xprintf.c:35 (discriminator 1)
8000116c:	000780e7          	jalr	ra,0(a5)
/home/tututu/qimeng/simulator/baremetal/benchmarks/coremark/../../lib/xprintf.c:35
80001170:	c11ff06f          	jal	zero,80000d80 <xprintf+0xa0>
xvprintf():
/home/tututu/qimeng/simulator/baremetal/benchmarks/coremark/../../lib/xprintf.c:89
			f = 1; c = *fmt++;
80001174:	002b4503          	lbu	a0,2(s6)
80001178:	00100593          	addi	a1,zero,1
8000117c:	003b0b13          	addi	s6,s6,3
80001180:	c69ff06f          	jal	zero,80000de8 <xprintf+0x108>
/home/tututu/qimeng/simulator/baremetal/benchmarks/coremark/../../lib/xprintf.c:92
				f = 2; c = *fmt++;
80001184:	002b4503          	lbu	a0,2(s6)
80001188:	00200593          	addi	a1,zero,2
8000118c:	003b0b13          	addi	s6,s6,3
80001190:	c59ff06f          	jal	zero,80000de8 <xprintf+0x108>
/home/tututu/qimeng/simulator/baremetal/benchmarks/coremark/../../lib/xprintf.c:105
			p = va_arg(arp, char*);
80001194:	0004a703          	lw	a4,0(s1)
/home/tututu/qimeng/simulator/baremetal/benchmarks/coremark/../../lib/xprintf.c:127 (discriminator 3)
		v = (f & 4) ? va_arg(arp, long) : ((d == 'D') ? (long)va_arg(arp, int) : (long)va_arg(arp, unsigned int));
80001198:	00000e13          	addi	t3,zero,0
/home/tututu/qimeng/simulator/baremetal/benchmarks/coremark/../../lib/xprintf.c:105
			p = va_arg(arp, char*);
8000119c:	00448493          	addi	s1,s1,4
/home/tututu/qimeng/simulator/baremetal/benchmarks/coremark/../../lib/xprintf.c:116
			r = 8; break;
800011a0:	00800693          	addi	a3,zero,8
800011a4:	d1dff06f          	jal	zero,80000ec0 <xprintf+0x1e0>
/home/tututu/qimeng/simulator/baremetal/benchmarks/coremark/../../lib/xprintf.c:127 (discriminator 2)
		v = (f & 4) ? va_arg(arp, long) : ((d == 'D') ? (long)va_arg(arp, int) : (long)va_arg(arp, unsigned int));
800011a8:	04400793          	addi	a5,zero,68
800011ac:	cef708e3          	beq	a4,a5,80000e9c <xprintf+0x1bc>
800011b0:	00a00693          	addi	a3,zero,10
800011b4:	e79ff06f          	jal	zero,8000102c <xprintf+0x34c>
/home/tututu/qimeng/simulator/baremetal/benchmarks/coremark/../../lib/xprintf.c:121
			r = 16; break;
800011b8:	01000693          	addi	a3,zero,16
800011bc:	00448613          	addi	a2,s1,4
800011c0:	e6dff06f          	jal	zero,8000102c <xprintf+0x34c>
/home/tututu/qimeng/simulator/baremetal/benchmarks/coremark/../../lib/xprintf.c:114
			r = 2; break;
800011c4:	00200693          	addi	a3,zero,2
800011c8:	00448613          	addi	a2,s1,4
800011cc:	e61ff06f          	jal	zero,8000102c <xprintf+0x34c>
xputc():
/home/tututu/qimeng/simulator/baremetal/benchmarks/coremark/../../lib/xprintf.c:35
	if (xfunc_out) xfunc_out((unsigned char)c);
800011d0:	800047b7          	lui	a5,0x80004
800011d4:	6887a783          	lw	a5,1672(a5) # 80004688 <xfunc_out>
800011d8:	ba0786e3          	beq	a5,zero,80000d84 <xprintf+0xa4>
/home/tututu/qimeng/simulator/baremetal/benchmarks/coremark/../../lib/xprintf.c:35 (discriminator 1)
800011dc:	000780e7          	jalr	ra,0(a5)
/home/tututu/qimeng/simulator/baremetal/benchmarks/coremark/../../lib/xprintf.c:35
800011e0:	ba5ff06f          	jal	zero,80000d84 <xprintf+0xa4>
800011e4:	800047b7          	lui	a5,0x80004
800011e8:	6887a783          	lw	a5,1672(a5) # 80004688 <xfunc_out>
800011ec:	e60788e3          	beq	a5,zero,8000105c <xprintf+0x37c>
/home/tututu/qimeng/simulator/baremetal/benchmarks/coremark/../../lib/xprintf.c:35 (discriminator 1)
800011f0:	000780e7          	jalr	ra,0(a5)
xvprintf():
/home/tututu/qimeng/simulator/baremetal/benchmarks/coremark/../../lib/xprintf.c:112
			xputc((char)va_arg(arp, int)); continue;
800011f4:	000a8493          	addi	s1,s5,0
800011f8:	b8dff06f          	jal	zero,80000d84 <xprintf+0xa4>
/home/tututu/qimeng/simulator/baremetal/benchmarks/coremark/../../lib/xprintf.c:109 (discriminator 2)
			while (j++ < w) xputc(' ');
800011fc:	002d0c93          	addi	s9,s10,2
/home/tututu/qimeng/simulator/baremetal/benchmarks/coremark/../../lib/xprintf.c:107 (discriminator 3)
			while (!(f & 2) && j++ < w) xputc(' ');
80001200:	0b7afa63          	bgeu	s5,s7,800012b4 <xprintf+0x5d4>
/home/tututu/qimeng/simulator/baremetal/benchmarks/coremark/../../lib/xprintf.c:107
80001204:	80004c37          	lui	s8,0x80004
xputc():
/home/tututu/qimeng/simulator/baremetal/benchmarks/coremark/../../lib/xprintf.c:30
	if (outptr) {
80001208:	684c2703          	lw	a4,1668(s8) # 80004684 <outptr>
xvprintf():
/home/tututu/qimeng/simulator/baremetal/benchmarks/coremark/../../lib/xprintf.c:107 (discriminator 3)
			while (!(f & 2) && j++ < w) xputc(' ');
8000120c:	000c8993          	addi	s3,s9,0
xputc():
/home/tututu/qimeng/simulator/baremetal/benchmarks/coremark/../../lib/xprintf.c:35
	if (xfunc_out) xfunc_out((unsigned char)c);
80001210:	80004d37          	lui	s10,0x80004
/home/tututu/qimeng/simulator/baremetal/benchmarks/coremark/../../lib/xprintf.c:35 (discriminator 1)
80001214:	02000a93          	addi	s5,zero,32
/home/tututu/qimeng/simulator/baremetal/benchmarks/coremark/../../lib/xprintf.c:30
	if (outptr) {
80001218:	02070063          	beq	a4,zero,80001238 <xprintf+0x558>
/home/tututu/qimeng/simulator/baremetal/benchmarks/coremark/../../lib/xprintf.c:31
		*outptr++ = (unsigned char)c;
8000121c:	00170613          	addi	a2,a4,1
80001220:	01570023          	sb	s5,0(a4)
80001224:	68cc2223          	sw	a2,1668(s8)
xvprintf():
/home/tututu/qimeng/simulator/baremetal/benchmarks/coremark/../../lib/xprintf.c:107 (discriminator 3)
			while (!(f & 2) && j++ < w) xputc(' ');
80001228:	0379f263          	bgeu	s3,s7,8000124c <xprintf+0x56c>
xputc():
/home/tututu/qimeng/simulator/baremetal/benchmarks/coremark/../../lib/xprintf.c:30
	if (outptr) {
8000122c:	684c2703          	lw	a4,1668(s8)
xvprintf():
/home/tututu/qimeng/simulator/baremetal/benchmarks/coremark/../../lib/xprintf.c:30
80001230:	00198993          	addi	s3,s3,1
xputc():
/home/tututu/qimeng/simulator/baremetal/benchmarks/coremark/../../lib/xprintf.c:30
80001234:	fe0714e3          	bne	a4,zero,8000121c <xprintf+0x53c>
/home/tututu/qimeng/simulator/baremetal/benchmarks/coremark/../../lib/xprintf.c:35
	if (xfunc_out) xfunc_out((unsigned char)c);
80001238:	688d2703          	lw	a4,1672(s10) # 80004688 <xfunc_out>
8000123c:	fe0706e3          	beq	a4,zero,80001228 <xprintf+0x548>
/home/tututu/qimeng/simulator/baremetal/benchmarks/coremark/../../lib/xprintf.c:35 (discriminator 1)
80001240:	02000513          	addi	a0,zero,32
80001244:	000700e7          	jalr	ra,0(a4)
xvprintf():
/home/tututu/qimeng/simulator/baremetal/benchmarks/coremark/../../lib/xprintf.c:107 (discriminator 3)
			while (!(f & 2) && j++ < w) xputc(' ');
80001248:	ff79e2e3          	bltu	s3,s7,8000122c <xprintf+0x54c>
/home/tututu/qimeng/simulator/baremetal/benchmarks/coremark/../../lib/xprintf.c:107
8000124c:	00000713          	addi	a4,zero,0
80001250:	039bf063          	bgeu	s7,s9,80001270 <xprintf+0x590>
xputs():
/home/tututu/qimeng/simulator/baremetal/benchmarks/coremark/../../lib/xprintf.c:47
	while (*str)
80001254:	000a4503          	lbu	a0,0(s4)
80001258:	001c8a93          	addi	s5,s9,1
xvprintf():
/home/tututu/qimeng/simulator/baremetal/benchmarks/coremark/../../lib/xprintf.c:109 (discriminator 2)
			while (j++ < w) xputc(' ');
8000125c:	002c8d13          	addi	s10,s9,2
80001260:	00ea8ab3          	add	s5,s5,a4
80001264:	00ed0d33          	add	s10,s10,a4
xputs():
/home/tututu/qimeng/simulator/baremetal/benchmarks/coremark/../../lib/xprintf.c:47
	while (*str)
80001268:	e60516e3          	bne	a0,zero,800010d4 <xprintf+0x3f4>
8000126c:	ea5ff06f          	jal	zero,80001110 <xprintf+0x430>
80001270:	000a4503          	lbu	a0,0(s4)
80001274:	419b8733          	sub	a4,s7,s9
80001278:	001c8a93          	addi	s5,s9,1
xvprintf():
/home/tututu/qimeng/simulator/baremetal/benchmarks/coremark/../../lib/xprintf.c:109 (discriminator 2)
			while (j++ < w) xputc(' ');
8000127c:	002c8d13          	addi	s10,s9,2
80001280:	00ea8ab3          	add	s5,s5,a4
80001284:	00ed0d33          	add	s10,s10,a4
xputs():
/home/tututu/qimeng/simulator/baremetal/benchmarks/coremark/../../lib/xprintf.c:47
	while (*str)
80001288:	e40516e3          	bne	a0,zero,800010d4 <xprintf+0x3f4>
8000128c:	e85ff06f          	jal	zero,80001110 <xprintf+0x430>
xvprintf():
/home/tututu/qimeng/simulator/baremetal/benchmarks/coremark/../../lib/xprintf.c:140 (discriminator 3)
		while (!(f & 2) && j++ < w) xputc(d);
80001290:	01312423          	sw	s3,8(sp)
80001294:	d05ff06f          	jal	zero,80000f98 <xprintf+0x2b8>
/home/tututu/qimeng/simulator/baremetal/benchmarks/coremark/../../lib/xprintf.c:107 (discriminator 2)
			while (!(f & 2) && j++ < w) xputc(' ');
80001298:	00058863          	beq	a1,zero,800012a8 <xprintf+0x5c8>
8000129c:	00100d13          	addi	s10,zero,1
/home/tututu/qimeng/simulator/baremetal/benchmarks/coremark/../../lib/xprintf.c:106
			for (j = 0; p[j]; j++) ;
800012a0:	00000a93          	addi	s5,zero,0
800012a4:	e6dff06f          	jal	zero,80001110 <xprintf+0x430>
/home/tututu/qimeng/simulator/baremetal/benchmarks/coremark/../../lib/xprintf.c:107 (discriminator 3)
			while (!(f & 2) && j++ < w) xputc(' ');
800012a8:	00100c93          	addi	s9,zero,1
800012ac:	f40b9ce3          	bne	s7,zero,80001204 <xprintf+0x524>
800012b0:	ad5ff06f          	jal	zero,80000d84 <xprintf+0xa4>
/home/tututu/qimeng/simulator/baremetal/benchmarks/coremark/../../lib/xprintf.c:107
800012b4:	003d0d13          	addi	s10,s10,3
800012b8:	000c8a93          	addi	s5,s9,0
xputs():
/home/tututu/qimeng/simulator/baremetal/benchmarks/coremark/../../lib/xprintf.c:47
	while (*str)
800012bc:	80004c37          	lui	s8,0x80004
800012c0:	e15ff06f          	jal	zero,800010d4 <xprintf+0x3f4>
xvprintf():
/home/tututu/qimeng/simulator/baremetal/benchmarks/coremark/../../lib/xprintf.c:47
800012c4:	00060493          	addi	s1,a2,0
800012c8:	00000e13          	addi	t3,zero,0
800012cc:	00a00693          	addi	a3,zero,10
800012d0:	bf1ff06f          	jal	zero,80000ec0 <xprintf+0x1e0>

800012d4 <__divsi3>:
__divsi3():
/home/tututu/riscv-gnu-toolchain/build-gcc-newlib-stage2/riscv32-unknown-elf/libgcc/../../.././gcc/libgcc/config/riscv/div.S:69
800012d4:	06054063          	blt	a0,zero,80001334 <__umodsi3+0x10>
/home/tututu/riscv-gnu-toolchain/build-gcc-newlib-stage2/riscv32-unknown-elf/libgcc/../../.././gcc/libgcc/config/riscv/div.S:70
800012d8:	0605c663          	blt	a1,zero,80001344 <__umodsi3+0x20>

800012dc <__hidden___udivsi3>:
__hidden___udivsi3():
/home/tututu/riscv-gnu-toolchain/build-gcc-newlib-stage2/riscv32-unknown-elf/libgcc/../../.././gcc/libgcc/config/riscv/div.S:74
800012dc:	00058613          	addi	a2,a1,0
/home/tututu/riscv-gnu-toolchain/build-gcc-newlib-stage2/riscv32-unknown-elf/libgcc/../../.././gcc/libgcc/config/riscv/div.S:75
800012e0:	00050593          	addi	a1,a0,0
/home/tututu/riscv-gnu-toolchain/build-gcc-newlib-stage2/riscv32-unknown-elf/libgcc/../../.././gcc/libgcc/config/riscv/div.S:76
800012e4:	fff00513          	addi	a0,zero,-1
/home/tututu/riscv-gnu-toolchain/build-gcc-newlib-stage2/riscv32-unknown-elf/libgcc/../../.././gcc/libgcc/config/riscv/div.S:77
800012e8:	02060c63          	beq	a2,zero,80001320 <__hidden___udivsi3+0x44>
/home/tututu/riscv-gnu-toolchain/build-gcc-newlib-stage2/riscv32-unknown-elf/libgcc/../../.././gcc/libgcc/config/riscv/div.S:78
800012ec:	00100693          	addi	a3,zero,1
/home/tututu/riscv-gnu-toolchain/build-gcc-newlib-stage2/riscv32-unknown-elf/libgcc/../../.././gcc/libgcc/config/riscv/div.S:79
800012f0:	00b67a63          	bgeu	a2,a1,80001304 <__hidden___udivsi3+0x28>
/home/tututu/riscv-gnu-toolchain/build-gcc-newlib-stage2/riscv32-unknown-elf/libgcc/../../.././gcc/libgcc/config/riscv/div.S:81
800012f4:	00c05863          	bge	zero,a2,80001304 <__hidden___udivsi3+0x28>
/home/tututu/riscv-gnu-toolchain/build-gcc-newlib-stage2/riscv32-unknown-elf/libgcc/../../.././gcc/libgcc/config/riscv/div.S:82
800012f8:	00161613          	slli	a2,a2,0x1
/home/tututu/riscv-gnu-toolchain/build-gcc-newlib-stage2/riscv32-unknown-elf/libgcc/../../.././gcc/libgcc/config/riscv/div.S:83
800012fc:	00169693          	slli	a3,a3,0x1
/home/tututu/riscv-gnu-toolchain/build-gcc-newlib-stage2/riscv32-unknown-elf/libgcc/../../.././gcc/libgcc/config/riscv/div.S:84
80001300:	feb66ae3          	bltu	a2,a1,800012f4 <__hidden___udivsi3+0x18>
/home/tututu/riscv-gnu-toolchain/build-gcc-newlib-stage2/riscv32-unknown-elf/libgcc/../../.././gcc/libgcc/config/riscv/div.S:86
80001304:	00000513          	addi	a0,zero,0
/home/tututu/riscv-gnu-toolchain/build-gcc-newlib-stage2/riscv32-unknown-elf/libgcc/../../.././gcc/libgcc/config/riscv/div.S:88
80001308:	00c5e663          	bltu	a1,a2,80001314 <__hidden___udivsi3+0x38>
/home/tututu/riscv-gnu-toolchain/build-gcc-newlib-stage2/riscv32-unknown-elf/libgcc/../../.././gcc/libgcc/config/riscv/div.S:89
8000130c:	40c585b3          	sub	a1,a1,a2
/home/tututu/riscv-gnu-toolchain/build-gcc-newlib-stage2/riscv32-unknown-elf/libgcc/../../.././gcc/libgcc/config/riscv/div.S:90
80001310:	00d56533          	or	a0,a0,a3
/home/tututu/riscv-gnu-toolchain/build-gcc-newlib-stage2/riscv32-unknown-elf/libgcc/../../.././gcc/libgcc/config/riscv/div.S:92
80001314:	0016d693          	srli	a3,a3,0x1
/home/tututu/riscv-gnu-toolchain/build-gcc-newlib-stage2/riscv32-unknown-elf/libgcc/../../.././gcc/libgcc/config/riscv/div.S:93
80001318:	00165613          	srli	a2,a2,0x1
/home/tututu/riscv-gnu-toolchain/build-gcc-newlib-stage2/riscv32-unknown-elf/libgcc/../../.././gcc/libgcc/config/riscv/div.S:94
8000131c:	fe0696e3          	bne	a3,zero,80001308 <__hidden___udivsi3+0x2c>
/home/tututu/riscv-gnu-toolchain/build-gcc-newlib-stage2/riscv32-unknown-elf/libgcc/../../.././gcc/libgcc/config/riscv/div.S:96
80001320:	00008067          	jalr	zero,0(ra)

80001324 <__umodsi3>:
__umodsi3():
/home/tututu/riscv-gnu-toolchain/build-gcc-newlib-stage2/riscv32-unknown-elf/libgcc/../../.././gcc/libgcc/config/riscv/div.S:102
80001324:	00008293          	addi	t0,ra,0
/home/tututu/riscv-gnu-toolchain/build-gcc-newlib-stage2/riscv32-unknown-elf/libgcc/../../.././gcc/libgcc/config/riscv/div.S:103
80001328:	fb5ff0ef          	jal	ra,800012dc <__hidden___udivsi3>
/home/tututu/riscv-gnu-toolchain/build-gcc-newlib-stage2/riscv32-unknown-elf/libgcc/../../.././gcc/libgcc/config/riscv/div.S:104
8000132c:	00058513          	addi	a0,a1,0
/home/tututu/riscv-gnu-toolchain/build-gcc-newlib-stage2/riscv32-unknown-elf/libgcc/../../.././gcc/libgcc/config/riscv/div.S:105
80001330:	00028067          	jalr	zero,0(t0)
__divsi3():
/home/tututu/riscv-gnu-toolchain/build-gcc-newlib-stage2/riscv32-unknown-elf/libgcc/../../.././gcc/libgcc/config/riscv/div.S:110
80001334:	40a00533          	sub	a0,zero,a0
/home/tututu/riscv-gnu-toolchain/build-gcc-newlib-stage2/riscv32-unknown-elf/libgcc/../../.././gcc/libgcc/config/riscv/div.S:112
80001338:	00b04863          	blt	zero,a1,80001348 <__umodsi3+0x24>
/home/tututu/riscv-gnu-toolchain/build-gcc-newlib-stage2/riscv32-unknown-elf/libgcc/../../.././gcc/libgcc/config/riscv/div.S:114
8000133c:	40b005b3          	sub	a1,zero,a1
/home/tututu/riscv-gnu-toolchain/build-gcc-newlib-stage2/riscv32-unknown-elf/libgcc/../../.././gcc/libgcc/config/riscv/div.S:115
80001340:	f9dff06f          	jal	zero,800012dc <__hidden___udivsi3>
/home/tututu/riscv-gnu-toolchain/build-gcc-newlib-stage2/riscv32-unknown-elf/libgcc/../../.././gcc/libgcc/config/riscv/div.S:117
80001344:	40b005b3          	sub	a1,zero,a1
/home/tututu/riscv-gnu-toolchain/build-gcc-newlib-stage2/riscv32-unknown-elf/libgcc/../../.././gcc/libgcc/config/riscv/div.S:119
80001348:	00008293          	addi	t0,ra,0
/home/tututu/riscv-gnu-toolchain/build-gcc-newlib-stage2/riscv32-unknown-elf/libgcc/../../.././gcc/libgcc/config/riscv/div.S:120
8000134c:	f91ff0ef          	jal	ra,800012dc <__hidden___udivsi3>
/home/tututu/riscv-gnu-toolchain/build-gcc-newlib-stage2/riscv32-unknown-elf/libgcc/../../.././gcc/libgcc/config/riscv/div.S:121
80001350:	40a00533          	sub	a0,zero,a0
/home/tututu/riscv-gnu-toolchain/build-gcc-newlib-stage2/riscv32-unknown-elf/libgcc/../../.././gcc/libgcc/config/riscv/div.S:122
80001354:	00028067          	jalr	zero,0(t0)

80001358 <__modsi3>:
__modsi3():
/home/tututu/riscv-gnu-toolchain/build-gcc-newlib-stage2/riscv32-unknown-elf/libgcc/../../.././gcc/libgcc/config/riscv/div.S:126
80001358:	00008293          	addi	t0,ra,0
/home/tututu/riscv-gnu-toolchain/build-gcc-newlib-stage2/riscv32-unknown-elf/libgcc/../../.././gcc/libgcc/config/riscv/div.S:127
8000135c:	0005ca63          	blt	a1,zero,80001370 <__modsi3+0x18>
/home/tututu/riscv-gnu-toolchain/build-gcc-newlib-stage2/riscv32-unknown-elf/libgcc/../../.././gcc/libgcc/config/riscv/div.S:128
80001360:	00054c63          	blt	a0,zero,80001378 <__modsi3+0x20>
/home/tututu/riscv-gnu-toolchain/build-gcc-newlib-stage2/riscv32-unknown-elf/libgcc/../../.././gcc/libgcc/config/riscv/div.S:130
80001364:	f79ff0ef          	jal	ra,800012dc <__hidden___udivsi3>
/home/tututu/riscv-gnu-toolchain/build-gcc-newlib-stage2/riscv32-unknown-elf/libgcc/../../.././gcc/libgcc/config/riscv/div.S:131
80001368:	00058513          	addi	a0,a1,0
/home/tututu/riscv-gnu-toolchain/build-gcc-newlib-stage2/riscv32-unknown-elf/libgcc/../../.././gcc/libgcc/config/riscv/div.S:132
8000136c:	00028067          	jalr	zero,0(t0)
/home/tututu/riscv-gnu-toolchain/build-gcc-newlib-stage2/riscv32-unknown-elf/libgcc/../../.././gcc/libgcc/config/riscv/div.S:134
80001370:	40b005b3          	sub	a1,zero,a1
/home/tututu/riscv-gnu-toolchain/build-gcc-newlib-stage2/riscv32-unknown-elf/libgcc/../../.././gcc/libgcc/config/riscv/div.S:135
80001374:	fe0558e3          	bge	a0,zero,80001364 <__modsi3+0xc>
/home/tututu/riscv-gnu-toolchain/build-gcc-newlib-stage2/riscv32-unknown-elf/libgcc/../../.././gcc/libgcc/config/riscv/div.S:137
80001378:	40a00533          	sub	a0,zero,a0
/home/tututu/riscv-gnu-toolchain/build-gcc-newlib-stage2/riscv32-unknown-elf/libgcc/../../.././gcc/libgcc/config/riscv/div.S:138
8000137c:	f61ff0ef          	jal	ra,800012dc <__hidden___udivsi3>
/home/tututu/riscv-gnu-toolchain/build-gcc-newlib-stage2/riscv32-unknown-elf/libgcc/../../.././gcc/libgcc/config/riscv/div.S:139
80001380:	40b00533          	sub	a0,zero,a1
/home/tututu/riscv-gnu-toolchain/build-gcc-newlib-stage2/riscv32-unknown-elf/libgcc/../../.././gcc/libgcc/config/riscv/div.S:140
80001384:	00028067          	jalr	zero,0(t0)

80001388 <memcpy>:
memcpy():
80001388:	00a5c7b3          	xor	a5,a1,a0
8000138c:	0037f793          	andi	a5,a5,3
80001390:	00c508b3          	add	a7,a0,a2
80001394:	06079663          	bne	a5,zero,80001400 <memcpy+0x78>
80001398:	00463613          	sltiu	a2,a2,4
8000139c:	06061263          	bne	a2,zero,80001400 <memcpy+0x78>
800013a0:	00357793          	andi	a5,a0,3
800013a4:	00050713          	addi	a4,a0,0
800013a8:	0c079a63          	bne	a5,zero,8000147c <memcpy+0xf4>
800013ac:	ffc8f613          	andi	a2,a7,-4
800013b0:	40e606b3          	sub	a3,a2,a4
800013b4:	02000793          	addi	a5,zero,32
800013b8:	06d7c463          	blt	a5,a3,80001420 <memcpy+0x98>
800013bc:	00058693          	addi	a3,a1,0
800013c0:	00070793          	addi	a5,a4,0
800013c4:	02c77a63          	bgeu	a4,a2,800013f8 <memcpy+0x70>
800013c8:	0006a803          	lw	a6,0(a3)
800013cc:	00478793          	addi	a5,a5,4
800013d0:	00468693          	addi	a3,a3,4
800013d4:	ff07ae23          	sw	a6,-4(a5)
800013d8:	fec7e8e3          	bltu	a5,a2,800013c8 <memcpy+0x40>
800013dc:	fff60613          	addi	a2,a2,-1
800013e0:	40e60633          	sub	a2,a2,a4
800013e4:	ffc67613          	andi	a2,a2,-4
800013e8:	00458593          	addi	a1,a1,4
800013ec:	00470713          	addi	a4,a4,4
800013f0:	00c585b3          	add	a1,a1,a2
800013f4:	00c70733          	add	a4,a4,a2
800013f8:	01176863          	bltu	a4,a7,80001408 <memcpy+0x80>
800013fc:	00008067          	jalr	zero,0(ra)
80001400:	00050713          	addi	a4,a0,0
80001404:	ff157ce3          	bgeu	a0,a7,800013fc <memcpy+0x74>
80001408:	0005c783          	lbu	a5,0(a1)
8000140c:	00170713          	addi	a4,a4,1
80001410:	00158593          	addi	a1,a1,1
80001414:	fef70fa3          	sb	a5,-1(a4)
80001418:	fee898e3          	bne	a7,a4,80001408 <memcpy+0x80>
8000141c:	00008067          	jalr	zero,0(ra)
80001420:	0005a683          	lw	a3,0(a1)
80001424:	0045a283          	lw	t0,4(a1)
80001428:	0085af83          	lw	t6,8(a1)
8000142c:	00c5af03          	lw	t5,12(a1)
80001430:	0105ae83          	lw	t4,16(a1)
80001434:	0145ae03          	lw	t3,20(a1)
80001438:	0185a303          	lw	t1,24(a1)
8000143c:	01c5a803          	lw	a6,28(a1)
80001440:	00d72023          	sw	a3,0(a4)
80001444:	0205a683          	lw	a3,32(a1)
80001448:	02470713          	addi	a4,a4,36
8000144c:	fe572023          	sw	t0,-32(a4)
80001450:	fed72e23          	sw	a3,-4(a4)
80001454:	fff72223          	sw	t6,-28(a4)
80001458:	40e606b3          	sub	a3,a2,a4
8000145c:	ffe72423          	sw	t5,-24(a4)
80001460:	ffd72623          	sw	t4,-20(a4)
80001464:	ffc72823          	sw	t3,-16(a4)
80001468:	fe672a23          	sw	t1,-12(a4)
8000146c:	ff072c23          	sw	a6,-8(a4)
80001470:	02458593          	addi	a1,a1,36
80001474:	fad7c6e3          	blt	a5,a3,80001420 <memcpy+0x98>
80001478:	f45ff06f          	jal	zero,800013bc <memcpy+0x34>
8000147c:	0005c683          	lbu	a3,0(a1)
80001480:	00170713          	addi	a4,a4,1
80001484:	00377793          	andi	a5,a4,3
80001488:	fed70fa3          	sb	a3,-1(a4)
8000148c:	00158593          	addi	a1,a1,1
80001490:	f0078ee3          	beq	a5,zero,800013ac <memcpy+0x24>
80001494:	0005c683          	lbu	a3,0(a1)
80001498:	00170713          	addi	a4,a4,1
8000149c:	00377793          	andi	a5,a4,3
800014a0:	fed70fa3          	sb	a3,-1(a4)
800014a4:	00158593          	addi	a1,a1,1
800014a8:	fc079ae3          	bne	a5,zero,8000147c <memcpy+0xf4>
800014ac:	f01ff06f          	jal	zero,800013ac <memcpy+0x24>

800014b0 <strcmp>:
strcmp():
800014b0:	00b56733          	or	a4,a0,a1
800014b4:	fff00393          	addi	t2,zero,-1
800014b8:	00377713          	andi	a4,a4,3
800014bc:	10071063          	bne	a4,zero,800015bc <strcmp+0x10c>
800014c0:	7f7f87b7          	lui	a5,0x7f7f8
800014c4:	f7f78793          	addi	a5,a5,-129 # 7f7f7f7f <__stack_size+0x7d7f7f7f>
800014c8:	00052603          	lw	a2,0(a0)
800014cc:	0005a683          	lw	a3,0(a1)
800014d0:	00f672b3          	and	t0,a2,a5
800014d4:	00f66333          	or	t1,a2,a5
800014d8:	00f282b3          	add	t0,t0,a5
800014dc:	0062e2b3          	or	t0,t0,t1
800014e0:	10729263          	bne	t0,t2,800015e4 <strcmp+0x134>
800014e4:	08d61663          	bne	a2,a3,80001570 <strcmp+0xc0>
800014e8:	00452603          	lw	a2,4(a0)
800014ec:	0045a683          	lw	a3,4(a1)
800014f0:	00f672b3          	and	t0,a2,a5
800014f4:	00f66333          	or	t1,a2,a5
800014f8:	00f282b3          	add	t0,t0,a5
800014fc:	0062e2b3          	or	t0,t0,t1
80001500:	0c729e63          	bne	t0,t2,800015dc <strcmp+0x12c>
80001504:	06d61663          	bne	a2,a3,80001570 <strcmp+0xc0>
80001508:	00852603          	lw	a2,8(a0)
8000150c:	0085a683          	lw	a3,8(a1)
80001510:	00f672b3          	and	t0,a2,a5
80001514:	00f66333          	or	t1,a2,a5
80001518:	00f282b3          	add	t0,t0,a5
8000151c:	0062e2b3          	or	t0,t0,t1
80001520:	0c729863          	bne	t0,t2,800015f0 <strcmp+0x140>
80001524:	04d61663          	bne	a2,a3,80001570 <strcmp+0xc0>
80001528:	00c52603          	lw	a2,12(a0)
8000152c:	00c5a683          	lw	a3,12(a1)
80001530:	00f672b3          	and	t0,a2,a5
80001534:	00f66333          	or	t1,a2,a5
80001538:	00f282b3          	add	t0,t0,a5
8000153c:	0062e2b3          	or	t0,t0,t1
80001540:	0c729263          	bne	t0,t2,80001604 <strcmp+0x154>
80001544:	02d61663          	bne	a2,a3,80001570 <strcmp+0xc0>
80001548:	01052603          	lw	a2,16(a0)
8000154c:	0105a683          	lw	a3,16(a1)
80001550:	00f672b3          	and	t0,a2,a5
80001554:	00f66333          	or	t1,a2,a5
80001558:	00f282b3          	add	t0,t0,a5
8000155c:	0062e2b3          	or	t0,t0,t1
80001560:	0a729c63          	bne	t0,t2,80001618 <strcmp+0x168>
80001564:	01450513          	addi	a0,a0,20
80001568:	01458593          	addi	a1,a1,20
8000156c:	f4d60ee3          	beq	a2,a3,800014c8 <strcmp+0x18>
80001570:	01061713          	slli	a4,a2,0x10
80001574:	01069793          	slli	a5,a3,0x10
80001578:	00f71e63          	bne	a4,a5,80001594 <strcmp+0xe4>
8000157c:	01065713          	srli	a4,a2,0x10
80001580:	0106d793          	srli	a5,a3,0x10
80001584:	40f70533          	sub	a0,a4,a5
80001588:	0ff57593          	andi	a1,a0,255
8000158c:	02059063          	bne	a1,zero,800015ac <strcmp+0xfc>
80001590:	00008067          	jalr	zero,0(ra)
80001594:	01075713          	srli	a4,a4,0x10
80001598:	0107d793          	srli	a5,a5,0x10
8000159c:	40f70533          	sub	a0,a4,a5
800015a0:	0ff57593          	andi	a1,a0,255
800015a4:	00059463          	bne	a1,zero,800015ac <strcmp+0xfc>
800015a8:	00008067          	jalr	zero,0(ra)
800015ac:	0ff77713          	andi	a4,a4,255
800015b0:	0ff7f793          	andi	a5,a5,255
800015b4:	40f70533          	sub	a0,a4,a5
800015b8:	00008067          	jalr	zero,0(ra)
800015bc:	00054603          	lbu	a2,0(a0)
800015c0:	0005c683          	lbu	a3,0(a1)
800015c4:	00150513          	addi	a0,a0,1
800015c8:	00158593          	addi	a1,a1,1
800015cc:	00d61463          	bne	a2,a3,800015d4 <strcmp+0x124>
800015d0:	fe0616e3          	bne	a2,zero,800015bc <strcmp+0x10c>
800015d4:	40d60533          	sub	a0,a2,a3
800015d8:	00008067          	jalr	zero,0(ra)
800015dc:	00450513          	addi	a0,a0,4
800015e0:	00458593          	addi	a1,a1,4
800015e4:	fcd61ce3          	bne	a2,a3,800015bc <strcmp+0x10c>
800015e8:	00000513          	addi	a0,zero,0
800015ec:	00008067          	jalr	zero,0(ra)
800015f0:	00850513          	addi	a0,a0,8
800015f4:	00858593          	addi	a1,a1,8
800015f8:	fcd612e3          	bne	a2,a3,800015bc <strcmp+0x10c>
800015fc:	00000513          	addi	a0,zero,0
80001600:	00008067          	jalr	zero,0(ra)
80001604:	00c50513          	addi	a0,a0,12
80001608:	00c58593          	addi	a1,a1,12
8000160c:	fad618e3          	bne	a2,a3,800015bc <strcmp+0x10c>
80001610:	00000513          	addi	a0,zero,0
80001614:	00008067          	jalr	zero,0(ra)
80001618:	01050513          	addi	a0,a0,16
8000161c:	01058593          	addi	a1,a1,16
80001620:	f8d61ee3          	bne	a2,a3,800015bc <strcmp+0x10c>
80001624:	00000513          	addi	a0,zero,0
80001628:	00008067          	jalr	zero,0(ra)

Disassembly of section .rodata.str1.4:

8000162c <.rodata.str1.4>:
8000162c:	4844                	.insn	2, 0x4844
8000162e:	5952                	.insn	2, 0x5952
80001630:	4e4f5453          	.insn	4, 0x4e4f5453
80001634:	2045                	.insn	2, 0x2045
80001636:	5250                	.insn	2, 0x5250
80001638:	4152474f          	.insn	4, 0x4152474f
8000163c:	2c4d                	.insn	2, 0x2c4d
8000163e:	5320                	.insn	2, 0x5320
80001640:	20454d4f          	.insn	4, 0x20454d4f
80001644:	49525453          	.insn	4, 0x49525453
80001648:	474e                	.insn	2, 0x474e
8000164a:	0000                	.insn	2, 0x0000
8000164c:	0000                	.insn	2, 0x0000
8000164e:	0000                	.insn	2, 0x0000
80001650:	6e49                	.insn	2, 0x6e49
80001652:	5f74                	.insn	2, 0x5f74
80001654:	626f6c47          	.insn	4, 0x626f6c47
80001658:	203a                	.insn	2, 0x203a
8000165a:	2020                	.insn	2, 0x2020
8000165c:	2020                	.insn	2, 0x2020
8000165e:	2020                	.insn	2, 0x2020
80001660:	2020                	.insn	2, 0x2020
80001662:	2020                	.insn	2, 0x2020
80001664:	2520                	.insn	2, 0x2520
80001666:	0a64                	.insn	2, 0x0a64
80001668:	0000                	.insn	2, 0x0000
8000166a:	0000                	.insn	2, 0x0000
8000166c:	2020                	.insn	2, 0x2020
8000166e:	2020                	.insn	2, 0x2020
80001670:	2020                	.insn	2, 0x2020
80001672:	2020                	.insn	2, 0x2020
80001674:	756f6873          	.insn	4, 0x756f6873
80001678:	646c                	.insn	2, 0x646c
8000167a:	6220                	.insn	2, 0x6220
8000167c:	3a65                	.insn	2, 0x3a65
8000167e:	2020                	.insn	2, 0x2020
80001680:	2520                	.insn	2, 0x2520
80001682:	0a64                	.insn	2, 0x0a64
80001684:	0000                	.insn	2, 0x0000
80001686:	0000                	.insn	2, 0x0000
80001688:	6f42                	.insn	2, 0x6f42
8000168a:	475f6c6f          	jal	s8,800f82fe <__global_pointer+0xf346e>
8000168e:	6f6c                	.insn	2, 0x6f6c
80001690:	3a62                	.insn	2, 0x3a62
80001692:	2020                	.insn	2, 0x2020
80001694:	2020                	.insn	2, 0x2020
80001696:	2020                	.insn	2, 0x2020
80001698:	2020                	.insn	2, 0x2020
8000169a:	2020                	.insn	2, 0x2020
8000169c:	2520                	.insn	2, 0x2520
8000169e:	0a64                	.insn	2, 0x0a64
800016a0:	0000                	.insn	2, 0x0000
800016a2:	0000                	.insn	2, 0x0000
800016a4:	315f6843          	.insn	4, 0x315f6843
800016a8:	475f 6f6c 3a62      	.insn	6, 0x3a626f6c475f
800016ae:	2020                	.insn	2, 0x2020
800016b0:	2020                	.insn	2, 0x2020
800016b2:	2020                	.insn	2, 0x2020
800016b4:	2020                	.insn	2, 0x2020
800016b6:	2020                	.insn	2, 0x2020
800016b8:	2520                	.insn	2, 0x2520
800016ba:	00000a63          	beq	zero,zero,800016ce <strcmp+0x21e>
800016be:	0000                	.insn	2, 0x0000
800016c0:	2020                	.insn	2, 0x2020
800016c2:	2020                	.insn	2, 0x2020
800016c4:	2020                	.insn	2, 0x2020
800016c6:	2020                	.insn	2, 0x2020
800016c8:	756f6873          	.insn	4, 0x756f6873
800016cc:	646c                	.insn	2, 0x646c
800016ce:	6220                	.insn	2, 0x6220
800016d0:	3a65                	.insn	2, 0x3a65
800016d2:	2020                	.insn	2, 0x2020
800016d4:	2520                	.insn	2, 0x2520
800016d6:	00000a63          	beq	zero,zero,800016ea <strcmp+0x23a>
800016da:	0000                	.insn	2, 0x0000
800016dc:	325f6843          	.insn	4, 0x325f6843
800016e0:	475f 6f6c 3a62      	.insn	6, 0x3a626f6c475f
800016e6:	2020                	.insn	2, 0x2020
800016e8:	2020                	.insn	2, 0x2020
800016ea:	2020                	.insn	2, 0x2020
800016ec:	2020                	.insn	2, 0x2020
800016ee:	2020                	.insn	2, 0x2020
800016f0:	2520                	.insn	2, 0x2520
800016f2:	00000a63          	beq	zero,zero,80001706 <strcmp+0x256>
800016f6:	0000                	.insn	2, 0x0000
800016f8:	7241                	.insn	2, 0x7241
800016fa:	5f72                	.insn	2, 0x5f72
800016fc:	5f31                	.insn	2, 0x5f31
800016fe:	626f6c47          	.insn	4, 0x626f6c47
80001702:	3a5d385b          	.insn	4, 0x3a5d385b
80001706:	2020                	.insn	2, 0x2020
80001708:	2020                	.insn	2, 0x2020
8000170a:	2020                	.insn	2, 0x2020
8000170c:	2520                	.insn	2, 0x2520
8000170e:	0a64                	.insn	2, 0x0a64
80001710:	0000                	.insn	2, 0x0000
80001712:	0000                	.insn	2, 0x0000
80001714:	7241                	.insn	2, 0x7241
80001716:	5f72                	.insn	2, 0x5f72
80001718:	5f32                	.insn	2, 0x5f32
8000171a:	626f6c47          	.insn	4, 0x626f6c47
8000171e:	5b5d385b          	.insn	4, 0x5b5d385b
80001722:	203a5d37          	lui	s10,0x203a5
80001726:	2020                	.insn	2, 0x2020
80001728:	2520                	.insn	2, 0x2520
8000172a:	0a64                	.insn	2, 0x0a64
8000172c:	0000                	.insn	2, 0x0000
8000172e:	0000                	.insn	2, 0x0000
80001730:	2020                	.insn	2, 0x2020
80001732:	2020                	.insn	2, 0x2020
80001734:	2020                	.insn	2, 0x2020
80001736:	2020                	.insn	2, 0x2020
80001738:	756f6873          	.insn	4, 0x756f6873
8000173c:	646c                	.insn	2, 0x646c
8000173e:	6220                	.insn	2, 0x6220
80001740:	3a65                	.insn	2, 0x3a65
80001742:	2020                	.insn	2, 0x2020
80001744:	4e20                	.insn	2, 0x4e20
80001746:	6d75                	.insn	2, 0x6d75
80001748:	6562                	.insn	2, 0x6562
8000174a:	5f72                	.insn	2, 0x5f72
8000174c:	525f664f          	.insn	4, 0x525f664f
80001750:	6e75                	.insn	2, 0x6e75
80001752:	202b2073          	.insn	4, 0x202b2073
80001756:	3031                	.insn	2, 0x3031
80001758:	000a                	.insn	2, 0x000a
8000175a:	0000                	.insn	2, 0x0000
8000175c:	7450                	.insn	2, 0x7450
8000175e:	5f72                	.insn	2, 0x5f72
80001760:	626f6c47          	.insn	4, 0x626f6c47
80001764:	3e2d                	.insn	2, 0x3e2d
80001766:	6944                	.insn	2, 0x6944
80001768:	3a726373          	.insn	4, 0x3a726373
8000176c:	2020                	.insn	2, 0x2020
8000176e:	2020                	.insn	2, 0x2020
80001770:	2020                	.insn	2, 0x2020
80001772:	2020                	.insn	2, 0x2020
80001774:	2020                	.insn	2, 0x2020
80001776:	2020                	.insn	2, 0x2020
80001778:	2520                	.insn	2, 0x2520
8000177a:	0a64                	.insn	2, 0x0a64
8000177c:	0000                	.insn	2, 0x0000
8000177e:	0000                	.insn	2, 0x0000
80001780:	7450                	.insn	2, 0x7450
80001782:	5f72                	.insn	2, 0x5f72
80001784:	626f6c47          	.insn	4, 0x626f6c47
80001788:	3e2d                	.insn	2, 0x3e2d
8000178a:	6e45                	.insn	2, 0x6e45
8000178c:	6d75                	.insn	2, 0x6d75
8000178e:	435f 6d6f 3a70      	.insn	6, 0x3a706d6f435f
80001794:	2020                	.insn	2, 0x2020
80001796:	2020                	.insn	2, 0x2020
80001798:	2020                	.insn	2, 0x2020
8000179a:	2020                	.insn	2, 0x2020
8000179c:	2520                	.insn	2, 0x2520
8000179e:	0a64                	.insn	2, 0x0a64
800017a0:	0000                	.insn	2, 0x0000
800017a2:	0000                	.insn	2, 0x0000
800017a4:	7450                	.insn	2, 0x7450
800017a6:	5f72                	.insn	2, 0x5f72
800017a8:	626f6c47          	.insn	4, 0x626f6c47
800017ac:	3e2d                	.insn	2, 0x3e2d
800017ae:	6e49                	.insn	2, 0x6e49
800017b0:	5f74                	.insn	2, 0x5f74
800017b2:	706d6f43          	.insn	4, 0x706d6f43
800017b6:	203a                	.insn	2, 0x203a
800017b8:	2020                	.insn	2, 0x2020
800017ba:	2020                	.insn	2, 0x2020
800017bc:	2020                	.insn	2, 0x2020
800017be:	2020                	.insn	2, 0x2020
800017c0:	2520                	.insn	2, 0x2520
800017c2:	0a64                	.insn	2, 0x0a64
800017c4:	0000                	.insn	2, 0x0000
800017c6:	0000                	.insn	2, 0x0000
800017c8:	7450                	.insn	2, 0x7450
800017ca:	5f72                	.insn	2, 0x5f72
800017cc:	626f6c47          	.insn	4, 0x626f6c47
800017d0:	3e2d                	.insn	2, 0x3e2d
800017d2:	5f727453          	.insn	4, 0x5f727453
800017d6:	706d6f43          	.insn	4, 0x706d6f43
800017da:	203a                	.insn	2, 0x203a
800017dc:	2020                	.insn	2, 0x2020
800017de:	2020                	.insn	2, 0x2020
800017e0:	2020                	.insn	2, 0x2020
800017e2:	2020                	.insn	2, 0x2020
800017e4:	2520                	.insn	2, 0x2520
800017e6:	00000a73          	.insn	4, 0x0a73
800017ea:	0000                	.insn	2, 0x0000
800017ec:	2020                	.insn	2, 0x2020
800017ee:	2020                	.insn	2, 0x2020
800017f0:	2020                	.insn	2, 0x2020
800017f2:	2020                	.insn	2, 0x2020
800017f4:	756f6873          	.insn	4, 0x756f6873
800017f8:	646c                	.insn	2, 0x646c
800017fa:	6220                	.insn	2, 0x6220
800017fc:	3a65                	.insn	2, 0x3a65
800017fe:	2020                	.insn	2, 0x2020
80001800:	4420                	.insn	2, 0x4420
80001802:	5248                	.insn	2, 0x5248
80001804:	5359                	.insn	2, 0x5359
80001806:	4f54                	.insn	2, 0x4f54
80001808:	454e                	.insn	2, 0x454e
8000180a:	5020                	.insn	2, 0x5020
8000180c:	4f52                	.insn	2, 0x4f52
8000180e:	4d415247          	.insn	4, 0x4d415247
80001812:	202c                	.insn	2, 0x202c
80001814:	454d4f53          	.insn	4, 0x454d4f53
80001818:	5320                	.insn	2, 0x5320
8000181a:	5254                	.insn	2, 0x5254
8000181c:	4e49                	.insn	2, 0x4e49
8000181e:	00000a47          	.insn	4, 0x0a47
80001822:	0000                	.insn	2, 0x0000
80001824:	654e                	.insn	2, 0x654e
80001826:	7478                	.insn	2, 0x7478
80001828:	505f 7274 475f      	.insn	6, 0x475f7274505f
8000182e:	6f6c                	.insn	2, 0x6f6c
80001830:	2d62                	.insn	2, 0x2d62
80001832:	443e                	.insn	2, 0x443e
80001834:	7369                	.insn	2, 0x7369
80001836:	203a7263          	bgeu	s4,gp,80001a3a <strcmp+0x58a>
8000183a:	2020                	.insn	2, 0x2020
8000183c:	2020                	.insn	2, 0x2020
8000183e:	2020                	.insn	2, 0x2020
80001840:	2020                	.insn	2, 0x2020
80001842:	2020                	.insn	2, 0x2020
80001844:	2020                	.insn	2, 0x2020
80001846:	6425                	.insn	2, 0x6425
80001848:	000a                	.insn	2, 0x000a
8000184a:	0000                	.insn	2, 0x0000
8000184c:	654e                	.insn	2, 0x654e
8000184e:	7478                	.insn	2, 0x7478
80001850:	505f 7274 475f      	.insn	6, 0x475f7274505f
80001856:	6f6c                	.insn	2, 0x6f6c
80001858:	2d62                	.insn	2, 0x2d62
8000185a:	453e                	.insn	2, 0x453e
8000185c:	756e                	.insn	2, 0x756e
8000185e:	5f6d                	.insn	2, 0x5f6d
80001860:	706d6f43          	.insn	4, 0x706d6f43
80001864:	203a                	.insn	2, 0x203a
80001866:	2020                	.insn	2, 0x2020
80001868:	2020                	.insn	2, 0x2020
8000186a:	2020                	.insn	2, 0x2020
8000186c:	2020                	.insn	2, 0x2020
8000186e:	6425                	.insn	2, 0x6425
80001870:	000a                	.insn	2, 0x000a
80001872:	0000                	.insn	2, 0x0000
80001874:	654e                	.insn	2, 0x654e
80001876:	7478                	.insn	2, 0x7478
80001878:	505f 7274 475f      	.insn	6, 0x475f7274505f
8000187e:	6f6c                	.insn	2, 0x6f6c
80001880:	2d62                	.insn	2, 0x2d62
80001882:	493e                	.insn	2, 0x493e
80001884:	746e                	.insn	2, 0x746e
80001886:	435f 6d6f 3a70      	.insn	6, 0x3a706d6f435f
8000188c:	2020                	.insn	2, 0x2020
8000188e:	2020                	.insn	2, 0x2020
80001890:	2020                	.insn	2, 0x2020
80001892:	2020                	.insn	2, 0x2020
80001894:	2020                	.insn	2, 0x2020
80001896:	6425                	.insn	2, 0x6425
80001898:	000a                	.insn	2, 0x000a
8000189a:	0000                	.insn	2, 0x0000
8000189c:	654e                	.insn	2, 0x654e
8000189e:	7478                	.insn	2, 0x7478
800018a0:	505f 7274 475f      	.insn	6, 0x475f7274505f
800018a6:	6f6c                	.insn	2, 0x6f6c
800018a8:	2d62                	.insn	2, 0x2d62
800018aa:	533e                	.insn	2, 0x533e
800018ac:	7274                	.insn	2, 0x7274
800018ae:	435f 6d6f 3a70      	.insn	6, 0x3a706d6f435f
800018b4:	2020                	.insn	2, 0x2020
800018b6:	2020                	.insn	2, 0x2020
800018b8:	2020                	.insn	2, 0x2020
800018ba:	2020                	.insn	2, 0x2020
800018bc:	2020                	.insn	2, 0x2020
800018be:	7325                	.insn	2, 0x7325
800018c0:	000a                	.insn	2, 0x000a
800018c2:	0000                	.insn	2, 0x0000
800018c4:	6e49                	.insn	2, 0x6e49
800018c6:	5f74                	.insn	2, 0x5f74
800018c8:	5f31                	.insn	2, 0x5f31
800018ca:	6f4c                	.insn	2, 0x6f4c
800018cc:	20203a63          	.insn	4, 0x20203a63
800018d0:	2020                	.insn	2, 0x2020
800018d2:	2020                	.insn	2, 0x2020
800018d4:	2020                	.insn	2, 0x2020
800018d6:	2020                	.insn	2, 0x2020
800018d8:	2520                	.insn	2, 0x2520
800018da:	0a64                	.insn	2, 0x0a64
800018dc:	0000                	.insn	2, 0x0000
800018de:	0000                	.insn	2, 0x0000
800018e0:	6e49                	.insn	2, 0x6e49
800018e2:	5f74                	.insn	2, 0x5f74
800018e4:	5f32                	.insn	2, 0x5f32
800018e6:	6f4c                	.insn	2, 0x6f4c
800018e8:	20203a63          	.insn	4, 0x20203a63
800018ec:	2020                	.insn	2, 0x2020
800018ee:	2020                	.insn	2, 0x2020
800018f0:	2020                	.insn	2, 0x2020
800018f2:	2020                	.insn	2, 0x2020
800018f4:	2520                	.insn	2, 0x2520
800018f6:	0a64                	.insn	2, 0x0a64
800018f8:	0000                	.insn	2, 0x0000
800018fa:	0000                	.insn	2, 0x0000
800018fc:	6e45                	.insn	2, 0x6e45
800018fe:	6d75                	.insn	2, 0x6d75
80001900:	4c5f 636f 203a      	.insn	6, 0x203a636f4c5f
80001906:	2020                	.insn	2, 0x2020
80001908:	2020                	.insn	2, 0x2020
8000190a:	2020                	.insn	2, 0x2020
8000190c:	2020                	.insn	2, 0x2020
8000190e:	2020                	.insn	2, 0x2020
80001910:	2520                	.insn	2, 0x2520
80001912:	0a64                	.insn	2, 0x0a64
80001914:	0000                	.insn	2, 0x0000
80001916:	0000                	.insn	2, 0x0000
80001918:	4844                	.insn	2, 0x4844
8000191a:	5952                	.insn	2, 0x5952
8000191c:	4e4f5453          	.insn	4, 0x4e4f5453
80001920:	2045                	.insn	2, 0x2045
80001922:	5250                	.insn	2, 0x5250
80001924:	4152474f          	.insn	4, 0x4152474f
80001928:	2c4d                	.insn	2, 0x2c4d
8000192a:	3120                	.insn	2, 0x3120
8000192c:	20545327          	.insn	4, 0x20545327
80001930:	49525453          	.insn	4, 0x49525453
80001934:	474e                	.insn	2, 0x474e
80001936:	0000                	.insn	2, 0x0000
80001938:	5f727453          	.insn	4, 0x5f727453
8000193c:	5f31                	.insn	2, 0x5f31
8000193e:	6f4c                	.insn	2, 0x6f4c
80001940:	20203a63          	.insn	4, 0x20203a63
80001944:	2020                	.insn	2, 0x2020
80001946:	2020                	.insn	2, 0x2020
80001948:	2020                	.insn	2, 0x2020
8000194a:	2020                	.insn	2, 0x2020
8000194c:	2520                	.insn	2, 0x2520
8000194e:	00000a73          	.insn	4, 0x0a73
80001952:	0000                	.insn	2, 0x0000
80001954:	2020                	.insn	2, 0x2020
80001956:	2020                	.insn	2, 0x2020
80001958:	2020                	.insn	2, 0x2020
8000195a:	2020                	.insn	2, 0x2020
8000195c:	756f6873          	.insn	4, 0x756f6873
80001960:	646c                	.insn	2, 0x646c
80001962:	6220                	.insn	2, 0x6220
80001964:	3a65                	.insn	2, 0x3a65
80001966:	2020                	.insn	2, 0x2020
80001968:	4420                	.insn	2, 0x4420
8000196a:	5248                	.insn	2, 0x5248
8000196c:	5359                	.insn	2, 0x5359
8000196e:	4f54                	.insn	2, 0x4f54
80001970:	454e                	.insn	2, 0x454e
80001972:	5020                	.insn	2, 0x5020
80001974:	4f52                	.insn	2, 0x4f52
80001976:	4d415247          	.insn	4, 0x4d415247
8000197a:	202c                	.insn	2, 0x202c
8000197c:	2731                	.insn	2, 0x2731
8000197e:	53205453          	.insn	4, 0x53205453
80001982:	5254                	.insn	2, 0x5254
80001984:	4e49                	.insn	2, 0x4e49
80001986:	00000a47          	.insn	4, 0x0a47
8000198a:	0000                	.insn	2, 0x0000
8000198c:	4844                	.insn	2, 0x4844
8000198e:	5952                	.insn	2, 0x5952
80001990:	4e4f5453          	.insn	4, 0x4e4f5453
80001994:	2045                	.insn	2, 0x2045
80001996:	5250                	.insn	2, 0x5250
80001998:	4152474f          	.insn	4, 0x4152474f
8000199c:	2c4d                	.insn	2, 0x2c4d
8000199e:	3220                	.insn	2, 0x3220
800019a0:	20444e27          	.insn	4, 0x20444e27
800019a4:	49525453          	.insn	4, 0x49525453
800019a8:	474e                	.insn	2, 0x474e
800019aa:	0000                	.insn	2, 0x0000
800019ac:	5f727453          	.insn	4, 0x5f727453
800019b0:	5f32                	.insn	2, 0x5f32
800019b2:	6f4c                	.insn	2, 0x6f4c
800019b4:	20203a63          	.insn	4, 0x20203a63
800019b8:	2020                	.insn	2, 0x2020
800019ba:	2020                	.insn	2, 0x2020
800019bc:	2020                	.insn	2, 0x2020
800019be:	2020                	.insn	2, 0x2020
800019c0:	2520                	.insn	2, 0x2520
800019c2:	00000a73          	.insn	4, 0x0a73
800019c6:	0000                	.insn	2, 0x0000
800019c8:	2020                	.insn	2, 0x2020
800019ca:	2020                	.insn	2, 0x2020
800019cc:	2020                	.insn	2, 0x2020
800019ce:	2020                	.insn	2, 0x2020
800019d0:	756f6873          	.insn	4, 0x756f6873
800019d4:	646c                	.insn	2, 0x646c
800019d6:	6220                	.insn	2, 0x6220
800019d8:	3a65                	.insn	2, 0x3a65
800019da:	2020                	.insn	2, 0x2020
800019dc:	4420                	.insn	2, 0x4420
800019de:	5248                	.insn	2, 0x5248
800019e0:	5359                	.insn	2, 0x5359
800019e2:	4f54                	.insn	2, 0x4f54
800019e4:	454e                	.insn	2, 0x454e
800019e6:	5020                	.insn	2, 0x5020
800019e8:	4f52                	.insn	2, 0x4f52
800019ea:	4d415247          	.insn	4, 0x4d415247
800019ee:	202c                	.insn	2, 0x202c
800019f0:	2732                	.insn	2, 0x2732
800019f2:	444e                	.insn	2, 0x444e
800019f4:	5320                	.insn	2, 0x5320
800019f6:	5254                	.insn	2, 0x5254
800019f8:	4e49                	.insn	2, 0x4e49
800019fa:	00000a47          	.insn	4, 0x0a47
800019fe:	0000                	.insn	2, 0x0000
80001a00:	4844                	.insn	2, 0x4844
80001a02:	5952                	.insn	2, 0x5952
80001a04:	4e4f5453          	.insn	4, 0x4e4f5453
80001a08:	2045                	.insn	2, 0x2045
80001a0a:	5250                	.insn	2, 0x5250
80001a0c:	4152474f          	.insn	4, 0x4152474f
80001a10:	2c4d                	.insn	2, 0x2c4d
80001a12:	3320                	.insn	2, 0x3320
80001a14:	20445227          	.insn	4, 0x20445227
80001a18:	49525453          	.insn	4, 0x49525453
80001a1c:	474e                	.insn	2, 0x474e
	...

Disassembly of section .rodata:

80001a20 <.rodata>:
80001a20:	1064                	.insn	2, 0x1064
80001a22:	8000                	.insn	2, 0x8000
80001a24:	103c                	.insn	2, 0x103c
80001a26:	8000                	.insn	2, 0x8000
80001a28:	0e90                	.insn	2, 0x0e90
80001a2a:	8000                	.insn	2, 0x8000
80001a2c:	0e74                	.insn	2, 0x0e74
80001a2e:	8000                	.insn	2, 0x8000
80001a30:	0e74                	.insn	2, 0x0e74
80001a32:	8000                	.insn	2, 0x8000
80001a34:	0e74                	.insn	2, 0x0e74
80001a36:	8000                	.insn	2, 0x8000
80001a38:	0e74                	.insn	2, 0x0e74
80001a3a:	8000                	.insn	2, 0x8000
80001a3c:	0e74                	.insn	2, 0x0e74
80001a3e:	8000                	.insn	2, 0x8000
80001a40:	0e74                	.insn	2, 0x0e74
80001a42:	8000                	.insn	2, 0x8000
80001a44:	0e74                	.insn	2, 0x0e74
80001a46:	8000                	.insn	2, 0x8000
80001a48:	0e74                	.insn	2, 0x0e74
80001a4a:	8000                	.insn	2, 0x8000
80001a4c:	0e74                	.insn	2, 0x0e74
80001a4e:	8000                	.insn	2, 0x8000
80001a50:	0e74                	.insn	2, 0x0e74
80001a52:	8000                	.insn	2, 0x8000
80001a54:	101c                	.insn	2, 0x101c
80001a56:	8000                	.insn	2, 0x8000
80001a58:	0e74                	.insn	2, 0x0e74
80001a5a:	8000                	.insn	2, 0x8000
80001a5c:	0e74                	.insn	2, 0x0e74
80001a5e:	8000                	.insn	2, 0x8000
80001a60:	0e74                	.insn	2, 0x0e74
80001a62:	8000                	.insn	2, 0x8000
80001a64:	109c                	.insn	2, 0x109c
80001a66:	8000                	.insn	2, 0x8000
80001a68:	0e74                	.insn	2, 0x0e74
80001a6a:	8000                	.insn	2, 0x8000
80001a6c:	0e90                	.insn	2, 0x0e90
80001a6e:	8000                	.insn	2, 0x8000
80001a70:	0e74                	.insn	2, 0x0e74
80001a72:	8000                	.insn	2, 0x8000
80001a74:	0e74                	.insn	2, 0x0e74
80001a76:	8000                	.insn	2, 0x8000
80001a78:	1080                	.insn	2, 0x1080
80001a7a:	8000                	.insn	2, 0x8000

Disassembly of section .sdata:

80004690 <pass>:
/home/tututu/qimeng/simulator/baremetal/benchmarks/dhrystone/dry.c:716
Boolean pass = true;
80004690:	0001                	.insn	2, 0x0001
	...

80004694 <free_mem>:
/home/tututu/qimeng/simulator/baremetal/benchmarks/dhrystone/dry.c:445
static char *free_mem = &memory[0];
80004694:	1b44                	.insn	2, 0x1b44
80004696:	8000                	.insn	2, 0x8000

Disassembly of section .riscv.attributes:

00000000 <.riscv.attributes>:
   0:	4a41                	.insn	2, 0x4a41
   2:	0000                	.insn	2, 0x0000
   4:	7200                	.insn	2, 0x7200
   6:	7369                	.insn	2, 0x7369
   8:	01007663          	bgeu	zero,a6,14 <__stack_size-0x1ffffec>
   c:	0040                	.insn	2, 0x0040
   e:	0000                	.insn	2, 0x0000
  10:	1004                	.insn	2, 0x1004
  12:	7205                	.insn	2, 0x7205
  14:	3376                	.insn	2, 0x3376
  16:	6932                	.insn	2, 0x6932
  18:	7032                	.insn	2, 0x7032
  1a:	5f31                	.insn	2, 0x5f31
  1c:	326d                	.insn	2, 0x326d
  1e:	3070                	.insn	2, 0x3070
  20:	615f 7032 5f31      	.insn	6, 0x5f317032615f
  26:	697a                	.insn	2, 0x697a
  28:	32727363          	bgeu	tp,t2,34e <__stack_size-0x1fffcb2>
  2c:	3070                	.insn	2, 0x3070
  2e:	7a5f 6d6d 6c75      	.insn	6, 0x6c756d6d7a5f
  34:	7031                	.insn	2, 0x7031
  36:	5f30                	.insn	2, 0x5f30
  38:	617a                	.insn	2, 0x617a
  3a:	6d61                	.insn	2, 0x6d61
  3c:	3070316f          	jal	sp,3b42 <__stack_size-0x1ffc4be>
  40:	7a5f 6c61 7372      	.insn	6, 0x73726c617a5f
  46:	30703163          	.insn	4, 0x30703163
	...

Disassembly of section .comment:

00000000 <.comment>:
   0:	3a434347          	.insn	4, 0x3a434347
   4:	2820                	.insn	2, 0x2820
   6:	33623167          	.insn	4, 0x33623167
   a:	3630                	.insn	2, 0x3630
   c:	3330                	.insn	2, 0x3330
   e:	6139                	.insn	2, 0x6139
  10:	2029                	.insn	2, 0x2029
  12:	3531                	.insn	2, 0x3531
  14:	312e                	.insn	2, 0x312e
  16:	302e                	.insn	2, 0x302e
  18:	4700                	.insn	2, 0x4700
  1a:	203a4343          	.insn	4, 0x203a4343
  1e:	4728                	.insn	2, 0x4728
  20:	554e                	.insn	2, 0x554e
  22:	2029                	.insn	2, 0x2029
  24:	3531                	.insn	2, 0x3531
  26:	312e                	.insn	2, 0x312e
  28:	302e                	.insn	2, 0x302e
	...

Disassembly of section .debug_line:

00000000 <.debug_line>:
       0:	005c                	.insn	2, 0x005c
       2:	0000                	.insn	2, 0x0000
       4:	0005                	.insn	2, 0x0005
       6:	0004                	.insn	2, 0x0004
       8:	002e                	.insn	2, 0x002e
       a:	0000                	.insn	2, 0x0000
       c:	0101                	.insn	2, 0x0101
       e:	fb01                	.insn	2, 0xfb01
      10:	0d0e                	.insn	2, 0x0d0e
      12:	0100                	.insn	2, 0x0100
      14:	0101                	.insn	2, 0x0101
      16:	0001                	.insn	2, 0x0001
      18:	0000                	.insn	2, 0x0000
      1a:	0001                	.insn	2, 0x0001
      1c:	0100                	.insn	2, 0x0100
      1e:	0101                	.insn	2, 0x0101
      20:	021f 0000 0000      	.insn	6, 0x021f
      26:	003c                	.insn	2, 0x003c
      28:	0000                	.insn	2, 0x0000
      2a:	0102                	.insn	2, 0x0102
      2c:	021f 020f 0042      	.insn	6, 0x0042020f021f
      32:	0000                	.insn	2, 0x0000
      34:	4201                	.insn	2, 0x4201
      36:	0000                	.insn	2, 0x0000
      38:	0100                	.insn	2, 0x0100
      3a:	0500                	.insn	2, 0x0500
      3c:	0002                	.insn	2, 0x0002
      3e:	0000                	.insn	2, 0x0000
      40:	1a80                	.insn	2, 0x1a80
      42:	08090103          	lb	sp,128(s2)
      46:	0100                	.insn	2, 0x0100
      48:	08090203          	lb	tp,128(s2)
      4c:	0100                	.insn	2, 0x0100
      4e:	04090103          	lb	sp,64(s2)
      52:	0100                	.insn	2, 0x0100
      54:	04090303          	lb	t1,64(s2)
      58:	0100                	.insn	2, 0x0100
      5a:	0409                	.insn	2, 0x0409
      5c:	0000                	.insn	2, 0x0000
      5e:	0101                	.insn	2, 0x0101
      60:	17ee                	.insn	2, 0x17ee
      62:	0000                	.insn	2, 0x0000
      64:	0005                	.insn	2, 0x0005
      66:	0004                	.insn	2, 0x0004
      68:	004a                	.insn	2, 0x004a
      6a:	0000                	.insn	2, 0x0000
      6c:	0101                	.insn	2, 0x0101
      6e:	f601                	.insn	2, 0xf601
      70:	0df2                	.insn	2, 0x0df2
      72:	0100                	.insn	2, 0x0100
      74:	0101                	.insn	2, 0x0101
      76:	0001                	.insn	2, 0x0001
      78:	0000                	.insn	2, 0x0000
      7a:	0001                	.insn	2, 0x0001
      7c:	0100                	.insn	2, 0x0100
      7e:	0101                	.insn	2, 0x0101
      80:	041f 00d8 0000      	.insn	6, 0x00d8041f
      86:	0115                	.insn	2, 0x0115
      88:	0000                	.insn	2, 0x0000
      8a:	00a0                	.insn	2, 0x00a0
      8c:	0000                	.insn	2, 0x0000
      8e:	004a                	.insn	2, 0x004a
      90:	0000                	.insn	2, 0x0000
      92:	0102                	.insn	2, 0x0102
      94:	021f 060b 0091      	.insn	6, 0x0091060b021f
      9a:	0000                	.insn	2, 0x0000
      9c:	9100                	.insn	2, 0x9100
      9e:	0000                	.insn	2, 0x0000
      a0:	0000                	.insn	2, 0x0000
      a2:	00000073          	ecall
      a6:	9702                	.insn	2, 0x9702
      a8:	0000                	.insn	2, 0x0000
      aa:	0300                	.insn	2, 0x0300
      ac:	00000087          	.insn	4, 0x0087
      b0:	7c01                	.insn	2, 0x7c01
      b2:	0000                	.insn	2, 0x0000
      b4:	0000                	.insn	2, 0x0000
      b6:	0500                	.insn	2, 0x0500
      b8:	1c02                	.insn	2, 0x1c02
      ba:	0000                	.insn	2, 0x0000
      bc:	0380                	.insn	2, 0x0380
      be:	05d6                	.insn	2, 0x05d6
      c0:	0501                	.insn	2, 0x0501
      c2:	0901                	.insn	2, 0x0901
      c4:	0000                	.insn	2, 0x0000
      c6:	051a                	.insn	2, 0x051a
      c8:	00000903          	lb	s2,0(zero) # 0 <__stack_size-0x2000000>
      cc:	0518                	.insn	2, 0x0518
      ce:	00000903          	lb	s2,0(zero) # 0 <__stack_size-0x2000000>
      d2:	0518                	.insn	2, 0x0518
      d4:	00000903          	lb	s2,0(zero) # 0 <__stack_size-0x2000000>
      d8:	0518                	.insn	2, 0x0518
      da:	00000903          	lb	s2,0(zero) # 0 <__stack_size-0x2000000>
      de:	0518                	.insn	2, 0x0518
      e0:	00000903          	lb	s2,0(zero) # 0 <__stack_size-0x2000000>
      e4:	0518                	.insn	2, 0x0518
      e6:	00000903          	lb	s2,0(zero) # 0 <__stack_size-0x2000000>
      ea:	0518                	.insn	2, 0x0518
      ec:	00000903          	lb	s2,0(zero) # 0 <__stack_size-0x2000000>
      f0:	0518                	.insn	2, 0x0518
      f2:	00000903          	lb	s2,0(zero) # 0 <__stack_size-0x2000000>
      f6:	0518                	.insn	2, 0x0518
      f8:	00000903          	lb	s2,0(zero) # 0 <__stack_size-0x2000000>
      fc:	0519                	.insn	2, 0x0519
      fe:	00000903          	lb	s2,0(zero) # 0 <__stack_size-0x2000000>
     102:	0903051b          	.insn	4, 0x0903051b
     106:	0000                	.insn	2, 0x0000
     108:	017dd703          	lhu	a4,23(s11)
     10c:	0e05                	.insn	2, 0x0e05
     10e:	0009                	.insn	2, 0x0009
     110:	1800                	.insn	2, 0x1800
     112:	0305                	.insn	2, 0x0305
     114:	0009                	.insn	2, 0x0009
     116:	0100                	.insn	2, 0x0100
     118:	2605                	.insn	2, 0x2605
     11a:	0009                	.insn	2, 0x0009
     11c:	0600                	.insn	2, 0x0600
     11e:	0501                	.insn	2, 0x0501
     120:	090a                	.insn	2, 0x090a
     122:	0008                	.insn	2, 0x0008
     124:	01029703          	lh	a4,16(t0)
     128:	0105                	.insn	2, 0x0105
     12a:	3809                	.insn	2, 0x3809
     12c:	0300                	.insn	2, 0x0300
     12e:	7de9                	.insn	2, 0x7de9
     130:	0501                	.insn	2, 0x0501
     132:	0922                	.insn	2, 0x0922
     134:	0004                	.insn	2, 0x0004
     136:	0501                	.insn	2, 0x0501
     138:	0926                	.insn	2, 0x0926
     13a:	0004                	.insn	2, 0x0004
     13c:	1806                	.insn	2, 0x1806
     13e:	0505                	.insn	2, 0x0505
     140:	0009                	.insn	2, 0x0009
     142:	0600                	.insn	2, 0x0600
     144:	0501                	.insn	2, 0x0501
     146:	090d                	.insn	2, 0x090d
     148:	0004                	.insn	2, 0x0004
     14a:	1606                	.insn	2, 0x1606
     14c:	2605                	.insn	2, 0x2605
     14e:	0009                	.insn	2, 0x0009
     150:	0600                	.insn	2, 0x0600
     152:	0501                	.insn	2, 0x0501
     154:	0922                	.insn	2, 0x0922
     156:	0004                	.insn	2, 0x0004
     158:	0501                	.insn	2, 0x0501
     15a:	0926                	.insn	2, 0x0926
     15c:	0004                	.insn	2, 0x0004
     15e:	1906                	.insn	2, 0x1906
     160:	0305                	.insn	2, 0x0305
     162:	0009                	.insn	2, 0x0009
     164:	1800                	.insn	2, 0x1800
     166:	0305                	.insn	2, 0x0305
     168:	0009                	.insn	2, 0x0009
     16a:	0000                	.insn	2, 0x0000
     16c:	0402                	.insn	2, 0x0402
     16e:	0601                	.insn	2, 0x0601
     170:	0102a503          	lw	a0,16(t0)
     174:	1105                	.insn	2, 0x1105
     176:	0809                	.insn	2, 0x0809
     178:	0000                	.insn	2, 0x0000
     17a:	0402                	.insn	2, 0x0402
     17c:	0300                	.insn	2, 0x0300
     17e:	7dd8                	.insn	2, 0x7dd8
     180:	0501                	.insn	2, 0x0501
     182:	0922                	.insn	2, 0x0922
     184:	0004                	.insn	2, 0x0004
     186:	051a                	.insn	2, 0x051a
     188:	090c                	.insn	2, 0x090c
     18a:	0004                	.insn	2, 0x0004
     18c:	1806                	.insn	2, 0x1806
     18e:	0305                	.insn	2, 0x0305
     190:	0009                	.insn	2, 0x0009
     192:	0600                	.insn	2, 0x0600
     194:	0501                	.insn	2, 0x0501
     196:	00000903          	lb	s2,0(zero) # 0 <__stack_size-0x2000000>
     19a:	0306                	.insn	2, 0x0306
     19c:	02a5                	.insn	2, 0x02a5
     19e:	0501                	.insn	2, 0x0501
     1a0:	00000903          	lb	s2,0(zero) # 0 <__stack_size-0x2000000>
     1a4:	017dd603          	lhu	a2,23(s11)
     1a8:	0e05                	.insn	2, 0x0e05
     1aa:	0009                	.insn	2, 0x0009
     1ac:	1800                	.insn	2, 0x1800
     1ae:	0305                	.insn	2, 0x0305
     1b0:	0009                	.insn	2, 0x0009
     1b2:	0100                	.insn	2, 0x0100
     1b4:	2605                	.insn	2, 0x2605
     1b6:	0809                	.insn	2, 0x0809
     1b8:	1800                	.insn	2, 0x1800
     1ba:	0505                	.insn	2, 0x0505
     1bc:	0009                	.insn	2, 0x0009
     1be:	1600                	.insn	2, 0x1600
     1c0:	2605                	.insn	2, 0x2605
     1c2:	0009                	.insn	2, 0x0009
     1c4:	0600                	.insn	2, 0x0600
     1c6:	0501                	.insn	2, 0x0501
     1c8:	0922                	.insn	2, 0x0922
     1ca:	0008                	.insn	2, 0x0008
     1cc:	0501                	.insn	2, 0x0501
     1ce:	0926                	.insn	2, 0x0926
     1d0:	0008                	.insn	2, 0x0008
     1d2:	1906                	.insn	2, 0x1906
     1d4:	0305                	.insn	2, 0x0305
     1d6:	0009                	.insn	2, 0x0009
     1d8:	1800                	.insn	2, 0x1800
     1da:	0305                	.insn	2, 0x0305
     1dc:	0009                	.insn	2, 0x0009
     1de:	0000                	.insn	2, 0x0000
     1e0:	0402                	.insn	2, 0x0402
     1e2:	0601                	.insn	2, 0x0601
     1e4:	0102a603          	lw	a2,16(t0)
     1e8:	0c05                	.insn	2, 0x0c05
     1ea:	0809                	.insn	2, 0x0809
     1ec:	0000                	.insn	2, 0x0000
     1ee:	0402                	.insn	2, 0x0402
     1f0:	1900                	.insn	2, 0x1900
     1f2:	1605                	.insn	2, 0x1605
     1f4:	0409                	.insn	2, 0x0409
     1f6:	1800                	.insn	2, 0x1800
     1f8:	0b05                	.insn	2, 0x0b05
     1fa:	0409                	.insn	2, 0x0409
     1fc:	1900                	.insn	2, 0x1900
     1fe:	2405                	.insn	2, 0x2405
     200:	0409                	.insn	2, 0x0409
     202:	1600                	.insn	2, 0x1600
     204:	2505                	.insn	2, 0x2505
     206:	0409                	.insn	2, 0x0409
     208:	1800                	.insn	2, 0x1800
     20a:	2405                	.insn	2, 0x2405
     20c:	0409                	.insn	2, 0x0409
     20e:	0300                	.insn	2, 0x0300
     210:	7dd5                	.insn	2, 0x7dd5
     212:	0501                	.insn	2, 0x0501
     214:	090c                	.insn	2, 0x090c
     216:	0004                	.insn	2, 0x0004
     218:	0501                	.insn	2, 0x0501
     21a:	090c                	.insn	2, 0x090c
     21c:	0000                	.insn	2, 0x0000
     21e:	0102ac03          	lw	s8,16(t0)
     222:	0305                	.insn	2, 0x0305
     224:	0409                	.insn	2, 0x0409
     226:	1500                	.insn	2, 0x1500
     228:	2505                	.insn	2, 0x2505
     22a:	0409                	.insn	2, 0x0409
     22c:	0300                	.insn	2, 0x0300
     22e:	7dd6                	.insn	2, 0x7dd6
     230:	0501                	.insn	2, 0x0501
     232:	090c                	.insn	2, 0x090c
     234:	0004                	.insn	2, 0x0004
     236:	1806                	.insn	2, 0x1806
     238:	0305                	.insn	2, 0x0305
     23a:	0009                	.insn	2, 0x0009
     23c:	0600                	.insn	2, 0x0600
     23e:	0501                	.insn	2, 0x0501
     240:	00000903          	lb	s2,0(zero) # 0 <__stack_size-0x2000000>
     244:	0306                	.insn	2, 0x0306
     246:	050102a7          	.insn	4, 0x050102a7
     24a:	00000903          	lb	s2,0(zero) # 0 <__stack_size-0x2000000>
     24e:	0518                	.insn	2, 0x0518
     250:	00000903          	lb	s2,0(zero) # 0 <__stack_size-0x2000000>
     254:	0106                	.insn	2, 0x0106
     256:	1305                	.insn	2, 0x1305
     258:	0409                	.insn	2, 0x0409
     25a:	0600                	.insn	2, 0x0600
     25c:	0518                	.insn	2, 0x0518
     25e:	00000903          	lb	s2,0(zero) # 0 <__stack_size-0x2000000>
     262:	0518                	.insn	2, 0x0518
     264:	00000903          	lb	s2,0(zero) # 0 <__stack_size-0x2000000>
     268:	0518                	.insn	2, 0x0518
     26a:	00100903          	lb	s2,1(zero) # 1 <__stack_size-0x1ffffff>
     26e:	0518                	.insn	2, 0x0518
     270:	00400903          	lb	s2,4(zero) # 4 <__stack_size-0x1fffffc>
     274:	1906                	.insn	2, 0x1906
     276:	1405                	.insn	2, 0x1405
     278:	0409                	.insn	2, 0x0409
     27a:	1500                	.insn	2, 0x1500
     27c:	0305                	.insn	2, 0x0305
     27e:	0809                	.insn	2, 0x0809
     280:	0600                	.insn	2, 0x0600
     282:	0519                	.insn	2, 0x0519
     284:	00080903          	lb	s2,0(a6)
     288:	2f06                	.insn	2, 0x2f06
     28a:	0705                	.insn	2, 0x0705
     28c:	0409                	.insn	2, 0x0409
     28e:	0300                	.insn	2, 0x0300
     290:	0166                	.insn	2, 0x0166
     292:	0305                	.insn	2, 0x0305
     294:	0809                	.insn	2, 0x0809
     296:	3100                	.insn	2, 0x3100
     298:	0705                	.insn	2, 0x0705
     29a:	0809                	.insn	2, 0x0809
     29c:	0300                	.insn	2, 0x0300
     29e:	0168                	.insn	2, 0x0168
     2a0:	1405                	.insn	2, 0x1405
     2a2:	0809                	.insn	2, 0x0809
     2a4:	2f00                	.insn	2, 0x2f00
     2a6:	0705                	.insn	2, 0x0705
     2a8:	0809                	.insn	2, 0x0809
     2aa:	0300                	.insn	2, 0x0300
     2ac:	0170                	.insn	2, 0x0170
     2ae:	0805                	.insn	2, 0x0805
     2b0:	0809                	.insn	2, 0x0809
     2b2:	2700                	.insn	2, 0x2700
     2b4:	0705                	.insn	2, 0x0705
     2b6:	0809                	.insn	2, 0x0809
     2b8:	0300                	.insn	2, 0x0300
     2ba:	0170                	.insn	2, 0x0170
     2bc:	0805                	.insn	2, 0x0805
     2be:	0809                	.insn	2, 0x0809
     2c0:	2700                	.insn	2, 0x2700
     2c2:	0705                	.insn	2, 0x0705
     2c4:	2c09                	.insn	2, 0x2c09
     2c6:	0300                	.insn	2, 0x0300
     2c8:	0168                	.insn	2, 0x0168
     2ca:	1405                	.insn	2, 0x1405
     2cc:	0809                	.insn	2, 0x0809
     2ce:	0600                	.insn	2, 0x0600
     2d0:	051f 0903 0008      	.insn	6, 0x00080903051f
     2d6:	0106                	.insn	2, 0x0106
     2d8:	0805                	.insn	2, 0x0805
     2da:	0409                	.insn	2, 0x0409
     2dc:	0600                	.insn	2, 0x0600
     2de:	0518                	.insn	2, 0x0518
     2e0:	00000903          	lb	s2,0(zero) # 0 <__stack_size-0x2000000>
     2e4:	0501                	.insn	2, 0x0501
     2e6:	090a                	.insn	2, 0x090a
     2e8:	0000                	.insn	2, 0x0000
     2ea:	0200                	.insn	2, 0x0200
     2ec:	0104                	.insn	2, 0x0104
     2ee:	051f 0923 0004      	.insn	6, 0x00040923051f
     2f4:	0200                	.insn	2, 0x0200
     2f6:	0004                	.insn	2, 0x0004
     2f8:	0519                	.insn	2, 0x0519
     2fa:	00000907          	.insn	4, 0x0907
     2fe:	017e9703          	lh	a4,23(t4)
     302:	0605                	.insn	2, 0x0605
     304:	0009                	.insn	2, 0x0009
     306:	1b00                	.insn	2, 0x1b00
     308:	0305                	.insn	2, 0x0305
     30a:	0009                	.insn	2, 0x0009
     30c:	0600                	.insn	2, 0x0600
     30e:	0101ea03          	.insn	4, 0x0101ea03
     312:	0705                	.insn	2, 0x0705
     314:	1809                	.insn	2, 0x1809
     316:	0300                	.insn	2, 0x0300
     318:	7e96                	.insn	2, 0x7e96
     31a:	0501                	.insn	2, 0x0501
     31c:	090d                	.insn	2, 0x090d
     31e:	0004                	.insn	2, 0x0004
     320:	0101ea03          	.insn	4, 0x0101ea03
     324:	0705                	.insn	2, 0x0705
     326:	0809                	.insn	2, 0x0809
     328:	0300                	.insn	2, 0x0300
     32a:	05017e8f          	.insn	4, 0x05017e8f
     32e:	090d                	.insn	2, 0x090d
     330:	0008                	.insn	2, 0x0008
     332:	0101f103          	.insn	4, 0x0101f103
     336:	0705                	.insn	2, 0x0705
     338:	0c09                	.insn	2, 0x0c09
     33a:	0300                	.insn	2, 0x0300
     33c:	7e96                	.insn	2, 0x7e96
     33e:	0501                	.insn	2, 0x0501
     340:	090d                	.insn	2, 0x090d
     342:	0004                	.insn	2, 0x0004
     344:	1806                	.insn	2, 0x1806
     346:	0305                	.insn	2, 0x0305
     348:	0009                	.insn	2, 0x0009
     34a:	fc00                	.insn	2, 0xfc00
     34c:	0705                	.insn	2, 0x0705
     34e:	0009                	.insn	2, 0x0009
     350:	0300                	.insn	2, 0x0300
     352:	05017e8b          	.insn	4, 0x05017e8b
     356:	0906                	.insn	2, 0x0906
     358:	0000                	.insn	2, 0x0000
     35a:	0903051b          	.insn	4, 0x0903051b
     35e:	0000                	.insn	2, 0x0000
     360:	0519                	.insn	2, 0x0519
     362:	00000903          	lb	s2,0(zero) # 0 <__stack_size-0x2000000>
     366:	0518                	.insn	2, 0x0518
     368:	00000903          	lb	s2,0(zero) # 0 <__stack_size-0x2000000>
     36c:	0518                	.insn	2, 0x0518
     36e:	00000903          	lb	s2,0(zero) # 0 <__stack_size-0x2000000>
     372:	0106                	.insn	2, 0x0106
     374:	0305                	.insn	2, 0x0305
     376:	0009                	.insn	2, 0x0009
     378:	0600                	.insn	2, 0x0600
     37a:	0101ef03          	.insn	4, 0x0101ef03
     37e:	0705                	.insn	2, 0x0705
     380:	0009                	.insn	2, 0x0009
     382:	1800                	.insn	2, 0x1800
     384:	0705                	.insn	2, 0x0705
     386:	0009                	.insn	2, 0x0009
     388:	1800                	.insn	2, 0x1800
     38a:	0705                	.insn	2, 0x0705
     38c:	0009                	.insn	2, 0x0009
     38e:	1800                	.insn	2, 0x1800
     390:	0705                	.insn	2, 0x0705
     392:	0009                	.insn	2, 0x0009
     394:	1800                	.insn	2, 0x1800
     396:	0705                	.insn	2, 0x0705
     398:	0009                	.insn	2, 0x0009
     39a:	0300                	.insn	2, 0x0300
     39c:	05017f8b          	.insn	4, 0x05017f8b
     3a0:	0909                	.insn	2, 0x0909
     3a2:	0000                	.insn	2, 0x0000
     3a4:	0520                	.insn	2, 0x0520
     3a6:	00000903          	lb	s2,0(zero) # 0 <__stack_size-0x2000000>
     3aa:	0518                	.insn	2, 0x0518
     3ac:	00000903          	lb	s2,0(zero) # 0 <__stack_size-0x2000000>
     3b0:	0519                	.insn	2, 0x0519
     3b2:	00000903          	lb	s2,0(zero) # 0 <__stack_size-0x2000000>
     3b6:	0518                	.insn	2, 0x0518
     3b8:	00000903          	lb	s2,0(zero) # 0 <__stack_size-0x2000000>
     3bc:	0501                	.insn	2, 0x0501
     3be:	0912                	.insn	2, 0x0912
     3c0:	0000                	.insn	2, 0x0000
     3c2:	0518                	.insn	2, 0x0518
     3c4:	0905                	.insn	2, 0x0905
     3c6:	0000                	.insn	2, 0x0000
     3c8:	05015903          	lhu	s2,80(sp)
     3cc:	090d                	.insn	2, 0x090d
     3ce:	0000                	.insn	2, 0x0000
     3d0:	0521                	.insn	2, 0x0521
     3d2:	00000903          	lb	s2,0(zero) # 0 <__stack_size-0x2000000>
     3d6:	0518                	.insn	2, 0x0518
     3d8:	00000903          	lb	s2,0(zero) # 0 <__stack_size-0x2000000>
     3dc:	0519                	.insn	2, 0x0519
     3de:	00000903          	lb	s2,0(zero) # 0 <__stack_size-0x2000000>
     3e2:	0518                	.insn	2, 0x0518
     3e4:	00000903          	lb	s2,0(zero) # 0 <__stack_size-0x2000000>
     3e8:	0518                	.insn	2, 0x0518
     3ea:	00000903          	lb	s2,0(zero) # 0 <__stack_size-0x2000000>
     3ee:	9406                	.insn	2, 0x9406
     3f0:	0705                	.insn	2, 0x0705
     3f2:	0809                	.insn	2, 0x0809
     3f4:	0300                	.insn	2, 0x0300
     3f6:	05017f83          	.insn	4, 0x05017f83
     3fa:	0906                	.insn	2, 0x0906
     3fc:	0004                	.insn	2, 0x0004
     3fe:	0594                	.insn	2, 0x0594
     400:	00140907          	.insn	4, 0x00140907
     404:	017f8303          	lb	t1,23(t6)
     408:	0605                	.insn	2, 0x0605
     40a:	0409                	.insn	2, 0x0409
     40c:	0100                	.insn	2, 0x0100
     40e:	0605                	.insn	2, 0x0605
     410:	0009                	.insn	2, 0x0009
     412:	0600                	.insn	2, 0x0600
     414:	052e                	.insn	2, 0x052e
     416:	0912                	.insn	2, 0x0912
     418:	0000                	.insn	2, 0x0000
     41a:	051e                	.insn	2, 0x051e
     41c:	00000903          	lb	s2,0(zero) # 0 <__stack_size-0x2000000>
     420:	051a                	.insn	2, 0x051a
     422:	00000903          	lb	s2,0(zero) # 0 <__stack_size-0x2000000>
     426:	051c                	.insn	2, 0x051c
     428:	0905                	.insn	2, 0x0905
     42a:	0000                	.insn	2, 0x0000
     42c:	0106                	.insn	2, 0x0106
     42e:	0905                	.insn	2, 0x0905
     430:	0409                	.insn	2, 0x0409
     432:	0100                	.insn	2, 0x0100
     434:	0905                	.insn	2, 0x0905
     436:	0409                	.insn	2, 0x0409
     438:	0100                	.insn	2, 0x0100
     43a:	0905                	.insn	2, 0x0905
     43c:	0409                	.insn	2, 0x0409
     43e:	0100                	.insn	2, 0x0100
     440:	0905                	.insn	2, 0x0905
     442:	0009                	.insn	2, 0x0009
     444:	0300                	.insn	2, 0x0300
     446:	0146                	.insn	2, 0x0146
     448:	2705                	.insn	2, 0x2705
     44a:	0409                	.insn	2, 0x0409
     44c:	1800                	.insn	2, 0x1800
     44e:	2805                	.insn	2, 0x2805
     450:	0409                	.insn	2, 0x0409
     452:	0000                	.insn	2, 0x0000
     454:	0402                	.insn	2, 0x0402
     456:	a901                	.insn	2, 0xa901
     458:	1105                	.insn	2, 0x1105
     45a:	0409                	.insn	2, 0x0409
     45c:	0000                	.insn	2, 0x0000
     45e:	0402                	.insn	2, 0x0402
     460:	0300                	.insn	2, 0x0300
     462:	7eed                	.insn	2, 0x7eed
     464:	0501                	.insn	2, 0x0501
     466:	00040927          	.insn	4, 0x00040927
     46a:	0200                	.insn	2, 0x0200
     46c:	0104                	.insn	2, 0x0104
     46e:	05aa                	.insn	2, 0x05aa
     470:	0911                	.insn	2, 0x0911
     472:	0004                	.insn	2, 0x0004
     474:	0200                	.insn	2, 0x0200
     476:	0004                	.insn	2, 0x0004
     478:	1906                	.insn	2, 0x1906
     47a:	0705                	.insn	2, 0x0705
     47c:	0009                	.insn	2, 0x0009
     47e:	0100                	.insn	2, 0x0100
     480:	1805                	.insn	2, 0x1805
     482:	0009                	.insn	2, 0x0009
     484:	2000                	.insn	2, 0x2000
     486:	0705                	.insn	2, 0x0705
     488:	0009                	.insn	2, 0x0009
     48a:	0300                	.insn	2, 0x0300
     48c:	05017ecf          	.insn	4, 0x05017ecf
     490:	0906                	.insn	2, 0x0906
     492:	0000                	.insn	2, 0x0000
     494:	0521                	.insn	2, 0x0521
     496:	00000903          	lb	s2,0(zero) # 0 <__stack_size-0x2000000>
     49a:	0518                	.insn	2, 0x0518
     49c:	00000903          	lb	s2,0(zero) # 0 <__stack_size-0x2000000>
     4a0:	0519                	.insn	2, 0x0519
     4a2:	00000903          	lb	s2,0(zero) # 0 <__stack_size-0x2000000>
     4a6:	0518                	.insn	2, 0x0518
     4a8:	00000903          	lb	s2,0(zero) # 0 <__stack_size-0x2000000>
     4ac:	1c06                	.insn	2, 0x1c06
     4ae:	2705                	.insn	2, 0x2705
     4b0:	0409                	.insn	2, 0x0409
     4b2:	b700                	.insn	2, 0xb700
     4b4:	0705                	.insn	2, 0x0705
     4b6:	0409                	.insn	2, 0x0409
     4b8:	0300                	.insn	2, 0x0300
     4ba:	7ee2                	.insn	2, 0x7ee2
     4bc:	0501                	.insn	2, 0x0501
     4be:	090c                	.insn	2, 0x090c
     4c0:	0008                	.insn	2, 0x0008
     4c2:	0510                	.insn	2, 0x0510
     4c4:	091a                	.insn	2, 0x091a
     4c6:	0008                	.insn	2, 0x0008
     4c8:	1806                	.insn	2, 0x1806
     4ca:	0305                	.insn	2, 0x0305
     4cc:	0009                	.insn	2, 0x0009
     4ce:	0600                	.insn	2, 0x0600
     4d0:	0501                	.insn	2, 0x0501
     4d2:	091e                	.insn	2, 0x091e
     4d4:	0004                	.insn	2, 0x0004
     4d6:	1806                	.insn	2, 0x1806
     4d8:	0305                	.insn	2, 0x0305
     4da:	0009                	.insn	2, 0x0009
     4dc:	0600                	.insn	2, 0x0600
     4de:	0928051b          	.insn	4, 0x0928051b
     4e2:	0004                	.insn	2, 0x0004
     4e4:	091f0513          	addi	a0,t5,145
     4e8:	0008                	.insn	2, 0x0008
     4ea:	1806                	.insn	2, 0x1806
     4ec:	0305                	.insn	2, 0x0305
     4ee:	0009                	.insn	2, 0x0009
     4f0:	0000                	.insn	2, 0x0000
     4f2:	0402                	.insn	2, 0x0402
     4f4:	0101                	.insn	2, 0x0101
     4f6:	2705                	.insn	2, 0x2705
     4f8:	0009                	.insn	2, 0x0009
     4fa:	0000                	.insn	2, 0x0000
     4fc:	0402                	.insn	2, 0x0402
     4fe:	1800                	.insn	2, 0x1800
     500:	0505                	.insn	2, 0x0505
     502:	0009                	.insn	2, 0x0009
     504:	0600                	.insn	2, 0x0600
     506:	0501                	.insn	2, 0x0501
     508:	00040927          	.insn	4, 0x00040927
     50c:	0200                	.insn	2, 0x0200
     50e:	0304                	.insn	2, 0x0304
     510:	1606                	.insn	2, 0x1606
     512:	3705                	.insn	2, 0x3705
     514:	0009                	.insn	2, 0x0009
     516:	0000                	.insn	2, 0x0000
     518:	0402                	.insn	2, 0x0402
     51a:	0101                	.insn	2, 0x0101
     51c:	2705                	.insn	2, 0x2705
     51e:	0009                	.insn	2, 0x0009
     520:	0000                	.insn	2, 0x0000
     522:	0402                	.insn	2, 0x0402
     524:	1800                	.insn	2, 0x1800
     526:	0505                	.insn	2, 0x0505
     528:	0009                	.insn	2, 0x0009
     52a:	0600                	.insn	2, 0x0600
     52c:	0501                	.insn	2, 0x0501
     52e:	00040927          	.insn	4, 0x00040927
     532:	0200                	.insn	2, 0x0200
     534:	0304                	.insn	2, 0x0304
     536:	1606                	.insn	2, 0x1606
     538:	3705                	.insn	2, 0x3705
     53a:	0009                	.insn	2, 0x0009
     53c:	0000                	.insn	2, 0x0000
     53e:	0402                	.insn	2, 0x0402
     540:	0101                	.insn	2, 0x0101
     542:	2705                	.insn	2, 0x2705
     544:	0009                	.insn	2, 0x0009
     546:	0000                	.insn	2, 0x0000
     548:	0402                	.insn	2, 0x0402
     54a:	1900                	.insn	2, 0x1900
     54c:	0305                	.insn	2, 0x0305
     54e:	0009                	.insn	2, 0x0009
     550:	1800                	.insn	2, 0x1800
     552:	0305                	.insn	2, 0x0305
     554:	0009                	.insn	2, 0x0009
     556:	1800                	.insn	2, 0x1800
     558:	0305                	.insn	2, 0x0305
     55a:	0009                	.insn	2, 0x0009
     55c:	0600                	.insn	2, 0x0600
     55e:	0501                	.insn	2, 0x0501
     560:	00000903          	lb	s2,0(zero) # 0 <__stack_size-0x2000000>
     564:	b506                	.insn	2, 0xb506
     566:	0705                	.insn	2, 0x0705
     568:	0409                	.insn	2, 0x0409
     56a:	1800                	.insn	2, 0x1800
     56c:	0705                	.insn	2, 0x0705
     56e:	0009                	.insn	2, 0x0009
     570:	0000                	.insn	2, 0x0000
     572:	0402                	.insn	2, 0x0402
     574:	0101                	.insn	2, 0x0101
     576:	2505                	.insn	2, 0x2505
     578:	1009                	.insn	2, 0x1009
     57a:	0000                	.insn	2, 0x0000
     57c:	0402                	.insn	2, 0x0402
     57e:	0600                	.insn	2, 0x0600
     580:	0501                	.insn	2, 0x0501
     582:	0915                	.insn	2, 0x0915
     584:	0008                	.insn	2, 0x0008
     586:	0200                	.insn	2, 0x0200
     588:	0104                	.insn	2, 0x0104
     58a:	0501                	.insn	2, 0x0501
     58c:	0925                	.insn	2, 0x0925
     58e:	0008                	.insn	2, 0x0008
     590:	0200                	.insn	2, 0x0200
     592:	0004                	.insn	2, 0x0004
     594:	05017103          	.insn	4, 0x05017103
     598:	0910                	.insn	2, 0x0910
     59a:	0004                	.insn	2, 0x0004
     59c:	0515                	.insn	2, 0x0515
     59e:	0911                	.insn	2, 0x0911
     5a0:	0004                	.insn	2, 0x0004
     5a2:	017f8403          	lb	s0,23(t6)
     5a6:	0605                	.insn	2, 0x0605
     5a8:	0409                	.insn	2, 0x0409
     5aa:	0100                	.insn	2, 0x0100
     5ac:	0605                	.insn	2, 0x0605
     5ae:	0009                	.insn	2, 0x0009
     5b0:	0600                	.insn	2, 0x0600
     5b2:	090905a7          	.insn	4, 0x090905a7
     5b6:	0000                	.insn	2, 0x0000
     5b8:	017ee103          	.insn	4, 0x017ee103
     5bc:	0d05                	.insn	2, 0x0d05
     5be:	0009                	.insn	2, 0x0009
     5c0:	2100                	.insn	2, 0x2100
     5c2:	0305                	.insn	2, 0x0305
     5c4:	0009                	.insn	2, 0x0009
     5c6:	1800                	.insn	2, 0x1800
     5c8:	0305                	.insn	2, 0x0305
     5ca:	0009                	.insn	2, 0x0009
     5cc:	1900                	.insn	2, 0x1900
     5ce:	0305                	.insn	2, 0x0305
     5d0:	0009                	.insn	2, 0x0009
     5d2:	1800                	.insn	2, 0x1800
     5d4:	0305                	.insn	2, 0x0305
     5d6:	0009                	.insn	2, 0x0009
     5d8:	1800                	.insn	2, 0x1800
     5da:	0305                	.insn	2, 0x0305
     5dc:	0009                	.insn	2, 0x0009
     5de:	0600                	.insn	2, 0x0600
     5e0:	0501                	.insn	2, 0x0501
     5e2:	0906                	.insn	2, 0x0906
     5e4:	0004                	.insn	2, 0x0004
     5e6:	0519                	.insn	2, 0x0519
     5e8:	090c                	.insn	2, 0x090c
     5ea:	0004                	.insn	2, 0x0004
     5ec:	0200                	.insn	2, 0x0200
     5ee:	0104                	.insn	2, 0x0104
     5f0:	05a5                	.insn	2, 0x05a5
     5f2:	090c                	.insn	2, 0x090c
     5f4:	0004                	.insn	2, 0x0004
     5f6:	0200                	.insn	2, 0x0200
     5f8:	0204                	.insn	2, 0x0204
     5fa:	1406                	.insn	2, 0x1406
     5fc:	3305                	.insn	2, 0x3305
     5fe:	0809                	.insn	2, 0x0809
     600:	0000                	.insn	2, 0x0000
     602:	0402                	.insn	2, 0x0402
     604:	0101                	.insn	2, 0x0101
     606:	2505                	.insn	2, 0x2505
     608:	0809                	.insn	2, 0x0809
     60a:	0600                	.insn	2, 0x0600
     60c:	0501                	.insn	2, 0x0501
     60e:	0925                	.insn	2, 0x0925
     610:	0004                	.insn	2, 0x0004
     612:	0200                	.insn	2, 0x0200
     614:	0004                	.insn	2, 0x0004
     616:	0524                	.insn	2, 0x0524
     618:	0911                	.insn	2, 0x0911
     61a:	0008                	.insn	2, 0x0008
     61c:	0518                	.insn	2, 0x0518
     61e:	091d                	.insn	2, 0x091d
     620:	0004                	.insn	2, 0x0004
     622:	0501                	.insn	2, 0x0501
     624:	091d                	.insn	2, 0x091d
     626:	0014                	.insn	2, 0x0014
     628:	0518                	.insn	2, 0x0518
     62a:	0922                	.insn	2, 0x0922
     62c:	0004                	.insn	2, 0x0004
     62e:	0501                	.insn	2, 0x0501
     630:	0915                	.insn	2, 0x0915
     632:	0008                	.insn	2, 0x0008
     634:	0501                	.insn	2, 0x0501
     636:	0911                	.insn	2, 0x0911
     638:	0004                	.insn	2, 0x0004
     63a:	1506                	.insn	2, 0x1506
     63c:	0705                	.insn	2, 0x0705
     63e:	0009                	.insn	2, 0x0009
     640:	1800                	.insn	2, 0x1800
     642:	0705                	.insn	2, 0x0705
     644:	0009                	.insn	2, 0x0009
     646:	1800                	.insn	2, 0x1800
     648:	0705                	.insn	2, 0x0705
     64a:	0009                	.insn	2, 0x0009
     64c:	1900                	.insn	2, 0x1900
     64e:	0705                	.insn	2, 0x0705
     650:	0009                	.insn	2, 0x0009
     652:	0300                	.insn	2, 0x0300
     654:	7dc2                	.insn	2, 0x7dc2
     656:	0501                	.insn	2, 0x0501
     658:	0906                	.insn	2, 0x0906
     65a:	0000                	.insn	2, 0x0000
     65c:	051e                	.insn	2, 0x051e
     65e:	00000903          	lb	s2,0(zero) # 0 <__stack_size-0x2000000>
     662:	0518                	.insn	2, 0x0518
     664:	00000903          	lb	s2,0(zero) # 0 <__stack_size-0x2000000>
     668:	0519                	.insn	2, 0x0519
     66a:	00000903          	lb	s2,0(zero) # 0 <__stack_size-0x2000000>
     66e:	0518                	.insn	2, 0x0518
     670:	00000903          	lb	s2,0(zero) # 0 <__stack_size-0x2000000>
     674:	0518                	.insn	2, 0x0518
     676:	0905                	.insn	2, 0x0905
     678:	0000                	.insn	2, 0x0000
     67a:	051e                	.insn	2, 0x051e
     67c:	00000913          	addi	s2,zero,0
     680:	0106                	.insn	2, 0x0106
     682:	1305                	.insn	2, 0x1305
     684:	0009                	.insn	2, 0x0009
     686:	0000                	.insn	2, 0x0000
     688:	0402                	.insn	2, 0x0402
     68a:	0602                	.insn	2, 0x0602
     68c:	01028303          	lb	t1,16(t0)
     690:	3605                	.insn	2, 0x3605
     692:	0009                	.insn	2, 0x0009
     694:	0000                	.insn	2, 0x0000
     696:	0402                	.insn	2, 0x0402
     698:	0601                	.insn	2, 0x0601
     69a:	0501                	.insn	2, 0x0501
     69c:	00040923          	sb	zero,18(s0)
     6a0:	0200                	.insn	2, 0x0200
     6a2:	0204                	.insn	2, 0x0204
     6a4:	0501                	.insn	2, 0x0501
     6a6:	0936                	.insn	2, 0x0936
     6a8:	0004                	.insn	2, 0x0004
     6aa:	0200                	.insn	2, 0x0200
     6ac:	0104                	.insn	2, 0x0104
     6ae:	0106                	.insn	2, 0x0106
     6b0:	2305                	.insn	2, 0x2305
     6b2:	0809                	.insn	2, 0x0809
     6b4:	0000                	.insn	2, 0x0000
     6b6:	0402                	.insn	2, 0x0402
     6b8:	0600                	.insn	2, 0x0600
     6ba:	017fa203          	lw	tp,23(t6)
     6be:	0905                	.insn	2, 0x0905
     6c0:	0809                	.insn	2, 0x0809
     6c2:	0100                	.insn	2, 0x0100
     6c4:	0905                	.insn	2, 0x0905
     6c6:	0409                	.insn	2, 0x0409
     6c8:	0300                	.insn	2, 0x0300
     6ca:	016e                	.insn	2, 0x016e
     6cc:	0c05                	.insn	2, 0x0c05
     6ce:	0409                	.insn	2, 0x0409
     6d0:	0100                	.insn	2, 0x0100
     6d2:	0c05                	.insn	2, 0x0c05
     6d4:	0009                	.insn	2, 0x0009
     6d6:	0000                	.insn	2, 0x0000
     6d8:	0402                	.insn	2, 0x0402
     6da:	a101                	.insn	2, 0xa101
     6dc:	0c05                	.insn	2, 0x0c05
     6de:	0409                	.insn	2, 0x0409
     6e0:	0000                	.insn	2, 0x0000
     6e2:	0402                	.insn	2, 0x0402
     6e4:	1b00                	.insn	2, 0x1b00
     6e6:	0b05                	.insn	2, 0x0b05
     6e8:	1c09                	.insn	2, 0x1c09
     6ea:	0600                	.insn	2, 0x0600
     6ec:	0516                	.insn	2, 0x0516
     6ee:	0000090b          	.insn	4, 0x090b
     6f2:	017e9c03          	lh	s8,23(t4)
     6f6:	0605                	.insn	2, 0x0605
     6f8:	0009                	.insn	2, 0x0009
     6fa:	1f00                	.insn	2, 0x1f00
     6fc:	0305                	.insn	2, 0x0305
     6fe:	0009                	.insn	2, 0x0009
     700:	1800                	.insn	2, 0x1800
     702:	0305                	.insn	2, 0x0305
     704:	0009                	.insn	2, 0x0009
     706:	1900                	.insn	2, 0x1900
     708:	0505                	.insn	2, 0x0505
     70a:	0009                	.insn	2, 0x0009
     70c:	1800                	.insn	2, 0x1800
     70e:	0305                	.insn	2, 0x0305
     710:	0009                	.insn	2, 0x0009
     712:	1900                	.insn	2, 0x1900
     714:	0505                	.insn	2, 0x0505
     716:	0009                	.insn	2, 0x0009
     718:	1800                	.insn	2, 0x1800
     71a:	0505                	.insn	2, 0x0505
     71c:	0009                	.insn	2, 0x0009
     71e:	0600                	.insn	2, 0x0600
     720:	0501                	.insn	2, 0x0501
     722:	0905                	.insn	2, 0x0905
     724:	0000                	.insn	2, 0x0000
     726:	ed06                	.insn	2, 0xed06
     728:	0b05                	.insn	2, 0x0b05
     72a:	0009                	.insn	2, 0x0009
     72c:	0600                	.insn	2, 0x0600
     72e:	0501                	.insn	2, 0x0501
     730:	0004090b          	.insn	4, 0x0004090b
     734:	0200                	.insn	2, 0x0200
     736:	0204                	.insn	2, 0x0204
     738:	0510                	.insn	2, 0x0510
     73a:	00080933          	add	s2,a6,zero
     73e:	0200                	.insn	2, 0x0200
     740:	0004                	.insn	2, 0x0004
     742:	1a06                	.insn	2, 0x1a06
     744:	0905                	.insn	2, 0x0905
     746:	0009                	.insn	2, 0x0009
     748:	0300                	.insn	2, 0x0300
     74a:	7ee1                	.insn	2, 0x7ee1
     74c:	0501                	.insn	2, 0x0501
     74e:	090d                	.insn	2, 0x090d
     750:	0000                	.insn	2, 0x0000
     752:	0521                	.insn	2, 0x0521
     754:	00000903          	lb	s2,0(zero) # 0 <__stack_size-0x2000000>
     758:	0518                	.insn	2, 0x0518
     75a:	00000903          	lb	s2,0(zero) # 0 <__stack_size-0x2000000>
     75e:	0519                	.insn	2, 0x0519
     760:	00000903          	lb	s2,0(zero) # 0 <__stack_size-0x2000000>
     764:	0518                	.insn	2, 0x0518
     766:	00000903          	lb	s2,0(zero) # 0 <__stack_size-0x2000000>
     76a:	0518                	.insn	2, 0x0518
     76c:	00000903          	lb	s2,0(zero) # 0 <__stack_size-0x2000000>
     770:	ab06                	.insn	2, 0xab06
     772:	0b05                	.insn	2, 0x0b05
     774:	2809                	.insn	2, 0x2809
     776:	0600                	.insn	2, 0x0600
     778:	0518                	.insn	2, 0x0518
     77a:	0000090b          	.insn	4, 0x090b
     77e:	0518                	.insn	2, 0x0518
     780:	0000090b          	.insn	4, 0x090b
     784:	0200                	.insn	2, 0x0200
     786:	0204                	.insn	2, 0x0204
     788:	050e                	.insn	2, 0x050e
     78a:	00000933          	add	s2,zero,zero
     78e:	0200                	.insn	2, 0x0200
     790:	0104                	.insn	2, 0x0104
     792:	0501                	.insn	2, 0x0501
     794:	0925                	.insn	2, 0x0925
     796:	0004                	.insn	2, 0x0004
     798:	0200                	.insn	2, 0x0200
     79a:	0004                	.insn	2, 0x0004
     79c:	0306                	.insn	2, 0x0306
     79e:	05017ef3          	.insn	4, 0x05017ef3
     7a2:	0906                	.insn	2, 0x0906
     7a4:	0004                	.insn	2, 0x0004
     7a6:	0501                	.insn	2, 0x0501
     7a8:	0906                	.insn	2, 0x0906
     7aa:	0000                	.insn	2, 0x0000
     7ac:	0200                	.insn	2, 0x0200
     7ae:	0204                	.insn	2, 0x0204
     7b0:	a406                	.insn	2, 0xa406
     7b2:	3305                	.insn	2, 0x3305
     7b4:	0009                	.insn	2, 0x0009
     7b6:	0000                	.insn	2, 0x0000
     7b8:	0402                	.insn	2, 0x0402
     7ba:	0101                	.insn	2, 0x0101
     7bc:	2505                	.insn	2, 0x2505
     7be:	0809                	.insn	2, 0x0809
     7c0:	0000                	.insn	2, 0x0000
     7c2:	0402                	.insn	2, 0x0402
     7c4:	0602                	.insn	2, 0x0602
     7c6:	0501                	.insn	2, 0x0501
     7c8:	00040933          	add	s2,s0,zero
     7cc:	0200                	.insn	2, 0x0200
     7ce:	0004                	.insn	2, 0x0004
     7d0:	017eb003          	.insn	4, 0x017eb003
     7d4:	1305                	.insn	2, 0x1305
     7d6:	0409                	.insn	2, 0x0409
     7d8:	0000                	.insn	2, 0x0000
     7da:	0402                	.insn	2, 0x0402
     7dc:	e701                	.insn	2, 0xe701
     7de:	2505                	.insn	2, 0x2505
     7e0:	0409                	.insn	2, 0x0409
     7e2:	0000                	.insn	2, 0x0000
     7e4:	0402                	.insn	2, 0x0402
     7e6:	1f00                	.insn	2, 0x1f00
     7e8:	1505                	.insn	2, 0x1505
     7ea:	0409                	.insn	2, 0x0409
     7ec:	1800                	.insn	2, 0x1800
     7ee:	1405                	.insn	2, 0x1405
     7f0:	0409                	.insn	2, 0x0409
     7f2:	0300                	.insn	2, 0x0300
     7f4:	7eec                	.insn	2, 0x7eec
     7f6:	0501                	.insn	2, 0x0501
     7f8:	090c                	.insn	2, 0x090c
     7fa:	0008                	.insn	2, 0x0008
     7fc:	0501                	.insn	2, 0x0501
     7fe:	090c                	.insn	2, 0x090c
     800:	0000                	.insn	2, 0x0000
     802:	1a06                	.insn	2, 0x1a06
     804:	0505                	.insn	2, 0x0505
     806:	0009                	.insn	2, 0x0009
     808:	1800                	.insn	2, 0x1800
     80a:	0505                	.insn	2, 0x0505
     80c:	0009                	.insn	2, 0x0009
     80e:	0600                	.insn	2, 0x0600
     810:	0501                	.insn	2, 0x0501
     812:	0905                	.insn	2, 0x0905
     814:	0000                	.insn	2, 0x0000
     816:	2806                	.insn	2, 0x2806
     818:	1205                	.insn	2, 0x1205
     81a:	0009                	.insn	2, 0x0009
     81c:	1800                	.insn	2, 0x1800
     81e:	0505                	.insn	2, 0x0505
     820:	0009                	.insn	2, 0x0009
     822:	0300                	.insn	2, 0x0300
     824:	0159                	.insn	2, 0x0159
     826:	0d05                	.insn	2, 0x0d05
     828:	0009                	.insn	2, 0x0009
     82a:	2100                	.insn	2, 0x2100
     82c:	0305                	.insn	2, 0x0305
     82e:	0009                	.insn	2, 0x0009
     830:	1800                	.insn	2, 0x1800
     832:	0305                	.insn	2, 0x0305
     834:	0009                	.insn	2, 0x0009
     836:	1900                	.insn	2, 0x1900
     838:	0305                	.insn	2, 0x0305
     83a:	0009                	.insn	2, 0x0009
     83c:	1800                	.insn	2, 0x1800
     83e:	0305                	.insn	2, 0x0305
     840:	0009                	.insn	2, 0x0009
     842:	1800                	.insn	2, 0x1800
     844:	0305                	.insn	2, 0x0305
     846:	0009                	.insn	2, 0x0009
     848:	1c00                	.insn	2, 0x1c00
     84a:	0505                	.insn	2, 0x0505
     84c:	0009                	.insn	2, 0x0009
     84e:	1800                	.insn	2, 0x1800
     850:	0505                	.insn	2, 0x0505
     852:	0009                	.insn	2, 0x0009
     854:	0600                	.insn	2, 0x0600
     856:	0501                	.insn	2, 0x0501
     858:	0905                	.insn	2, 0x0905
     85a:	0000                	.insn	2, 0x0000
     85c:	2806                	.insn	2, 0x2806
     85e:	1205                	.insn	2, 0x1205
     860:	0009                	.insn	2, 0x0009
     862:	1800                	.insn	2, 0x1800
     864:	0505                	.insn	2, 0x0505
     866:	0009                	.insn	2, 0x0009
     868:	0300                	.insn	2, 0x0300
     86a:	0159                	.insn	2, 0x0159
     86c:	0d05                	.insn	2, 0x0d05
     86e:	0009                	.insn	2, 0x0009
     870:	2100                	.insn	2, 0x2100
     872:	0305                	.insn	2, 0x0305
     874:	0009                	.insn	2, 0x0009
     876:	1800                	.insn	2, 0x1800
     878:	0305                	.insn	2, 0x0305
     87a:	0009                	.insn	2, 0x0009
     87c:	1900                	.insn	2, 0x1900
     87e:	0305                	.insn	2, 0x0305
     880:	0009                	.insn	2, 0x0009
     882:	1800                	.insn	2, 0x1800
     884:	0305                	.insn	2, 0x0305
     886:	0009                	.insn	2, 0x0009
     888:	1800                	.insn	2, 0x1800
     88a:	0305                	.insn	2, 0x0305
     88c:	0009                	.insn	2, 0x0009
     88e:	0600                	.insn	2, 0x0600
     890:	0501                	.insn	2, 0x0501
     892:	00040903          	lb	s2,0(s0)
     896:	0501                	.insn	2, 0x0501
     898:	00000903          	lb	s2,0(zero) # 0 <__stack_size-0x2000000>
     89c:	05ac                	.insn	2, 0x05ac
     89e:	0915                	.insn	2, 0x0915
     8a0:	0004                	.insn	2, 0x0004
     8a2:	0518                	.insn	2, 0x0518
     8a4:	0914                	.insn	2, 0x0914
     8a6:	0004                	.insn	2, 0x0004
     8a8:	017ea703          	lw	a4,23(t4)
     8ac:	1305                	.insn	2, 0x1305
     8ae:	0809                	.insn	2, 0x0809
     8b0:	0100                	.insn	2, 0x0100
     8b2:	1305                	.insn	2, 0x1305
     8b4:	0009                	.insn	2, 0x0009
     8b6:	0300                	.insn	2, 0x0300
     8b8:	05017faf          	.insn	4, 0x05017faf
     8bc:	00040913          	addi	s2,s0,0
     8c0:	0102af03          	lw	t5,16(t0)
     8c4:	1d05                	.insn	2, 0x1d05
     8c6:	0409                	.insn	2, 0x0409
     8c8:	0300                	.insn	2, 0x0300
     8ca:	7dd1                	.insn	2, 0x7dd1
     8cc:	0501                	.insn	2, 0x0501
     8ce:	00040913          	addi	s2,s0,0
     8d2:	0102af03          	lw	t5,16(t0)
     8d6:	1d05                	.insn	2, 0x1d05
     8d8:	0409                	.insn	2, 0x0409
     8da:	1800                	.insn	2, 0x1800
     8dc:	2205                	.insn	2, 0x2205
     8de:	0409                	.insn	2, 0x0409
     8e0:	0100                	.insn	2, 0x0100
     8e2:	1505                	.insn	2, 0x1505
     8e4:	0c09                	.insn	2, 0x0c09
     8e6:	0100                	.insn	2, 0x0100
     8e8:	1105                	.insn	2, 0x1105
     8ea:	0409                	.insn	2, 0x0409
     8ec:	0600                	.insn	2, 0x0600
     8ee:	0515                	.insn	2, 0x0515
     8f0:	00000907          	.insn	4, 0x0907
     8f4:	0518                	.insn	2, 0x0518
     8f6:	00000907          	.insn	4, 0x0907
     8fa:	0518                	.insn	2, 0x0518
     8fc:	00000907          	.insn	4, 0x0907
     900:	0519                	.insn	2, 0x0519
     902:	00000907          	.insn	4, 0x0907
     906:	017dc203          	lbu	tp,23(s11)
     90a:	0605                	.insn	2, 0x0605
     90c:	0009                	.insn	2, 0x0009
     90e:	1e00                	.insn	2, 0x1e00
     910:	0305                	.insn	2, 0x0305
     912:	0009                	.insn	2, 0x0009
     914:	1800                	.insn	2, 0x1800
     916:	0305                	.insn	2, 0x0305
     918:	0009                	.insn	2, 0x0009
     91a:	1900                	.insn	2, 0x1900
     91c:	0305                	.insn	2, 0x0305
     91e:	0009                	.insn	2, 0x0009
     920:	1800                	.insn	2, 0x1800
     922:	0305                	.insn	2, 0x0305
     924:	0009                	.insn	2, 0x0009
     926:	1800                	.insn	2, 0x1800
     928:	0505                	.insn	2, 0x0505
     92a:	0009                	.insn	2, 0x0009
     92c:	0600                	.insn	2, 0x0600
     92e:	0501                	.insn	2, 0x0501
     930:	0908                	.insn	2, 0x0908
     932:	0008                	.insn	2, 0x0008
     934:	1a06                	.insn	2, 0x1a06
     936:	0705                	.insn	2, 0x0705
     938:	0009                	.insn	2, 0x0009
     93a:	1800                	.insn	2, 0x1800
     93c:	0705                	.insn	2, 0x0705
     93e:	0009                	.insn	2, 0x0009
     940:	0600                	.insn	2, 0x0600
     942:	0501                	.insn	2, 0x0501
     944:	091e                	.insn	2, 0x091e
     946:	0004                	.insn	2, 0x0004
     948:	0516                	.insn	2, 0x0516
     94a:	0004090f          	.insn	4, 0x0004090f
     94e:	0501                	.insn	2, 0x0501
     950:	0000090f          	.insn	4, 0x090f
     954:	0200                	.insn	2, 0x0200
     956:	0204                	.insn	2, 0x0204
     958:	01028703          	lb	a4,16(t0)
     95c:	3605                	.insn	2, 0x3605
     95e:	0409                	.insn	2, 0x0409
     960:	0000                	.insn	2, 0x0000
     962:	0402                	.insn	2, 0x0402
     964:	0300                	.insn	2, 0x0300
     966:	7dfa                	.insn	2, 0x7dfa
     968:	0501                	.insn	2, 0x0501
     96a:	091e                	.insn	2, 0x091e
     96c:	0004                	.insn	2, 0x0004
     96e:	1806                	.insn	2, 0x1806
     970:	0705                	.insn	2, 0x0705
     972:	0009                	.insn	2, 0x0009
     974:	1900                	.insn	2, 0x1900
     976:	1305                	.insn	2, 0x1305
     978:	0009                	.insn	2, 0x0009
     97a:	0600                	.insn	2, 0x0600
     97c:	0501                	.insn	2, 0x0501
     97e:	00000913          	addi	s2,zero,0
     982:	0200                	.insn	2, 0x0200
     984:	0204                	.insn	2, 0x0204
     986:	0306                	.insn	2, 0x0306
     988:	05010283          	lb	t0,80(sp)
     98c:	0936                	.insn	2, 0x0936
     98e:	0000                	.insn	2, 0x0000
     990:	0200                	.insn	2, 0x0200
     992:	0104                	.insn	2, 0x0104
     994:	0501                	.insn	2, 0x0501
     996:	000c0923          	sb	zero,18(s8) # 80004012 <Arr_2_Glob+0x20ce>
     99a:	0200                	.insn	2, 0x0200
     99c:	0004                	.insn	2, 0x0004
     99e:	4b06                	.insn	2, 0x4b06
     9a0:	0805                	.insn	2, 0x0805
     9a2:	0809                	.insn	2, 0x0809
     9a4:	1400                	.insn	2, 0x1400
     9a6:	0a05                	.insn	2, 0x0a05
     9a8:	0c09                	.insn	2, 0x0c09
     9aa:	0300                	.insn	2, 0x0300
     9ac:	7f9a                	.insn	2, 0x7f9a
     9ae:	0501                	.insn	2, 0x0501
     9b0:	0906                	.insn	2, 0x0906
     9b2:	0004                	.insn	2, 0x0004
     9b4:	0580                	.insn	2, 0x0580
     9b6:	0908                	.insn	2, 0x0908
     9b8:	0008                	.insn	2, 0x0008
     9ba:	1406                	.insn	2, 0x1406
     9bc:	0505                	.insn	2, 0x0505
     9be:	0009                	.insn	2, 0x0009
     9c0:	0300                	.insn	2, 0x0300
     9c2:	0a050147          	.insn	4, 0x0a050147
     9c6:	0009                	.insn	2, 0x0009
     9c8:	5300                	.insn	2, 0x5300
     9ca:	0305                	.insn	2, 0x0305
     9cc:	0009                	.insn	2, 0x0009
     9ce:	0300                	.insn	2, 0x0300
     9d0:	7f96                	.insn	2, 0x7f96
     9d2:	0501                	.insn	2, 0x0501
     9d4:	0909                	.insn	2, 0x0909
     9d6:	0000                	.insn	2, 0x0000
     9d8:	0518                	.insn	2, 0x0518
     9da:	00000903          	lb	s2,0(zero) # 0 <__stack_size-0x2000000>
     9de:	0106                	.insn	2, 0x0106
     9e0:	0605                	.insn	2, 0x0605
     9e2:	0409                	.insn	2, 0x0409
     9e4:	0100                	.insn	2, 0x0100
     9e6:	0605                	.insn	2, 0x0605
     9e8:	0409                	.insn	2, 0x0409
     9ea:	8100                	.insn	2, 0x8100
     9ec:	0505                	.insn	2, 0x0505
     9ee:	0409                	.insn	2, 0x0409
     9f0:	0100                	.insn	2, 0x0100
     9f2:	0505                	.insn	2, 0x0505
     9f4:	0409                	.insn	2, 0x0409
     9f6:	0300                	.insn	2, 0x0300
     9f8:	05017f97          	auipc	t6,0x5017
     9fc:	090a                	.insn	2, 0x090a
     9fe:	0008                	.insn	2, 0x0008
     a00:	0106                	.insn	2, 0x0106
     a02:	0505                	.insn	2, 0x0505
     a04:	0009                	.insn	2, 0x0009
     a06:	0600                	.insn	2, 0x0600
     a08:	0501                	.insn	2, 0x0501
     a0a:	090a                	.insn	2, 0x090a
     a0c:	0004                	.insn	2, 0x0004
     a0e:	1806                	.insn	2, 0x1806
     a10:	0305                	.insn	2, 0x0305
     a12:	0009                	.insn	2, 0x0009
     a14:	0600                	.insn	2, 0x0600
     a16:	0501                	.insn	2, 0x0501
     a18:	00000903          	lb	s2,0(zero) # 0 <__stack_size-0x2000000>
     a1c:	7f06                	.insn	2, 0x7f06
     a1e:	0505                	.insn	2, 0x0505
     a20:	0409                	.insn	2, 0x0409
     a22:	1800                	.insn	2, 0x1800
     a24:	0505                	.insn	2, 0x0505
     a26:	1809                	.insn	2, 0x1809
     a28:	1900                	.insn	2, 0x1900
     a2a:	0305                	.insn	2, 0x0305
     a2c:	0009                	.insn	2, 0x0009
     a2e:	0600                	.insn	2, 0x0600
     a30:	0501                	.insn	2, 0x0501
     a32:	0908                	.insn	2, 0x0908
     a34:	0004                	.insn	2, 0x0004
     a36:	0306                	.insn	2, 0x0306
     a38:	7f92                	.insn	2, 0x7f92
     a3a:	0501                	.insn	2, 0x0501
     a3c:	0909                	.insn	2, 0x0909
     a3e:	0000                	.insn	2, 0x0000
     a40:	0518                	.insn	2, 0x0518
     a42:	00000903          	lb	s2,0(zero) # 0 <__stack_size-0x2000000>
     a46:	0106                	.insn	2, 0x0106
     a48:	0605                	.insn	2, 0x0605
     a4a:	0809                	.insn	2, 0x0809
     a4c:	8500                	.insn	2, 0x8500
     a4e:	0505                	.insn	2, 0x0505
     a50:	1009                	.insn	2, 0x1009
     a52:	0600                	.insn	2, 0x0600
     a54:	017f9303          	lh	t1,23(t6) # 5017a0f <__stack_size+0x3017a0f>
     a58:	0505                	.insn	2, 0x0505
     a5a:	0009                	.insn	2, 0x0009
     a5c:	0600                	.insn	2, 0x0600
     a5e:	0501                	.insn	2, 0x0501
     a60:	090a                	.insn	2, 0x090a
     a62:	0004                	.insn	2, 0x0004
     a64:	1806                	.insn	2, 0x1806
     a66:	0305                	.insn	2, 0x0305
     a68:	0009                	.insn	2, 0x0009
     a6a:	0600                	.insn	2, 0x0600
     a6c:	0501                	.insn	2, 0x0501
     a6e:	00000903          	lb	s2,0(zero) # 0 <__stack_size-0x2000000>
     a72:	8306                	.insn	2, 0x8306
     a74:	0505                	.insn	2, 0x0505
     a76:	0409                	.insn	2, 0x0409
     a78:	1800                	.insn	2, 0x1800
     a7a:	0505                	.insn	2, 0x0505
     a7c:	1809                	.insn	2, 0x1809
     a7e:	1900                	.insn	2, 0x1900
     a80:	0305                	.insn	2, 0x0305
     a82:	0009                	.insn	2, 0x0009
     a84:	0600                	.insn	2, 0x0600
     a86:	0501                	.insn	2, 0x0501
     a88:	0908                	.insn	2, 0x0908
     a8a:	0004                	.insn	2, 0x0004
     a8c:	0306                	.insn	2, 0x0306
     a8e:	7f8e                	.insn	2, 0x7f8e
     a90:	0501                	.insn	2, 0x0501
     a92:	0909                	.insn	2, 0x0909
     a94:	0000                	.insn	2, 0x0000
     a96:	0518                	.insn	2, 0x0518
     a98:	00000903          	lb	s2,0(zero) # 0 <__stack_size-0x2000000>
     a9c:	0106                	.insn	2, 0x0106
     a9e:	0605                	.insn	2, 0x0605
     aa0:	0809                	.insn	2, 0x0809
     aa2:	8900                	.insn	2, 0x8900
     aa4:	0505                	.insn	2, 0x0505
     aa6:	1009                	.insn	2, 0x1009
     aa8:	0600                	.insn	2, 0x0600
     aaa:	017f8f03          	lb	t5,23(t6)
     aae:	0505                	.insn	2, 0x0505
     ab0:	0009                	.insn	2, 0x0009
     ab2:	0600                	.insn	2, 0x0600
     ab4:	0501                	.insn	2, 0x0501
     ab6:	090a                	.insn	2, 0x090a
     ab8:	0004                	.insn	2, 0x0004
     aba:	1806                	.insn	2, 0x1806
     abc:	0305                	.insn	2, 0x0305
     abe:	0009                	.insn	2, 0x0009
     ac0:	0600                	.insn	2, 0x0600
     ac2:	0501                	.insn	2, 0x0501
     ac4:	00000903          	lb	s2,0(zero) # 0 <__stack_size-0x2000000>
     ac8:	8706                	.insn	2, 0x8706
     aca:	0505                	.insn	2, 0x0505
     acc:	0409                	.insn	2, 0x0409
     ace:	1800                	.insn	2, 0x1800
     ad0:	0505                	.insn	2, 0x0505
     ad2:	1809                	.insn	2, 0x1809
     ad4:	1900                	.insn	2, 0x1900
     ad6:	0305                	.insn	2, 0x0305
     ad8:	0009                	.insn	2, 0x0009
     ada:	0600                	.insn	2, 0x0600
     adc:	0501                	.insn	2, 0x0501
     ade:	0908                	.insn	2, 0x0908
     ae0:	0004                	.insn	2, 0x0004
     ae2:	0306                	.insn	2, 0x0306
     ae4:	7f8a                	.insn	2, 0x7f8a
     ae6:	0501                	.insn	2, 0x0501
     ae8:	0909                	.insn	2, 0x0909
     aea:	0000                	.insn	2, 0x0000
     aec:	0518                	.insn	2, 0x0518
     aee:	00000903          	lb	s2,0(zero) # 0 <__stack_size-0x2000000>
     af2:	0106                	.insn	2, 0x0106
     af4:	0605                	.insn	2, 0x0605
     af6:	0809                	.insn	2, 0x0809
     af8:	8d00                	.insn	2, 0x8d00
     afa:	0505                	.insn	2, 0x0505
     afc:	1009                	.insn	2, 0x1009
     afe:	0600                	.insn	2, 0x0600
     b00:	017f8b03          	lb	s6,23(t6)
     b04:	0505                	.insn	2, 0x0505
     b06:	0009                	.insn	2, 0x0009
     b08:	0600                	.insn	2, 0x0600
     b0a:	0501                	.insn	2, 0x0501
     b0c:	090a                	.insn	2, 0x090a
     b0e:	0004                	.insn	2, 0x0004
     b10:	1806                	.insn	2, 0x1806
     b12:	0305                	.insn	2, 0x0305
     b14:	0009                	.insn	2, 0x0009
     b16:	0600                	.insn	2, 0x0600
     b18:	0501                	.insn	2, 0x0501
     b1a:	00000903          	lb	s2,0(zero) # 0 <__stack_size-0x2000000>
     b1e:	8b06                	.insn	2, 0x8b06
     b20:	0505                	.insn	2, 0x0505
     b22:	0409                	.insn	2, 0x0409
     b24:	1800                	.insn	2, 0x1800
     b26:	0505                	.insn	2, 0x0505
     b28:	1809                	.insn	2, 0x1809
     b2a:	1900                	.insn	2, 0x1900
     b2c:	0305                	.insn	2, 0x0305
     b2e:	0009                	.insn	2, 0x0009
     b30:	0600                	.insn	2, 0x0600
     b32:	0501                	.insn	2, 0x0501
     b34:	0918                	.insn	2, 0x0918
     b36:	0004                	.insn	2, 0x0004
     b38:	0306                	.insn	2, 0x0306
     b3a:	7f86                	.insn	2, 0x7f86
     b3c:	0501                	.insn	2, 0x0501
     b3e:	0909                	.insn	2, 0x0909
     b40:	0000                	.insn	2, 0x0000
     b42:	0518                	.insn	2, 0x0518
     b44:	00000903          	lb	s2,0(zero) # 0 <__stack_size-0x2000000>
     b48:	0106                	.insn	2, 0x0106
     b4a:	0605                	.insn	2, 0x0605
     b4c:	0809                	.insn	2, 0x0809
     b4e:	9100                	.insn	2, 0x9100
     b50:	0505                	.insn	2, 0x0505
     b52:	1009                	.insn	2, 0x1009
     b54:	0600                	.insn	2, 0x0600
     b56:	017f8703          	lb	a4,23(t6)
     b5a:	0505                	.insn	2, 0x0505
     b5c:	0009                	.insn	2, 0x0009
     b5e:	0600                	.insn	2, 0x0600
     b60:	0501                	.insn	2, 0x0501
     b62:	090a                	.insn	2, 0x090a
     b64:	0004                	.insn	2, 0x0004
     b66:	1806                	.insn	2, 0x1806
     b68:	0305                	.insn	2, 0x0305
     b6a:	0009                	.insn	2, 0x0009
     b6c:	0600                	.insn	2, 0x0600
     b6e:	0501                	.insn	2, 0x0501
     b70:	00000903          	lb	s2,0(zero) # 0 <__stack_size-0x2000000>
     b74:	8f06                	.insn	2, 0x8f06
     b76:	0505                	.insn	2, 0x0505
     b78:	0409                	.insn	2, 0x0409
     b7a:	1800                	.insn	2, 0x1800
     b7c:	0505                	.insn	2, 0x0505
     b7e:	1809                	.insn	2, 0x1809
     b80:	1900                	.insn	2, 0x1900
     b82:	0305                	.insn	2, 0x0305
     b84:	0009                	.insn	2, 0x0009
     b86:	0600                	.insn	2, 0x0600
     b88:	0501                	.insn	2, 0x0501
     b8a:	0004091b          	.insn	4, 0x0004091b
     b8e:	0306                	.insn	2, 0x0306
     b90:	7f82                	.insn	2, 0x7f82
     b92:	0501                	.insn	2, 0x0501
     b94:	0909                	.insn	2, 0x0909
     b96:	0000                	.insn	2, 0x0000
     b98:	0518                	.insn	2, 0x0518
     b9a:	00000903          	lb	s2,0(zero) # 0 <__stack_size-0x2000000>
     b9e:	0106                	.insn	2, 0x0106
     ba0:	0605                	.insn	2, 0x0605
     ba2:	0c09                	.insn	2, 0x0c09
     ba4:	9500                	.insn	2, 0x9500
     ba6:	0505                	.insn	2, 0x0505
     ba8:	1009                	.insn	2, 0x1009
     baa:	0600                	.insn	2, 0x0600
     bac:	017f8303          	lb	t1,23(t6)
     bb0:	0505                	.insn	2, 0x0505
     bb2:	0009                	.insn	2, 0x0009
     bb4:	0600                	.insn	2, 0x0600
     bb6:	0501                	.insn	2, 0x0501
     bb8:	090a                	.insn	2, 0x090a
     bba:	0004                	.insn	2, 0x0004
     bbc:	1806                	.insn	2, 0x1806
     bbe:	0305                	.insn	2, 0x0305
     bc0:	0009                	.insn	2, 0x0009
     bc2:	0600                	.insn	2, 0x0600
     bc4:	0501                	.insn	2, 0x0501
     bc6:	00000903          	lb	s2,0(zero) # 0 <__stack_size-0x2000000>
     bca:	9306                	.insn	2, 0x9306
     bcc:	0505                	.insn	2, 0x0505
     bce:	0409                	.insn	2, 0x0409
     bd0:	1800                	.insn	2, 0x1800
     bd2:	0505                	.insn	2, 0x0505
     bd4:	1409                	.insn	2, 0x1409
     bd6:	1a00                	.insn	2, 0x1a00
     bd8:	0305                	.insn	2, 0x0305
     bda:	0009                	.insn	2, 0x0009
     bdc:	0600                	.insn	2, 0x0600
     bde:	0501                	.insn	2, 0x0501
     be0:	0008091b          	.insn	4, 0x0008091b
     be4:	0306                	.insn	2, 0x0306
     be6:	7efd                	.insn	2, 0x7efd
     be8:	0501                	.insn	2, 0x0501
     bea:	0909                	.insn	2, 0x0909
     bec:	0000                	.insn	2, 0x0000
     bee:	0518                	.insn	2, 0x0518
     bf0:	00000903          	lb	s2,0(zero) # 0 <__stack_size-0x2000000>
     bf4:	0106                	.insn	2, 0x0106
     bf6:	0605                	.insn	2, 0x0605
     bf8:	0409                	.insn	2, 0x0409
     bfa:	9a00                	.insn	2, 0x9a00
     bfc:	0505                	.insn	2, 0x0505
     bfe:	1009                	.insn	2, 0x1009
     c00:	0600                	.insn	2, 0x0600
     c02:	017efe03          	.insn	4, 0x017efe03
     c06:	0505                	.insn	2, 0x0505
     c08:	0009                	.insn	2, 0x0009
     c0a:	0600                	.insn	2, 0x0600
     c0c:	0501                	.insn	2, 0x0501
     c0e:	090a                	.insn	2, 0x090a
     c10:	0004                	.insn	2, 0x0004
     c12:	1806                	.insn	2, 0x1806
     c14:	0305                	.insn	2, 0x0305
     c16:	0009                	.insn	2, 0x0009
     c18:	0600                	.insn	2, 0x0600
     c1a:	0501                	.insn	2, 0x0501
     c1c:	00000903          	lb	s2,0(zero) # 0 <__stack_size-0x2000000>
     c20:	9806                	.insn	2, 0x9806
     c22:	0505                	.insn	2, 0x0505
     c24:	0409                	.insn	2, 0x0409
     c26:	1800                	.insn	2, 0x1800
     c28:	0505                	.insn	2, 0x0505
     c2a:	1809                	.insn	2, 0x1809
     c2c:	1900                	.insn	2, 0x1900
     c2e:	0305                	.insn	2, 0x0305
     c30:	0009                	.insn	2, 0x0009
     c32:	0600                	.insn	2, 0x0600
     c34:	0501                	.insn	2, 0x0501
     c36:	0925                	.insn	2, 0x0925
     c38:	0004                	.insn	2, 0x0004
     c3a:	017efa03          	.insn	4, 0x017efa03
     c3e:	0605                	.insn	2, 0x0605
     c40:	0409                	.insn	2, 0x0409
     c42:	9d00                	.insn	2, 0x9d00
     c44:	2505                	.insn	2, 0x2505
     c46:	0409                	.insn	2, 0x0409
     c48:	0600                	.insn	2, 0x0600
     c4a:	017ef903          	.insn	4, 0x017ef903
     c4e:	0905                	.insn	2, 0x0905
     c50:	0009                	.insn	2, 0x0009
     c52:	1800                	.insn	2, 0x1800
     c54:	0305                	.insn	2, 0x0305
     c56:	0009                	.insn	2, 0x0009
     c58:	0600                	.insn	2, 0x0600
     c5a:	0501                	.insn	2, 0x0501
     c5c:	0906                	.insn	2, 0x0906
     c5e:	0004                	.insn	2, 0x0004
     c60:	059e                	.insn	2, 0x059e
     c62:	0905                	.insn	2, 0x0905
     c64:	0010                	.insn	2, 0x0010
     c66:	0306                	.insn	2, 0x0306
     c68:	7efa                	.insn	2, 0x7efa
     c6a:	0501                	.insn	2, 0x0501
     c6c:	0905                	.insn	2, 0x0905
     c6e:	0000                	.insn	2, 0x0000
     c70:	0106                	.insn	2, 0x0106
     c72:	0a05                	.insn	2, 0x0a05
     c74:	0409                	.insn	2, 0x0409
     c76:	0600                	.insn	2, 0x0600
     c78:	0518                	.insn	2, 0x0518
     c7a:	00000903          	lb	s2,0(zero) # 0 <__stack_size-0x2000000>
     c7e:	0106                	.insn	2, 0x0106
     c80:	0305                	.insn	2, 0x0305
     c82:	0009                	.insn	2, 0x0009
     c84:	0600                	.insn	2, 0x0600
     c86:	059c                	.insn	2, 0x059c
     c88:	0905                	.insn	2, 0x0905
     c8a:	0004                	.insn	2, 0x0004
     c8c:	0519                	.insn	2, 0x0519
     c8e:	0905                	.insn	2, 0x0905
     c90:	0018                	.insn	2, 0x0018
     c92:	0519                	.insn	2, 0x0519
     c94:	00000903          	lb	s2,0(zero) # 0 <__stack_size-0x2000000>
     c98:	0106                	.insn	2, 0x0106
     c9a:	2505                	.insn	2, 0x2505
     c9c:	0409                	.insn	2, 0x0409
     c9e:	0300                	.insn	2, 0x0300
     ca0:	7ef5                	.insn	2, 0x7ef5
     ca2:	0501                	.insn	2, 0x0501
     ca4:	0906                	.insn	2, 0x0906
     ca6:	0004                	.insn	2, 0x0004
     ca8:	05a2                	.insn	2, 0x05a2
     caa:	0925                	.insn	2, 0x0925
     cac:	0004                	.insn	2, 0x0004
     cae:	0306                	.insn	2, 0x0306
     cb0:	7ef4                	.insn	2, 0x7ef4
     cb2:	0501                	.insn	2, 0x0501
     cb4:	0909                	.insn	2, 0x0909
     cb6:	0000                	.insn	2, 0x0000
     cb8:	0518                	.insn	2, 0x0518
     cba:	00000903          	lb	s2,0(zero) # 0 <__stack_size-0x2000000>
     cbe:	0106                	.insn	2, 0x0106
     cc0:	0605                	.insn	2, 0x0605
     cc2:	0409                	.insn	2, 0x0409
     cc4:	a300                	.insn	2, 0xa300
     cc6:	0505                	.insn	2, 0x0505
     cc8:	1009                	.insn	2, 0x1009
     cca:	0600                	.insn	2, 0x0600
     ccc:	017ef503          	.insn	4, 0x017ef503
     cd0:	0505                	.insn	2, 0x0505
     cd2:	0009                	.insn	2, 0x0009
     cd4:	0600                	.insn	2, 0x0600
     cd6:	0501                	.insn	2, 0x0501
     cd8:	090a                	.insn	2, 0x090a
     cda:	0004                	.insn	2, 0x0004
     cdc:	1806                	.insn	2, 0x1806
     cde:	0305                	.insn	2, 0x0305
     ce0:	0009                	.insn	2, 0x0009
     ce2:	0600                	.insn	2, 0x0600
     ce4:	0501                	.insn	2, 0x0501
     ce6:	00000903          	lb	s2,0(zero) # 0 <__stack_size-0x2000000>
     cea:	a106                	.insn	2, 0xa106
     cec:	0505                	.insn	2, 0x0505
     cee:	0409                	.insn	2, 0x0409
     cf0:	1900                	.insn	2, 0x1900
     cf2:	0505                	.insn	2, 0x0505
     cf4:	1809                	.insn	2, 0x1809
     cf6:	1900                	.insn	2, 0x1900
     cf8:	0305                	.insn	2, 0x0305
     cfa:	0009                	.insn	2, 0x0009
     cfc:	0600                	.insn	2, 0x0600
     cfe:	0501                	.insn	2, 0x0501
     d00:	092c                	.insn	2, 0x092c
     d02:	0008                	.insn	2, 0x0008
     d04:	0501                	.insn	2, 0x0501
     d06:	090e                	.insn	2, 0x090e
     d08:	0004                	.insn	2, 0x0004
     d0a:	0501                	.insn	2, 0x0501
     d0c:	092c                	.insn	2, 0x092c
     d0e:	0004                	.insn	2, 0x0004
     d10:	0501                	.insn	2, 0x0501
     d12:	090e                	.insn	2, 0x090e
     d14:	0010                	.insn	2, 0x0010
     d16:	0306                	.insn	2, 0x0306
     d18:	05017eef          	jal	t4,17d68 <__stack_size-0x1fe8298>
     d1c:	0909                	.insn	2, 0x0909
     d1e:	0000                	.insn	2, 0x0000
     d20:	0518                	.insn	2, 0x0518
     d22:	00000903          	lb	s2,0(zero) # 0 <__stack_size-0x2000000>
     d26:	0106                	.insn	2, 0x0106
     d28:	0605                	.insn	2, 0x0605
     d2a:	0c09                	.insn	2, 0x0c09
     d2c:	0600                	.insn	2, 0x0600
     d2e:	0518                	.insn	2, 0x0518
     d30:	0905                	.insn	2, 0x0905
     d32:	0000                	.insn	2, 0x0000
     d34:	a806                	.insn	2, 0xa806
     d36:	0505                	.insn	2, 0x0505
     d38:	0409                	.insn	2, 0x0409
     d3a:	0100                	.insn	2, 0x0100
     d3c:	0505                	.insn	2, 0x0505
     d3e:	0809                	.insn	2, 0x0809
     d40:	0300                	.insn	2, 0x0300
     d42:	05017eef          	jal	t4,17d92 <__stack_size-0x1fe826e>
     d46:	090a                	.insn	2, 0x090a
     d48:	0004                	.insn	2, 0x0004
     d4a:	1806                	.insn	2, 0x1806
     d4c:	0305                	.insn	2, 0x0305
     d4e:	0009                	.insn	2, 0x0009
     d50:	0600                	.insn	2, 0x0600
     d52:	0501                	.insn	2, 0x0501
     d54:	00000903          	lb	s2,0(zero) # 0 <__stack_size-0x2000000>
     d58:	a706                	.insn	2, 0xa706
     d5a:	0505                	.insn	2, 0x0505
     d5c:	0409                	.insn	2, 0x0409
     d5e:	1900                	.insn	2, 0x1900
     d60:	0505                	.insn	2, 0x0505
     d62:	1409                	.insn	2, 0x1409
     d64:	1a00                	.insn	2, 0x1a00
     d66:	0305                	.insn	2, 0x0305
     d68:	0009                	.insn	2, 0x0009
     d6a:	0600                	.insn	2, 0x0600
     d6c:	0501                	.insn	2, 0x0501
     d6e:	0920                	.insn	2, 0x0920
     d70:	000c                	.insn	2, 0x000c
     d72:	0306                	.insn	2, 0x0306
     d74:	7ee8                	.insn	2, 0x7ee8
     d76:	0501                	.insn	2, 0x0501
     d78:	0909                	.insn	2, 0x0909
     d7a:	0000                	.insn	2, 0x0000
     d7c:	0518                	.insn	2, 0x0518
     d7e:	00000903          	lb	s2,0(zero) # 0 <__stack_size-0x2000000>
     d82:	0106                	.insn	2, 0x0106
     d84:	0605                	.insn	2, 0x0605
     d86:	0409                	.insn	2, 0x0409
     d88:	af00                	.insn	2, 0xaf00
     d8a:	0505                	.insn	2, 0x0505
     d8c:	1009                	.insn	2, 0x1009
     d8e:	0600                	.insn	2, 0x0600
     d90:	017ee903          	.insn	4, 0x017ee903
     d94:	0505                	.insn	2, 0x0505
     d96:	0009                	.insn	2, 0x0009
     d98:	0600                	.insn	2, 0x0600
     d9a:	0501                	.insn	2, 0x0501
     d9c:	090a                	.insn	2, 0x090a
     d9e:	0004                	.insn	2, 0x0004
     da0:	1806                	.insn	2, 0x1806
     da2:	0305                	.insn	2, 0x0305
     da4:	0009                	.insn	2, 0x0009
     da6:	0600                	.insn	2, 0x0600
     da8:	0501                	.insn	2, 0x0501
     daa:	00000903          	lb	s2,0(zero) # 0 <__stack_size-0x2000000>
     dae:	ad06                	.insn	2, 0xad06
     db0:	0505                	.insn	2, 0x0505
     db2:	0409                	.insn	2, 0x0409
     db4:	1800                	.insn	2, 0x1800
     db6:	0505                	.insn	2, 0x0505
     db8:	1809                	.insn	2, 0x1809
     dba:	1900                	.insn	2, 0x1900
     dbc:	0305                	.insn	2, 0x0305
     dbe:	0009                	.insn	2, 0x0009
     dc0:	0600                	.insn	2, 0x0600
     dc2:	0501                	.insn	2, 0x0501
     dc4:	092a                	.insn	2, 0x092a
     dc6:	0008                	.insn	2, 0x0008
     dc8:	017ee503          	.insn	4, 0x017ee503
     dcc:	0605                	.insn	2, 0x0605
     dce:	0409                	.insn	2, 0x0409
     dd0:	b200                	.insn	2, 0xb200
     dd2:	2a05                	.insn	2, 0x2a05
     dd4:	0409                	.insn	2, 0x0409
     dd6:	0600                	.insn	2, 0x0600
     dd8:	017ee403          	.insn	4, 0x017ee403
     ddc:	0905                	.insn	2, 0x0905
     dde:	0009                	.insn	2, 0x0009
     de0:	1800                	.insn	2, 0x1800
     de2:	0305                	.insn	2, 0x0305
     de4:	0009                	.insn	2, 0x0009
     de6:	0600                	.insn	2, 0x0600
     de8:	0501                	.insn	2, 0x0501
     dea:	0906                	.insn	2, 0x0906
     dec:	0004                	.insn	2, 0x0004
     dee:	090505b3          	.insn	4, 0x090505b3
     df2:	0010                	.insn	2, 0x0010
     df4:	0306                	.insn	2, 0x0306
     df6:	7ee5                	.insn	2, 0x7ee5
     df8:	0501                	.insn	2, 0x0501
     dfa:	0905                	.insn	2, 0x0905
     dfc:	0000                	.insn	2, 0x0000
     dfe:	0106                	.insn	2, 0x0106
     e00:	0a05                	.insn	2, 0x0a05
     e02:	0409                	.insn	2, 0x0409
     e04:	0600                	.insn	2, 0x0600
     e06:	0518                	.insn	2, 0x0518
     e08:	00000903          	lb	s2,0(zero) # 0 <__stack_size-0x2000000>
     e0c:	0106                	.insn	2, 0x0106
     e0e:	0305                	.insn	2, 0x0305
     e10:	0009                	.insn	2, 0x0009
     e12:	0600                	.insn	2, 0x0600
     e14:	05b1                	.insn	2, 0x05b1
     e16:	0905                	.insn	2, 0x0905
     e18:	0004                	.insn	2, 0x0004
     e1a:	0519                	.insn	2, 0x0519
     e1c:	0905                	.insn	2, 0x0905
     e1e:	0018                	.insn	2, 0x0018
     e20:	0519                	.insn	2, 0x0519
     e22:	00000903          	lb	s2,0(zero) # 0 <__stack_size-0x2000000>
     e26:	0106                	.insn	2, 0x0106
     e28:	2a05                	.insn	2, 0x2a05
     e2a:	0809                	.insn	2, 0x0809
     e2c:	0300                	.insn	2, 0x0300
     e2e:	7ee0                	.insn	2, 0x7ee0
     e30:	0501                	.insn	2, 0x0501
     e32:	0906                	.insn	2, 0x0906
     e34:	0004                	.insn	2, 0x0004
     e36:	092a05b7          	lui	a1,0x92a0
     e3a:	0004                	.insn	2, 0x0004
     e3c:	0306                	.insn	2, 0x0306
     e3e:	7edf 0501 0909      	.insn	6, 0x090905017edf
     e44:	0000                	.insn	2, 0x0000
     e46:	0518                	.insn	2, 0x0518
     e48:	00000903          	lb	s2,0(zero) # 0 <__stack_size-0x2000000>
     e4c:	0106                	.insn	2, 0x0106
     e4e:	0605                	.insn	2, 0x0605
     e50:	0409                	.insn	2, 0x0409
     e52:	b800                	.insn	2, 0xb800
     e54:	0505                	.insn	2, 0x0505
     e56:	1009                	.insn	2, 0x1009
     e58:	0600                	.insn	2, 0x0600
     e5a:	017ee003          	.insn	4, 0x017ee003
     e5e:	0505                	.insn	2, 0x0505
     e60:	0009                	.insn	2, 0x0009
     e62:	0600                	.insn	2, 0x0600
     e64:	0501                	.insn	2, 0x0501
     e66:	090a                	.insn	2, 0x090a
     e68:	0004                	.insn	2, 0x0004
     e6a:	1806                	.insn	2, 0x1806
     e6c:	0305                	.insn	2, 0x0305
     e6e:	0009                	.insn	2, 0x0009
     e70:	0600                	.insn	2, 0x0600
     e72:	0501                	.insn	2, 0x0501
     e74:	00000903          	lb	s2,0(zero) # 0 <__stack_size-0x2000000>
     e78:	b606                	.insn	2, 0xb606
     e7a:	0505                	.insn	2, 0x0505
     e7c:	0409                	.insn	2, 0x0409
     e7e:	1900                	.insn	2, 0x1900
     e80:	0505                	.insn	2, 0x0505
     e82:	1809                	.insn	2, 0x1809
     e84:	1900                	.insn	2, 0x1900
     e86:	0305                	.insn	2, 0x0305
     e88:	0409                	.insn	2, 0x0409
     e8a:	0600                	.insn	2, 0x0600
     e8c:	0501                	.insn	2, 0x0501
     e8e:	0931                	.insn	2, 0x0931
     e90:	0008                	.insn	2, 0x0008
     e92:	0501                	.insn	2, 0x0501
     e94:	090e                	.insn	2, 0x090e
     e96:	0008                	.insn	2, 0x0008
     e98:	0501                	.insn	2, 0x0501
     e9a:	0931                	.insn	2, 0x0931
     e9c:	0004                	.insn	2, 0x0004
     e9e:	0501                	.insn	2, 0x0501
     ea0:	090e                	.insn	2, 0x090e
     ea2:	000c                	.insn	2, 0x000c
     ea4:	0306                	.insn	2, 0x0306
     ea6:	7eda                	.insn	2, 0x7eda
     ea8:	0501                	.insn	2, 0x0501
     eaa:	0909                	.insn	2, 0x0909
     eac:	0000                	.insn	2, 0x0000
     eae:	0518                	.insn	2, 0x0518
     eb0:	00000903          	lb	s2,0(zero) # 0 <__stack_size-0x2000000>
     eb4:	0106                	.insn	2, 0x0106
     eb6:	0605                	.insn	2, 0x0605
     eb8:	0c09                	.insn	2, 0x0c09
     eba:	0600                	.insn	2, 0x0600
     ebc:	0518                	.insn	2, 0x0518
     ebe:	0905                	.insn	2, 0x0905
     ec0:	0000                	.insn	2, 0x0000
     ec2:	bd06                	.insn	2, 0xbd06
     ec4:	0505                	.insn	2, 0x0505
     ec6:	0409                	.insn	2, 0x0409
     ec8:	0100                	.insn	2, 0x0100
     eca:	0505                	.insn	2, 0x0505
     ecc:	0809                	.insn	2, 0x0809
     ece:	0300                	.insn	2, 0x0300
     ed0:	7eda                	.insn	2, 0x7eda
     ed2:	0501                	.insn	2, 0x0501
     ed4:	090a                	.insn	2, 0x090a
     ed6:	0004                	.insn	2, 0x0004
     ed8:	1806                	.insn	2, 0x1806
     eda:	0305                	.insn	2, 0x0305
     edc:	0009                	.insn	2, 0x0009
     ede:	0600                	.insn	2, 0x0600
     ee0:	0501                	.insn	2, 0x0501
     ee2:	00000903          	lb	s2,0(zero) # 0 <__stack_size-0x2000000>
     ee6:	bc06                	.insn	2, 0xbc06
     ee8:	0505                	.insn	2, 0x0505
     eea:	0409                	.insn	2, 0x0409
     eec:	1900                	.insn	2, 0x1900
     eee:	0505                	.insn	2, 0x0505
     ef0:	1409                	.insn	2, 0x1409
     ef2:	1a00                	.insn	2, 0x1a00
     ef4:	0305                	.insn	2, 0x0305
     ef6:	0009                	.insn	2, 0x0009
     ef8:	0300                	.insn	2, 0x0300
     efa:	05017ed3          	.insn	4, 0x05017ed3
     efe:	0909                	.insn	2, 0x0909
     f00:	0000                	.insn	2, 0x0000
     f02:	0518                	.insn	2, 0x0518
     f04:	00000903          	lb	s2,0(zero) # 0 <__stack_size-0x2000000>
     f08:	0106                	.insn	2, 0x0106
     f0a:	0605                	.insn	2, 0x0605
     f0c:	0809                	.insn	2, 0x0809
     f0e:	c400                	.insn	2, 0xc400
     f10:	0505                	.insn	2, 0x0505
     f12:	1009                	.insn	2, 0x1009
     f14:	0600                	.insn	2, 0x0600
     f16:	017ed403          	lhu	s0,23(t4)
     f1a:	0505                	.insn	2, 0x0505
     f1c:	0009                	.insn	2, 0x0009
     f1e:	0600                	.insn	2, 0x0600
     f20:	0501                	.insn	2, 0x0501
     f22:	090a                	.insn	2, 0x090a
     f24:	0004                	.insn	2, 0x0004
     f26:	1806                	.insn	2, 0x1806
     f28:	0305                	.insn	2, 0x0305
     f2a:	0009                	.insn	2, 0x0009
     f2c:	0600                	.insn	2, 0x0600
     f2e:	0501                	.insn	2, 0x0501
     f30:	00000903          	lb	s2,0(zero) # 0 <__stack_size-0x2000000>
     f34:	c206                	.insn	2, 0xc206
     f36:	0505                	.insn	2, 0x0505
     f38:	0409                	.insn	2, 0x0409
     f3a:	1800                	.insn	2, 0x1800
     f3c:	0505                	.insn	2, 0x0505
     f3e:	1409                	.insn	2, 0x1409
     f40:	1900                	.insn	2, 0x1900
     f42:	0305                	.insn	2, 0x0305
     f44:	0009                	.insn	2, 0x0009
     f46:	0300                	.insn	2, 0x0300
     f48:	05017ecf          	.insn	4, 0x05017ecf
     f4c:	0909                	.insn	2, 0x0909
     f4e:	0000                	.insn	2, 0x0000
     f50:	0518                	.insn	2, 0x0518
     f52:	00000903          	lb	s2,0(zero) # 0 <__stack_size-0x2000000>
     f56:	0106                	.insn	2, 0x0106
     f58:	0605                	.insn	2, 0x0605
     f5a:	0809                	.insn	2, 0x0809
     f5c:	0600                	.insn	2, 0x0600
     f5e:	0518                	.insn	2, 0x0518
     f60:	0905                	.insn	2, 0x0905
     f62:	0000                	.insn	2, 0x0000
     f64:	c706                	.insn	2, 0xc706
     f66:	0505                	.insn	2, 0x0505
     f68:	0c09                	.insn	2, 0x0c09
     f6a:	0300                	.insn	2, 0x0300
     f6c:	7ed0                	.insn	2, 0x7ed0
     f6e:	0501                	.insn	2, 0x0501
     f70:	090a                	.insn	2, 0x090a
     f72:	0004                	.insn	2, 0x0004
     f74:	1806                	.insn	2, 0x1806
     f76:	0305                	.insn	2, 0x0305
     f78:	0009                	.insn	2, 0x0009
     f7a:	0600                	.insn	2, 0x0600
     f7c:	0501                	.insn	2, 0x0501
     f7e:	00000903          	lb	s2,0(zero) # 0 <__stack_size-0x2000000>
     f82:	c606                	.insn	2, 0xc606
     f84:	0505                	.insn	2, 0x0505
     f86:	0409                	.insn	2, 0x0409
     f88:	1800                	.insn	2, 0x1800
     f8a:	0505                	.insn	2, 0x0505
     f8c:	1009                	.insn	2, 0x1009
     f8e:	1900                	.insn	2, 0x1900
     f90:	0305                	.insn	2, 0x0305
     f92:	0009                	.insn	2, 0x0009
     f94:	1b00                	.insn	2, 0x1b00
     f96:	0305                	.insn	2, 0x0305
     f98:	0009                	.insn	2, 0x0009
     f9a:	0300                	.insn	2, 0x0300
     f9c:	05017ec7          	.insn	4, 0x05017ec7
     fa0:	0909                	.insn	2, 0x0909
     fa2:	0000                	.insn	2, 0x0000
     fa4:	0518                	.insn	2, 0x0518
     fa6:	00000903          	lb	s2,0(zero) # 0 <__stack_size-0x2000000>
     faa:	0106                	.insn	2, 0x0106
     fac:	0605                	.insn	2, 0x0605
     fae:	0409                	.insn	2, 0x0409
     fb0:	0600                	.insn	2, 0x0600
     fb2:	0518                	.insn	2, 0x0518
     fb4:	0905                	.insn	2, 0x0905
     fb6:	0000                	.insn	2, 0x0000
     fb8:	cf06                	.insn	2, 0xcf06
     fba:	0505                	.insn	2, 0x0505
     fbc:	0c09                	.insn	2, 0x0c09
     fbe:	0300                	.insn	2, 0x0300
     fc0:	7ec8                	.insn	2, 0x7ec8
     fc2:	0501                	.insn	2, 0x0501
     fc4:	090a                	.insn	2, 0x090a
     fc6:	0004                	.insn	2, 0x0004
     fc8:	1806                	.insn	2, 0x1806
     fca:	0305                	.insn	2, 0x0305
     fcc:	0009                	.insn	2, 0x0009
     fce:	0600                	.insn	2, 0x0600
     fd0:	0501                	.insn	2, 0x0501
     fd2:	00000903          	lb	s2,0(zero) # 0 <__stack_size-0x2000000>
     fd6:	ce06                	.insn	2, 0xce06
     fd8:	0505                	.insn	2, 0x0505
     fda:	0409                	.insn	2, 0x0409
     fdc:	1800                	.insn	2, 0x1800
     fde:	0505                	.insn	2, 0x0505
     fe0:	1009                	.insn	2, 0x1009
     fe2:	1a00                	.insn	2, 0x1a00
     fe4:	0305                	.insn	2, 0x0305
     fe6:	0009                	.insn	2, 0x0009
     fe8:	0600                	.insn	2, 0x0600
     fea:	0501                	.insn	2, 0x0501
     fec:	090e                	.insn	2, 0x090e
     fee:	0010                	.insn	2, 0x0010
     ff0:	0306                	.insn	2, 0x0306
     ff2:	7ec2                	.insn	2, 0x7ec2
     ff4:	0501                	.insn	2, 0x0501
     ff6:	0909                	.insn	2, 0x0909
     ff8:	0000                	.insn	2, 0x0000
     ffa:	0518                	.insn	2, 0x0518
     ffc:	00000903          	lb	s2,0(zero) # 0 <__stack_size-0x2000000>
    1000:	0106                	.insn	2, 0x0106
    1002:	0605                	.insn	2, 0x0605
    1004:	0409                	.insn	2, 0x0409
    1006:	0600                	.insn	2, 0x0600
    1008:	0518                	.insn	2, 0x0518
    100a:	0905                	.insn	2, 0x0905
    100c:	0000                	.insn	2, 0x0000
    100e:	d406                	.insn	2, 0xd406
    1010:	0505                	.insn	2, 0x0505
    1012:	0409                	.insn	2, 0x0409
    1014:	0100                	.insn	2, 0x0100
    1016:	0505                	.insn	2, 0x0505
    1018:	0809                	.insn	2, 0x0809
    101a:	0300                	.insn	2, 0x0300
    101c:	05017ec3          	.insn	4, 0x05017ec3
    1020:	090a                	.insn	2, 0x090a
    1022:	0004                	.insn	2, 0x0004
    1024:	1806                	.insn	2, 0x1806
    1026:	0305                	.insn	2, 0x0305
    1028:	0009                	.insn	2, 0x0009
    102a:	0600                	.insn	2, 0x0600
    102c:	0501                	.insn	2, 0x0501
    102e:	00000903          	lb	s2,0(zero) # 0 <__stack_size-0x2000000>
    1032:	d306                	.insn	2, 0xd306
    1034:	0505                	.insn	2, 0x0505
    1036:	0409                	.insn	2, 0x0409
    1038:	1800                	.insn	2, 0x1800
    103a:	0505                	.insn	2, 0x0505
    103c:	0c09                	.insn	2, 0x0c09
    103e:	1900                	.insn	2, 0x1900
    1040:	0305                	.insn	2, 0x0305
    1042:	0009                	.insn	2, 0x0009
    1044:	0600                	.insn	2, 0x0600
    1046:	0501                	.insn	2, 0x0501
    1048:	090e                	.insn	2, 0x090e
    104a:	0010                	.insn	2, 0x0010
    104c:	0306                	.insn	2, 0x0306
    104e:	7ebe                	.insn	2, 0x7ebe
    1050:	0501                	.insn	2, 0x0501
    1052:	0909                	.insn	2, 0x0909
    1054:	0000                	.insn	2, 0x0000
    1056:	0518                	.insn	2, 0x0518
    1058:	00000903          	lb	s2,0(zero) # 0 <__stack_size-0x2000000>
    105c:	0106                	.insn	2, 0x0106
    105e:	0605                	.insn	2, 0x0605
    1060:	0409                	.insn	2, 0x0409
    1062:	0600                	.insn	2, 0x0600
    1064:	0518                	.insn	2, 0x0518
    1066:	0905                	.insn	2, 0x0905
    1068:	0000                	.insn	2, 0x0000
    106a:	d806                	.insn	2, 0xd806
    106c:	0505                	.insn	2, 0x0505
    106e:	0409                	.insn	2, 0x0409
    1070:	0100                	.insn	2, 0x0100
    1072:	0505                	.insn	2, 0x0505
    1074:	0809                	.insn	2, 0x0809
    1076:	0300                	.insn	2, 0x0300
    1078:	05017ebf 0004090a 	.insn	8, 0x0004090a05017ebf
    1080:	1806                	.insn	2, 0x1806
    1082:	0305                	.insn	2, 0x0305
    1084:	0009                	.insn	2, 0x0009
    1086:	0600                	.insn	2, 0x0600
    1088:	0501                	.insn	2, 0x0501
    108a:	00000903          	lb	s2,0(zero) # 0 <__stack_size-0x2000000>
    108e:	d706                	.insn	2, 0xd706
    1090:	0505                	.insn	2, 0x0505
    1092:	0409                	.insn	2, 0x0409
    1094:	1800                	.insn	2, 0x1800
    1096:	0505                	.insn	2, 0x0505
    1098:	0c09                	.insn	2, 0x0c09
    109a:	2000                	.insn	2, 0x2000
    109c:	0305                	.insn	2, 0x0305
    109e:	0009                	.insn	2, 0x0009
    10a0:	0600                	.insn	2, 0x0600
    10a2:	0501                	.insn	2, 0x0501
    10a4:	0914                	.insn	2, 0x0914
    10a6:	0004                	.insn	2, 0x0004
    10a8:	0518                	.insn	2, 0x0518
    10aa:	0901                	.insn	2, 0x0901
    10ac:	0040                	.insn	2, 0x0040
    10ae:	017cde03          	lhu	t3,23(s9)
    10b2:	1305                	.insn	2, 0x1305
    10b4:	0809                	.insn	2, 0x0809
    10b6:	0300                	.insn	2, 0x0300
    10b8:	0292                	.insn	2, 0x0292
    10ba:	0501                	.insn	2, 0x0501
    10bc:	0910                	.insn	2, 0x0910
    10be:	0004                	.insn	2, 0x0004
    10c0:	017dee03          	.insn	4, 0x017dee03
    10c4:	1305                	.insn	2, 0x1305
    10c6:	0809                	.insn	2, 0x0809
    10c8:	0100                	.insn	2, 0x0100
    10ca:	1305                	.insn	2, 0x1305
    10cc:	0009                	.insn	2, 0x0009
    10ce:	0300                	.insn	2, 0x0300
    10d0:	02aa                	.insn	2, 0x02aa
    10d2:	0501                	.insn	2, 0x0501
    10d4:	0914                	.insn	2, 0x0914
    10d6:	0004                	.insn	2, 0x0004
    10d8:	0516                	.insn	2, 0x0516
    10da:	0915                	.insn	2, 0x0915
    10dc:	0008                	.insn	2, 0x0008
    10de:	0501                	.insn	2, 0x0501
    10e0:	0015                	.insn	2, 0x0015
    10e2:	0205                	.insn	2, 0x0205
    10e4:	08e8                	.insn	2, 0x08e8
    10e6:	8000                	.insn	2, 0x8000
    10e8:	0100                	.insn	2, 0x0100
    10ea:	0001                	.insn	2, 0x0001
    10ec:	0205                	.insn	2, 0x0205
    10ee:	08e8                	.insn	2, 0x08e8
    10f0:	8000                	.insn	2, 0x8000
    10f2:	0103f203          	.insn	4, 0x0103f203
    10f6:	0105                	.insn	2, 0x0105
    10f8:	0009                	.insn	2, 0x0009
    10fa:	1800                	.insn	2, 0x1800
    10fc:	0305                	.insn	2, 0x0305
    10fe:	0009                	.insn	2, 0x0009
    1100:	1800                	.insn	2, 0x1800
    1102:	0305                	.insn	2, 0x0305
    1104:	0009                	.insn	2, 0x0009
    1106:	1900                	.insn	2, 0x1900
    1108:	0305                	.insn	2, 0x0305
    110a:	0009                	.insn	2, 0x0009
    110c:	0600                	.insn	2, 0x0600
    110e:	0519                	.insn	2, 0x0519
    1110:	00040913          	addi	s2,s0,0
    1114:	0501                	.insn	2, 0x0501
    1116:	0908                	.insn	2, 0x0908
    1118:	0008                	.insn	2, 0x0008
    111a:	1606                	.insn	2, 0x1606
    111c:	0305                	.insn	2, 0x0305
    111e:	0009                	.insn	2, 0x0009
    1120:	1800                	.insn	2, 0x1800
    1122:	0505                	.insn	2, 0x0505
    1124:	0009                	.insn	2, 0x0009
    1126:	0600                	.insn	2, 0x0600
    1128:	0501                	.insn	2, 0x0501
    112a:	0908                	.insn	2, 0x0908
    112c:	0004                	.insn	2, 0x0004
    112e:	051f 0901 0004      	.insn	6, 0x00040901051f
    1134:	1206                	.insn	2, 0x1206
    1136:	0705                	.insn	2, 0x0705
    1138:	0009                	.insn	2, 0x0009
    113a:	1800                	.insn	2, 0x1800
    113c:	0705                	.insn	2, 0x0705
    113e:	0009                	.insn	2, 0x0009
    1140:	0600                	.insn	2, 0x0600
    1142:	0516                	.insn	2, 0x0516
    1144:	0004090f          	.insn	4, 0x0004090f
    1148:	0518                	.insn	2, 0x0518
    114a:	091e                	.insn	2, 0x091e
    114c:	0008                	.insn	2, 0x0008
    114e:	0516                	.insn	2, 0x0516
    1150:	0004090f          	.insn	4, 0x0004090f
    1154:	0518                	.insn	2, 0x0518
    1156:	091e                	.insn	2, 0x091e
    1158:	0004                	.insn	2, 0x0004
    115a:	0501                	.insn	2, 0x0501
    115c:	0914                	.insn	2, 0x0914
    115e:	0004                	.insn	2, 0x0004
    1160:	1806                	.insn	2, 0x1806
    1162:	0705                	.insn	2, 0x0705
    1164:	0009                	.insn	2, 0x0009
    1166:	1900                	.insn	2, 0x1900
    1168:	1305                	.insn	2, 0x1305
    116a:	0009                	.insn	2, 0x0009
    116c:	0600                	.insn	2, 0x0600
    116e:	0518                	.insn	2, 0x0518
    1170:	0001                	.insn	2, 0x0001
    1172:	0205                	.insn	2, 0x0205
    1174:	0918                	.insn	2, 0x0918
    1176:	8000                	.insn	2, 0x8000
    1178:	2006                	.insn	2, 0x2006
    117a:	0105                	.insn	2, 0x0105
    117c:	0009                	.insn	2, 0x0009
    117e:	1800                	.insn	2, 0x1800
    1180:	0305                	.insn	2, 0x0305
    1182:	0009                	.insn	2, 0x0009
    1184:	0600                	.insn	2, 0x0600
    1186:	0501                	.insn	2, 0x0501
    1188:	0910                	.insn	2, 0x0910
    118a:	0008                	.insn	2, 0x0008
    118c:	0501                	.insn	2, 0x0501
    118e:	0906                	.insn	2, 0x0906
    1190:	0004                	.insn	2, 0x0004
    1192:	1906                	.insn	2, 0x1906
    1194:	0505                	.insn	2, 0x0505
    1196:	0009                	.insn	2, 0x0009
    1198:	0600                	.insn	2, 0x0600
    119a:	0501                	.insn	2, 0x0501
    119c:	091c                	.insn	2, 0x091c
    119e:	0004                	.insn	2, 0x0004
    11a0:	0501                	.insn	2, 0x0501
    11a2:	0912                	.insn	2, 0x0912
    11a4:	0004                	.insn	2, 0x0004
    11a6:	0518                	.insn	2, 0x0518
    11a8:	0921                	.insn	2, 0x0921
    11aa:	0004                	.insn	2, 0x0004
    11ac:	0106                	.insn	2, 0x0106
    11ae:	0305                	.insn	2, 0x0305
    11b0:	0009                	.insn	2, 0x0009
    11b2:	6700                	.insn	2, 0x6700
    11b4:	0605                	.insn	2, 0x0605
    11b6:	0009                	.insn	2, 0x0009
    11b8:	1900                	.insn	2, 0x1900
    11ba:	0305                	.insn	2, 0x0305
    11bc:	0009                	.insn	2, 0x0009
    11be:	1900                	.insn	2, 0x1900
    11c0:	0305                	.insn	2, 0x0305
    11c2:	0009                	.insn	2, 0x0009
    11c4:	1800                	.insn	2, 0x1800
    11c6:	0305                	.insn	2, 0x0305
    11c8:	0009                	.insn	2, 0x0009
    11ca:	0600                	.insn	2, 0x0600
    11cc:	017fab03          	lw	s6,23(t6)
    11d0:	0305                	.insn	2, 0x0305
    11d2:	0409                	.insn	2, 0x0409
    11d4:	6c00                	.insn	2, 0x6c00
    11d6:	2005                	.insn	2, 0x2005
    11d8:	0809                	.insn	2, 0x0809
    11da:	0100                	.insn	2, 0x0100
    11dc:	1005                	.insn	2, 0x1005
    11de:	0409                	.insn	2, 0x0409
    11e0:	0100                	.insn	2, 0x0100
    11e2:	1005                	.insn	2, 0x1005
    11e4:	0009                	.insn	2, 0x0009
    11e6:	0300                	.insn	2, 0x0300
    11e8:	7fac                	.insn	2, 0x7fac
    11ea:	0501                	.insn	2, 0x0501
    11ec:	0001                	.insn	2, 0x0001
    11ee:	0205                	.insn	2, 0x0205
    11f0:	0944                	.insn	2, 0x0944
    11f2:	8000                	.insn	2, 0x8000
    11f4:	1c06                	.insn	2, 0x1c06
    11f6:	0105                	.insn	2, 0x0105
    11f8:	0009                	.insn	2, 0x0009
    11fa:	1800                	.insn	2, 0x1800
    11fc:	0305                	.insn	2, 0x0305
    11fe:	0009                	.insn	2, 0x0009
    1200:	1900                	.insn	2, 0x1900
    1202:	0305                	.insn	2, 0x0305
    1204:	0009                	.insn	2, 0x0009
    1206:	1800                	.insn	2, 0x1800
    1208:	0305                	.insn	2, 0x0305
    120a:	0009                	.insn	2, 0x0009
    120c:	0600                	.insn	2, 0x0600
    120e:	0516                	.insn	2, 0x0516
    1210:	0918                	.insn	2, 0x0918
    1212:	0008                	.insn	2, 0x0008
    1214:	0518                	.insn	2, 0x0518
    1216:	090d                	.insn	2, 0x090d
    1218:	0004                	.insn	2, 0x0004
    121a:	0501                	.insn	2, 0x0501
    121c:	0918                	.insn	2, 0x0918
    121e:	0004                	.insn	2, 0x0004
    1220:	0516                	.insn	2, 0x0516
    1222:	0918                	.insn	2, 0x0918
    1224:	0008                	.insn	2, 0x0008
    1226:	0518                	.insn	2, 0x0518
    1228:	0918                	.insn	2, 0x0918
    122a:	0004                	.insn	2, 0x0004
    122c:	0518                	.insn	2, 0x0518
    122e:	090d                	.insn	2, 0x090d
    1230:	0008                	.insn	2, 0x0008
    1232:	0516                	.insn	2, 0x0516
    1234:	090d                	.insn	2, 0x090d
    1236:	0004                	.insn	2, 0x0004
    1238:	1806                	.insn	2, 0x1806
    123a:	0305                	.insn	2, 0x0305
    123c:	0009                	.insn	2, 0x0009
    123e:	0600                	.insn	2, 0x0600
    1240:	0501                	.insn	2, 0x0501
    1242:	090d                	.insn	2, 0x090d
    1244:	0004                	.insn	2, 0x0004
    1246:	0518                	.insn	2, 0x0518
    1248:	0001                	.insn	2, 0x0001
    124a:	0205                	.insn	2, 0x0205
    124c:	0974                	.insn	2, 0x0974
    124e:	8000                	.insn	2, 0x8000
    1250:	1c06                	.insn	2, 0x1c06
    1252:	0105                	.insn	2, 0x0105
    1254:	0009                	.insn	2, 0x0009
    1256:	1800                	.insn	2, 0x1800
    1258:	0305                	.insn	2, 0x0305
    125a:	0009                	.insn	2, 0x0009
    125c:	0600                	.insn	2, 0x0600
    125e:	0501                	.insn	2, 0x0501
    1260:	090d                	.insn	2, 0x090d
    1262:	0008                	.insn	2, 0x0008
    1264:	0518                	.insn	2, 0x0518
    1266:	090d                	.insn	2, 0x090d
    1268:	0004                	.insn	2, 0x0004
    126a:	0516                	.insn	2, 0x0516
    126c:	090d                	.insn	2, 0x090d
    126e:	0004                	.insn	2, 0x0004
    1270:	1806                	.insn	2, 0x1806
    1272:	0305                	.insn	2, 0x0305
    1274:	0009                	.insn	2, 0x0009
    1276:	0600                	.insn	2, 0x0600
    1278:	0501                	.insn	2, 0x0501
    127a:	090d                	.insn	2, 0x090d
    127c:	0004                	.insn	2, 0x0004
    127e:	0518                	.insn	2, 0x0518
    1280:	0001                	.insn	2, 0x0001
    1282:	0205                	.insn	2, 0x0205
    1284:	098c                	.insn	2, 0x098c
    1286:	8000                	.insn	2, 0x8000
    1288:	3806                	.insn	2, 0x3806
    128a:	0105                	.insn	2, 0x0105
    128c:	0009                	.insn	2, 0x0009
    128e:	1800                	.insn	2, 0x1800
    1290:	0305                	.insn	2, 0x0305
    1292:	0009                	.insn	2, 0x0009
    1294:	1800                	.insn	2, 0x1800
    1296:	0305                	.insn	2, 0x0305
    1298:	0009                	.insn	2, 0x0009
    129a:	8e00                	.insn	2, 0x8e00
    129c:	0905                	.insn	2, 0x0905
    129e:	0009                	.insn	2, 0x0009
    12a0:	1d00                	.insn	2, 0x1d00
    12a2:	0305                	.insn	2, 0x0305
    12a4:	0009                	.insn	2, 0x0009
    12a6:	1900                	.insn	2, 0x1900
    12a8:	0305                	.insn	2, 0x0305
    12aa:	0009                	.insn	2, 0x0009
    12ac:	1800                	.insn	2, 0x1800
    12ae:	0305                	.insn	2, 0x0305
    12b0:	0009                	.insn	2, 0x0009
    12b2:	0600                	.insn	2, 0x0600
    12b4:	0501                	.insn	2, 0x0501
    12b6:	0906                	.insn	2, 0x0906
    12b8:	0008                	.insn	2, 0x0008
    12ba:	1b06                	.insn	2, 0x1b06
    12bc:	0505                	.insn	2, 0x0505
    12be:	0009                	.insn	2, 0x0009
    12c0:	0600                	.insn	2, 0x0600
    12c2:	0501                	.insn	2, 0x0501
    12c4:	0905                	.insn	2, 0x0905
    12c6:	0000                	.insn	2, 0x0000
    12c8:	0306                	.insn	2, 0x0306
    12ca:	7efe                	.insn	2, 0x7efe
    12cc:	0501                	.insn	2, 0x0501
    12ce:	0905                	.insn	2, 0x0905
    12d0:	0000                	.insn	2, 0x0000
    12d2:	0106                	.insn	2, 0x0106
    12d4:	1305                	.insn	2, 0x1305
    12d6:	0809                	.insn	2, 0x0809
    12d8:	0600                	.insn	2, 0x0600
    12da:	0518                	.insn	2, 0x0518
    12dc:	00140903          	lb	s2,1(s0)
    12e0:	2b06                	.insn	2, 0x2b06
    12e2:	0105                	.insn	2, 0x0105
    12e4:	0409                	.insn	2, 0x0409
    12e6:	0600                	.insn	2, 0x0600
    12e8:	05016003          	.insn	4, 0x05016003
    12ec:	0906                	.insn	2, 0x0906
    12ee:	0000                	.insn	2, 0x0000
    12f0:	0528                	.insn	2, 0x0528
    12f2:	0905                	.insn	2, 0x0905
    12f4:	0000                	.insn	2, 0x0000
    12f6:	0106                	.insn	2, 0x0106
    12f8:	1205                	.insn	2, 0x1205
    12fa:	0409                	.insn	2, 0x0409
    12fc:	0100                	.insn	2, 0x0100
    12fe:	0805                	.insn	2, 0x0805
    1300:	0c09                	.insn	2, 0x0c09
    1302:	0600                	.insn	2, 0x0600
    1304:	0519                	.insn	2, 0x0519
    1306:	00000907          	.insn	4, 0x0907
    130a:	0106                	.insn	2, 0x0106
    130c:	1505                	.insn	2, 0x1505
    130e:	0809                	.insn	2, 0x0809
    1310:	0100                	.insn	2, 0x0100
    1312:	1505                	.insn	2, 0x1505
    1314:	0009                	.insn	2, 0x0009
    1316:	0600                	.insn	2, 0x0600
    1318:	0510                	.insn	2, 0x0510
    131a:	00000903          	lb	s2,0(zero) # 0 <__stack_size-0x2000000>
    131e:	09050523          	sb	a6,138(a0)
    1322:	0000                	.insn	2, 0x0000
    1324:	0106                	.insn	2, 0x0106
    1326:	1305                	.insn	2, 0x1305
    1328:	0809                	.insn	2, 0x0809
    132a:	0600                	.insn	2, 0x0600
    132c:	0518                	.insn	2, 0x0518
    132e:	0905                	.insn	2, 0x0905
    1330:	0004                	.insn	2, 0x0004
    1332:	0905051b          	.insn	4, 0x0905051b
    1336:	0000                	.insn	2, 0x0000
    1338:	0106                	.insn	2, 0x0106
    133a:	1305                	.insn	2, 0x1305
    133c:	0409                	.insn	2, 0x0409
    133e:	0600                	.insn	2, 0x0600
    1340:	0518                	.insn	2, 0x0518
    1342:	0905                	.insn	2, 0x0905
    1344:	0000                	.insn	2, 0x0000
    1346:	1906                	.insn	2, 0x1906
    1348:	0105                	.insn	2, 0x0105
    134a:	0500                	.insn	2, 0x0500
    134c:	e002                	.insn	2, 0xe002
    134e:	0009                	.insn	2, 0x0009
    1350:	0680                	.insn	2, 0x0680
    1352:	017ef703          	.insn	4, 0x017ef703
    1356:	0105                	.insn	2, 0x0105
    1358:	0009                	.insn	2, 0x0009
    135a:	1800                	.insn	2, 0x1800
    135c:	0705                	.insn	2, 0x0705
    135e:	0009                	.insn	2, 0x0009
    1360:	0600                	.insn	2, 0x0600
    1362:	051c                	.insn	2, 0x051c
    1364:	00080903          	lb	s2,0(a6)
    1368:	0512                	.insn	2, 0x0512
    136a:	00040913          	addi	s2,s0,0
    136e:	1c06                	.insn	2, 0x1c06
    1370:	0305                	.insn	2, 0x0305
    1372:	5c09                	.insn	2, 0x5c09
    1374:	0600                	.insn	2, 0x0600
    1376:	0518                	.insn	2, 0x0518
    1378:	00040927          	.insn	4, 0x00040927
    137c:	0516                	.insn	2, 0x0516
    137e:	00040903          	lb	s2,0(s0)
    1382:	1806                	.insn	2, 0x1806
    1384:	0305                	.insn	2, 0x0305
    1386:	0009                	.insn	2, 0x0009
    1388:	0600                	.insn	2, 0x0600
    138a:	0501                	.insn	2, 0x0501
    138c:	00040927          	.insn	4, 0x00040927
    1390:	1806                	.insn	2, 0x1806
    1392:	0305                	.insn	2, 0x0305
    1394:	0009                	.insn	2, 0x0009
    1396:	0600                	.insn	2, 0x0600
    1398:	0501                	.insn	2, 0x0501
    139a:	00040927          	.insn	4, 0x00040927
    139e:	1806                	.insn	2, 0x1806
    13a0:	0305                	.insn	2, 0x0305
    13a2:	0009                	.insn	2, 0x0009
    13a4:	0600                	.insn	2, 0x0600
    13a6:	0501                	.insn	2, 0x0501
    13a8:	0926                	.insn	2, 0x0926
    13aa:	0004                	.insn	2, 0x0004
    13ac:	0501                	.insn	2, 0x0501
    13ae:	0919                	.insn	2, 0x0919
    13b0:	0004                	.insn	2, 0x0004
    13b2:	1806                	.insn	2, 0x1806
    13b4:	0305                	.insn	2, 0x0305
    13b6:	0009                	.insn	2, 0x0009
    13b8:	3d00                	.insn	2, 0x3d00
    13ba:	0605                	.insn	2, 0x0605
    13bc:	0009                	.insn	2, 0x0009
    13be:	1f00                	.insn	2, 0x1f00
    13c0:	0305                	.insn	2, 0x0305
    13c2:	0009                	.insn	2, 0x0009
    13c4:	0600                	.insn	2, 0x0600
    13c6:	0501                	.insn	2, 0x0501
    13c8:	0910                	.insn	2, 0x0910
    13ca:	0004                	.insn	2, 0x0004
    13cc:	0501                	.insn	2, 0x0501
    13ce:	0906                	.insn	2, 0x0906
    13d0:	0004                	.insn	2, 0x0004
    13d2:	1906                	.insn	2, 0x1906
    13d4:	0505                	.insn	2, 0x0505
    13d6:	0009                	.insn	2, 0x0009
    13d8:	0600                	.insn	2, 0x0600
    13da:	0501                	.insn	2, 0x0501
    13dc:	091c                	.insn	2, 0x091c
    13de:	0004                	.insn	2, 0x0004
    13e0:	0501                	.insn	2, 0x0501
    13e2:	0912                	.insn	2, 0x0912
    13e4:	0004                	.insn	2, 0x0004
    13e6:	0518                	.insn	2, 0x0518
    13e8:	0921                	.insn	2, 0x0921
    13ea:	0004                	.insn	2, 0x0004
    13ec:	0106                	.insn	2, 0x0106
    13ee:	0305                	.insn	2, 0x0305
    13f0:	0009                	.insn	2, 0x0009
    13f2:	6700                	.insn	2, 0x6700
    13f4:	0605                	.insn	2, 0x0605
    13f6:	0009                	.insn	2, 0x0009
    13f8:	1900                	.insn	2, 0x1900
    13fa:	0305                	.insn	2, 0x0305
    13fc:	0009                	.insn	2, 0x0009
    13fe:	1900                	.insn	2, 0x1900
    1400:	0305                	.insn	2, 0x0305
    1402:	0009                	.insn	2, 0x0009
    1404:	1800                	.insn	2, 0x1800
    1406:	0305                	.insn	2, 0x0305
    1408:	0009                	.insn	2, 0x0009
    140a:	0600                	.insn	2, 0x0600
    140c:	017fab03          	lw	s6,23(t6)
    1410:	0305                	.insn	2, 0x0305
    1412:	0409                	.insn	2, 0x0409
    1414:	6c00                	.insn	2, 0x6c00
    1416:	2005                	.insn	2, 0x2005
    1418:	0809                	.insn	2, 0x0809
    141a:	0100                	.insn	2, 0x0100
    141c:	1005                	.insn	2, 0x1005
    141e:	0409                	.insn	2, 0x0409
    1420:	0100                	.insn	2, 0x0100
    1422:	1005                	.insn	2, 0x1005
    1424:	0009                	.insn	2, 0x0009
    1426:	0600                	.insn	2, 0x0600
    1428:	017efd03          	.insn	4, 0x017efd03
    142c:	0305                	.insn	2, 0x0305
    142e:	0009                	.insn	2, 0x0009
    1430:	0600                	.insn	2, 0x0600
    1432:	0501                	.insn	2, 0x0501
    1434:	0906                	.insn	2, 0x0906
    1436:	0008                	.insn	2, 0x0008
    1438:	2106                	.insn	2, 0x2106
    143a:	0505                	.insn	2, 0x0505
    143c:	0409                	.insn	2, 0x0409
    143e:	0600                	.insn	2, 0x0600
    1440:	0501                	.insn	2, 0x0501
    1442:	0905                	.insn	2, 0x0905
    1444:	0064                	.insn	2, 0x0064
    1446:	1006                	.insn	2, 0x1006
    1448:	0505                	.insn	2, 0x0505
    144a:	0009                	.insn	2, 0x0009
    144c:	0600                	.insn	2, 0x0600
    144e:	05017003          	.insn	4, 0x05017003
    1452:	0901                	.insn	2, 0x0901
    1454:	0008                	.insn	2, 0x0008
    1456:	09290527          	.insn	4, 0x09290527
    145a:	0008                	.insn	2, 0x0008
    145c:	1806                	.insn	2, 0x1806
    145e:	0505                	.insn	2, 0x0505
    1460:	0409                	.insn	2, 0x0409
    1462:	0600                	.insn	2, 0x0600
    1464:	0501                	.insn	2, 0x0501
    1466:	0905                	.insn	2, 0x0905
    1468:	0010                	.insn	2, 0x0010
    146a:	1906                	.insn	2, 0x1906
    146c:	0505                	.insn	2, 0x0505
    146e:	0009                	.insn	2, 0x0009
    1470:	0600                	.insn	2, 0x0600
    1472:	0501                	.insn	2, 0x0501
    1474:	0925                	.insn	2, 0x0925
    1476:	0004                	.insn	2, 0x0004
    1478:	0594                	.insn	2, 0x0594
    147a:	0910                	.insn	2, 0x0910
    147c:	0004                	.insn	2, 0x0004
    147e:	017f8803          	lb	a6,23(t6)
    1482:	0105                	.insn	2, 0x0105
    1484:	0409                	.insn	2, 0x0409
    1486:	1200                	.insn	2, 0x1200
    1488:	2505                	.insn	2, 0x2505
    148a:	0409                	.insn	2, 0x0409
    148c:	9400                	.insn	2, 0x9400
    148e:	1005                	.insn	2, 0x1005
    1490:	0809                	.insn	2, 0x0809
    1492:	0300                	.insn	2, 0x0300
    1494:	05017f83          	.insn	4, 0x05017f83
    1498:	0004091b          	.insn	4, 0x0004091b
    149c:	1806                	.insn	2, 0x1806
    149e:	0505                	.insn	2, 0x0505
    14a0:	0009                	.insn	2, 0x0009
    14a2:	8e00                	.insn	2, 0x8e00
    14a4:	0605                	.insn	2, 0x0605
    14a6:	0009                	.insn	2, 0x0009
    14a8:	1900                	.insn	2, 0x1900
    14aa:	0305                	.insn	2, 0x0305
    14ac:	0009                	.insn	2, 0x0009
    14ae:	1900                	.insn	2, 0x1900
    14b0:	0305                	.insn	2, 0x0305
    14b2:	0009                	.insn	2, 0x0009
    14b4:	1800                	.insn	2, 0x1800
    14b6:	0305                	.insn	2, 0x0305
    14b8:	0009                	.insn	2, 0x0009
    14ba:	0600                	.insn	2, 0x0600
    14bc:	0501                	.insn	2, 0x0501
    14be:	00000903          	lb	s2,0(zero) # 0 <__stack_size-0x2000000>
    14c2:	017f8803          	lb	a6,23(t6)
    14c6:	0105                	.insn	2, 0x0105
    14c8:	0409                	.insn	2, 0x0409
    14ca:	0100                	.insn	2, 0x0100
    14cc:	0105                	.insn	2, 0x0105
    14ce:	0500                	.insn	2, 0x0500
    14d0:	3c02                	.insn	2, 0x3c02
    14d2:	0680000b          	.insn	4, 0x0680000b
    14d6:	0925058b          	.insn	4, 0x0925058b
    14da:	0000                	.insn	2, 0x0000
    14dc:	0518                	.insn	2, 0x0518
    14de:	00000903          	lb	s2,0(zero) # 0 <__stack_size-0x2000000>
    14e2:	0519                	.insn	2, 0x0519
    14e4:	00000903          	lb	s2,0(zero) # 0 <__stack_size-0x2000000>
    14e8:	0518                	.insn	2, 0x0518
    14ea:	00000903          	lb	s2,0(zero) # 0 <__stack_size-0x2000000>
    14ee:	1606                	.insn	2, 0x1606
    14f0:	0b05                	.insn	2, 0x0b05
    14f2:	0409                	.insn	2, 0x0409
    14f4:	1800                	.insn	2, 0x1800
    14f6:	2005                	.insn	2, 0x2005
    14f8:	0409                	.insn	2, 0x0409
    14fa:	0100                	.insn	2, 0x0100
    14fc:	1005                	.insn	2, 0x1005
    14fe:	0409                	.insn	2, 0x0409
    1500:	1800                	.insn	2, 0x1800
    1502:	0105                	.insn	2, 0x0105
    1504:	0500                	.insn	2, 0x0500
    1506:	4c02                	.insn	2, 0x4c02
    1508:	0680000b          	.insn	4, 0x0680000b
    150c:	0522                	.insn	2, 0x0522
    150e:	0901                	.insn	2, 0x0901
    1510:	0000                	.insn	2, 0x0000
    1512:	0518                	.insn	2, 0x0518
    1514:	00000903          	lb	s2,0(zero) # 0 <__stack_size-0x2000000>
    1518:	0518                	.insn	2, 0x0518
    151a:	00000903          	lb	s2,0(zero) # 0 <__stack_size-0x2000000>
    151e:	0519                	.insn	2, 0x0519
    1520:	00000903          	lb	s2,0(zero) # 0 <__stack_size-0x2000000>
    1524:	0106                	.insn	2, 0x0106
    1526:	0b05                	.insn	2, 0x0b05
    1528:	0409                	.insn	2, 0x0409
    152a:	0600                	.insn	2, 0x0600
    152c:	0518                	.insn	2, 0x0518
    152e:	00000903          	lb	s2,0(zero) # 0 <__stack_size-0x2000000>
    1532:	1b06                	.insn	2, 0x1b06
    1534:	1205                	.insn	2, 0x1205
    1536:	1009                	.insn	2, 0x1009
    1538:	1300                	.insn	2, 0x1300
    153a:	1005                	.insn	2, 0x1005
    153c:	0409                	.insn	2, 0x0409
    153e:	1b00                	.insn	2, 0x1b00
    1540:	1205                	.insn	2, 0x1205
    1542:	0809                	.insn	2, 0x0809
    1544:	1300                	.insn	2, 0x1300
    1546:	1005                	.insn	2, 0x1005
    1548:	0409                	.insn	2, 0x0409
    154a:	0100                	.insn	2, 0x0100
    154c:	1005                	.insn	2, 0x1005
    154e:	0409                	.insn	2, 0x0409
    1550:	0100                	.insn	2, 0x0100
    1552:	1a05                	.insn	2, 0x1a05
    1554:	0409                	.insn	2, 0x0409
    1556:	0600                	.insn	2, 0x0600
    1558:	0518                	.insn	2, 0x0518
    155a:	00000903          	lb	s2,0(zero) # 0 <__stack_size-0x2000000>
    155e:	0106                	.insn	2, 0x0106
    1560:	1e05                	.insn	2, 0x1e05
    1562:	0409                	.insn	2, 0x0409
    1564:	0600                	.insn	2, 0x0600
    1566:	0518                	.insn	2, 0x0518
    1568:	00000903          	lb	s2,0(zero) # 0 <__stack_size-0x2000000>
    156c:	0106                	.insn	2, 0x0106
    156e:	1f05                	.insn	2, 0x1f05
    1570:	0409                	.insn	2, 0x0409
    1572:	0600                	.insn	2, 0x0600
    1574:	0518                	.insn	2, 0x0518
    1576:	00000903          	lb	s2,0(zero) # 0 <__stack_size-0x2000000>
    157a:	0200                	.insn	2, 0x0200
    157c:	0104                	.insn	2, 0x0104
    157e:	0501                	.insn	2, 0x0501
    1580:	00000927          	.insn	4, 0x0927
    1584:	0200                	.insn	2, 0x0200
    1586:	0004                	.insn	2, 0x0004
    1588:	0518                	.insn	2, 0x0518
    158a:	0905                	.insn	2, 0x0905
    158c:	0004                	.insn	2, 0x0004
    158e:	1806                	.insn	2, 0x1806
    1590:	2705                	.insn	2, 0x2705
    1592:	0409                	.insn	2, 0x0409
    1594:	1600                	.insn	2, 0x1600
    1596:	2705                	.insn	2, 0x2705
    1598:	0409                	.insn	2, 0x0409
    159a:	0000                	.insn	2, 0x0000
    159c:	0402                	.insn	2, 0x0402
    159e:	05160603          	lb	a2,81(a2)
    15a2:	00000937          	lui	s2,0x0
    15a6:	0200                	.insn	2, 0x0200
    15a8:	0104                	.insn	2, 0x0104
    15aa:	0501                	.insn	2, 0x0501
    15ac:	00000927          	.insn	4, 0x0927
    15b0:	0200                	.insn	2, 0x0200
    15b2:	0004                	.insn	2, 0x0004
    15b4:	0518                	.insn	2, 0x0518
    15b6:	0905                	.insn	2, 0x0905
    15b8:	0000                	.insn	2, 0x0000
    15ba:	0106                	.insn	2, 0x0106
    15bc:	2705                	.insn	2, 0x2705
    15be:	0409                	.insn	2, 0x0409
    15c0:	0000                	.insn	2, 0x0000
    15c2:	0402                	.insn	2, 0x0402
    15c4:	05160603          	lb	a2,81(a2)
    15c8:	00000937          	lui	s2,0x0
    15cc:	0200                	.insn	2, 0x0200
    15ce:	0104                	.insn	2, 0x0104
    15d0:	0501                	.insn	2, 0x0501
    15d2:	00000927          	.insn	4, 0x0927
    15d6:	0200                	.insn	2, 0x0200
    15d8:	0004                	.insn	2, 0x0004
    15da:	0519                	.insn	2, 0x0519
    15dc:	00000903          	lb	s2,0(zero) # 0 <__stack_size-0x2000000>
    15e0:	0106                	.insn	2, 0x0106
    15e2:	2705                	.insn	2, 0x2705
    15e4:	0409                	.insn	2, 0x0409
    15e6:	0100                	.insn	2, 0x0100
    15e8:	2705                	.insn	2, 0x2705
    15ea:	0409                	.insn	2, 0x0409
    15ec:	0600                	.insn	2, 0x0600
    15ee:	0518                	.insn	2, 0x0518
    15f0:	00000903          	lb	s2,0(zero) # 0 <__stack_size-0x2000000>
    15f4:	0106                	.insn	2, 0x0106
    15f6:	3705                	.insn	2, 0x3705
    15f8:	0409                	.insn	2, 0x0409
    15fa:	0100                	.insn	2, 0x0100
    15fc:	2805                	.insn	2, 0x2805
    15fe:	0409                	.insn	2, 0x0409
    1600:	0100                	.insn	2, 0x0100
    1602:	2805                	.insn	2, 0x2805
    1604:	0809                	.insn	2, 0x0809
    1606:	1800                	.insn	2, 0x1800
    1608:	0c05                	.insn	2, 0x0c05
    160a:	0409                	.insn	2, 0x0409
    160c:	0100                	.insn	2, 0x0100
    160e:	0c05                	.insn	2, 0x0c05
    1610:	0409                	.insn	2, 0x0409
    1612:	1600                	.insn	2, 0x1600
    1614:	2805                	.insn	2, 0x2805
    1616:	0409                	.insn	2, 0x0409
    1618:	0600                	.insn	2, 0x0600
    161a:	0518                	.insn	2, 0x0518
    161c:	00000903          	lb	s2,0(zero) # 0 <__stack_size-0x2000000>
    1620:	0106                	.insn	2, 0x0106
    1622:	0c05                	.insn	2, 0x0c05
    1624:	0409                	.insn	2, 0x0409
    1626:	1800                	.insn	2, 0x1800
    1628:	0105                	.insn	2, 0x0105
    162a:	0500                	.insn	2, 0x0500
    162c:	bc02                	.insn	2, 0xbc02
    162e:	0680000b          	.insn	4, 0x0680000b
    1632:	0522                	.insn	2, 0x0522
    1634:	0901                	.insn	2, 0x0901
    1636:	0000                	.insn	2, 0x0000
    1638:	0518                	.insn	2, 0x0518
    163a:	00000903          	lb	s2,0(zero) # 0 <__stack_size-0x2000000>
    163e:	0518                	.insn	2, 0x0518
    1640:	00000903          	lb	s2,0(zero) # 0 <__stack_size-0x2000000>
    1644:	0519                	.insn	2, 0x0519
    1646:	00000903          	lb	s2,0(zero) # 0 <__stack_size-0x2000000>
    164a:	0518                	.insn	2, 0x0518
    164c:	00000903          	lb	s2,0(zero) # 0 <__stack_size-0x2000000>
    1650:	0518                	.insn	2, 0x0518
    1652:	00000903          	lb	s2,0(zero) # 0 <__stack_size-0x2000000>
    1656:	0106                	.insn	2, 0x0106
    1658:	0605                	.insn	2, 0x0605
    165a:	0409                	.insn	2, 0x0409
    165c:	1900                	.insn	2, 0x1900
    165e:	0c05                	.insn	2, 0x0c05
    1660:	0409                	.insn	2, 0x0409
    1662:	1d00                	.insn	2, 0x1d00
    1664:	0105                	.insn	2, 0x0105
    1666:	0409                	.insn	2, 0x0409
    1668:	0600                	.insn	2, 0x0600
    166a:	0514                	.insn	2, 0x0514
    166c:	0905                	.insn	2, 0x0905
    166e:	0000                	.insn	2, 0x0000
    1670:	0106                	.insn	2, 0x0106
    1672:	0f05                	.insn	2, 0x0f05
    1674:	0809                	.insn	2, 0x0809
    1676:	0600                	.insn	2, 0x0600
    1678:	0518                	.insn	2, 0x0518
    167a:	0905                	.insn	2, 0x0905
    167c:	0000                	.insn	2, 0x0000
    167e:	0106                	.insn	2, 0x0106
    1680:	0c05                	.insn	2, 0x0c05
    1682:	0409                	.insn	2, 0x0409
    1684:	0100                	.insn	2, 0x0100
    1686:	0c05                	.insn	2, 0x0c05
    1688:	0500                	.insn	2, 0x0500
    168a:	d802                	.insn	2, 0xd802
    168c:	0680000b          	.insn	4, 0x0680000b
    1690:	09010523          	sb	a6,138(sp)
    1694:	0000                	.insn	2, 0x0000
    1696:	0518                	.insn	2, 0x0518
    1698:	00000903          	lb	s2,0(zero) # 0 <__stack_size-0x2000000>
    169c:	0518                	.insn	2, 0x0518
    169e:	00000903          	lb	s2,0(zero) # 0 <__stack_size-0x2000000>
    16a2:	0519                	.insn	2, 0x0519
    16a4:	00000903          	lb	s2,0(zero) # 0 <__stack_size-0x2000000>
    16a8:	0518                	.insn	2, 0x0518
    16aa:	00000903          	lb	s2,0(zero) # 0 <__stack_size-0x2000000>
    16ae:	0501                	.insn	2, 0x0501
    16b0:	0912                	.insn	2, 0x0912
    16b2:	0000                	.insn	2, 0x0000
    16b4:	0518                	.insn	2, 0x0518
    16b6:	0905                	.insn	2, 0x0905
    16b8:	0000                	.insn	2, 0x0000
    16ba:	05015903          	lhu	s2,80(sp)
    16be:	090d                	.insn	2, 0x090d
    16c0:	0000                	.insn	2, 0x0000
    16c2:	0521                	.insn	2, 0x0521
    16c4:	00000903          	lb	s2,0(zero) # 0 <__stack_size-0x2000000>
    16c8:	0518                	.insn	2, 0x0518
    16ca:	00000903          	lb	s2,0(zero) # 0 <__stack_size-0x2000000>
    16ce:	0519                	.insn	2, 0x0519
    16d0:	00000903          	lb	s2,0(zero) # 0 <__stack_size-0x2000000>
    16d4:	0518                	.insn	2, 0x0518
    16d6:	00000903          	lb	s2,0(zero) # 0 <__stack_size-0x2000000>
    16da:	0518                	.insn	2, 0x0518
    16dc:	00000903          	lb	s2,0(zero) # 0 <__stack_size-0x2000000>
    16e0:	0106                	.insn	2, 0x0106
    16e2:	0605                	.insn	2, 0x0605
    16e4:	0c09                	.insn	2, 0x0c09
    16e6:	0100                	.insn	2, 0x0100
    16e8:	0605                	.insn	2, 0x0605
    16ea:	0009                	.insn	2, 0x0009
    16ec:	0600                	.insn	2, 0x0600
    16ee:	052e                	.insn	2, 0x052e
    16f0:	0912                	.insn	2, 0x0912
    16f2:	0000                	.insn	2, 0x0000
    16f4:	051e                	.insn	2, 0x051e
    16f6:	00000903          	lb	s2,0(zero) # 0 <__stack_size-0x2000000>
    16fa:	051a                	.insn	2, 0x051a
    16fc:	00000903          	lb	s2,0(zero) # 0 <__stack_size-0x2000000>
    1700:	051c                	.insn	2, 0x051c
    1702:	0905                	.insn	2, 0x0905
    1704:	0000                	.insn	2, 0x0000
    1706:	0306                	.insn	2, 0x0306
    1708:	016c                	.insn	2, 0x016c
    170a:	0105                	.insn	2, 0x0105
    170c:	0809                	.insn	2, 0x0809
    170e:	2b00                	.insn	2, 0x2b00
    1710:	0905                	.insn	2, 0x0905
    1712:	0409                	.insn	2, 0x0409
    1714:	1c00                	.insn	2, 0x1c00
    1716:	0e05                	.insn	2, 0x0e05
    1718:	0409                	.insn	2, 0x0409
    171a:	0000                	.insn	2, 0x0000
    171c:	0402                	.insn	2, 0x0402
    171e:	1201                	.insn	2, 0x1201
    1720:	0805                	.insn	2, 0x0805
    1722:	0409                	.insn	2, 0x0409
    1724:	0000                	.insn	2, 0x0000
    1726:	0402                	.insn	2, 0x0402
    1728:	0600                	.insn	2, 0x0600
    172a:	0518                	.insn	2, 0x0518
    172c:	00000907          	.insn	4, 0x0907
    1730:	0518                	.insn	2, 0x0518
    1732:	00000907          	.insn	4, 0x0907
    1736:	0106                	.insn	2, 0x0106
    1738:	1005                	.insn	2, 0x1005
    173a:	0c09                	.insn	2, 0x0c09
    173c:	0600                	.insn	2, 0x0600
    173e:	0518                	.insn	2, 0x0518
    1740:	00000907          	.insn	4, 0x0907
    1744:	0106                	.insn	2, 0x0106
    1746:	0e05                	.insn	2, 0x0e05
    1748:	0409                	.insn	2, 0x0409
    174a:	1b00                	.insn	2, 0x1b00
    174c:	0105                	.insn	2, 0x0105
    174e:	1009                	.insn	2, 0x1009
    1750:	0600                	.insn	2, 0x0600
    1752:	05015803          	lhu	a6,80(sp)
    1756:	0905                	.insn	2, 0x0905
    1758:	0000                	.insn	2, 0x0000
    175a:	0518                	.insn	2, 0x0518
    175c:	0905                	.insn	2, 0x0905
    175e:	0000                	.insn	2, 0x0000
    1760:	0106                	.insn	2, 0x0106
    1762:	0505                	.insn	2, 0x0505
    1764:	0009                	.insn	2, 0x0009
    1766:	0600                	.insn	2, 0x0600
    1768:	0528                	.insn	2, 0x0528
    176a:	0912                	.insn	2, 0x0912
    176c:	0000                	.insn	2, 0x0000
    176e:	0518                	.insn	2, 0x0518
    1770:	0905                	.insn	2, 0x0905
    1772:	0000                	.insn	2, 0x0000
    1774:	05015903          	lhu	s2,80(sp)
    1778:	090d                	.insn	2, 0x090d
    177a:	0000                	.insn	2, 0x0000
    177c:	0521                	.insn	2, 0x0521
    177e:	00000903          	lb	s2,0(zero) # 0 <__stack_size-0x2000000>
    1782:	0518                	.insn	2, 0x0518
    1784:	00000903          	lb	s2,0(zero) # 0 <__stack_size-0x2000000>
    1788:	0519                	.insn	2, 0x0519
    178a:	00000903          	lb	s2,0(zero) # 0 <__stack_size-0x2000000>
    178e:	0518                	.insn	2, 0x0518
    1790:	00000903          	lb	s2,0(zero) # 0 <__stack_size-0x2000000>
    1794:	0518                	.insn	2, 0x0518
    1796:	00000903          	lb	s2,0(zero) # 0 <__stack_size-0x2000000>
    179a:	051c                	.insn	2, 0x051c
    179c:	0905                	.insn	2, 0x0905
    179e:	0000                	.insn	2, 0x0000
    17a0:	0518                	.insn	2, 0x0518
    17a2:	0905                	.insn	2, 0x0905
    17a4:	0000                	.insn	2, 0x0000
    17a6:	0106                	.insn	2, 0x0106
    17a8:	0505                	.insn	2, 0x0505
    17aa:	0009                	.insn	2, 0x0009
    17ac:	0600                	.insn	2, 0x0600
    17ae:	0528                	.insn	2, 0x0528
    17b0:	0912                	.insn	2, 0x0912
    17b2:	0000                	.insn	2, 0x0000
    17b4:	0518                	.insn	2, 0x0518
    17b6:	0905                	.insn	2, 0x0905
    17b8:	0000                	.insn	2, 0x0000
    17ba:	05015903          	lhu	s2,80(sp)
    17be:	090d                	.insn	2, 0x090d
    17c0:	0000                	.insn	2, 0x0000
    17c2:	0521                	.insn	2, 0x0521
    17c4:	00000903          	lb	s2,0(zero) # 0 <__stack_size-0x2000000>
    17c8:	0518                	.insn	2, 0x0518
    17ca:	00000903          	lb	s2,0(zero) # 0 <__stack_size-0x2000000>
    17ce:	0519                	.insn	2, 0x0519
    17d0:	00000903          	lb	s2,0(zero) # 0 <__stack_size-0x2000000>
    17d4:	0518                	.insn	2, 0x0518
    17d6:	00000903          	lb	s2,0(zero) # 0 <__stack_size-0x2000000>
    17da:	0518                	.insn	2, 0x0518
    17dc:	00000903          	lb	s2,0(zero) # 0 <__stack_size-0x2000000>
    17e0:	0106                	.insn	2, 0x0106
    17e2:	0305                	.insn	2, 0x0305
    17e4:	0500                	.insn	2, 0x0500
    17e6:	1c02                	.insn	2, 0x1c02
    17e8:	000c                	.insn	2, 0x000c
    17ea:	0680                	.insn	2, 0x0680
    17ec:	0901054b          	.insn	4, 0x0901054b
    17f0:	0000                	.insn	2, 0x0000
    17f2:	0518                	.insn	2, 0x0518
    17f4:	00000903          	lb	s2,0(zero) # 0 <__stack_size-0x2000000>
    17f8:	0519                	.insn	2, 0x0519
    17fa:	00000903          	lb	s2,0(zero) # 0 <__stack_size-0x2000000>
    17fe:	0518                	.insn	2, 0x0518
    1800:	00000903          	lb	s2,0(zero) # 0 <__stack_size-0x2000000>
    1804:	0106                	.insn	2, 0x0106
    1806:	0605                	.insn	2, 0x0605
    1808:	0409                	.insn	2, 0x0409
    180a:	1c00                	.insn	2, 0x1c00
    180c:	0105                	.insn	2, 0x0105
    180e:	0409                	.insn	2, 0x0409
    1810:	0100                	.insn	2, 0x0100
    1812:	0105                	.insn	2, 0x0105
    1814:	0500                	.insn	2, 0x0500
    1816:	2802                	.insn	2, 0x2802
    1818:	000c                	.insn	2, 0x000c
    181a:	0680                	.insn	2, 0x0680
    181c:	051a                	.insn	2, 0x051a
    181e:	0919                	.insn	2, 0x0919
    1820:	0000                	.insn	2, 0x0000
    1822:	0518                	.insn	2, 0x0518
    1824:	00000903          	lb	s2,0(zero) # 0 <__stack_size-0x2000000>
    1828:	0106                	.insn	2, 0x0106
    182a:	0605                	.insn	2, 0x0605
    182c:	0409                	.insn	2, 0x0409
    182e:	0600                	.insn	2, 0x0600
    1830:	0518                	.insn	2, 0x0518
    1832:	0905                	.insn	2, 0x0905
    1834:	0000                	.insn	2, 0x0000
    1836:	0106                	.insn	2, 0x0106
    1838:	0a05                	.insn	2, 0x0a05
    183a:	0809                	.insn	2, 0x0809
    183c:	0600                	.insn	2, 0x0600
    183e:	0518                	.insn	2, 0x0518
    1840:	00000903          	lb	s2,0(zero) # 0 <__stack_size-0x2000000>
    1844:	1806                	.insn	2, 0x1806
    1846:	0105                	.insn	2, 0x0105
    1848:	0500                	.insn	2, 0x0500
    184a:	3802                	.insn	2, 0x3802
    184c:	000c                	.insn	2, 0x000c
    184e:	0080                	.insn	2, 0x0080
    1850:	0101                	.insn	2, 0x0101
    1852:	1000                	.insn	2, 0x1000
    1854:	0000                	.insn	2, 0x0000
    1856:	0005                	.insn	2, 0x0005
    1858:	0004                	.insn	2, 0x0004
    185a:	0040                	.insn	2, 0x0040
    185c:	0000                	.insn	2, 0x0000
    185e:	0101                	.insn	2, 0x0101
    1860:	f601                	.insn	2, 0xf601
    1862:	0df2                	.insn	2, 0x0df2
    1864:	0100                	.insn	2, 0x0100
    1866:	0101                	.insn	2, 0x0101
    1868:	0001                	.insn	2, 0x0001
    186a:	0000                	.insn	2, 0x0000
    186c:	0001                	.insn	2, 0x0001
    186e:	0100                	.insn	2, 0x0100
    1870:	0101                	.insn	2, 0x0101
    1872:	041f 0000 0000      	.insn	6, 0x041f
    1878:	0140                	.insn	2, 0x0140
    187a:	0000                	.insn	2, 0x0000
    187c:	0155                	.insn	2, 0x0155
    187e:	0000                	.insn	2, 0x0000
    1880:	00a0                	.insn	2, 0x00a0
    1882:	0000                	.insn	2, 0x0000
    1884:	0102                	.insn	2, 0x0102
    1886:	021f 040b 012c      	.insn	6, 0x012c040b021f
    188c:	0000                	.insn	2, 0x0000
    188e:	3600                	.insn	2, 0x3600
    1890:	0001                	.insn	2, 0x0001
    1892:	0200                	.insn	2, 0x0200
    1894:	00000123          	sb	zero,2(zero) # 2 <__stack_size-0x1fffffe>
    1898:	00008703          	lb	a4,0(ra)
    189c:	0100                	.insn	2, 0x0100
    189e:	0500                	.insn	2, 0x0500
    18a0:	3802                	.insn	2, 0x3802
    18a2:	000c                	.insn	2, 0x000c
    18a4:	3180                	.insn	2, 0x3180
    18a6:	0105                	.insn	2, 0x0105
    18a8:	0009                	.insn	2, 0x0009
    18aa:	1800                	.insn	2, 0x1800
    18ac:	0205                	.insn	2, 0x0205
    18ae:	0009                	.insn	2, 0x0009
    18b0:	1900                	.insn	2, 0x1900
    18b2:	0205                	.insn	2, 0x0205
    18b4:	0009                	.insn	2, 0x0009
    18b6:	0600                	.insn	2, 0x0600
    18b8:	0501                	.insn	2, 0x0501
    18ba:	0906                	.insn	2, 0x0906
    18bc:	0008                	.insn	2, 0x0008
    18be:	0501                	.insn	2, 0x0501
    18c0:	0905                	.insn	2, 0x0905
    18c2:	0004                	.insn	2, 0x0004
    18c4:	1806                	.insn	2, 0x1806
    18c6:	0305                	.insn	2, 0x0305
    18c8:	0009                	.insn	2, 0x0009
    18ca:	0600                	.insn	2, 0x0600
    18cc:	0501                	.insn	2, 0x0501
    18ce:	090a                	.insn	2, 0x090a
    18d0:	0004                	.insn	2, 0x0004
    18d2:	0501                	.insn	2, 0x0501
    18d4:	090d                	.insn	2, 0x090d
    18d6:	0004                	.insn	2, 0x0004
    18d8:	1806                	.insn	2, 0x1806
    18da:	0305                	.insn	2, 0x0305
    18dc:	0009                	.insn	2, 0x0009
    18de:	0600                	.insn	2, 0x0600
    18e0:	0516                	.insn	2, 0x0516
    18e2:	090a                	.insn	2, 0x090a
    18e4:	0004                	.insn	2, 0x0004
    18e6:	0518                	.insn	2, 0x0518
    18e8:	00040903          	lb	s2,0(s0)
    18ec:	1106                	.insn	2, 0x1106
    18ee:	0605                	.insn	2, 0x0605
    18f0:	0009                	.insn	2, 0x0009
    18f2:	2000                	.insn	2, 0x2000
    18f4:	0205                	.insn	2, 0x0205
    18f6:	0009                	.insn	2, 0x0009
    18f8:	0600                	.insn	2, 0x0600
    18fa:	0501                	.insn	2, 0x0501
    18fc:	0906                	.insn	2, 0x0906
    18fe:	0008                	.insn	2, 0x0008
    1900:	0501                	.insn	2, 0x0501
    1902:	0905                	.insn	2, 0x0905
    1904:	0004                	.insn	2, 0x0004
    1906:	0200                	.insn	2, 0x0200
    1908:	0104                	.insn	2, 0x0104
    190a:	0106                	.insn	2, 0x0106
    190c:	1105                	.insn	2, 0x1105
    190e:	0409                	.insn	2, 0x0409
    1910:	0600                	.insn	2, 0x0600
    1912:	0501                	.insn	2, 0x0501
    1914:	0911                	.insn	2, 0x0911
    1916:	0000                	.insn	2, 0x0000
    1918:	0200                	.insn	2, 0x0200
    191a:	0004                	.insn	2, 0x0004
    191c:	0518                	.insn	2, 0x0518
    191e:	0001                	.insn	2, 0x0001
    1920:	0205                	.insn	2, 0x0205
    1922:	0c68                	.insn	2, 0x0c68
    1924:	8000                	.insn	2, 0x8000
    1926:	2106                	.insn	2, 0x2106
    1928:	0105                	.insn	2, 0x0105
    192a:	0009                	.insn	2, 0x0009
    192c:	1800                	.insn	2, 0x1800
    192e:	0205                	.insn	2, 0x0205
    1930:	0009                	.insn	2, 0x0009
    1932:	0600                	.insn	2, 0x0600
    1934:	0516                	.insn	2, 0x0516
    1936:	0901                	.insn	2, 0x0901
    1938:	0010                	.insn	2, 0x0010
    193a:	1806                	.insn	2, 0x1806
    193c:	0905                	.insn	2, 0x0905
    193e:	0409                	.insn	2, 0x0409
    1940:	0600                	.insn	2, 0x0600
    1942:	0501                	.insn	2, 0x0501
    1944:	0909                	.insn	2, 0x0909
    1946:	0010                	.insn	2, 0x0010
    1948:	05017403          	.insn	4, 0x05017403
    194c:	0906                	.insn	2, 0x0906
    194e:	0008                	.insn	2, 0x0008
    1950:	0501                	.insn	2, 0x0501
    1952:	0906                	.insn	2, 0x0906
    1954:	0000                	.insn	2, 0x0000
    1956:	090a0513          	addi	a0,s4,144
    195a:	0004                	.insn	2, 0x0004
    195c:	0501                	.insn	2, 0x0501
    195e:	090d                	.insn	2, 0x090d
    1960:	0004                	.insn	2, 0x0004
    1962:	1806                	.insn	2, 0x1806
    1964:	0305                	.insn	2, 0x0305
    1966:	0009                	.insn	2, 0x0009
    1968:	0600                	.insn	2, 0x0600
    196a:	0501                	.insn	2, 0x0501
    196c:	00000903          	lb	s2,0(zero) # 0 <__stack_size-0x2000000>
    1970:	2606                	.insn	2, 0x2606
    1972:	0905                	.insn	2, 0x0905
    1974:	0809                	.insn	2, 0x0809
    1976:	1800                	.insn	2, 0x1800
    1978:	0305                	.insn	2, 0x0305
    197a:	0009                	.insn	2, 0x0009
    197c:	0300                	.insn	2, 0x0300
    197e:	0305016f          	jal	sp,519ae <__stack_size-0x1fae652>
    1982:	0009                	.insn	2, 0x0009
    1984:	1200                	.insn	2, 0x1200
    1986:	0605                	.insn	2, 0x0605
    1988:	0009                	.insn	2, 0x0009
    198a:	2000                	.insn	2, 0x2000
    198c:	0205                	.insn	2, 0x0205
    198e:	0009                	.insn	2, 0x0009
    1990:	0600                	.insn	2, 0x0600
    1992:	0512                	.insn	2, 0x0512
    1994:	0906                	.insn	2, 0x0906
    1996:	0004                	.insn	2, 0x0004
    1998:	0529                	.insn	2, 0x0529
    199a:	090d                	.insn	2, 0x090d
    199c:	0004                	.insn	2, 0x0004
    199e:	0306                	.insn	2, 0x0306
    19a0:	016a                	.insn	2, 0x016a
    19a2:	0605                	.insn	2, 0x0605
    19a4:	0009                	.insn	2, 0x0009
    19a6:	1900                	.insn	2, 0x1900
    19a8:	0205                	.insn	2, 0x0205
    19aa:	0009                	.insn	2, 0x0009
    19ac:	1900                	.insn	2, 0x1900
    19ae:	0205                	.insn	2, 0x0205
    19b0:	0009                	.insn	2, 0x0009
    19b2:	0600                	.insn	2, 0x0600
    19b4:	0518                	.insn	2, 0x0518
    19b6:	090a                	.insn	2, 0x090a
    19b8:	0004                	.insn	2, 0x0004
    19ba:	0516                	.insn	2, 0x0516
    19bc:	0905                	.insn	2, 0x0905
    19be:	0004                	.insn	2, 0x0004
    19c0:	0200                	.insn	2, 0x0200
    19c2:	0104                	.insn	2, 0x0104
    19c4:	1c06                	.insn	2, 0x1c06
    19c6:	1105                	.insn	2, 0x1105
    19c8:	0009                	.insn	2, 0x0009
    19ca:	0000                	.insn	2, 0x0000
    19cc:	0402                	.insn	2, 0x0402
    19ce:	0600                	.insn	2, 0x0600
    19d0:	0501                	.insn	2, 0x0501
    19d2:	0906                	.insn	2, 0x0906
    19d4:	0004                	.insn	2, 0x0004
    19d6:	0501                	.insn	2, 0x0501
    19d8:	0905                	.insn	2, 0x0905
    19da:	0004                	.insn	2, 0x0004
    19dc:	0200                	.insn	2, 0x0200
    19de:	0104                	.insn	2, 0x0104
    19e0:	0501                	.insn	2, 0x0501
    19e2:	0911                	.insn	2, 0x0911
    19e4:	0004                	.insn	2, 0x0004
    19e6:	0501                	.insn	2, 0x0501
    19e8:	0911                	.insn	2, 0x0911
    19ea:	0000                	.insn	2, 0x0000
    19ec:	0200                	.insn	2, 0x0200
    19ee:	0004                	.insn	2, 0x0004
    19f0:	2306                	.insn	2, 0x2306
    19f2:	0905                	.insn	2, 0x0905
    19f4:	1009                	.insn	2, 0x1009
    19f6:	0600                	.insn	2, 0x0600
    19f8:	0519                	.insn	2, 0x0519
    19fa:	0901                	.insn	2, 0x0901
    19fc:	0008                	.insn	2, 0x0008
    19fe:	0501                	.insn	2, 0x0501
    1a00:	0001                	.insn	2, 0x0001
    1a02:	0205                	.insn	2, 0x0205
    1a04:	0ce0                	.insn	2, 0x0ce0
    1a06:	8000                	.insn	2, 0x8000
    1a08:	7c06                	.insn	2, 0x7c06
    1a0a:	0105                	.insn	2, 0x0105
    1a0c:	0009                	.insn	2, 0x0009
    1a0e:	1800                	.insn	2, 0x1800
    1a10:	0205                	.insn	2, 0x0205
    1a12:	0009                	.insn	2, 0x0009
    1a14:	1a00                	.insn	2, 0x1a00
    1a16:	0205                	.insn	2, 0x0205
    1a18:	0009                	.insn	2, 0x0009
    1a1a:	0600                	.insn	2, 0x0600
    1a1c:	09010513          	addi	a0,sp,144
    1a20:	0030                	.insn	2, 0x0030
    1a22:	017fbb03          	.insn	4, 0x017fbb03
    1a26:	0505                	.insn	2, 0x0505
    1a28:	0409                	.insn	2, 0x0409
    1a2a:	0100                	.insn	2, 0x0100
    1a2c:	0505                	.insn	2, 0x0505
    1a2e:	0009                	.insn	2, 0x0009
    1a30:	6000                	.insn	2, 0x6000
    1a32:	0205                	.insn	2, 0x0205
    1a34:	0809                	.insn	2, 0x0809
    1a36:	0600                	.insn	2, 0x0600
    1a38:	0518                	.insn	2, 0x0518
    1a3a:	0902                	.insn	2, 0x0902
    1a3c:	0000                	.insn	2, 0x0000
    1a3e:	017fab03          	lw	s6,23(t6)
    1a42:	0605                	.insn	2, 0x0605
    1a44:	0009                	.insn	2, 0x0009
    1a46:	1c00                	.insn	2, 0x1c00
    1a48:	0205                	.insn	2, 0x0205
    1a4a:	0009                	.insn	2, 0x0009
    1a4c:	1800                	.insn	2, 0x1800
    1a4e:	0205                	.insn	2, 0x0205
    1a50:	0009                	.insn	2, 0x0009
    1a52:	1800                	.insn	2, 0x1800
    1a54:	0205                	.insn	2, 0x0205
    1a56:	0009                	.insn	2, 0x0009
    1a58:	1a00                	.insn	2, 0x1a00
    1a5a:	0205                	.insn	2, 0x0205
    1a5c:	0009                	.insn	2, 0x0009
    1a5e:	1800                	.insn	2, 0x1800
    1a60:	0305                	.insn	2, 0x0305
    1a62:	0009                	.insn	2, 0x0009
    1a64:	1800                	.insn	2, 0x1800
    1a66:	0305                	.insn	2, 0x0305
    1a68:	0009                	.insn	2, 0x0009
    1a6a:	0600                	.insn	2, 0x0600
    1a6c:	0501                	.insn	2, 0x0501
    1a6e:	0906                	.insn	2, 0x0906
    1a70:	0008                	.insn	2, 0x0008
    1a72:	052c                	.insn	2, 0x052c
    1a74:	002c0903          	lb	s2,2(s8)
    1a78:	0501                	.insn	2, 0x0501
    1a7a:	00040903          	lb	s2,0(s0)
    1a7e:	05016a03          	.insn	4, 0x05016a03
    1a82:	0004090b          	.insn	4, 0x0004090b
    1a86:	0519                	.insn	2, 0x0519
    1a88:	0906                	.insn	2, 0x0906
    1a8a:	0004                	.insn	2, 0x0004
    1a8c:	0200                	.insn	2, 0x0200
    1a8e:	0104                	.insn	2, 0x0104
    1a90:	09180523          	sb	a7,138(a6)
    1a94:	0004                	.insn	2, 0x0004
    1a96:	0200                	.insn	2, 0x0200
    1a98:	0004                	.insn	2, 0x0004
    1a9a:	05014403          	lbu	s0,80(sp)
    1a9e:	0906                	.insn	2, 0x0906
    1aa0:	0004                	.insn	2, 0x0004
    1aa2:	0501                	.insn	2, 0x0501
    1aa4:	0906                	.insn	2, 0x0906
    1aa6:	0000                	.insn	2, 0x0000
    1aa8:	4706                	.insn	2, 0x4706
    1aaa:	0305                	.insn	2, 0x0305
    1aac:	0009                	.insn	2, 0x0009
    1aae:	0600                	.insn	2, 0x0600
    1ab0:	0501                	.insn	2, 0x0501
    1ab2:	0906                	.insn	2, 0x0906
    1ab4:	0004                	.insn	2, 0x0004
    1ab6:	1806                	.insn	2, 0x1806
    1ab8:	0405                	.insn	2, 0x0405
    1aba:	0009                	.insn	2, 0x0009
    1abc:	0300                	.insn	2, 0x0300
    1abe:	0146                	.insn	2, 0x0146
    1ac0:	0605                	.insn	2, 0x0605
    1ac2:	0009                	.insn	2, 0x0009
    1ac4:	1900                	.insn	2, 0x1900
    1ac6:	0205                	.insn	2, 0x0205
    1ac8:	0009                	.insn	2, 0x0009
    1aca:	1900                	.insn	2, 0x1900
    1acc:	0205                	.insn	2, 0x0205
    1ace:	0009                	.insn	2, 0x0009
    1ad0:	0600                	.insn	2, 0x0600
    1ad2:	0501                	.insn	2, 0x0501
    1ad4:	0906                	.insn	2, 0x0906
    1ad6:	0008                	.insn	2, 0x0008
    1ad8:	0501                	.insn	2, 0x0501
    1ada:	0905                	.insn	2, 0x0905
    1adc:	0004                	.insn	2, 0x0004
    1ade:	1806                	.insn	2, 0x1806
    1ae0:	0305                	.insn	2, 0x0305
    1ae2:	0009                	.insn	2, 0x0009
    1ae4:	0600                	.insn	2, 0x0600
    1ae6:	0501                	.insn	2, 0x0501
    1ae8:	090a                	.insn	2, 0x090a
    1aea:	0004                	.insn	2, 0x0004
    1aec:	0501                	.insn	2, 0x0501
    1aee:	090d                	.insn	2, 0x090d
    1af0:	0004                	.insn	2, 0x0004
    1af2:	1806                	.insn	2, 0x1806
    1af4:	0305                	.insn	2, 0x0305
    1af6:	0009                	.insn	2, 0x0009
    1af8:	0600                	.insn	2, 0x0600
    1afa:	0516                	.insn	2, 0x0516
    1afc:	090a                	.insn	2, 0x090a
    1afe:	0004                	.insn	2, 0x0004
    1b00:	0501                	.insn	2, 0x0501
    1b02:	090a                	.insn	2, 0x090a
    1b04:	0000                	.insn	2, 0x0000
    1b06:	0549                	.insn	2, 0x0549
    1b08:	0004090b          	.insn	4, 0x0004090b
    1b0c:	1106                	.insn	2, 0x1106
    1b0e:	0205                	.insn	2, 0x0205
    1b10:	0009                	.insn	2, 0x0009
    1b12:	1800                	.insn	2, 0x1800
    1b14:	0205                	.insn	2, 0x0205
    1b16:	0009                	.insn	2, 0x0009
    1b18:	1800                	.insn	2, 0x1800
    1b1a:	0205                	.insn	2, 0x0205
    1b1c:	0009                	.insn	2, 0x0009
    1b1e:	1a00                	.insn	2, 0x1a00
    1b20:	0205                	.insn	2, 0x0205
    1b22:	0009                	.insn	2, 0x0009
    1b24:	1800                	.insn	2, 0x1800
    1b26:	0305                	.insn	2, 0x0305
    1b28:	0009                	.insn	2, 0x0009
    1b2a:	0600                	.insn	2, 0x0600
    1b2c:	0501                	.insn	2, 0x0501
    1b2e:	0905                	.insn	2, 0x0905
    1b30:	0004                	.insn	2, 0x0004
    1b32:	0501                	.insn	2, 0x0501
    1b34:	0004090b          	.insn	4, 0x0004090b
    1b38:	1806                	.insn	2, 0x1806
    1b3a:	0305                	.insn	2, 0x0305
    1b3c:	0009                	.insn	2, 0x0009
    1b3e:	0600                	.insn	2, 0x0600
    1b40:	0501                	.insn	2, 0x0501
    1b42:	0906                	.insn	2, 0x0906
    1b44:	0004                	.insn	2, 0x0004
    1b46:	0501                	.insn	2, 0x0501
    1b48:	0906                	.insn	2, 0x0906
    1b4a:	0028                	.insn	2, 0x0028
    1b4c:	0501                	.insn	2, 0x0501
    1b4e:	0906                	.insn	2, 0x0906
    1b50:	0000                	.insn	2, 0x0000
    1b52:	0562                	.insn	2, 0x0562
    1b54:	0901                	.insn	2, 0x0901
    1b56:	0014                	.insn	2, 0x0014
    1b58:	0306                	.insn	2, 0x0306
    1b5a:	7fb9                	.insn	2, 0x7fb9
    1b5c:	0501                	.insn	2, 0x0501
    1b5e:	00000903          	lb	s2,0(zero) # 0 <__stack_size-0x2000000>
    1b62:	0518                	.insn	2, 0x0518
    1b64:	00000903          	lb	s2,0(zero) # 0 <__stack_size-0x2000000>
    1b68:	0106                	.insn	2, 0x0106
    1b6a:	0505                	.insn	2, 0x0505
    1b6c:	0409                	.insn	2, 0x0409
    1b6e:	0600                	.insn	2, 0x0600
    1b70:	0518                	.insn	2, 0x0518
    1b72:	00000903          	lb	s2,0(zero) # 0 <__stack_size-0x2000000>
    1b76:	0106                	.insn	2, 0x0106
    1b78:	0605                	.insn	2, 0x0605
    1b7a:	0809                	.insn	2, 0x0809
    1b7c:	0600                	.insn	2, 0x0600
    1b7e:	051a                	.insn	2, 0x051a
    1b80:	0904                	.insn	2, 0x0904
    1b82:	0000                	.insn	2, 0x0000
    1b84:	0106                	.insn	2, 0x0106
    1b86:	0705                	.insn	2, 0x0705
    1b88:	0809                	.insn	2, 0x0809
    1b8a:	1300                	.insn	2, 0x1300
    1b8c:	0b05                	.insn	2, 0x0b05
    1b8e:	0409                	.insn	2, 0x0409
    1b90:	1600                	.insn	2, 0x1600
    1b92:	0505                	.insn	2, 0x0505
    1b94:	0409                	.insn	2, 0x0409
    1b96:	0600                	.insn	2, 0x0600
    1b98:	0520                	.insn	2, 0x0520
    1b9a:	00000903          	lb	s2,0(zero) # 0 <__stack_size-0x2000000>
    1b9e:	0200                	.insn	2, 0x0200
    1ba0:	0104                	.insn	2, 0x0104
    1ba2:	0501                	.insn	2, 0x0501
    1ba4:	0918                	.insn	2, 0x0918
    1ba6:	0008                	.insn	2, 0x0008
    1ba8:	0200                	.insn	2, 0x0200
    1baa:	0004                	.insn	2, 0x0004
    1bac:	0106                	.insn	2, 0x0106
    1bae:	0a05                	.insn	2, 0x0a05
    1bb0:	0409                	.insn	2, 0x0409
    1bb2:	0000                	.insn	2, 0x0000
    1bb4:	0402                	.insn	2, 0x0402
    1bb6:	0101                	.insn	2, 0x0101
    1bb8:	1805                	.insn	2, 0x1805
    1bba:	0409                	.insn	2, 0x0409
    1bbc:	0000                	.insn	2, 0x0000
    1bbe:	0402                	.insn	2, 0x0402
    1bc0:	0600                	.insn	2, 0x0600
    1bc2:	0518                	.insn	2, 0x0518
    1bc4:	0904                	.insn	2, 0x0904
    1bc6:	0000                	.insn	2, 0x0000
    1bc8:	0106                	.insn	2, 0x0106
    1bca:	0a05                	.insn	2, 0x0a05
    1bcc:	0809                	.insn	2, 0x0809
    1bce:	0000                	.insn	2, 0x0000
    1bd0:	0402                	.insn	2, 0x0402
    1bd2:	2d051603          	lh	a2,720(a0)
    1bd6:	0409                	.insn	2, 0x0409
    1bd8:	0000                	.insn	2, 0x0000
    1bda:	0402                	.insn	2, 0x0402
    1bdc:	1800                	.insn	2, 0x1800
    1bde:	0a05                	.insn	2, 0x0a05
    1be0:	0409                	.insn	2, 0x0409
    1be2:	0100                	.insn	2, 0x0100
    1be4:	0f05                	.insn	2, 0x0f05
    1be6:	0409                	.insn	2, 0x0409
    1be8:	0000                	.insn	2, 0x0000
    1bea:	0402                	.insn	2, 0x0402
    1bec:	27051603          	lh	a2,624(a0)
    1bf0:	0409                	.insn	2, 0x0409
    1bf2:	0000                	.insn	2, 0x0000
    1bf4:	0402                	.insn	2, 0x0402
    1bf6:	1800                	.insn	2, 0x1800
    1bf8:	0605                	.insn	2, 0x0605
    1bfa:	0409                	.insn	2, 0x0409
    1bfc:	0000                	.insn	2, 0x0000
    1bfe:	0402                	.insn	2, 0x0402
    1c00:	05160603          	lb	a2,81(a2)
    1c04:	00000927          	.insn	4, 0x0927
    1c08:	0200                	.insn	2, 0x0200
    1c0a:	0104                	.insn	2, 0x0104
    1c0c:	0501                	.insn	2, 0x0501
    1c0e:	0918                	.insn	2, 0x0918
    1c10:	000c                	.insn	2, 0x000c
    1c12:	0200                	.insn	2, 0x0200
    1c14:	0004                	.insn	2, 0x0004
    1c16:	0519                	.insn	2, 0x0519
    1c18:	00000903          	lb	s2,0(zero) # 0 <__stack_size-0x2000000>
    1c1c:	0106                	.insn	2, 0x0106
    1c1e:	0605                	.insn	2, 0x0605
    1c20:	0c09                	.insn	2, 0x0c09
    1c22:	0600                	.insn	2, 0x0600
    1c24:	0518                	.insn	2, 0x0518
    1c26:	0904                	.insn	2, 0x0904
    1c28:	0000                	.insn	2, 0x0000
    1c2a:	0106                	.insn	2, 0x0106
    1c2c:	0e05                	.insn	2, 0x0e05
    1c2e:	0409                	.insn	2, 0x0409
    1c30:	0100                	.insn	2, 0x0100
    1c32:	0605                	.insn	2, 0x0605
    1c34:	0409                	.insn	2, 0x0409
    1c36:	0600                	.insn	2, 0x0600
    1c38:	0501                	.insn	2, 0x0501
    1c3a:	090c                	.insn	2, 0x090c
    1c3c:	0000                	.insn	2, 0x0000
    1c3e:	0106                	.insn	2, 0x0106
    1c40:	1405                	.insn	2, 0x1405
    1c42:	0409                	.insn	2, 0x0409
    1c44:	0600                	.insn	2, 0x0600
    1c46:	0519                	.insn	2, 0x0519
    1c48:	00000903          	lb	s2,0(zero) # 0 <__stack_size-0x2000000>
    1c4c:	0106                	.insn	2, 0x0106
    1c4e:	0605                	.insn	2, 0x0605
    1c50:	0409                	.insn	2, 0x0409
    1c52:	0600                	.insn	2, 0x0600
    1c54:	0518                	.insn	2, 0x0518
    1c56:	00000903          	lb	s2,0(zero) # 0 <__stack_size-0x2000000>
    1c5a:	0518                	.insn	2, 0x0518
    1c5c:	00000903          	lb	s2,0(zero) # 0 <__stack_size-0x2000000>
    1c60:	0106                	.insn	2, 0x0106
    1c62:	0605                	.insn	2, 0x0605
    1c64:	0409                	.insn	2, 0x0409
    1c66:	1600                	.insn	2, 0x1600
    1c68:	0505                	.insn	2, 0x0505
    1c6a:	0409                	.insn	2, 0x0409
    1c6c:	1800                	.insn	2, 0x1800
    1c6e:	0605                	.insn	2, 0x0605
    1c70:	0409                	.insn	2, 0x0409
    1c72:	0000                	.insn	2, 0x0000
    1c74:	0402                	.insn	2, 0x0402
    1c76:	0601                	.insn	2, 0x0601
    1c78:	0501                	.insn	2, 0x0501
    1c7a:	0911                	.insn	2, 0x0911
    1c7c:	0000                	.insn	2, 0x0000
    1c7e:	0106                	.insn	2, 0x0106
    1c80:	1305                	.insn	2, 0x1305
    1c82:	0809                	.insn	2, 0x0809
    1c84:	0000                	.insn	2, 0x0000
    1c86:	0402                	.insn	2, 0x0402
    1c88:	0600                	.insn	2, 0x0600
    1c8a:	0518                	.insn	2, 0x0518
    1c8c:	00240903          	lb	s2,2(s0)
    1c90:	0904052b          	.insn	4, 0x0904052b
    1c94:	0000                	.insn	2, 0x0000
    1c96:	017f9f03          	lh	t5,23(t6)
    1c9a:	0605                	.insn	2, 0x0605
    1c9c:	0009                	.insn	2, 0x0009
    1c9e:	1900                	.insn	2, 0x1900
    1ca0:	0205                	.insn	2, 0x0205
    1ca2:	0009                	.insn	2, 0x0009
    1ca4:	1900                	.insn	2, 0x1900
    1ca6:	0205                	.insn	2, 0x0205
    1ca8:	0009                	.insn	2, 0x0009
    1caa:	0600                	.insn	2, 0x0600
    1cac:	0501                	.insn	2, 0x0501
    1cae:	0906                	.insn	2, 0x0906
    1cb0:	0004                	.insn	2, 0x0004
    1cb2:	0501                	.insn	2, 0x0501
    1cb4:	0906                	.insn	2, 0x0906
    1cb6:	0004                	.insn	2, 0x0004
    1cb8:	0501                	.insn	2, 0x0501
    1cba:	0905                	.insn	2, 0x0905
    1cbc:	0004                	.insn	2, 0x0004
    1cbe:	1806                	.insn	2, 0x1806
    1cc0:	0305                	.insn	2, 0x0305
    1cc2:	0009                	.insn	2, 0x0009
    1cc4:	0600                	.insn	2, 0x0600
    1cc6:	0501                	.insn	2, 0x0501
    1cc8:	090a                	.insn	2, 0x090a
    1cca:	0004                	.insn	2, 0x0004
    1ccc:	0501                	.insn	2, 0x0501
    1cce:	090d                	.insn	2, 0x090d
    1cd0:	0004                	.insn	2, 0x0004
    1cd2:	1806                	.insn	2, 0x1806
    1cd4:	0305                	.insn	2, 0x0305
    1cd6:	0009                	.insn	2, 0x0009
    1cd8:	0600                	.insn	2, 0x0600
    1cda:	0516                	.insn	2, 0x0516
    1cdc:	090a                	.insn	2, 0x090a
    1cde:	0004                	.insn	2, 0x0004
    1ce0:	0518                	.insn	2, 0x0518
    1ce2:	00040903          	lb	s2,0(s0)
    1ce6:	0501                	.insn	2, 0x0501
    1ce8:	00000903          	lb	s2,0(zero) # 0 <__stack_size-0x2000000>
    1cec:	6e06                	.insn	2, 0x6e06
    1cee:	0405                	.insn	2, 0x0405
    1cf0:	0009                	.insn	2, 0x0009
    1cf2:	0100                	.insn	2, 0x0100
    1cf4:	0c05                	.insn	2, 0x0c05
    1cf6:	0009                	.insn	2, 0x0009
    1cf8:	1f00                	.insn	2, 0x1f00
    1cfa:	0305                	.insn	2, 0x0305
    1cfc:	0009                	.insn	2, 0x0009
    1cfe:	0600                	.insn	2, 0x0600
    1d00:	0501                	.insn	2, 0x0501
    1d02:	090a                	.insn	2, 0x090a
    1d04:	0004                	.insn	2, 0x0004
    1d06:	05016a03          	.insn	4, 0x05016a03
    1d0a:	0906                	.insn	2, 0x0906
    1d0c:	0004                	.insn	2, 0x0004
    1d0e:	052d                	.insn	2, 0x052d
    1d10:	00040923          	sb	zero,18(s0)
    1d14:	0518                	.insn	2, 0x0518
    1d16:	0909                	.insn	2, 0x0909
    1d18:	0004                	.insn	2, 0x0004
    1d1a:	05016903          	.insn	4, 0x05016903
    1d1e:	0906                	.insn	2, 0x0906
    1d20:	0004                	.insn	2, 0x0004
    1d22:	2e06                	.insn	2, 0x2e06
    1d24:	0305                	.insn	2, 0x0305
    1d26:	0009                	.insn	2, 0x0009
    1d28:	0600                	.insn	2, 0x0600
    1d2a:	0501                	.insn	2, 0x0501
    1d2c:	0906                	.insn	2, 0x0906
    1d2e:	0008                	.insn	2, 0x0008
    1d30:	1806                	.insn	2, 0x1806
    1d32:	0405                	.insn	2, 0x0405
    1d34:	0009                	.insn	2, 0x0009
    1d36:	0600                	.insn	2, 0x0600
    1d38:	0501                	.insn	2, 0x0501
    1d3a:	0906                	.insn	2, 0x0906
    1d3c:	0004                	.insn	2, 0x0004
    1d3e:	1806                	.insn	2, 0x1806
    1d40:	0405                	.insn	2, 0x0405
    1d42:	0009                	.insn	2, 0x0009
    1d44:	0600                	.insn	2, 0x0600
    1d46:	0501                	.insn	2, 0x0501
    1d48:	0906                	.insn	2, 0x0906
    1d4a:	0004                	.insn	2, 0x0004
    1d4c:	0501                	.insn	2, 0x0501
    1d4e:	0906                	.insn	2, 0x0906
    1d50:	000c                	.insn	2, 0x000c
    1d52:	1906                	.insn	2, 0x1906
    1d54:	0305                	.insn	2, 0x0305
    1d56:	0009                	.insn	2, 0x0009
    1d58:	0600                	.insn	2, 0x0600
    1d5a:	0501                	.insn	2, 0x0501
    1d5c:	00040903          	lb	s2,0(s0)
    1d60:	0501                	.insn	2, 0x0501
    1d62:	00080903          	lb	s2,0(a6)
    1d66:	0501                	.insn	2, 0x0501
    1d68:	00040903          	lb	s2,0(s0)
    1d6c:	0501                	.insn	2, 0x0501
    1d6e:	0905                	.insn	2, 0x0905
    1d70:	000c                	.insn	2, 0x000c
    1d72:	0907051b          	.insn	4, 0x0907051b
    1d76:	0004                	.insn	2, 0x0004
    1d78:	1406                	.insn	2, 0x1406
    1d7a:	0305                	.insn	2, 0x0305
    1d7c:	0009                	.insn	2, 0x0009
    1d7e:	1800                	.insn	2, 0x1800
    1d80:	0405                	.insn	2, 0x0405
    1d82:	0009                	.insn	2, 0x0009
    1d84:	0600                	.insn	2, 0x0600
    1d86:	0501                	.insn	2, 0x0501
    1d88:	0911                	.insn	2, 0x0911
    1d8a:	0008                	.insn	2, 0x0008
    1d8c:	0106                	.insn	2, 0x0106
    1d8e:	1705                	.insn	2, 0x1705
    1d90:	0009                	.insn	2, 0x0009
    1d92:	0600                	.insn	2, 0x0600
    1d94:	0501                	.insn	2, 0x0501
    1d96:	0919                	.insn	2, 0x0919
    1d98:	0004                	.insn	2, 0x0004
    1d9a:	1806                	.insn	2, 0x1806
    1d9c:	0405                	.insn	2, 0x0405
    1d9e:	0009                	.insn	2, 0x0009
    1da0:	0600                	.insn	2, 0x0600
    1da2:	0501                	.insn	2, 0x0501
    1da4:	00040907          	.insn	4, 0x00040907
    1da8:	0200                	.insn	2, 0x0200
    1daa:	0104                	.insn	2, 0x0104
    1dac:	0106                	.insn	2, 0x0106
    1dae:	0f05                	.insn	2, 0x0f05
    1db0:	0009                	.insn	2, 0x0009
    1db2:	0000                	.insn	2, 0x0000
    1db4:	0402                	.insn	2, 0x0402
    1db6:	0605                	.insn	2, 0x0605
    1db8:	0501                	.insn	2, 0x0501
    1dba:	0911                	.insn	2, 0x0911
    1dbc:	0004                	.insn	2, 0x0004
    1dbe:	0200                	.insn	2, 0x0200
    1dc0:	0004                	.insn	2, 0x0004
    1dc2:	1806                	.insn	2, 0x1806
    1dc4:	0405                	.insn	2, 0x0405
    1dc6:	0009                	.insn	2, 0x0009
    1dc8:	0600                	.insn	2, 0x0600
    1dca:	0501                	.insn	2, 0x0501
    1dcc:	00040907          	.insn	4, 0x00040907
    1dd0:	0501                	.insn	2, 0x0501
    1dd2:	0004090f          	.insn	4, 0x0004090f
    1dd6:	0501                	.insn	2, 0x0501
    1dd8:	0008090b          	.insn	4, 0x0008090b
    1ddc:	1806                	.insn	2, 0x1806
    1dde:	0e05                	.insn	2, 0x0e05
    1de0:	0409                	.insn	2, 0x0409
    1de2:	0600                	.insn	2, 0x0600
    1de4:	0501                	.insn	2, 0x0501
    1de6:	00040913          	addi	s2,s0,0
    1dea:	0501                	.insn	2, 0x0501
    1dec:	090e                	.insn	2, 0x090e
    1dee:	0004                	.insn	2, 0x0004
    1df0:	1806                	.insn	2, 0x1806
    1df2:	0305                	.insn	2, 0x0305
    1df4:	0009                	.insn	2, 0x0009
    1df6:	0600                	.insn	2, 0x0600
    1df8:	0501                	.insn	2, 0x0501
    1dfa:	0906                	.insn	2, 0x0906
    1dfc:	0004                	.insn	2, 0x0004
    1dfe:	0200                	.insn	2, 0x0200
    1e00:	0104                	.insn	2, 0x0104
    1e02:	0106                	.insn	2, 0x0106
    1e04:	0e05                	.insn	2, 0x0e05
    1e06:	0009                	.insn	2, 0x0009
    1e08:	0600                	.insn	2, 0x0600
    1e0a:	0501                	.insn	2, 0x0501
    1e0c:	0915                	.insn	2, 0x0915
    1e0e:	0008                	.insn	2, 0x0008
    1e10:	0501                	.insn	2, 0x0501
    1e12:	0911                	.insn	2, 0x0911
    1e14:	0004                	.insn	2, 0x0004
    1e16:	0501                	.insn	2, 0x0501
    1e18:	0915                	.insn	2, 0x0915
    1e1a:	0004                	.insn	2, 0x0004
    1e1c:	0200                	.insn	2, 0x0200
    1e1e:	0004                	.insn	2, 0x0004
    1e20:	1806                	.insn	2, 0x1806
    1e22:	0305                	.insn	2, 0x0305
    1e24:	0009                	.insn	2, 0x0009
    1e26:	0100                	.insn	2, 0x0100
    1e28:	0a05                	.insn	2, 0x0a05
    1e2a:	0009                	.insn	2, 0x0009
    1e2c:	0000                	.insn	2, 0x0000
    1e2e:	0402                	.insn	2, 0x0402
    1e30:	0602                	.insn	2, 0x0602
    1e32:	0501                	.insn	2, 0x0501
    1e34:	090c                	.insn	2, 0x090c
    1e36:	0008                	.insn	2, 0x0008
    1e38:	0501                	.insn	2, 0x0501
    1e3a:	090c                	.insn	2, 0x090c
    1e3c:	0004                	.insn	2, 0x0004
    1e3e:	0200                	.insn	2, 0x0200
    1e40:	0004                	.insn	2, 0x0004
    1e42:	017f9303          	lh	t1,23(t6)
    1e46:	0605                	.insn	2, 0x0605
    1e48:	0409                	.insn	2, 0x0409
    1e4a:	0000                	.insn	2, 0x0000
    1e4c:	0402                	.insn	2, 0x0402
    1e4e:	8502                	.insn	2, 0x8502
    1e50:	0e05                	.insn	2, 0x0e05
    1e52:	0409                	.insn	2, 0x0409
    1e54:	0100                	.insn	2, 0x0100
    1e56:	1305                	.insn	2, 0x1305
    1e58:	0409                	.insn	2, 0x0409
    1e5a:	0000                	.insn	2, 0x0000
    1e5c:	0402                	.insn	2, 0x0402
    1e5e:	0300                	.insn	2, 0x0300
    1e60:	7f92                	.insn	2, 0x7f92
    1e62:	0501                	.insn	2, 0x0501
    1e64:	0906                	.insn	2, 0x0906
    1e66:	0004                	.insn	2, 0x0004
    1e68:	0200                	.insn	2, 0x0200
    1e6a:	0204                	.insn	2, 0x0204
    1e6c:	0584                	.insn	2, 0x0584
    1e6e:	090c                	.insn	2, 0x090c
    1e70:	0004                	.insn	2, 0x0004
    1e72:	1806                	.insn	2, 0x1806
    1e74:	1305                	.insn	2, 0x1305
    1e76:	1009                	.insn	2, 0x1009
    1e78:	0000                	.insn	2, 0x0000
    1e7a:	0402                	.insn	2, 0x0402
    1e7c:	05010603          	lb	a2,80(sp)
    1e80:	00040917          	auipc	s2,0x40
    1e84:	0501                	.insn	2, 0x0501
    1e86:	00040913          	addi	s2,s0,0
    1e8a:	0200                	.insn	2, 0x0200
    1e8c:	0404                	.insn	2, 0x0404
    1e8e:	0106                	.insn	2, 0x0106
    1e90:	1f05                	.insn	2, 0x1f05
    1e92:	0009                	.insn	2, 0x0009
    1e94:	0000                	.insn	2, 0x0000
    1e96:	0402                	.insn	2, 0x0402
    1e98:	0300                	.insn	2, 0x0300
    1e9a:	7f8e                	.insn	2, 0x7f8e
    1e9c:	0501                	.insn	2, 0x0501
    1e9e:	0906                	.insn	2, 0x0906
    1ea0:	0000                	.insn	2, 0x0000
    1ea2:	0519                	.insn	2, 0x0519
    1ea4:	0902                	.insn	2, 0x0902
    1ea6:	0000                	.insn	2, 0x0000
    1ea8:	0519                	.insn	2, 0x0519
    1eaa:	0902                	.insn	2, 0x0902
    1eac:	0000                	.insn	2, 0x0000
    1eae:	0106                	.insn	2, 0x0106
    1eb0:	0505                	.insn	2, 0x0505
    1eb2:	0409                	.insn	2, 0x0409
    1eb4:	0600                	.insn	2, 0x0600
    1eb6:	09060513          	addi	a0,a2,144
    1eba:	0000                	.insn	2, 0x0000
    1ebc:	0520                	.insn	2, 0x0520
    1ebe:	0902                	.insn	2, 0x0902
    1ec0:	0000                	.insn	2, 0x0000
    1ec2:	0106                	.insn	2, 0x0106
    1ec4:	0605                	.insn	2, 0x0605
    1ec6:	0409                	.insn	2, 0x0409
    1ec8:	0100                	.insn	2, 0x0100
    1eca:	0505                	.insn	2, 0x0505
    1ecc:	0409                	.insn	2, 0x0409
    1ece:	0000                	.insn	2, 0x0000
    1ed0:	0402                	.insn	2, 0x0402
    1ed2:	0601                	.insn	2, 0x0601
    1ed4:	0501                	.insn	2, 0x0501
    1ed6:	0911                	.insn	2, 0x0911
    1ed8:	0008                	.insn	2, 0x0008
    1eda:	0200                	.insn	2, 0x0200
    1edc:	0004                	.insn	2, 0x0004
    1ede:	1206                	.insn	2, 0x1206
    1ee0:	0605                	.insn	2, 0x0605
    1ee2:	0409                	.insn	2, 0x0409
    1ee4:	0100                	.insn	2, 0x0100
    1ee6:	0605                	.insn	2, 0x0605
    1ee8:	0009                	.insn	2, 0x0009
    1eea:	0000                	.insn	2, 0x0000
    1eec:	0402                	.insn	2, 0x0402
    1eee:	0602                	.insn	2, 0x0602
    1ef0:	0585                	.insn	2, 0x0585
    1ef2:	00000913          	addi	s2,zero,0
    1ef6:	0200                	.insn	2, 0x0200
    1ef8:	0304                	.insn	2, 0x0304
    1efa:	0106                	.insn	2, 0x0106
    1efc:	1305                	.insn	2, 0x1305
    1efe:	0409                	.insn	2, 0x0409
    1f00:	0100                	.insn	2, 0x0100
    1f02:	1305                	.insn	2, 0x1305
    1f04:	0409                	.insn	2, 0x0409
    1f06:	0000                	.insn	2, 0x0000
    1f08:	0402                	.insn	2, 0x0402
    1f0a:	0604                	.insn	2, 0x0604
    1f0c:	0501                	.insn	2, 0x0501
    1f0e:	091f 0000 0200      	.insn	6, 0x02000000091f
    1f14:	0004                	.insn	2, 0x0004
    1f16:	017f8e03          	lb	t3,23(t6)
    1f1a:	0605                	.insn	2, 0x0605
    1f1c:	0009                	.insn	2, 0x0009
    1f1e:	1900                	.insn	2, 0x1900
    1f20:	0205                	.insn	2, 0x0205
    1f22:	0009                	.insn	2, 0x0009
    1f24:	1900                	.insn	2, 0x1900
    1f26:	0205                	.insn	2, 0x0205
    1f28:	0009                	.insn	2, 0x0009
    1f2a:	0600                	.insn	2, 0x0600
    1f2c:	0501                	.insn	2, 0x0501
    1f2e:	0905                	.insn	2, 0x0905
    1f30:	0004                	.insn	2, 0x0004
    1f32:	1806                	.insn	2, 0x1806
    1f34:	0305                	.insn	2, 0x0305
    1f36:	0409                	.insn	2, 0x0409
    1f38:	0600                	.insn	2, 0x0600
    1f3a:	0501                	.insn	2, 0x0501
    1f3c:	090a                	.insn	2, 0x090a
    1f3e:	0004                	.insn	2, 0x0004
    1f40:	0200                	.insn	2, 0x0200
    1f42:	0304                	.insn	2, 0x0304
    1f44:	0584                	.insn	2, 0x0584
    1f46:	00040917          	auipc	s2,0x40
    1f4a:	0200                	.insn	2, 0x0200
    1f4c:	0004                	.insn	2, 0x0004
    1f4e:	017f9303          	lh	t1,23(t6)
    1f52:	0d05                	.insn	2, 0x0d05
    1f54:	0409                	.insn	2, 0x0409
    1f56:	0600                	.insn	2, 0x0600
    1f58:	0518                	.insn	2, 0x0518
    1f5a:	00000903          	lb	s2,0(zero) # 0 <__stack_size-0x2000000>
    1f5e:	0106                	.insn	2, 0x0106
    1f60:	0305                	.insn	2, 0x0305
    1f62:	0009                	.insn	2, 0x0009
    1f64:	0000                	.insn	2, 0x0000
    1f66:	0402                	.insn	2, 0x0402
    1f68:	0602                	.insn	2, 0x0602
    1f6a:	09130583          	lb	a1,145(t1)
    1f6e:	0000                	.insn	2, 0x0000
    1f70:	0200                	.insn	2, 0x0200
    1f72:	0004                	.insn	2, 0x0004
    1f74:	0306                	.insn	2, 0x0306
    1f76:	05017f93          	andi	t6,sp,80
    1f7a:	090a                	.insn	2, 0x090a
    1f7c:	0004                	.insn	2, 0x0004
    1f7e:	0200                	.insn	2, 0x0200
    1f80:	0304                	.insn	2, 0x0304
    1f82:	0584                	.insn	2, 0x0584
    1f84:	00040913          	addi	s2,s0,0
    1f88:	0501                	.insn	2, 0x0501
    1f8a:	00040913          	addi	s2,s0,0
    1f8e:	0501                	.insn	2, 0x0501
    1f90:	00040913          	addi	s2,s0,0
    1f94:	0200                	.insn	2, 0x0200
    1f96:	0004                	.insn	2, 0x0004
    1f98:	0306                	.insn	2, 0x0306
    1f9a:	05017f93          	andi	t6,sp,80
    1f9e:	00000903          	lb	s2,0(zero) # 0 <__stack_size-0x2000000>
    1fa2:	0106                	.insn	2, 0x0106
    1fa4:	0a05                	.insn	2, 0x0a05
    1fa6:	0409                	.insn	2, 0x0409
    1fa8:	0100                	.insn	2, 0x0100
    1faa:	0d05                	.insn	2, 0x0d05
    1fac:	0409                	.insn	2, 0x0409
    1fae:	0600                	.insn	2, 0x0600
    1fb0:	0518                	.insn	2, 0x0518
    1fb2:	00000903          	lb	s2,0(zero) # 0 <__stack_size-0x2000000>
    1fb6:	1606                	.insn	2, 0x1606
    1fb8:	0a05                	.insn	2, 0x0a05
    1fba:	0409                	.insn	2, 0x0409
    1fbc:	0100                	.insn	2, 0x0100
    1fbe:	0a05                	.insn	2, 0x0a05
    1fc0:	0009                	.insn	2, 0x0009
    1fc2:	0000                	.insn	2, 0x0000
    1fc4:	0402                	.insn	2, 0x0402
    1fc6:	0602                	.insn	2, 0x0602
    1fc8:	0585                	.insn	2, 0x0585
    1fca:	0004091b          	.insn	4, 0x0004091b
    1fce:	0106                	.insn	2, 0x0106
    1fd0:	1b05                	.insn	2, 0x1b05
    1fd2:	0409                	.insn	2, 0x0409
    1fd4:	0000                	.insn	2, 0x0000
    1fd6:	0402                	.insn	2, 0x0402
    1fd8:	0300                	.insn	2, 0x0300
    1fda:	7f91                	.insn	2, 0x7f91
    1fdc:	0501                	.insn	2, 0x0501
    1fde:	0906                	.insn	2, 0x0906
    1fe0:	0004                	.insn	2, 0x0004
    1fe2:	0501                	.insn	2, 0x0501
    1fe4:	0906                	.insn	2, 0x0906
    1fe6:	0000                	.insn	2, 0x0000
    1fe8:	0200                	.insn	2, 0x0200
    1fea:	0204                	.insn	2, 0x0204
    1fec:	8606                	.insn	2, 0x8606
    1fee:	0305                	.insn	2, 0x0305
    1ff0:	0009                	.insn	2, 0x0009
    1ff2:	0100                	.insn	2, 0x0100
    1ff4:	0605                	.insn	2, 0x0605
    1ff6:	0009                	.insn	2, 0x0009
    1ff8:	0600                	.insn	2, 0x0600
    1ffa:	0501                	.insn	2, 0x0501
    1ffc:	0906                	.insn	2, 0x0906
    1ffe:	0004                	.insn	2, 0x0004
    2000:	0200                	.insn	2, 0x0200
    2002:	0004                	.insn	2, 0x0004
    2004:	0306                	.insn	2, 0x0306
    2006:	7f8d                	.insn	2, 0x7f8d
    2008:	0501                	.insn	2, 0x0501
    200a:	0906                	.insn	2, 0x0906
    200c:	0000                	.insn	2, 0x0000
    200e:	0519                	.insn	2, 0x0519
    2010:	0902                	.insn	2, 0x0902
    2012:	0000                	.insn	2, 0x0000
    2014:	0519                	.insn	2, 0x0519
    2016:	0902                	.insn	2, 0x0902
    2018:	0000                	.insn	2, 0x0000
    201a:	0106                	.insn	2, 0x0106
    201c:	0505                	.insn	2, 0x0505
    201e:	0409                	.insn	2, 0x0409
    2020:	0600                	.insn	2, 0x0600
    2022:	09060513          	addi	a0,a2,144
    2026:	0000                	.insn	2, 0x0000
    2028:	0520                	.insn	2, 0x0520
    202a:	0902                	.insn	2, 0x0902
    202c:	0000                	.insn	2, 0x0000
    202e:	0106                	.insn	2, 0x0106
    2030:	0605                	.insn	2, 0x0605
    2032:	0409                	.insn	2, 0x0409
    2034:	0100                	.insn	2, 0x0100
    2036:	0505                	.insn	2, 0x0505
    2038:	0409                	.insn	2, 0x0409
    203a:	0000                	.insn	2, 0x0000
    203c:	0402                	.insn	2, 0x0402
    203e:	0601                	.insn	2, 0x0601
    2040:	0501                	.insn	2, 0x0501
    2042:	0911                	.insn	2, 0x0911
    2044:	0000                	.insn	2, 0x0000
    2046:	0200                	.insn	2, 0x0200
    2048:	0204                	.insn	2, 0x0204
    204a:	8106                	.insn	2, 0x8106
    204c:	1b05                	.insn	2, 0x1b05
    204e:	0409                	.insn	2, 0x0409
    2050:	0000                	.insn	2, 0x0000
    2052:	0402                	.insn	2, 0x0402
    2054:	0301                	.insn	2, 0x0301
    2056:	7f96                	.insn	2, 0x7f96
    2058:	0501                	.insn	2, 0x0501
    205a:	0911                	.insn	2, 0x0911
    205c:	0004                	.insn	2, 0x0004
    205e:	0501                	.insn	2, 0x0501
    2060:	0911                	.insn	2, 0x0911
    2062:	0000                	.insn	2, 0x0000
    2064:	0200                	.insn	2, 0x0200
    2066:	0204                	.insn	2, 0x0204
    2068:	8106                	.insn	2, 0x8106
    206a:	1b05                	.insn	2, 0x1b05
    206c:	0409                	.insn	2, 0x0409
    206e:	1800                	.insn	2, 0x1800
    2070:	0e05                	.insn	2, 0x0e05
    2072:	0009                	.insn	2, 0x0009
    2074:	0600                	.insn	2, 0x0600
    2076:	0501                	.insn	2, 0x0501
    2078:	090e                	.insn	2, 0x090e
    207a:	0008                	.insn	2, 0x0008
    207c:	0501                	.insn	2, 0x0501
    207e:	0004090b          	.insn	4, 0x0004090b
    2082:	0200                	.insn	2, 0x0200
    2084:	0004                	.insn	2, 0x0004
    2086:	017f9003          	lh	zero,23(t6)
    208a:	0605                	.insn	2, 0x0605
    208c:	0409                	.insn	2, 0x0409
    208e:	0000                	.insn	2, 0x0000
    2090:	0402                	.insn	2, 0x0402
    2092:	1c01                	.insn	2, 0x1c01
    2094:	1105                	.insn	2, 0x1105
    2096:	0409                	.insn	2, 0x0409
    2098:	0100                	.insn	2, 0x0100
    209a:	1105                	.insn	2, 0x1105
    209c:	0009                	.insn	2, 0x0009
    209e:	0000                	.insn	2, 0x0000
    20a0:	0402                	.insn	2, 0x0402
    20a2:	05820603          	lb	a2,88(tp) # 58 <__stack_size-0x1ffffa8>
    20a6:	00000913          	addi	s2,zero,0
    20aa:	0200                	.insn	2, 0x0200
    20ac:	0004                	.insn	2, 0x0004
    20ae:	017f8c03          	lb	s8,23(t6)
    20b2:	0605                	.insn	2, 0x0605
    20b4:	0009                	.insn	2, 0x0009
    20b6:	1900                	.insn	2, 0x1900
    20b8:	0205                	.insn	2, 0x0205
    20ba:	0009                	.insn	2, 0x0009
    20bc:	1900                	.insn	2, 0x1900
    20be:	0205                	.insn	2, 0x0205
    20c0:	0009                	.insn	2, 0x0009
    20c2:	0600                	.insn	2, 0x0600
    20c4:	0501                	.insn	2, 0x0501
    20c6:	0905                	.insn	2, 0x0905
    20c8:	0004                	.insn	2, 0x0004
    20ca:	1806                	.insn	2, 0x1806
    20cc:	0305                	.insn	2, 0x0305
    20ce:	0009                	.insn	2, 0x0009
    20d0:	0600                	.insn	2, 0x0600
    20d2:	0501                	.insn	2, 0x0501
    20d4:	090a                	.insn	2, 0x090a
    20d6:	0004                	.insn	2, 0x0004
    20d8:	0501                	.insn	2, 0x0501
    20da:	090d                	.insn	2, 0x090d
    20dc:	0004                	.insn	2, 0x0004
    20de:	1806                	.insn	2, 0x1806
    20e0:	0305                	.insn	2, 0x0305
    20e2:	0009                	.insn	2, 0x0009
    20e4:	0600                	.insn	2, 0x0600
    20e6:	0516                	.insn	2, 0x0516
    20e8:	090a                	.insn	2, 0x090a
    20ea:	0004                	.insn	2, 0x0004
    20ec:	0501                	.insn	2, 0x0501
    20ee:	090a                	.insn	2, 0x090a
    20f0:	0000                	.insn	2, 0x0000
    20f2:	0200                	.insn	2, 0x0200
    20f4:	0204                	.insn	2, 0x0204
    20f6:	8606                	.insn	2, 0x8606
    20f8:	0e05                	.insn	2, 0x0e05
    20fa:	0009                	.insn	2, 0x0009
    20fc:	0600                	.insn	2, 0x0600
    20fe:	0501                	.insn	2, 0x0501
    2100:	090e                	.insn	2, 0x090e
    2102:	0004                	.insn	2, 0x0004
    2104:	0200                	.insn	2, 0x0200
    2106:	0004                	.insn	2, 0x0004
    2108:	017f9003          	lh	zero,23(t6)
    210c:	0605                	.insn	2, 0x0605
    210e:	0809                	.insn	2, 0x0809
    2110:	0000                	.insn	2, 0x0000
    2112:	0402                	.insn	2, 0x0402
    2114:	05870603          	lb	a2,88(a4)
    2118:	00000913          	addi	s2,zero,0
    211c:	0200                	.insn	2, 0x0200
    211e:	0004                	.insn	2, 0x0004
    2120:	017f8c03          	lb	s8,23(t6)
    2124:	0605                	.insn	2, 0x0605
    2126:	0009                	.insn	2, 0x0009
    2128:	1900                	.insn	2, 0x1900
    212a:	0205                	.insn	2, 0x0205
    212c:	0009                	.insn	2, 0x0009
    212e:	1900                	.insn	2, 0x1900
    2130:	0205                	.insn	2, 0x0205
    2132:	0009                	.insn	2, 0x0009
    2134:	0600                	.insn	2, 0x0600
    2136:	0501                	.insn	2, 0x0501
    2138:	0905                	.insn	2, 0x0905
    213a:	0004                	.insn	2, 0x0004
    213c:	1306                	.insn	2, 0x1306
    213e:	0605                	.insn	2, 0x0605
    2140:	0009                	.insn	2, 0x0009
    2142:	2000                	.insn	2, 0x2000
    2144:	0205                	.insn	2, 0x0205
    2146:	0009                	.insn	2, 0x0009
    2148:	0600                	.insn	2, 0x0600
    214a:	0501                	.insn	2, 0x0501
    214c:	0906                	.insn	2, 0x0906
    214e:	0004                	.insn	2, 0x0004
    2150:	0501                	.insn	2, 0x0501
    2152:	0905                	.insn	2, 0x0905
    2154:	0004                	.insn	2, 0x0004
    2156:	0200                	.insn	2, 0x0200
    2158:	0104                	.insn	2, 0x0104
    215a:	0106                	.insn	2, 0x0106
    215c:	1105                	.insn	2, 0x1105
    215e:	0c09                	.insn	2, 0x0c09
    2160:	0600                	.insn	2, 0x0600
    2162:	0501                	.insn	2, 0x0501
    2164:	0911                	.insn	2, 0x0911
    2166:	0000                	.insn	2, 0x0000
    2168:	0200                	.insn	2, 0x0200
    216a:	0004                	.insn	2, 0x0004
    216c:	6806                	.insn	2, 0x6806
    216e:	0405                	.insn	2, 0x0405
    2170:	0009                	.insn	2, 0x0009
    2172:	0100                	.insn	2, 0x0100
    2174:	0b05                	.insn	2, 0x0b05
    2176:	0009                	.insn	2, 0x0009
    2178:	2200                	.insn	2, 0x2200
    217a:	0305                	.insn	2, 0x0305
    217c:	0009                	.insn	2, 0x0009
    217e:	0600                	.insn	2, 0x0600
    2180:	0501                	.insn	2, 0x0501
    2182:	090a                	.insn	2, 0x090a
    2184:	0004                	.insn	2, 0x0004
    2186:	0501                	.insn	2, 0x0501
    2188:	00040923          	sb	zero,18(s0)
    218c:	05017503          	.insn	4, 0x05017503
    2190:	0906                	.insn	2, 0x0906
    2192:	0008                	.insn	2, 0x0008
    2194:	0200                	.insn	2, 0x0200
    2196:	0504                	.insn	2, 0x0504
    2198:	0522                	.insn	2, 0x0522
    219a:	0905                	.insn	2, 0x0905
    219c:	0004                	.insn	2, 0x0004
    219e:	0200                	.insn	2, 0x0200
    21a0:	0004                	.insn	2, 0x0004
    21a2:	1806                	.insn	2, 0x1806
    21a4:	0305                	.insn	2, 0x0305
    21a6:	0009                	.insn	2, 0x0009
    21a8:	0000                	.insn	2, 0x0000
    21aa:	0402                	.insn	2, 0x0402
    21ac:	0605                	.insn	2, 0x0605
    21ae:	0516                	.insn	2, 0x0516
    21b0:	0905                	.insn	2, 0x0905
    21b2:	000c                	.insn	2, 0x000c
    21b4:	0200                	.insn	2, 0x0200
    21b6:	0004                	.insn	2, 0x0004
    21b8:	0306                	.insn	2, 0x0306
    21ba:	0171                	.insn	2, 0x0171
    21bc:	0405                	.insn	2, 0x0405
    21be:	0009                	.insn	2, 0x0009
    21c0:	0600                	.insn	2, 0x0600
    21c2:	017fae03          	lw	t3,23(t6)
    21c6:	0605                	.insn	2, 0x0605
    21c8:	0409                	.insn	2, 0x0409
    21ca:	0100                	.insn	2, 0x0100
    21cc:	0605                	.insn	2, 0x0605
    21ce:	0409                	.insn	2, 0x0409
    21d0:	0000                	.insn	2, 0x0000
    21d2:	0402                	.insn	2, 0x0402
    21d4:	6901                	.insn	2, 0x6901
    21d6:	0405                	.insn	2, 0x0405
    21d8:	0409                	.insn	2, 0x0409
    21da:	0000                	.insn	2, 0x0000
    21dc:	0402                	.insn	2, 0x0402
    21de:	0100                	.insn	2, 0x0100
    21e0:	1005                	.insn	2, 0x1005
    21e2:	0409                	.insn	2, 0x0409
    21e4:	0600                	.insn	2, 0x0600
    21e6:	017faa03          	lw	s4,23(t6)
    21ea:	0605                	.insn	2, 0x0605
    21ec:	0009                	.insn	2, 0x0009
    21ee:	1900                	.insn	2, 0x1900
    21f0:	0205                	.insn	2, 0x0205
    21f2:	0009                	.insn	2, 0x0009
    21f4:	1900                	.insn	2, 0x1900
    21f6:	0205                	.insn	2, 0x0205
    21f8:	0009                	.insn	2, 0x0009
    21fa:	0600                	.insn	2, 0x0600
    21fc:	0501                	.insn	2, 0x0501
    21fe:	0905                	.insn	2, 0x0905
    2200:	0004                	.insn	2, 0x0004
    2202:	1806                	.insn	2, 0x1806
    2204:	0305                	.insn	2, 0x0305
    2206:	0009                	.insn	2, 0x0009
    2208:	0600                	.insn	2, 0x0600
    220a:	0501                	.insn	2, 0x0501
    220c:	090a                	.insn	2, 0x090a
    220e:	0004                	.insn	2, 0x0004
    2210:	0501                	.insn	2, 0x0501
    2212:	090d                	.insn	2, 0x090d
    2214:	0004                	.insn	2, 0x0004
    2216:	1806                	.insn	2, 0x1806
    2218:	0305                	.insn	2, 0x0305
    221a:	0009                	.insn	2, 0x0009
    221c:	0600                	.insn	2, 0x0600
    221e:	0516                	.insn	2, 0x0516
    2220:	090a                	.insn	2, 0x090a
    2222:	0004                	.insn	2, 0x0004
    2224:	0501                	.insn	2, 0x0501
    2226:	090a                	.insn	2, 0x090a
    2228:	0000                	.insn	2, 0x0000
    222a:	0568                	.insn	2, 0x0568
    222c:	0910                	.insn	2, 0x0910
    222e:	0008                	.insn	2, 0x0008
    2230:	2606                	.insn	2, 0x2606
    2232:	0305                	.insn	2, 0x0305
    2234:	0009                	.insn	2, 0x0009
    2236:	0600                	.insn	2, 0x0600
    2238:	0501                	.insn	2, 0x0501
    223a:	090a                	.insn	2, 0x090a
    223c:	0004                	.insn	2, 0x0004
    223e:	0501                	.insn	2, 0x0501
    2240:	00040923          	sb	zero,18(s0)
    2244:	05016a03          	.insn	4, 0x05016a03
    2248:	0906                	.insn	2, 0x0906
    224a:	0004                	.insn	2, 0x0004
    224c:	0200                	.insn	2, 0x0200
    224e:	0304                	.insn	2, 0x0304
    2250:	052d                	.insn	2, 0x052d
    2252:	0905                	.insn	2, 0x0905
    2254:	0004                	.insn	2, 0x0004
    2256:	0200                	.insn	2, 0x0200
    2258:	0004                	.insn	2, 0x0004
    225a:	05016a03          	.insn	4, 0x05016a03
    225e:	0906                	.insn	2, 0x0906
    2260:	0004                	.insn	2, 0x0004
    2262:	2e06                	.insn	2, 0x2e06
    2264:	0305                	.insn	2, 0x0305
    2266:	0009                	.insn	2, 0x0009
    2268:	0600                	.insn	2, 0x0600
    226a:	05017203          	.insn	4, 0x05017203
    226e:	0906                	.insn	2, 0x0906
    2270:	0008                	.insn	2, 0x0008
    2272:	1e06                	.insn	2, 0x1e06
    2274:	0405                	.insn	2, 0x0405
    2276:	0009                	.insn	2, 0x0009
    2278:	0100                	.insn	2, 0x0100
    227a:	0c05                	.insn	2, 0x0c05
    227c:	0009                	.insn	2, 0x0009
    227e:	1d00                	.insn	2, 0x1d00
    2280:	0305                	.insn	2, 0x0305
    2282:	0009                	.insn	2, 0x0009
    2284:	0600                	.insn	2, 0x0600
    2286:	0501                	.insn	2, 0x0501
    2288:	090a                	.insn	2, 0x090a
    228a:	0004                	.insn	2, 0x0004
    228c:	0501                	.insn	2, 0x0501
    228e:	00040923          	sb	zero,18(s0)
    2292:	05016a03          	.insn	4, 0x05016a03
    2296:	0906                	.insn	2, 0x0906
    2298:	0004                	.insn	2, 0x0004
    229a:	0200                	.insn	2, 0x0200
    229c:	0304                	.insn	2, 0x0304
    229e:	052d                	.insn	2, 0x052d
    22a0:	0905                	.insn	2, 0x0905
    22a2:	0004                	.insn	2, 0x0004
    22a4:	0200                	.insn	2, 0x0200
    22a6:	0004                	.insn	2, 0x0004
    22a8:	05016a03          	.insn	4, 0x05016a03
    22ac:	0906                	.insn	2, 0x0906
    22ae:	0004                	.insn	2, 0x0004
    22b0:	2e06                	.insn	2, 0x2e06
    22b2:	0305                	.insn	2, 0x0305
    22b4:	0009                	.insn	2, 0x0009
    22b6:	0600                	.insn	2, 0x0600
    22b8:	0510                	.insn	2, 0x0510
    22ba:	0906                	.insn	2, 0x0906
    22bc:	0008                	.insn	2, 0x0008
    22be:	0306                	.insn	2, 0x0306
    22c0:	0170                	.insn	2, 0x0170
    22c2:	0405                	.insn	2, 0x0405
    22c4:	0009                	.insn	2, 0x0009
    22c6:	0600                	.insn	2, 0x0600
    22c8:	0501                	.insn	2, 0x0501
    22ca:	0906                	.insn	2, 0x0906
    22cc:	0004                	.insn	2, 0x0004
    22ce:	0200                	.insn	2, 0x0200
    22d0:	0204                	.insn	2, 0x0204
    22d2:	0519                	.insn	2, 0x0519
    22d4:	0004090f          	.insn	4, 0x0004090f
    22d8:	0200                	.insn	2, 0x0200
    22da:	0004                	.insn	2, 0x0004
    22dc:	0515                	.insn	2, 0x0515
    22de:	0906                	.insn	2, 0x0906
    22e0:	0004                	.insn	2, 0x0004
    22e2:	1806                	.insn	2, 0x1806
    22e4:	0405                	.insn	2, 0x0405
    22e6:	0009                	.insn	2, 0x0009
    22e8:	0000                	.insn	2, 0x0000
    22ea:	0402                	.insn	2, 0x0402
    22ec:	0101                	.insn	2, 0x0101
    22ee:	1005                	.insn	2, 0x1005
    22f0:	0009                	.insn	2, 0x0009
    22f2:	0600                	.insn	2, 0x0600
    22f4:	0501                	.insn	2, 0x0501
    22f6:	0911                	.insn	2, 0x0911
    22f8:	0004                	.insn	2, 0x0004
    22fa:	0501                	.insn	2, 0x0501
    22fc:	0910                	.insn	2, 0x0910
    22fe:	0004                	.insn	2, 0x0004
    2300:	0200                	.insn	2, 0x0200
    2302:	0004                	.insn	2, 0x0004
    2304:	0501                	.insn	2, 0x0501
    2306:	0004090b          	.insn	4, 0x0004090b
    230a:	0200                	.insn	2, 0x0200
    230c:	0304                	.insn	2, 0x0304
    230e:	0106                	.insn	2, 0x0106
    2310:	1705                	.insn	2, 0x1705
    2312:	0809                	.insn	2, 0x0809
    2314:	0000                	.insn	2, 0x0000
    2316:	0402                	.insn	2, 0x0402
    2318:	0101                	.insn	2, 0x0101
    231a:	1005                	.insn	2, 0x1005
    231c:	0009                	.insn	2, 0x0009
    231e:	0600                	.insn	2, 0x0600
    2320:	0501                	.insn	2, 0x0501
    2322:	0911                	.insn	2, 0x0911
    2324:	0004                	.insn	2, 0x0004
    2326:	0501                	.insn	2, 0x0501
    2328:	0910                	.insn	2, 0x0910
    232a:	0008                	.insn	2, 0x0008
    232c:	0200                	.insn	2, 0x0200
    232e:	0204                	.insn	2, 0x0204
    2330:	1806                	.insn	2, 0x1806
    2332:	1405                	.insn	2, 0x1405
    2334:	0409                	.insn	2, 0x0409
    2336:	0600                	.insn	2, 0x0600
    2338:	0519                	.insn	2, 0x0519
    233a:	090c                	.insn	2, 0x090c
    233c:	0008                	.insn	2, 0x0008
    233e:	0200                	.insn	2, 0x0200
    2340:	0004                	.insn	2, 0x0004
    2342:	017fb603          	.insn	4, 0x017fb603
    2346:	0605                	.insn	2, 0x0605
    2348:	0809                	.insn	2, 0x0809
    234a:	0100                	.insn	2, 0x0100
    234c:	0605                	.insn	2, 0x0605
    234e:	0009                	.insn	2, 0x0009
    2350:	0600                	.insn	2, 0x0600
    2352:	09030513          	addi	a0,t1,144
    2356:	0000                	.insn	2, 0x0000
    2358:	0106                	.insn	2, 0x0106
    235a:	0a05                	.insn	2, 0x0a05
    235c:	0409                	.insn	2, 0x0409
    235e:	0100                	.insn	2, 0x0100
    2360:	0d05                	.insn	2, 0x0d05
    2362:	0409                	.insn	2, 0x0409
    2364:	0600                	.insn	2, 0x0600
    2366:	0518                	.insn	2, 0x0518
    2368:	00000903          	lb	s2,0(zero) # 0 <__stack_size-0x2000000>
    236c:	1606                	.insn	2, 0x1606
    236e:	0a05                	.insn	2, 0x0a05
    2370:	0409                	.insn	2, 0x0409
    2372:	0100                	.insn	2, 0x0100
    2374:	0a05                	.insn	2, 0x0a05
    2376:	0009                	.insn	2, 0x0009
    2378:	0600                	.insn	2, 0x0600
    237a:	09090527          	.insn	4, 0x09090527
    237e:	0008                	.insn	2, 0x0008
    2380:	0518                	.insn	2, 0x0518
    2382:	00000903          	lb	s2,0(zero) # 0 <__stack_size-0x2000000>
    2386:	0306                	.insn	2, 0x0306
    2388:	016e                	.insn	2, 0x016e
    238a:	0605                	.insn	2, 0x0605
    238c:	0409                	.insn	2, 0x0409
    238e:	2900                	.insn	2, 0x2900
    2390:	0d05                	.insn	2, 0x0d05
    2392:	0409                	.insn	2, 0x0409
    2394:	0600                	.insn	2, 0x0600
    2396:	05016a03          	.insn	4, 0x05016a03
    239a:	0906                	.insn	2, 0x0906
    239c:	0000                	.insn	2, 0x0000
    239e:	0519                	.insn	2, 0x0519
    23a0:	0902                	.insn	2, 0x0902
    23a2:	0000                	.insn	2, 0x0000
    23a4:	0519                	.insn	2, 0x0519
    23a6:	0902                	.insn	2, 0x0902
    23a8:	0000                	.insn	2, 0x0000
    23aa:	0106                	.insn	2, 0x0106
    23ac:	0505                	.insn	2, 0x0505
    23ae:	0409                	.insn	2, 0x0409
    23b0:	0600                	.insn	2, 0x0600
    23b2:	09060513          	addi	a0,a2,144
    23b6:	0000                	.insn	2, 0x0000
    23b8:	0520                	.insn	2, 0x0520
    23ba:	0902                	.insn	2, 0x0902
    23bc:	0000                	.insn	2, 0x0000
    23be:	0106                	.insn	2, 0x0106
    23c0:	0605                	.insn	2, 0x0605
    23c2:	0409                	.insn	2, 0x0409
    23c4:	0100                	.insn	2, 0x0100
    23c6:	0505                	.insn	2, 0x0505
    23c8:	0409                	.insn	2, 0x0409
    23ca:	0000                	.insn	2, 0x0000
    23cc:	0402                	.insn	2, 0x0402
    23ce:	0601                	.insn	2, 0x0601
    23d0:	0501                	.insn	2, 0x0501
    23d2:	0911                	.insn	2, 0x0911
    23d4:	0004                	.insn	2, 0x0004
    23d6:	0106                	.insn	2, 0x0106
    23d8:	1105                	.insn	2, 0x1105
    23da:	0009                	.insn	2, 0x0009
    23dc:	0000                	.insn	2, 0x0000
    23de:	0402                	.insn	2, 0x0402
    23e0:	0600                	.insn	2, 0x0600
    23e2:	09090523          	sb	a6,138(s2) # 41fd0 <__stack_size-0x1fbe030>
    23e6:	0008                	.insn	2, 0x0008
    23e8:	0106                	.insn	2, 0x0106
    23ea:	0905                	.insn	2, 0x0905
    23ec:	0009                	.insn	2, 0x0009
    23ee:	0000                	.insn	2, 0x0000
    23f0:	0402                	.insn	2, 0x0402
    23f2:	0602                	.insn	2, 0x0602
    23f4:	0555                	.insn	2, 0x0555
    23f6:	0000090f          	.insn	4, 0x090f
    23fa:	0106                	.insn	2, 0x0106
    23fc:	0f05                	.insn	2, 0x0f05
    23fe:	0409                	.insn	2, 0x0409
    2400:	0000                	.insn	2, 0x0000
    2402:	0402                	.insn	2, 0x0402
    2404:	0300                	.insn	2, 0x0300
    2406:	7fb6                	.insn	2, 0x7fb6
    2408:	0501                	.insn	2, 0x0501
    240a:	0906                	.insn	2, 0x0906
    240c:	0004                	.insn	2, 0x0004
    240e:	0200                	.insn	2, 0x0200
    2410:	0104                	.insn	2, 0x0104
    2412:	0501                	.insn	2, 0x0501
    2414:	0911                	.insn	2, 0x0911
    2416:	0004                	.insn	2, 0x0004
    2418:	0200                	.insn	2, 0x0200
    241a:	0204                	.insn	2, 0x0204
    241c:	0561                	.insn	2, 0x0561
    241e:	0004090f          	.insn	4, 0x0004090f
    2422:	0200                	.insn	2, 0x0200
    2424:	0304                	.insn	2, 0x0304
    2426:	0106                	.insn	2, 0x0106
    2428:	1405                	.insn	2, 0x1405
    242a:	0009                	.insn	2, 0x0009
    242c:	0000                	.insn	2, 0x0000
    242e:	0402                	.insn	2, 0x0402
    2430:	0300                	.insn	2, 0x0300
    2432:	7fad                	.insn	2, 0x7fad
    2434:	0501                	.insn	2, 0x0501
    2436:	0906                	.insn	2, 0x0906
    2438:	0000                	.insn	2, 0x0000
    243a:	0519                	.insn	2, 0x0519
    243c:	0902                	.insn	2, 0x0902
    243e:	0000                	.insn	2, 0x0000
    2440:	0519                	.insn	2, 0x0519
    2442:	0902                	.insn	2, 0x0902
    2444:	0000                	.insn	2, 0x0000
    2446:	0106                	.insn	2, 0x0106
    2448:	0605                	.insn	2, 0x0605
    244a:	0409                	.insn	2, 0x0409
    244c:	0100                	.insn	2, 0x0100
    244e:	0505                	.insn	2, 0x0505
    2450:	0409                	.insn	2, 0x0409
    2452:	0600                	.insn	2, 0x0600
    2454:	0518                	.insn	2, 0x0518
    2456:	00000903          	lb	s2,0(zero) # 0 <__stack_size-0x2000000>
    245a:	0106                	.insn	2, 0x0106
    245c:	0a05                	.insn	2, 0x0a05
    245e:	0409                	.insn	2, 0x0409
    2460:	0100                	.insn	2, 0x0100
    2462:	0d05                	.insn	2, 0x0d05
    2464:	0409                	.insn	2, 0x0409
    2466:	0600                	.insn	2, 0x0600
    2468:	0518                	.insn	2, 0x0518
    246a:	00000903          	lb	s2,0(zero) # 0 <__stack_size-0x2000000>
    246e:	1606                	.insn	2, 0x1606
    2470:	0a05                	.insn	2, 0x0a05
    2472:	0409                	.insn	2, 0x0409
    2474:	0100                	.insn	2, 0x0100
    2476:	0a05                	.insn	2, 0x0a05
    2478:	0009                	.insn	2, 0x0009
    247a:	0000                	.insn	2, 0x0000
    247c:	0402                	.insn	2, 0x0402
    247e:	0602                	.insn	2, 0x0602
    2480:	0565                	.insn	2, 0x0565
    2482:	0000090f          	.insn	4, 0x090f
    2486:	0106                	.insn	2, 0x0106
    2488:	0f05                	.insn	2, 0x0f05
    248a:	0409                	.insn	2, 0x0409
    248c:	0000                	.insn	2, 0x0000
    248e:	0402                	.insn	2, 0x0402
    2490:	0300                	.insn	2, 0x0300
    2492:	7fb1                	.insn	2, 0x7fb1
    2494:	0501                	.insn	2, 0x0501
    2496:	0906                	.insn	2, 0x0906
    2498:	0008                	.insn	2, 0x0008
    249a:	0200                	.insn	2, 0x0200
    249c:	0304                	.insn	2, 0x0304
    249e:	6606                	.insn	2, 0x6606
    24a0:	1405                	.insn	2, 0x1405
    24a2:	0009                	.insn	2, 0x0009
    24a4:	0000                	.insn	2, 0x0000
    24a6:	0402                	.insn	2, 0x0402
    24a8:	0300                	.insn	2, 0x0300
    24aa:	7fad                	.insn	2, 0x7fad
    24ac:	0501                	.insn	2, 0x0501
    24ae:	0906                	.insn	2, 0x0906
    24b0:	0000                	.insn	2, 0x0000
    24b2:	0519                	.insn	2, 0x0519
    24b4:	0902                	.insn	2, 0x0902
    24b6:	0000                	.insn	2, 0x0000
    24b8:	0519                	.insn	2, 0x0519
    24ba:	0902                	.insn	2, 0x0902
    24bc:	0000                	.insn	2, 0x0000
    24be:	0106                	.insn	2, 0x0106
    24c0:	0505                	.insn	2, 0x0505
    24c2:	0409                	.insn	2, 0x0409
    24c4:	0600                	.insn	2, 0x0600
    24c6:	09060513          	addi	a0,a2,144
    24ca:	0000                	.insn	2, 0x0000
    24cc:	0520                	.insn	2, 0x0520
    24ce:	0902                	.insn	2, 0x0902
    24d0:	0000                	.insn	2, 0x0000
    24d2:	0106                	.insn	2, 0x0106
    24d4:	0605                	.insn	2, 0x0605
    24d6:	0409                	.insn	2, 0x0409
    24d8:	0100                	.insn	2, 0x0100
    24da:	0505                	.insn	2, 0x0505
    24dc:	0409                	.insn	2, 0x0409
    24de:	0000                	.insn	2, 0x0000
    24e0:	0402                	.insn	2, 0x0402
    24e2:	0601                	.insn	2, 0x0601
    24e4:	0501                	.insn	2, 0x0501
    24e6:	0911                	.insn	2, 0x0911
    24e8:	000c                	.insn	2, 0x000c
    24ea:	0106                	.insn	2, 0x0106
    24ec:	1105                	.insn	2, 0x1105
    24ee:	0009                	.insn	2, 0x0009
    24f0:	0000                	.insn	2, 0x0000
    24f2:	0402                	.insn	2, 0x0402
    24f4:	0602                	.insn	2, 0x0602
    24f6:	0580                	.insn	2, 0x0580
    24f8:	00000913          	addi	s2,zero,0
    24fc:	0200                	.insn	2, 0x0200
    24fe:	0304                	.insn	2, 0x0304
    2500:	0106                	.insn	2, 0x0106
    2502:	1305                	.insn	2, 0x1305
    2504:	0409                	.insn	2, 0x0409
    2506:	0100                	.insn	2, 0x0100
    2508:	1705                	.insn	2, 0x1705
    250a:	0409                	.insn	2, 0x0409
    250c:	0100                	.insn	2, 0x0100
    250e:	1705                	.insn	2, 0x1705
    2510:	0409                	.insn	2, 0x0409
    2512:	0000                	.insn	2, 0x0000
    2514:	0402                	.insn	2, 0x0402
    2516:	0600                	.insn	2, 0x0600
    2518:	017f8e03          	lb	t3,23(t6)
    251c:	0605                	.insn	2, 0x0605
    251e:	0009                	.insn	2, 0x0009
    2520:	2000                	.insn	2, 0x2000
    2522:	0205                	.insn	2, 0x0205
    2524:	0009                	.insn	2, 0x0009
    2526:	0600                	.insn	2, 0x0600
    2528:	0501                	.insn	2, 0x0501
    252a:	0906                	.insn	2, 0x0906
    252c:	0004                	.insn	2, 0x0004
    252e:	0501                	.insn	2, 0x0501
    2530:	0905                	.insn	2, 0x0905
    2532:	0004                	.insn	2, 0x0004
    2534:	0200                	.insn	2, 0x0200
    2536:	0104                	.insn	2, 0x0104
    2538:	0106                	.insn	2, 0x0106
    253a:	1105                	.insn	2, 0x1105
    253c:	0409                	.insn	2, 0x0409
    253e:	0600                	.insn	2, 0x0600
    2540:	0501                	.insn	2, 0x0501
    2542:	0911                	.insn	2, 0x0911
    2544:	0004                	.insn	2, 0x0004
    2546:	0501                	.insn	2, 0x0501
    2548:	0911                	.insn	2, 0x0911
    254a:	0000                	.insn	2, 0x0000
    254c:	0200                	.insn	2, 0x0200
    254e:	0004                	.insn	2, 0x0004
    2550:	4d06                	.insn	2, 0x4d06
    2552:	0405                	.insn	2, 0x0405
    2554:	0009                	.insn	2, 0x0009
    2556:	0100                	.insn	2, 0x0100
    2558:	0b05                	.insn	2, 0x0b05
    255a:	0009                	.insn	2, 0x0009
    255c:	0600                	.insn	2, 0x0600
    255e:	0501                	.insn	2, 0x0501
    2560:	090d                	.insn	2, 0x090d
    2562:	0004                	.insn	2, 0x0004
    2564:	0501                	.insn	2, 0x0501
    2566:	0906                	.insn	2, 0x0906
    2568:	0004                	.insn	2, 0x0004
    256a:	0501                	.insn	2, 0x0501
    256c:	00040913          	addi	s2,s0,0
    2570:	0501                	.insn	2, 0x0501
    2572:	00040913          	addi	s2,s0,0
    2576:	1a06                	.insn	2, 0x1a06
    2578:	0505                	.insn	2, 0x0505
    257a:	0009                	.insn	2, 0x0009
    257c:	0100                	.insn	2, 0x0100
    257e:	0c05                	.insn	2, 0x0c05
    2580:	0009                	.insn	2, 0x0009
    2582:	0600                	.insn	2, 0x0600
    2584:	0501                	.insn	2, 0x0501
    2586:	090e                	.insn	2, 0x090e
    2588:	0004                	.insn	2, 0x0004
    258a:	0501                	.insn	2, 0x0501
    258c:	00040907          	.insn	4, 0x00040907
    2590:	0501                	.insn	2, 0x0501
    2592:	0914                	.insn	2, 0x0914
    2594:	0004                	.insn	2, 0x0004
    2596:	0501                	.insn	2, 0x0501
    2598:	0914                	.insn	2, 0x0914
    259a:	0004                	.insn	2, 0x0004
    259c:	0524                	.insn	2, 0x0524
    259e:	0906                	.insn	2, 0x0906
    25a0:	0004                	.insn	2, 0x0004
    25a2:	0200                	.insn	2, 0x0200
    25a4:	0304                	.insn	2, 0x0304
    25a6:	052d                	.insn	2, 0x052d
    25a8:	0905                	.insn	2, 0x0905
    25aa:	0004                	.insn	2, 0x0004
    25ac:	0200                	.insn	2, 0x0200
    25ae:	0004                	.insn	2, 0x0004
    25b0:	05016a03          	.insn	4, 0x05016a03
    25b4:	0906                	.insn	2, 0x0906
    25b6:	0004                	.insn	2, 0x0004
    25b8:	2e06                	.insn	2, 0x2e06
    25ba:	0305                	.insn	2, 0x0305
    25bc:	0009                	.insn	2, 0x0009
    25be:	0600                	.insn	2, 0x0600
    25c0:	05017403          	.insn	4, 0x05017403
    25c4:	0906                	.insn	2, 0x0906
    25c6:	0008                	.insn	2, 0x0008
    25c8:	0200                	.insn	2, 0x0200
    25ca:	0204                	.insn	2, 0x0204
    25cc:	0522                	.insn	2, 0x0522
    25ce:	00100923          	sb	ra,18(zero) # 12 <__stack_size-0x1ffffee>
    25d2:	0200                	.insn	2, 0x0200
    25d4:	0004                	.insn	2, 0x0004
    25d6:	0511                	.insn	2, 0x0511
    25d8:	0906                	.insn	2, 0x0906
    25da:	000c                	.insn	2, 0x000c
    25dc:	0510                	.insn	2, 0x0510
    25de:	0906                	.insn	2, 0x0906
    25e0:	000c                	.insn	2, 0x000c
    25e2:	0306                	.insn	2, 0x0306
    25e4:	7fa8                	.insn	2, 0x7fa8
    25e6:	0501                	.insn	2, 0x0501
    25e8:	0906                	.insn	2, 0x0906
    25ea:	0000                	.insn	2, 0x0000
    25ec:	0520                	.insn	2, 0x0520
    25ee:	0902                	.insn	2, 0x0902
    25f0:	0000                	.insn	2, 0x0000
    25f2:	0106                	.insn	2, 0x0106
    25f4:	0605                	.insn	2, 0x0605
    25f6:	0809                	.insn	2, 0x0809
    25f8:	0100                	.insn	2, 0x0100
    25fa:	0505                	.insn	2, 0x0505
    25fc:	0409                	.insn	2, 0x0409
    25fe:	0000                	.insn	2, 0x0000
    2600:	0402                	.insn	2, 0x0402
    2602:	0601                	.insn	2, 0x0601
    2604:	0501                	.insn	2, 0x0501
    2606:	0911                	.insn	2, 0x0911
    2608:	0004                	.insn	2, 0x0004
    260a:	0106                	.insn	2, 0x0106
    260c:	1105                	.insn	2, 0x1105
    260e:	0409                	.insn	2, 0x0409
    2610:	0100                	.insn	2, 0x0100
    2612:	1105                	.insn	2, 0x1105
    2614:	0009                	.insn	2, 0x0009
    2616:	0000                	.insn	2, 0x0000
    2618:	0402                	.insn	2, 0x0402
    261a:	0600                	.insn	2, 0x0600
    261c:	050e                	.insn	2, 0x050e
    261e:	0906                	.insn	2, 0x0906
    2620:	0000                	.insn	2, 0x0000
    2622:	0520                	.insn	2, 0x0520
    2624:	0902                	.insn	2, 0x0902
    2626:	0000                	.insn	2, 0x0000
    2628:	0106                	.insn	2, 0x0106
    262a:	0605                	.insn	2, 0x0605
    262c:	0809                	.insn	2, 0x0809
    262e:	0100                	.insn	2, 0x0100
    2630:	0505                	.insn	2, 0x0505
    2632:	0409                	.insn	2, 0x0409
    2634:	0000                	.insn	2, 0x0000
    2636:	0402                	.insn	2, 0x0402
    2638:	0601                	.insn	2, 0x0601
    263a:	0501                	.insn	2, 0x0501
    263c:	0911                	.insn	2, 0x0911
    263e:	0004                	.insn	2, 0x0004
    2640:	0106                	.insn	2, 0x0106
    2642:	1105                	.insn	2, 0x1105
    2644:	0009                	.insn	2, 0x0009
    2646:	0000                	.insn	2, 0x0000
    2648:	0402                	.insn	2, 0x0402
    264a:	6400                	.insn	2, 0x6400
    264c:	1005                	.insn	2, 0x1005
    264e:	0809                	.insn	2, 0x0809
    2650:	0000                	.insn	2, 0x0000
    2652:	0402                	.insn	2, 0x0402
    2654:	1402                	.insn	2, 0x1402
    2656:	0c05                	.insn	2, 0x0c05
    2658:	0409                	.insn	2, 0x0409
    265a:	0000                	.insn	2, 0x0000
    265c:	0402                	.insn	2, 0x0402
    265e:	14051503          	lh	a0,320(a0)
    2662:	0409                	.insn	2, 0x0409
    2664:	0100                	.insn	2, 0x0100
    2666:	1405                	.insn	2, 0x1405
    2668:	0409                	.insn	2, 0x0409
    266a:	0000                	.insn	2, 0x0000
    266c:	0402                	.insn	2, 0x0402
    266e:	0300                	.insn	2, 0x0300
    2670:	05017fb3          	.insn	4, 0x05017fb3
    2674:	0906                	.insn	2, 0x0906
    2676:	0004                	.insn	2, 0x0004
    2678:	0200                	.insn	2, 0x0200
    267a:	0304                	.insn	2, 0x0304
    267c:	0564                	.insn	2, 0x0564
    267e:	0918                	.insn	2, 0x0918
    2680:	0004                	.insn	2, 0x0004
    2682:	0200                	.insn	2, 0x0200
    2684:	0004                	.insn	2, 0x0004
    2686:	017fb803          	.insn	4, 0x017fb803
    268a:	0605                	.insn	2, 0x0605
    268c:	0409                	.insn	2, 0x0409
    268e:	0000                	.insn	2, 0x0000
    2690:	0402                	.insn	2, 0x0402
    2692:	0101                	.insn	2, 0x0101
    2694:	1105                	.insn	2, 0x1105
    2696:	0409                	.insn	2, 0x0409
    2698:	0100                	.insn	2, 0x0100
    269a:	1105                	.insn	2, 0x1105
    269c:	0009                	.insn	2, 0x0009
    269e:	0000                	.insn	2, 0x0000
    26a0:	0402                	.insn	2, 0x0402
    26a2:	0604                	.insn	2, 0x0604
    26a4:	055f 0920 0000      	.insn	6, 0x0920055f
    26aa:	0200                	.insn	2, 0x0200
    26ac:	0004                	.insn	2, 0x0004
    26ae:	017faf03          	lw	t5,23(t6)
    26b2:	0605                	.insn	2, 0x0605
    26b4:	0009                	.insn	2, 0x0009
    26b6:	1900                	.insn	2, 0x1900
    26b8:	0205                	.insn	2, 0x0205
    26ba:	0009                	.insn	2, 0x0009
    26bc:	1900                	.insn	2, 0x1900
    26be:	0205                	.insn	2, 0x0205
    26c0:	0009                	.insn	2, 0x0009
    26c2:	0600                	.insn	2, 0x0600
    26c4:	0501                	.insn	2, 0x0501
    26c6:	0905                	.insn	2, 0x0905
    26c8:	0004                	.insn	2, 0x0004
    26ca:	1806                	.insn	2, 0x1806
    26cc:	0305                	.insn	2, 0x0305
    26ce:	0009                	.insn	2, 0x0009
    26d0:	0600                	.insn	2, 0x0600
    26d2:	0501                	.insn	2, 0x0501
    26d4:	090a                	.insn	2, 0x090a
    26d6:	0004                	.insn	2, 0x0004
    26d8:	0501                	.insn	2, 0x0501
    26da:	090d                	.insn	2, 0x090d
    26dc:	0004                	.insn	2, 0x0004
    26de:	1806                	.insn	2, 0x1806
    26e0:	0305                	.insn	2, 0x0305
    26e2:	0009                	.insn	2, 0x0009
    26e4:	0600                	.insn	2, 0x0600
    26e6:	0516                	.insn	2, 0x0516
    26e8:	090a                	.insn	2, 0x090a
    26ea:	0004                	.insn	2, 0x0004
    26ec:	0501                	.insn	2, 0x0501
    26ee:	090a                	.insn	2, 0x090a
    26f0:	0000                	.insn	2, 0x0000
    26f2:	0200                	.insn	2, 0x0200
    26f4:	0204                	.insn	2, 0x0204
    26f6:	6306                	.insn	2, 0x6306
    26f8:	1405                	.insn	2, 0x1405
    26fa:	0009                	.insn	2, 0x0009
    26fc:	0000                	.insn	2, 0x0000
    26fe:	0402                	.insn	2, 0x0402
    2700:	05010603          	lb	a2,80(sp)
    2704:	0914                	.insn	2, 0x0914
    2706:	0004                	.insn	2, 0x0004
    2708:	0200                	.insn	2, 0x0200
    270a:	0004                	.insn	2, 0x0004
    270c:	017fb303          	.insn	4, 0x017fb303
    2710:	0605                	.insn	2, 0x0605
    2712:	0809                	.insn	2, 0x0809
    2714:	0000                	.insn	2, 0x0000
    2716:	0402                	.insn	2, 0x0402
    2718:	0604                	.insn	2, 0x0604
    271a:	0564                	.insn	2, 0x0564
    271c:	0920                	.insn	2, 0x0920
    271e:	0000                	.insn	2, 0x0000
    2720:	0200                	.insn	2, 0x0200
    2722:	0004                	.insn	2, 0x0004
    2724:	017faf03          	lw	t5,23(t6)
    2728:	0605                	.insn	2, 0x0605
    272a:	0009                	.insn	2, 0x0009
    272c:	1900                	.insn	2, 0x1900
    272e:	0205                	.insn	2, 0x0205
    2730:	0009                	.insn	2, 0x0009
    2732:	1900                	.insn	2, 0x1900
    2734:	0205                	.insn	2, 0x0205
    2736:	0009                	.insn	2, 0x0009
    2738:	0600                	.insn	2, 0x0600
    273a:	0501                	.insn	2, 0x0501
    273c:	0905                	.insn	2, 0x0905
    273e:	0004                	.insn	2, 0x0004
    2740:	1306                	.insn	2, 0x1306
    2742:	0605                	.insn	2, 0x0605
    2744:	0009                	.insn	2, 0x0009
    2746:	2000                	.insn	2, 0x2000
    2748:	0205                	.insn	2, 0x0205
    274a:	0009                	.insn	2, 0x0009
    274c:	0600                	.insn	2, 0x0600
    274e:	0501                	.insn	2, 0x0501
    2750:	0906                	.insn	2, 0x0906
    2752:	0004                	.insn	2, 0x0004
    2754:	0501                	.insn	2, 0x0501
    2756:	0905                	.insn	2, 0x0905
    2758:	0004                	.insn	2, 0x0004
    275a:	0200                	.insn	2, 0x0200
    275c:	0104                	.insn	2, 0x0104
    275e:	0106                	.insn	2, 0x0106
    2760:	1105                	.insn	2, 0x1105
    2762:	0809                	.insn	2, 0x0809
    2764:	0600                	.insn	2, 0x0600
    2766:	0501                	.insn	2, 0x0501
    2768:	0911                	.insn	2, 0x0911
    276a:	0000                	.insn	2, 0x0000
    276c:	0200                	.insn	2, 0x0200
    276e:	0204                	.insn	2, 0x0204
    2770:	5f06                	.insn	2, 0x5f06
    2772:	1405                	.insn	2, 0x1405
    2774:	0009                	.insn	2, 0x0009
    2776:	0000                	.insn	2, 0x0000
    2778:	0402                	.insn	2, 0x0402
    277a:	05010603          	lb	a2,80(sp)
    277e:	0914                	.insn	2, 0x0914
    2780:	0004                	.insn	2, 0x0004
    2782:	0501                	.insn	2, 0x0501
    2784:	0914                	.insn	2, 0x0914
    2786:	0008                	.insn	2, 0x0008
    2788:	0200                	.insn	2, 0x0200
    278a:	0004                	.insn	2, 0x0004
    278c:	05014403          	lbu	s0,80(sp)
    2790:	0909                	.insn	2, 0x0909
    2792:	0008                	.insn	2, 0x0008
    2794:	0200                	.insn	2, 0x0200
    2796:	0204                	.insn	2, 0x0204
    2798:	0555                	.insn	2, 0x0555
    279a:	090c                	.insn	2, 0x090c
    279c:	000c                	.insn	2, 0x000c
    279e:	0200                	.insn	2, 0x0200
    27a0:	0004                	.insn	2, 0x0004
    27a2:	1606                	.insn	2, 0x1606
    27a4:	0405                	.insn	2, 0x0405
    27a6:	0009                	.insn	2, 0x0009
    27a8:	0300                	.insn	2, 0x0300
    27aa:	05017fbf 00000906 	.insn	8, 0x090605017fbf
    27b2:	0902051b          	.insn	4, 0x0902051b
    27b6:	0000                	.insn	2, 0x0000
    27b8:	0501                	.insn	2, 0x0501
    27ba:	0909                	.insn	2, 0x0909
    27bc:	0008                	.insn	2, 0x0008
    27be:	0106                	.insn	2, 0x0106
    27c0:	0905                	.insn	2, 0x0905
    27c2:	0c09                	.insn	2, 0x0c09
    27c4:	0000                	.insn	2, 0x0000
    27c6:	0402                	.insn	2, 0x0402
    27c8:	5502                	.insn	2, 0x5502
    27ca:	0c05                	.insn	2, 0x0c05
    27cc:	0c09                	.insn	2, 0x0c09
    27ce:	0000                	.insn	2, 0x0000
    27d0:	0402                	.insn	2, 0x0402
    27d2:	0600                	.insn	2, 0x0600
    27d4:	0516                	.insn	2, 0x0516
    27d6:	0904                	.insn	2, 0x0904
    27d8:	0000                	.insn	2, 0x0000
    27da:	017fbf03          	.insn	4, 0x017fbf03
    27de:	0605                	.insn	2, 0x0605
    27e0:	0009                	.insn	2, 0x0009
    27e2:	1b00                	.insn	2, 0x1b00
    27e4:	0205                	.insn	2, 0x0205
    27e6:	0009                	.insn	2, 0x0009
    27e8:	0100                	.insn	2, 0x0100
    27ea:	0905                	.insn	2, 0x0905
    27ec:	0809                	.insn	2, 0x0809
    27ee:	0600                	.insn	2, 0x0600
    27f0:	0501                	.insn	2, 0x0501
    27f2:	0909                	.insn	2, 0x0909
    27f4:	0000                	.insn	2, 0x0000
    27f6:	0200                	.insn	2, 0x0200
    27f8:	0304                	.insn	2, 0x0304
    27fa:	0574                	.insn	2, 0x0574
    27fc:	00080917          	auipc	s2,0x80
    2800:	0200                	.insn	2, 0x0200
    2802:	0204                	.insn	2, 0x0204
    2804:	0306                	.insn	2, 0x0306
    2806:	015f 1405 0809      	.insn	6, 0x08091405015f
    280c:	0000                	.insn	2, 0x0000
    280e:	0402                	.insn	2, 0x0402
    2810:	0600                	.insn	2, 0x0600
    2812:	0516                	.insn	2, 0x0516
    2814:	0008090b          	.insn	4, 0x0008090b
    2818:	0200                	.insn	2, 0x0200
    281a:	0304                	.insn	2, 0x0304
    281c:	0518                	.insn	2, 0x0518
    281e:	0914                	.insn	2, 0x0914
    2820:	000c                	.insn	2, 0x000c
    2822:	0501                	.insn	2, 0x0501
    2824:	0918                	.insn	2, 0x0918
    2826:	0008                	.insn	2, 0x0008
    2828:	0200                	.insn	2, 0x0200
    282a:	0004                	.insn	2, 0x0004
    282c:	1806                	.insn	2, 0x1806
    282e:	0405                	.insn	2, 0x0405
    2830:	0009                	.insn	2, 0x0009
    2832:	0300                	.insn	2, 0x0300
    2834:	05017fbf 00000906 	.insn	8, 0x090605017fbf
    283c:	0902051b          	.insn	4, 0x0902051b
    2840:	0000                	.insn	2, 0x0000
    2842:	0501                	.insn	2, 0x0501
    2844:	0909                	.insn	2, 0x0909
    2846:	0008                	.insn	2, 0x0008
    2848:	0106                	.insn	2, 0x0106
    284a:	0905                	.insn	2, 0x0905
    284c:	0500                	.insn	2, 0x0500
    284e:	d402                	.insn	2, 0xd402
    2850:	0012                	.insn	2, 0x0012
    2852:	0080                	.insn	2, 0x0080
    2854:	0101                	.insn	2, 0x0101
    2856:	0000014f          	.insn	4, 0x014f
    285a:	0005                	.insn	2, 0x0005
    285c:	0004                	.insn	2, 0x0004
    285e:	002e                	.insn	2, 0x002e
    2860:	0000                	.insn	2, 0x0000
    2862:	0101                	.insn	2, 0x0101
    2864:	fb01                	.insn	2, 0xfb01
    2866:	0d0e                	.insn	2, 0x0d0e
    2868:	0100                	.insn	2, 0x0100
    286a:	0101                	.insn	2, 0x0101
    286c:	0001                	.insn	2, 0x0001
    286e:	0000                	.insn	2, 0x0000
    2870:	0001                	.insn	2, 0x0001
    2872:	0100                	.insn	2, 0x0100
    2874:	0101                	.insn	2, 0x0101
    2876:	021f 015f 0000      	.insn	6, 0x015f021f
    287c:	000001b3          	add	gp,zero,zero
    2880:	0102                	.insn	2, 0x0102
    2882:	021f 020f 01d6      	.insn	6, 0x01d6020f021f
    2888:	0000                	.insn	2, 0x0000
    288a:	d601                	.insn	2, 0xd601
    288c:	0001                	.insn	2, 0x0001
    288e:	0100                	.insn	2, 0x0100
    2890:	0500                	.insn	2, 0x0500
    2892:	d402                	.insn	2, 0xd402
    2894:	0012                	.insn	2, 0x0012
    2896:	0380                	.insn	2, 0x0380
    2898:	00c4                	.insn	2, 0x00c4
    289a:	0301                	.insn	2, 0x0301
    289c:	0901                	.insn	2, 0x0901
    289e:	0004                	.insn	2, 0x0004
    28a0:	0301                	.insn	2, 0x0301
    28a2:	0904                	.insn	2, 0x0904
    28a4:	0004                	.insn	2, 0x0004
    28a6:	0301                	.insn	2, 0x0301
    28a8:	0901                	.insn	2, 0x0901
    28aa:	0004                	.insn	2, 0x0004
    28ac:	0301                	.insn	2, 0x0301
    28ae:	0901                	.insn	2, 0x0901
    28b0:	0004                	.insn	2, 0x0004
    28b2:	0301                	.insn	2, 0x0301
    28b4:	0901                	.insn	2, 0x0901
    28b6:	0004                	.insn	2, 0x0004
    28b8:	0301                	.insn	2, 0x0301
    28ba:	0901                	.insn	2, 0x0901
    28bc:	0004                	.insn	2, 0x0004
    28be:	0301                	.insn	2, 0x0301
    28c0:	0901                	.insn	2, 0x0901
    28c2:	0004                	.insn	2, 0x0004
    28c4:	0301                	.insn	2, 0x0301
    28c6:	0902                	.insn	2, 0x0902
    28c8:	0004                	.insn	2, 0x0004
    28ca:	0301                	.insn	2, 0x0301
    28cc:	0901                	.insn	2, 0x0901
    28ce:	0004                	.insn	2, 0x0004
    28d0:	0301                	.insn	2, 0x0301
    28d2:	0901                	.insn	2, 0x0901
    28d4:	0004                	.insn	2, 0x0004
    28d6:	0301                	.insn	2, 0x0301
    28d8:	0901                	.insn	2, 0x0901
    28da:	0004                	.insn	2, 0x0004
    28dc:	0301                	.insn	2, 0x0301
    28de:	0902                	.insn	2, 0x0902
    28e0:	0004                	.insn	2, 0x0004
    28e2:	0301                	.insn	2, 0x0301
    28e4:	0902                	.insn	2, 0x0902
    28e6:	0004                	.insn	2, 0x0004
    28e8:	0301                	.insn	2, 0x0301
    28ea:	0901                	.insn	2, 0x0901
    28ec:	0004                	.insn	2, 0x0004
    28ee:	0301                	.insn	2, 0x0301
    28f0:	0901                	.insn	2, 0x0901
    28f2:	0004                	.insn	2, 0x0004
    28f4:	0301                	.insn	2, 0x0301
    28f6:	0902                	.insn	2, 0x0902
    28f8:	0004                	.insn	2, 0x0004
    28fa:	0301                	.insn	2, 0x0301
    28fc:	0901                	.insn	2, 0x0901
    28fe:	0004                	.insn	2, 0x0004
    2900:	0301                	.insn	2, 0x0301
    2902:	0901                	.insn	2, 0x0901
    2904:	0004                	.insn	2, 0x0004
    2906:	0301                	.insn	2, 0x0301
    2908:	0902                	.insn	2, 0x0902
    290a:	0004                	.insn	2, 0x0004
    290c:	0301                	.insn	2, 0x0301
    290e:	0906                	.insn	2, 0x0906
    2910:	0004                	.insn	2, 0x0004
    2912:	0301                	.insn	2, 0x0301
    2914:	0901                	.insn	2, 0x0901
    2916:	0004                	.insn	2, 0x0004
    2918:	0301                	.insn	2, 0x0301
    291a:	0901                	.insn	2, 0x0901
    291c:	0004                	.insn	2, 0x0004
    291e:	0301                	.insn	2, 0x0301
    2920:	0901                	.insn	2, 0x0901
    2922:	0004                	.insn	2, 0x0004
    2924:	0301                	.insn	2, 0x0301
    2926:	0905                	.insn	2, 0x0905
    2928:	0004                	.insn	2, 0x0004
    292a:	0301                	.insn	2, 0x0301
    292c:	0902                	.insn	2, 0x0902
    292e:	0004                	.insn	2, 0x0004
    2930:	0301                	.insn	2, 0x0301
    2932:	0902                	.insn	2, 0x0902
    2934:	0004                	.insn	2, 0x0004
    2936:	0301                	.insn	2, 0x0301
    2938:	0901                	.insn	2, 0x0901
    293a:	0004                	.insn	2, 0x0004
    293c:	0301                	.insn	2, 0x0301
    293e:	0902                	.insn	2, 0x0902
    2940:	0004                	.insn	2, 0x0004
    2942:	0301                	.insn	2, 0x0301
    2944:	0902                	.insn	2, 0x0902
    2946:	0004                	.insn	2, 0x0004
    2948:	0301                	.insn	2, 0x0301
    294a:	0901                	.insn	2, 0x0901
    294c:	0004                	.insn	2, 0x0004
    294e:	0301                	.insn	2, 0x0301
    2950:	0901                	.insn	2, 0x0901
    2952:	0004                	.insn	2, 0x0004
    2954:	0301                	.insn	2, 0x0301
    2956:	0901                	.insn	2, 0x0901
    2958:	0004                	.insn	2, 0x0004
    295a:	0301                	.insn	2, 0x0301
    295c:	0904                	.insn	2, 0x0904
    295e:	0004                	.insn	2, 0x0004
    2960:	0301                	.insn	2, 0x0301
    2962:	0901                	.insn	2, 0x0901
    2964:	0004                	.insn	2, 0x0004
    2966:	0301                	.insn	2, 0x0301
    2968:	0901                	.insn	2, 0x0901
    296a:	0004                	.insn	2, 0x0004
    296c:	0301                	.insn	2, 0x0301
    296e:	0902                	.insn	2, 0x0902
    2970:	0004                	.insn	2, 0x0004
    2972:	0301                	.insn	2, 0x0301
    2974:	0901                	.insn	2, 0x0901
    2976:	0004                	.insn	2, 0x0004
    2978:	0301                	.insn	2, 0x0301
    297a:	0901                	.insn	2, 0x0901
    297c:	0004                	.insn	2, 0x0004
    297e:	0301                	.insn	2, 0x0301
    2980:	0902                	.insn	2, 0x0902
    2982:	0004                	.insn	2, 0x0004
    2984:	0301                	.insn	2, 0x0301
    2986:	0901                	.insn	2, 0x0901
    2988:	0004                	.insn	2, 0x0004
    298a:	0301                	.insn	2, 0x0301
    298c:	0902                	.insn	2, 0x0902
    298e:	0004                	.insn	2, 0x0004
    2990:	0301                	.insn	2, 0x0301
    2992:	0901                	.insn	2, 0x0901
    2994:	0004                	.insn	2, 0x0004
    2996:	0301                	.insn	2, 0x0301
    2998:	0901                	.insn	2, 0x0901
    299a:	0004                	.insn	2, 0x0004
    299c:	0301                	.insn	2, 0x0301
    299e:	0901                	.insn	2, 0x0901
    29a0:	0004                	.insn	2, 0x0004
    29a2:	0901                	.insn	2, 0x0901
    29a4:	0004                	.insn	2, 0x0004
    29a6:	0100                	.insn	2, 0x0100
    29a8:	01                	.byte	0x01

Disassembly of section .debug_line_str:

00000000 <.debug_line_str>:
   0:	6d6f682f          	.insn	4, 0x6d6f682f
   4:	2f65                	.insn	2, 0x2f65
   6:	7574                	.insn	2, 0x7574
   8:	7574                	.insn	2, 0x7574
   a:	7574                	.insn	2, 0x7574
   c:	6d69712f          	.insn	4, 0x6d69712f
  10:	6e65                	.insn	2, 0x6e65
  12:	69732f67          	.insn	4, 0x69732f67
  16:	756d                	.insn	2, 0x756d
  18:	616c                	.insn	2, 0x616c
  1a:	6f74                	.insn	2, 0x6f74
  1c:	2f72                	.insn	2, 0x2f72
  1e:	6162                	.insn	2, 0x6162
  20:	6572                	.insn	2, 0x6572
  22:	656d                	.insn	2, 0x656d
  24:	6174                	.insn	2, 0x6174
  26:	2f6c                	.insn	2, 0x2f6c
  28:	6562                	.insn	2, 0x6562
  2a:	636e                	.insn	2, 0x636e
  2c:	6d68                	.insn	2, 0x6d68
  2e:	7261                	.insn	2, 0x7261
  30:	632f736b          	.insn	4, 0x632f736b
  34:	6d65726f          	jal	tp,5770a <__stack_size-0x1fa88f6>
  38:	7261                	.insn	2, 0x7261
  3a:	2e2e006b          	.insn	4, 0x2e2e006b
  3e:	002e2e2f          	amoadd.w	t3,sp,(t3)
  42:	72617473          	.insn	4, 0x72617473
  46:	2e74                	.insn	2, 0x2e74
  48:	6f2f0053          	.insn	4, 0x6f2f0053
  4c:	7470                	.insn	2, 0x7470
  4e:	7369722f          	.insn	4, 0x7369722f
  52:	32337663          	bgeu	t1,gp,37e <__stack_size-0x1fffc82>
  56:	7369722f          	.insn	4, 0x7369722f
  5a:	32337663          	bgeu	t1,gp,386 <__stack_size-0x1fffc7a>
  5e:	752d                	.insn	2, 0x752d
  60:	6b6e                	.insn	2, 0x6b6e
  62:	6f6e                	.insn	2, 0x6f6e
  64:	652d6e77          	.insn	4, 0x652d6e77
  68:	666c                	.insn	2, 0x666c
  6a:	636e692f          	.insn	4, 0x636e692f
  6e:	756c                	.insn	2, 0x756c
  70:	6564                	.insn	2, 0x6564
  72:	7300                	.insn	2, 0x7300
  74:	6474                	.insn	2, 0x6474
  76:	6564                	.insn	2, 0x6564
  78:	2e66                	.insn	2, 0x2e66
  7a:	0068                	.insn	2, 0x0068
  7c:	623c                	.insn	2, 0x623c
  7e:	6975                	.insn	2, 0x6975
  80:	746c                	.insn	2, 0x746c
  82:	692d                	.insn	2, 0x692d
  84:	3e6e                	.insn	2, 0x3e6e
  86:	7800                	.insn	2, 0x7800
  88:	7270                	.insn	2, 0x7270
  8a:	6e69                	.insn	2, 0x6e69
  8c:	6674                	.insn	2, 0x6674
  8e:	682e                	.insn	2, 0x682e
  90:	6400                	.insn	2, 0x6400
  92:	7972                	.insn	2, 0x7972
  94:	632e                	.insn	2, 0x632e
  96:	7300                	.insn	2, 0x7300
  98:	7274                	.insn	2, 0x7274
  9a:	6e69                	.insn	2, 0x6e69
  9c:	00682e67          	.insn	4, 0x00682e67
  a0:	74706f2f          	.insn	4, 0x74706f2f
  a4:	7369722f          	.insn	4, 0x7369722f
  a8:	32337663          	bgeu	t1,gp,3d4 <__stack_size-0x1fffc2c>
  ac:	62696c2f          	.insn	4, 0x62696c2f
  b0:	6363672f          	.insn	4, 0x6363672f
  b4:	7369722f          	.insn	4, 0x7369722f
  b8:	32337663          	bgeu	t1,gp,3e4 <__stack_size-0x1fffc1c>
  bc:	752d                	.insn	2, 0x752d
  be:	6b6e                	.insn	2, 0x6b6e
  c0:	6f6e                	.insn	2, 0x6f6e
  c2:	652d6e77          	.insn	4, 0x652d6e77
  c6:	666c                	.insn	2, 0x666c
  c8:	2e35312f          	.insn	4, 0x2e35312f
  cc:	2e31                	.insn	2, 0x2e31
  ce:	2f30                	.insn	2, 0x2f30
  d0:	6e69                	.insn	2, 0x6e69
  d2:	64756c63          	bltu	a0,t2,72a <__stack_size-0x1fff8d6>
  d6:	0065                	.insn	2, 0x0065
  d8:	6d6f682f          	.insn	4, 0x6d6f682f
  dc:	2f65                	.insn	2, 0x2f65
  de:	7574                	.insn	2, 0x7574
  e0:	7574                	.insn	2, 0x7574
  e2:	7574                	.insn	2, 0x7574
  e4:	6d69712f          	.insn	4, 0x6d69712f
  e8:	6e65                	.insn	2, 0x6e65
  ea:	69732f67          	.insn	4, 0x69732f67
  ee:	756d                	.insn	2, 0x756d
  f0:	616c                	.insn	2, 0x616c
  f2:	6f74                	.insn	2, 0x6f74
  f4:	2f72                	.insn	2, 0x2f72
  f6:	6162                	.insn	2, 0x6162
  f8:	6572                	.insn	2, 0x6572
  fa:	656d                	.insn	2, 0x656d
  fc:	6174                	.insn	2, 0x6174
  fe:	2f6c                	.insn	2, 0x2f6c
 100:	6562                	.insn	2, 0x6562
 102:	636e                	.insn	2, 0x636e
 104:	6d68                	.insn	2, 0x6d68
 106:	7261                	.insn	2, 0x7261
 108:	642f736b          	.insn	4, 0x642f736b
 10c:	7268                	.insn	2, 0x7268
 10e:	7379                	.insn	2, 0x7379
 110:	6f74                	.insn	2, 0x6f74
 112:	656e                	.insn	2, 0x656e
 114:	2e00                	.insn	2, 0x2e00
 116:	2f2e                	.insn	2, 0x2f2e
 118:	2e2e                	.insn	2, 0x2e2e
 11a:	636e692f          	.insn	4, 0x636e692f
 11e:	756c                	.insn	2, 0x756c
 120:	6564                	.insn	2, 0x6564
 122:	7300                	.insn	2, 0x7300
 124:	6474                	.insn	2, 0x6474
 126:	7261                	.insn	2, 0x7261
 128:	00682e67          	.insn	4, 0x00682e67
 12c:	2e2e                	.insn	2, 0x2e2e
 12e:	2f2e2e2f          	.insn	4, 0x2f2e2e2f
 132:	696c                	.insn	2, 0x696c
 134:	2f62                	.insn	2, 0x2f62
 136:	7078                	.insn	2, 0x7078
 138:	6972                	.insn	2, 0x6972
 13a:	746e                	.insn	2, 0x746e
 13c:	2e66                	.insn	2, 0x2e66
 13e:	2e2e0063          	beq	t3,sp,41e <__stack_size-0x1fffbe2>
 142:	2f2e2e2f          	.insn	4, 0x2f2e2e2f
 146:	696c                	.insn	2, 0x696c
 148:	2f62                	.insn	2, 0x2f62
 14a:	2e2e                	.insn	2, 0x2e2e
 14c:	636e692f          	.insn	4, 0x636e692f
 150:	756c                	.insn	2, 0x756c
 152:	6564                	.insn	2, 0x6564
 154:	2e00                	.insn	2, 0x2e00
 156:	2f2e                	.insn	2, 0x2f2e
 158:	2e2e                	.insn	2, 0x2e2e
 15a:	62696c2f          	.insn	4, 0x62696c2f
 15e:	2f00                	.insn	2, 0x2f00
 160:	6f68                	.insn	2, 0x6f68
 162:	656d                	.insn	2, 0x656d
 164:	7475742f          	.insn	4, 0x7475742f
 168:	7475                	.insn	2, 0x7475
 16a:	2f75                	.insn	2, 0x2f75
 16c:	6972                	.insn	2, 0x6972
 16e:	2d766373          	.insn	4, 0x2d766373
 172:	2d756e67          	.insn	4, 0x2d756e67
 176:	6f74                	.insn	2, 0x6f74
 178:	68636c6f          	jal	s8,367fe <__stack_size-0x1fc9802>
 17c:	6961                	.insn	2, 0x6961
 17e:	2f6e                	.insn	2, 0x2f6e
 180:	7562                	.insn	2, 0x7562
 182:	6c69                	.insn	2, 0x6c69
 184:	2d64                	.insn	2, 0x2d64
 186:	2d636367          	.insn	4, 0x2d636367
 18a:	656e                	.insn	2, 0x656e
 18c:	62696c77          	.insn	4, 0x62696c77
 190:	732d                	.insn	2, 0x732d
 192:	6174                	.insn	2, 0x6174
 194:	2f326567          	.insn	4, 0x2f326567
 198:	6972                	.insn	2, 0x6972
 19a:	33766373          	.insn	4, 0x33766373
 19e:	2d32                	.insn	2, 0x2d32
 1a0:	6e75                	.insn	2, 0x6e75
 1a2:	776f6e6b          	.insn	4, 0x776f6e6b
 1a6:	2d6e                	.insn	2, 0x2d6e
 1a8:	6c65                	.insn	2, 0x6c65
 1aa:	2f66                	.insn	2, 0x2f66
 1ac:	696c                	.insn	2, 0x696c
 1ae:	6762                	.insn	2, 0x6762
 1b0:	2e006363          	bltu	zero,zero,496 <__stack_size-0x1fffb6a>
 1b4:	2f2e                	.insn	2, 0x2f2e
 1b6:	2e2e                	.insn	2, 0x2e2e
 1b8:	2f2e2e2f          	.insn	4, 0x2f2e2e2f
 1bc:	2f2e                	.insn	2, 0x2f2e
 1be:	2f636367          	.insn	4, 0x2f636367
 1c2:	696c                	.insn	2, 0x696c
 1c4:	6762                	.insn	2, 0x6762
 1c6:	632f6363          	bltu	t5,s2,7ec <__stack_size-0x1fff814>
 1ca:	69666e6f          	jal	t3,66860 <__stack_size-0x1f997a0>
 1ce:	69722f67          	.insn	4, 0x69722f67
 1d2:	00766373          	.insn	4, 0x00766373
 1d6:	6964                	.insn	2, 0x6964
 1d8:	2e76                	.insn	2, 0x2e76
 1da:	0053                	.short	0x0053

Disassembly of section .debug_info:

00000000 <.debug_info>:
       0:	0020                	.insn	2, 0x0020
       2:	0000                	.insn	2, 0x0000
       4:	0005                	.insn	2, 0x0005
       6:	0401                	.insn	2, 0x0401
       8:	0000                	.insn	2, 0x0000
       a:	0000                	.insn	2, 0x0000
       c:	0001                	.insn	2, 0x0001
       e:	0000                	.insn	2, 0x0000
      10:	0000                	.insn	2, 0x0000
      12:	0000                	.insn	2, 0x0000
      14:	2080                	.insn	2, 0x2080
      16:	0000                	.insn	2, 0x0000
      18:	0000                	.insn	2, 0x0000
      1a:	000e                	.insn	2, 0x000e
      1c:	0000                	.insn	2, 0x0000
      1e:	004a                	.insn	2, 0x004a
      20:	0000                	.insn	2, 0x0000
      22:	8001                	.insn	2, 0x8001
      24:	1451                	.insn	2, 0x1451
      26:	0000                	.insn	2, 0x0000
      28:	0005                	.insn	2, 0x0005
      2a:	0401                	.insn	2, 0x0401
      2c:	0014                	.insn	2, 0x0014
      2e:	0000                	.insn	2, 0x0000
      30:	fc1f 0002 1d00      	.insn	6, 0x1d000002fc1f
      36:	03164703          	lbu	a4,49(a2)
      3a:	9100                	.insn	2, 0x9100
      3c:	0000                	.insn	2, 0x0000
      3e:	d800                	.insn	2, 0xd800
      40:	0000                	.insn	2, 0x0000
      42:	1100                	.insn	2, 0x1100
      44:	0002                	.insn	2, 0x0002
      46:	0000                	.insn	2, 0x0000
      48:	0000                	.insn	2, 0x0000
      4a:	6000                	.insn	2, 0x6000
      4c:	0000                	.insn	2, 0x0000
      4e:	0800                	.insn	2, 0x0800
      50:	0708                	.insn	2, 0x0708
      52:	000000b7          	lui	ra,0x0
      56:	0408                	.insn	2, 0x0408
      58:	0000c107          	.insn	4, 0xc107
      5c:	0800                	.insn	2, 0x0800
      5e:	0801                	.insn	2, 0x0801
      60:	038d                	.insn	2, 0x038d
      62:	0000                	.insn	2, 0x0000
      64:	0420                	.insn	2, 0x0420
      66:	6905                	.insn	2, 0x6905
      68:	746e                	.insn	2, 0x746e
      6a:	2100                	.insn	2, 0x2100
      6c:	0000008f          	.insn	4, 0x008f
      70:	e502                	.insn	2, 0xe502
      72:	00003217          	auipc	tp,0x3
      76:	0800                	.insn	2, 0x0800
      78:	0508                	.insn	2, 0x0508
      7a:	0105                	.insn	2, 0x0105
      7c:	0000                	.insn	2, 0x0000
      7e:	1008                	.insn	2, 0x1008
      80:	5d04                	.insn	2, 0x5d04
      82:	0002                	.insn	2, 0x0002
      84:	0800                	.insn	2, 0x0800
      86:	0601                	.insn	2, 0x0601
      88:	0000038f          	.insn	4, 0x038f
      8c:	0208                	.insn	2, 0x0208
      8e:	be05                	.insn	2, 0xbe05
      90:	08000003          	lb	zero,128(zero) # 80 <__stack_size-0x1ffff80>
      94:	0702                	.insn	2, 0x0702
      96:	01ba                	.insn	2, 0x01ba
      98:	0000                	.insn	2, 0x0000
      9a:	0408                	.insn	2, 0x0408
      9c:	0a05                	.insn	2, 0x0a05
      9e:	0001                	.insn	2, 0x0001
      a0:	0800                	.insn	2, 0x0800
      a2:	0704                	.insn	2, 0x0704
      a4:	00bc                	.insn	2, 0x00bc
      a6:	0000                	.insn	2, 0x0000
      a8:	890d                	.insn	2, 0x890d
      aa:	0000                	.insn	2, 0x0000
      ac:	0800                	.insn	2, 0x0800
      ae:	0801                	.insn	2, 0x0801
      b0:	0396                	.insn	2, 0x0396
      b2:	0000                	.insn	2, 0x0000
      b4:	8922                	.insn	2, 0x8922
      b6:	0000                	.insn	2, 0x0000
      b8:	0d00                	.insn	2, 0x0d00
      ba:	0090                	.insn	2, 0x0090
      bc:	0000                	.insn	2, 0x0000
      be:	32040723          	sb	zero,814(s0)
      c2:	0000                	.insn	2, 0x0000
      c4:	0100                	.insn	2, 0x0100
      c6:	0178                	.insn	2, 0x0178
      c8:	c80e                	.insn	2, 0xc80e
      ca:	0000                	.insn	2, 0x0000
      cc:	1100                	.insn	2, 0x1100
      ce:	021e                	.insn	2, 0x021e
      d0:	0000                	.insn	2, 0x0000
      d2:	1100                	.insn	2, 0x1100
      d4:	0226                	.insn	2, 0x0226
      d6:	0000                	.insn	2, 0x0000
      d8:	1101                	.insn	2, 0x1101
      da:	022e                	.insn	2, 0x022e
      dc:	0000                	.insn	2, 0x0000
      de:	1102                	.insn	2, 0x1102
      e0:	0236                	.insn	2, 0x0236
      e2:	0000                	.insn	2, 0x0000
      e4:	023e1103          	lh	sp,35(t3)
      e8:	0000                	.insn	2, 0x0000
      ea:	0004                	.insn	2, 0x0004
      ec:	0001710f          	.insn	4, 0x0001710f
      f0:	7800                	.insn	2, 0x7800
      f2:	3e01                	.insn	2, 0x3e01
      f4:	009a                	.insn	2, 0x009a
      f6:	0000                	.insn	2, 0x0000
      f8:	0004760f          	.insn	4, 0x0004760f
      fc:	8100                	.insn	2, 0x8100
      fe:	0d01                	.insn	2, 0x0d01
     100:	0040                	.insn	2, 0x0040
     102:	0000                	.insn	2, 0x0000
     104:	0002de0f          	.insn	4, 0x0002de0f
     108:	8200                	.insn	2, 0x8200
     10a:	0d01                	.insn	2, 0x0d01
     10c:	0040                	.insn	2, 0x0040
     10e:	0000                	.insn	2, 0x0000
     110:	0002b50f          	.insn	4, 0x0002b50f
     114:	8300                	.insn	2, 0x8300
     116:	0e01                	.insn	2, 0x0e01
     118:	0089                	.insn	2, 0x0089
     11a:	0000                	.insn	2, 0x0000
     11c:	0003d50f          	.insn	4, 0x0003d50f
     120:	8400                	.insn	2, 0x8400
     122:	0d01                	.insn	2, 0x0d01
     124:	0040                	.insn	2, 0x0040
     126:	0000                	.insn	2, 0x0000
     128:	0000960f          	.insn	4, 0x960f
     12c:	8500                	.insn	2, 0x8500
     12e:	0e01                	.insn	2, 0x0e01
     130:	0110                	.insn	2, 0x0110
     132:	0000                	.insn	2, 0x0000
     134:	00008913          	addi	s2,ra,0 # 0 <__stack_size-0x2000000>
     138:	2000                	.insn	2, 0x2000
     13a:	0001                	.insn	2, 0x0001
     13c:	1400                	.insn	2, 0x1400
     13e:	0032                	.insn	2, 0x0032
     140:	0000                	.insn	2, 0x0000
     142:	001e                	.insn	2, 0x001e
     144:	00004013          	xori	zero,zero,0
     148:	3000                	.insn	2, 0x3000
     14a:	0001                	.insn	2, 0x0001
     14c:	1400                	.insn	2, 0x1400
     14e:	0032                	.insn	2, 0x0032
     150:	0000                	.insn	2, 0x0000
     152:	0031                	.insn	2, 0x0031
     154:	00004013          	xori	zero,zero,0
     158:	4600                	.insn	2, 0x4600
     15a:	0001                	.insn	2, 0x0001
     15c:	1400                	.insn	2, 0x1400
     15e:	0032                	.insn	2, 0x0032
     160:	0000                	.insn	2, 0x0000
     162:	1431                	.insn	2, 0x1431
     164:	0032                	.insn	2, 0x0032
     166:	0000                	.insn	2, 0x0000
     168:	0031                	.insn	2, 0x0031
     16a:	2818                	.insn	2, 0x2818
     16c:	018d                	.insn	2, 0x018d
     16e:	0176                	.insn	2, 0x0176
     170:	0000                	.insn	2, 0x0000
     172:	00041a0b          	.insn	4, 0x00041a0b
     176:	8e00                	.insn	2, 0x8e00
     178:	1301                	.insn	2, 0x1301
     17a:	00c8                	.insn	2, 0x00c8
     17c:	0000                	.insn	2, 0x0000
     17e:	0b00                	.insn	2, 0x0b00
     180:	00000497          	auipc	s1,0x0
     184:	400b018f          	.insn	4, 0x400b018f
     188:	0000                	.insn	2, 0x0000
     18a:	0400                	.insn	2, 0x0400
     18c:	0000df0b          	.insn	4, 0xdf0b
     190:	9000                	.insn	2, 0x9000
     192:	0c01                	.insn	2, 0x0c01
     194:	0110                	.insn	2, 0x0110
     196:	0000                	.insn	2, 0x0000
     198:	0008                	.insn	2, 0x0008
     19a:	2418                	.insn	2, 0x2418
     19c:	0192                	.insn	2, 0x0192
     19e:	0199                	.insn	2, 0x0199
     1a0:	0000                	.insn	2, 0x0000
     1a2:	0004630b          	.insn	4, 0x0004630b
     1a6:	9300                	.insn	2, 0x9300
     1a8:	1301                	.insn	2, 0x1301
     1aa:	00c8                	.insn	2, 0x00c8
     1ac:	0000                	.insn	2, 0x0000
     1ae:	0b00                	.insn	2, 0x0b00
     1b0:	0436                	.insn	2, 0x0436
     1b2:	0000                	.insn	2, 0x0000
     1b4:	0194                	.insn	2, 0x0194
     1b6:	100c                	.insn	2, 0x100c
     1b8:	0001                	.insn	2, 0x0001
     1ba:	0400                	.insn	2, 0x0400
     1bc:	1800                	.insn	2, 0x1800
     1be:	9602                	.insn	2, 0x9602
     1c0:	bc01                	.insn	2, 0xbc01
     1c2:	0001                	.insn	2, 0x0001
     1c4:	0b00                	.insn	2, 0x0b00
     1c6:	01f0                	.insn	2, 0x01f0
     1c8:	0000                	.insn	2, 0x0000
     1ca:	890c0197          	auipc	gp,0x890c0
     1ce:	0000                	.insn	2, 0x0000
     1d0:	0000                	.insn	2, 0x0000
     1d2:	0002690b          	.insn	4, 0x0002690b
     1d6:	9800                	.insn	2, 0x9800
     1d8:	0c01                	.insn	2, 0x0c01
     1da:	0089                	.insn	2, 0x0089
     1dc:	0000                	.insn	2, 0x0000
     1de:	0001                	.insn	2, 0x0001
     1e0:	2824                	.insn	2, 0x2824
     1e2:	8c01                	.insn	2, 0x8c01
     1e4:	0301                	.insn	2, 0x0301
     1e6:	01e8                	.insn	2, 0x01e8
     1e8:	0000                	.insn	2, 0x0000
     1ea:	3019                	.insn	2, 0x3019
     1ec:	0001                	.insn	2, 0x0001
     1ee:	9100                	.insn	2, 0x9100
     1f0:	4601                	.insn	2, 0x4601
     1f2:	0001                	.insn	2, 0x0001
     1f4:	1900                	.insn	2, 0x1900
     1f6:	0136                	.insn	2, 0x0136
     1f8:	0000                	.insn	2, 0x0000
     1fa:	0195                	.insn	2, 0x0195
     1fc:	0176                	.insn	2, 0x0176
     1fe:	0000                	.insn	2, 0x0000
     200:	3c19                	.insn	2, 0x3c19
     202:	0001                	.insn	2, 0x0001
     204:	9900                	.insn	2, 0x9900
     206:	9901                	.insn	2, 0x9901
     208:	0001                	.insn	2, 0x0001
     20a:	0000                	.insn	2, 0x0000
     20c:	d725                	.insn	2, 0xd725
     20e:	0002                	.insn	2, 0x0002
     210:	3000                	.insn	2, 0x3000
     212:	8901                	.insn	2, 0x8901
     214:	1001                	.insn	2, 0x1001
     216:	021e                	.insn	2, 0x021e
     218:	0000                	.insn	2, 0x0000
     21a:	0000720b          	.insn	4, 0x720b
     21e:	8a00                	.insn	2, 0x8a00
     220:	1201                	.insn	2, 0x1201
     222:	021e                	.insn	2, 0x021e
     224:	0000                	.insn	2, 0x0000
     226:	0b00                	.insn	2, 0x0b00
     228:	00b1                	.insn	2, 0x00b1
     22a:	0000                	.insn	2, 0x0000
     22c:	c80f018b          	.insn	4, 0xc80f018b
     230:	0000                	.insn	2, 0x0000
     232:	0400                	.insn	2, 0x0400
     234:	0000e80b          	.insn	4, 0xe80b
     238:	9a00                	.insn	2, 0x9a00
     23a:	0501                	.insn	2, 0x0501
     23c:	01bc                	.insn	2, 0x01bc
     23e:	0000                	.insn	2, 0x0000
     240:	0008                	.insn	2, 0x0008
     242:	e80d                	.insn	2, 0xe80d
     244:	0001                	.insn	2, 0x0001
     246:	0f00                	.insn	2, 0x0f00
     248:	00f9                	.insn	2, 0x00f9
     24a:	0000                	.insn	2, 0x0000
     24c:	1e0e019b          	.insn	4, 0x1e0e019b
     250:	0002                	.insn	2, 0x0002
     252:	0700                	.insn	2, 0x0700
     254:	01a4                	.insn	2, 0x01a4
     256:	0000                	.insn	2, 0x0000
     258:	019f 230d 0002      	.insn	6, 0x0002230d019f
     25e:	0500                	.insn	2, 0x0500
     260:	00468003          	lb	zero,4(a3)
     264:	0780                	.insn	2, 0x0780
     266:	019f 0000 019f      	.insn	6, 0x019f0000019f
     26c:	00022317          	auipc	t1,0x22
     270:	0500                	.insn	2, 0x0500
     272:	00467c03          	.insn	4, 0x00467c03
     276:	0780                	.insn	2, 0x0780
     278:	0118                	.insn	2, 0x0118
     27a:	0000                	.insn	2, 0x0000
     27c:	01a0                	.insn	2, 0x01a0
     27e:	4005                	.insn	2, 0x4005
     280:	0000                	.insn	2, 0x0000
     282:	0500                	.insn	2, 0x0500
     284:	00467803          	.insn	4, 0x00467803
     288:	0780                	.insn	2, 0x0780
     28a:	0150                	.insn	2, 0x0150
     28c:	0000                	.insn	2, 0x0000
     28e:	01a1                	.insn	2, 0x01a1
     290:	f809                	.insn	2, 0xf809
     292:	0000                	.insn	2, 0x0000
     294:	0500                	.insn	2, 0x0500
     296:	00467403          	.insn	4, 0x00467403
     29a:	0780                	.insn	2, 0x0780
     29c:	03dd                	.insn	2, 0x03dd
     29e:	0000                	.insn	2, 0x0000
     2a0:	01a2                	.insn	2, 0x01a2
     2a2:	8906                	.insn	2, 0x8906
     2a4:	0000                	.insn	2, 0x0000
     2a6:	0500                	.insn	2, 0x0500
     2a8:	00467103          	.insn	4, 0x00467103
     2ac:	0780                	.insn	2, 0x0780
     2ae:	0410                	.insn	2, 0x0410
     2b0:	0000                	.insn	2, 0x0000
     2b2:	01a2                	.insn	2, 0x01a2
     2b4:	8911                	.insn	2, 0x8911
     2b6:	0000                	.insn	2, 0x0000
     2b8:	0500                	.insn	2, 0x0500
     2ba:	00467003          	.insn	4, 0x00467003
     2be:	0780                	.insn	2, 0x0780
     2c0:	00a6                	.insn	2, 0x00a6
     2c2:	0000                	.insn	2, 0x0000
     2c4:	200501a3          	sb	zero,515(a0)
     2c8:	0001                	.insn	2, 0x0001
     2ca:	0500                	.insn	2, 0x0500
     2cc:	001a7c03          	.insn	4, 0x001a7c03
     2d0:	0780                	.insn	2, 0x0780
     2d2:	0252                	.insn	2, 0x0252
     2d4:	0000                	.insn	2, 0x0000
     2d6:	01a4                	.insn	2, 0x01a4
     2d8:	3005                	.insn	2, 0x3005
     2da:	0001                	.insn	2, 0x0001
     2dc:	0500                	.insn	2, 0x0500
     2de:	001f4403          	lbu	s0,1(t5)
     2e2:	2680                	.insn	2, 0x2680
     2e4:	6552                	.insn	2, 0x6552
     2e6:	ab010067          	jalr	zero,-1360(sp)
     2ea:	0901                	.insn	2, 0x0901
     2ec:	00f8                	.insn	2, 0x00f8
     2ee:	0000                	.insn	2, 0x0000
     2f0:	0305                	.insn	2, 0x0305
     2f2:	466c                	.insn	2, 0x466c
     2f4:	8000                	.insn	2, 0x8000
     2f6:	0002e807          	.insn	4, 0x0002e807
     2fa:	b500                	.insn	2, 0xb500
     2fc:	0901                	.insn	2, 0x0901
     2fe:	00f8                	.insn	2, 0x00f8
     300:	0000                	.insn	2, 0x0000
     302:	0305                	.insn	2, 0x0305
     304:	4668                	.insn	2, 0x4668
     306:	8000                	.insn	2, 0x8000
     308:	00038207          	.insn	4, 0x00038207
     30c:	b700                	.insn	2, 0xb700
     30e:	0601                	.insn	2, 0x0601
     310:	0076                	.insn	2, 0x0076
     312:	0000                	.insn	2, 0x0000
     314:	0305                	.insn	2, 0x0305
     316:	4664                	.insn	2, 0x4664
     318:	8000                	.insn	2, 0x8000
     31a:	00044107          	.insn	4, 0x00044107
     31e:	b700                	.insn	2, 0xb700
     320:	1201                	.insn	2, 0x1201
     322:	0076                	.insn	2, 0x0076
     324:	0000                	.insn	2, 0x0000
     326:	0305                	.insn	2, 0x0305
     328:	4660                	.insn	2, 0x4660
     32a:	8000                	.insn	2, 0x8000
     32c:	00037807          	.insn	4, 0x00037807
     330:	b700                	.insn	2, 0xb700
     332:	1c01                	.insn	2, 0x1c01
     334:	0076                	.insn	2, 0x0076
     336:	0000                	.insn	2, 0x0000
     338:	0305                	.insn	2, 0x0305
     33a:	465c                	.insn	2, 0x465c
     33c:	8000                	.insn	2, 0x8000
     33e:	0001ad07          	.insn	4, 0x0001ad07
     342:	b800                	.insn	2, 0xb800
     344:	0701                	.insn	2, 0x0701
     346:	032c                	.insn	2, 0x032c
     348:	0000                	.insn	2, 0x0000
     34a:	0305                	.insn	2, 0x0305
     34c:	4658                	.insn	2, 0x4658
     34e:	8000                	.insn	2, 0x8000
     350:	0408                	.insn	2, 0x0408
     352:	ed04                	.insn	2, 0xed04
     354:	0002                	.insn	2, 0x0002
     356:	0700                	.insn	2, 0x0700
     358:	03a8                	.insn	2, 0x03a8
     35a:	0000                	.insn	2, 0x0000
     35c:	01b8                	.insn	2, 0x01b8
     35e:	2c15                	.insn	2, 0x2c15
     360:	05000003          	lb	zero,80(zero) # 50 <__stack_size-0x1ffffb0>
     364:	00465403          	lhu	s0,4(a2)
     368:	1380                	.insn	2, 0x1380
     36a:	0089                	.insn	2, 0x0089
     36c:	0000                	.insn	2, 0x0000
     36e:	0356                	.insn	2, 0x0356
     370:	0000                	.insn	2, 0x0000
     372:	00003227          	.insn	4, 0x3227
     376:	ff00                	.insn	2, 0xff00
     378:	90150003          	lb	zero,-1791(a0)
     37c:	0001                	.insn	2, 0x0001
     37e:	bc00                	.insn	2, 0xbc00
     380:	0d01                	.insn	2, 0x0d01
     382:	0345                	.insn	2, 0x0345
     384:	0000                	.insn	2, 0x0000
     386:	0305                	.insn	2, 0x0305
     388:	1b44                	.insn	2, 0x1b44
     38a:	8000                	.insn	2, 0x8000
     38c:	2115                	.insn	2, 0x2115
     38e:	0001                	.insn	2, 0x0001
     390:	bd00                	.insn	2, 0xbd00
     392:	0e01                	.insn	2, 0x0e01
     394:	0084                	.insn	2, 0x0084
     396:	0000                	.insn	2, 0x0000
     398:	0305                	.insn	2, 0x0305
     39a:	4694                	.insn	2, 0x4694
     39c:	8000                	.insn	2, 0x8000
     39e:	00046c07          	.insn	4, 0x00046c07
     3a2:	cc00                	.insn	2, 0xcc00
     3a4:	0902                	.insn	2, 0x0902
     3a6:	00f8                	.insn	2, 0x00f8
     3a8:	0000                	.insn	2, 0x0000
     3aa:	0305                	.insn	2, 0x0305
     3ac:	4690                	.insn	2, 0x4690
     3ae:	8000                	.insn	2, 0x8000
     3b0:	2e28                	.insn	2, 0x2e28
     3b2:	0004                	.insn	2, 0x0004
     3b4:	0400                	.insn	2, 0x0400
     3b6:	060e                	.insn	2, 0x060e
     3b8:	039f 0000 951a      	.insn	6, 0x951a0000039f
     3be:	0000                	.insn	2, 0x0000
     3c0:	2900                	.insn	2, 0x2900
     3c2:	2a00                	.insn	2, 0x2a00
     3c4:	0000007b          	.insn	4, 0x007b
     3c8:	40062403          	lw	s0,1024(a2)
     3cc:	0000                	.insn	2, 0x0000
     3ce:	ba00                	.insn	2, 0xba00
     3d0:	1a000003          	lb	zero,416(zero) # 1a0 <__stack_size-0x1fffe60>
     3d4:	0095                	.insn	2, 0x0095
     3d6:	0000                	.insn	2, 0x0000
     3d8:	951a                	.insn	2, 0x951a
     3da:	0000                	.insn	2, 0x0000
     3dc:	0000                	.insn	2, 0x0000
     3de:	0004712b          	.insn	4, 0x0004712b
     3e2:	0100                	.insn	2, 0x0100
     3e4:	02d2                	.insn	2, 0x02d2
     3e6:	4005                	.insn	2, 0x4005
     3e8:	0000                	.insn	2, 0x0000
     3ea:	1c00                	.insn	2, 0x1c00
     3ec:	0000                	.insn	2, 0x0000
     3ee:	cc80                	.insn	2, 0xcc80
     3f0:	0008                	.insn	2, 0x0008
     3f2:	0100                	.insn	2, 0x0100
     3f4:	ef9c                	.insn	2, 0xef9c
     3f6:	000d                	.insn	2, 0x000d
     3f8:	1000                	.insn	2, 0x1000
     3fa:	0186                	.insn	2, 0x0186
     3fc:	0000                	.insn	2, 0x0000
     3fe:	02da                	.insn	2, 0x02da
     400:	e00d                	.insn	2, 0xe00d
     402:	0000                	.insn	2, 0x0000
     404:	3e00                	.insn	2, 0x3e00
     406:	0000                	.insn	2, 0x0000
     408:	0c00                	.insn	2, 0x0c00
     40a:	0000                	.insn	2, 0x0000
     40c:	1000                	.insn	2, 0x1000
     40e:	044a                	.insn	2, 0x044a
     410:	0000                	.insn	2, 0x0000
     412:	e01102db          	.insn	4, 0xe01102db
     416:	0000                	.insn	2, 0x0000
     418:	d200                	.insn	2, 0xd200
     41a:	0000                	.insn	2, 0x0000
     41c:	a400                	.insn	2, 0xa400
     41e:	0000                	.insn	2, 0x0000
     420:	1000                	.insn	2, 0x1000
     422:	000002ab          	.insn	4, 0x02ab
     426:	02dc                	.insn	2, 0x02dc
     428:	e00d                	.insn	2, 0xe00d
     42a:	0000                	.insn	2, 0x0000
     42c:	3600                	.insn	2, 0x3600
     42e:	0001                	.insn	2, 0x0001
     430:	3000                	.insn	2, 0x3000
     432:	0001                	.insn	2, 0x0001
     434:	1000                	.insn	2, 0x1000
     436:	01fa                	.insn	2, 0x01fa
     438:	0000                	.insn	2, 0x0000
     43a:	02dd                	.insn	2, 0x02dd
     43c:	890c                	.insn	2, 0x890c
     43e:	0000                	.insn	2, 0x0000
     440:	6f00                	.insn	2, 0x6f00
     442:	0001                	.insn	2, 0x0001
     444:	4b00                	.insn	2, 0x4b00
     446:	0001                	.insn	2, 0x0001
     448:	1000                	.insn	2, 0x1000
     44a:	000002f3          	.insn	4, 0x02f3
     44e:	02de                	.insn	2, 0x02de
     450:	0000c80f          	.insn	4, 0xc80f
     454:	e400                	.insn	2, 0xe400
     456:	0001                	.insn	2, 0x0001
     458:	b600                	.insn	2, 0xb600
     45a:	0001                	.insn	2, 0x0001
     45c:	1500                	.insn	2, 0x1500
     45e:	015a                	.insn	2, 0x015a
     460:	0000                	.insn	2, 0x0000
     462:	02df 040a 0001      	.insn	6, 0x0001040a02df
     468:	0300                	.insn	2, 0x0300
     46a:	8091                	.insn	2, 0x8091
     46c:	0424157f 02e00000 	.insn	12, 0x0001040a02e000000424157f
     474:	0001040a 
     478:	0300                	.insn	2, 0x0300
     47a:	a091                	.insn	2, 0xa091
     47c:	048d107f 02e10000 	.insn	12, 0x400b02e10000048d107f
     484:	0000400b 
     488:	5400                	.insn	2, 0x5400
     48a:	0002                	.insn	2, 0x0002
     48c:	4300                	.insn	2, 0x4300
     48e:	0002                	.insn	2, 0x0002
     490:	2c00                	.insn	2, 0x2c00
     492:	0454                	.insn	2, 0x0454
     494:	0000                	.insn	2, 0x0000
     496:	e201                	.insn	2, 0xe201
     498:	0b02                	.insn	2, 0x0b02
     49a:	0040                	.insn	2, 0x0040
     49c:	0000                	.insn	2, 0x0000
     49e:	2710                	.insn	2, 0x2710
     4a0:	f909                	.insn	2, 0xf909
     4a2:	0010                	.insn	2, 0x0010
     4a4:	1c00                	.insn	2, 0x1c00
     4a6:	0000                	.insn	2, 0x0000
     4a8:	0c80                	.insn	2, 0x0c80
     4aa:	0045                	.insn	2, 0x0045
     4ac:	0000                	.insn	2, 0x0000
     4ae:	02e8                	.insn	2, 0x02e8
     4b0:	ac20                	.insn	2, 0xac20
     4b2:	0004                	.insn	2, 0x0004
     4b4:	0200                	.insn	2, 0x0200
     4b6:	0000110b          	.insn	4, 0x110b
     4ba:	027f 0000 027d 0000 	.insn	10, 0x17040000027d0000027f
     4c2:	1704 
     4c4:	0011                	.insn	2, 0x0011
     4c6:	8e00                	.insn	2, 0x8e00
     4c8:	0002                	.insn	2, 0x0002
     4ca:	8a00                	.insn	2, 0x8a00
     4cc:	0002                	.insn	2, 0x0002
     4ce:	0000                	.insn	2, 0x0000
     4d0:	f909                	.insn	2, 0xf909
     4d2:	0010                	.insn	2, 0x0010
     4d4:	8000                	.insn	2, 0x8000
     4d6:	0000                	.insn	2, 0x0000
     4d8:	2080                	.insn	2, 0x2080
     4da:	0054                	.insn	2, 0x0054
     4dc:	0000                	.insn	2, 0x0000
     4de:	02e9                	.insn	2, 0x02e9
     4e0:	0004dc1b          	.insn	4, 0x0004dc1b
     4e4:	0200                	.insn	2, 0x0200
     4e6:	0000110b          	.insn	4, 0x110b
     4ea:	02a1                	.insn	2, 0x02a1
     4ec:	0000                	.insn	2, 0x0000
     4ee:	029f 0000 1704      	.insn	6, 0x17040000029f
     4f4:	0011                	.insn	2, 0x0011
     4f6:	b000                	.insn	2, 0xb000
     4f8:	0002                	.insn	2, 0x0002
     4fa:	ac00                	.insn	2, 0xac00
     4fc:	0002                	.insn	2, 0x0002
     4fe:	0000                	.insn	2, 0x0000
     500:	7f2d                	.insn	2, 0x7f2d
     502:	ac00000f          	.insn	4, 0xac00000f
     506:	0001                	.insn	2, 0x0001
     508:	5080                	.insn	2, 0x5080
     50a:	0066                	.insn	2, 0x0066
     50c:	0000                	.insn	2, 0x0000
     50e:	0501                	.insn	2, 0x0501
     510:	89090703          	lb	a4,-1904(s2) # 8208c <__stack_size-0x1f7df74>
     514:	e800000f          	.insn	4, 0xe800000f
     518:	0001                	.insn	2, 0x0001
     51a:	5a80                	.insn	2, 0x5a80
     51c:	0075                	.insn	2, 0x0075
     51e:	0000                	.insn	2, 0x0000
     520:	0306                	.insn	2, 0x0306
     522:	00051107          	.insn	4, 0x00051107
     526:	0400                	.insn	2, 0x0400
     528:	0f94                	.insn	2, 0x0f94
     52a:	0000                	.insn	2, 0x0000
     52c:	02c4                	.insn	2, 0x02c4
     52e:	0000                	.insn	2, 0x0000
     530:	02c2                	.insn	2, 0x02c2
     532:	0000                	.insn	2, 0x0000
     534:	0900                	.insn	2, 0x0900
     536:	0e35                	.insn	2, 0x0e35
     538:	0000                	.insn	2, 0x0000
     53a:	01e8                	.insn	2, 0x01e8
     53c:	8000                	.insn	2, 0x8000
     53e:	8165                	.insn	2, 0x8165
     540:	0000                	.insn	2, 0x0000
     542:	0c00                	.insn	2, 0x0c00
     544:	05b61403          	lh	s0,91(a2)
     548:	0000                	.insn	2, 0x0000
     54a:	4502                	.insn	2, 0x4502
     54c:	000e                	.insn	2, 0x000e
     54e:	d800                	.insn	2, 0xd800
     550:	0002                	.insn	2, 0x0002
     552:	ce00                	.insn	2, 0xce00
     554:	0002                	.insn	2, 0x0002
     556:	0200                	.insn	2, 0x0200
     558:	0e51                	.insn	2, 0x0e51
     55a:	0000                	.insn	2, 0x0000
     55c:	00000307          	.insn	4, 0x0307
     560:	02fd                	.insn	2, 0x02fd
     562:	0000                	.insn	2, 0x0000
     564:	5d04                	.insn	2, 0x5d04
     566:	000e                	.insn	2, 0x000e
     568:	3400                	.insn	2, 0x3400
     56a:	2c000003          	lb	zero,704(zero) # 2c0 <__stack_size-0x1fffd40>
     56e:	1b000003          	lb	zero,432(zero) # 1b0 <__stack_size-0x1fffe50>
     572:	0e69                	.insn	2, 0x0e69
     574:	0000                	.insn	2, 0x0000
     576:	0941                	.insn	2, 0x0941
     578:	0e76                	.insn	2, 0x0e76
     57a:	0000                	.insn	2, 0x0000
     57c:	01e8                	.insn	2, 0x01e8
     57e:	8000                	.insn	2, 0x8000
     580:	9a6c                	.insn	2, 0x9a6c
     582:	0000                	.insn	2, 0x0000
     584:	a500                	.insn	2, 0xa500
     586:	0902                	.insn	2, 0x0902
     588:	059d                	.insn	2, 0x059d
     58a:	0000                	.insn	2, 0x0000
     58c:	8602                	.insn	2, 0x8602
     58e:	000e                	.insn	2, 0x000e
     590:	5400                	.insn	2, 0x5400
     592:	4e000003          	lb	zero,1248(zero) # 4e0 <__stack_size-0x1fffb20>
     596:	02000003          	lb	zero,32(zero) # 20 <__stack_size-0x1ffffe0>
     59a:	0e92                	.insn	2, 0x0e92
     59c:	0000                	.insn	2, 0x0000
     59e:	0370                	.insn	2, 0x0370
     5a0:	0000                	.insn	2, 0x0000
     5a2:	036a                	.insn	2, 0x036a
     5a4:	0000                	.insn	2, 0x0000
     5a6:	9e04                	.insn	2, 0x9e04
     5a8:	000e                	.insn	2, 0x000e
     5aa:	8c00                	.insn	2, 0x8c00
     5ac:	86000003          	lb	zero,-1952(zero) # fffff860 <_sp+0x77fff860>
     5b0:	04000003          	lb	zero,64(zero) # 40 <__stack_size-0x1ffffc0>
     5b4:	0eaa                	.insn	2, 0x0eaa
     5b6:	0000                	.insn	2, 0x0000
     5b8:	03a8                	.insn	2, 0x03a8
     5ba:	0000                	.insn	2, 0x0000
     5bc:	03a2                	.insn	2, 0x03a2
     5be:	0000                	.insn	2, 0x0000
     5c0:	1600                	.insn	2, 0x1600
     5c2:	0218                	.insn	2, 0x0218
     5c4:	8000                	.insn	2, 0x8000
     5c6:	039f 0000 0101      	.insn	6, 0x01010000039f
     5cc:	035a                	.insn	2, 0x035a
     5ce:	8091                	.insn	2, 0x8091
     5d0:	017f 5b01 9103 7fa0 	.insn	10, 0x7fa091035b01017f
     5d8:	0000 
     5da:	b709                	.insn	2, 0xb709
     5dc:	000e                	.insn	2, 0x000e
     5de:	2c00                	.insn	2, 0x2c00
     5e0:	0002                	.insn	2, 0x0002
     5e2:	8780                	.insn	2, 0x8780
     5e4:	00b8                	.insn	2, 0x00b8
     5e6:	0000                	.insn	2, 0x0000
     5e8:	1a070317          	auipc	t1,0x1a070
     5ec:	0006                	.insn	2, 0x0006
     5ee:	0200                	.insn	2, 0x0200
     5f0:	0ec2                	.insn	2, 0x0ec2
     5f2:	0000                	.insn	2, 0x0000
     5f4:	03c2                	.insn	2, 0x03c2
     5f6:	0000                	.insn	2, 0x0000
     5f8:	03be                	.insn	2, 0x03be
     5fa:	0000                	.insn	2, 0x0000
     5fc:	ce02                	.insn	2, 0xce02
     5fe:	000e                	.insn	2, 0x000e
     600:	d400                	.insn	2, 0xd400
     602:	d0000003          	lb	zero,-768(zero) # fffffd00 <_sp+0x77fffd00>
     606:	02000003          	lb	zero,32(zero) # 20 <__stack_size-0x1ffffe0>
     60a:	0eda                	.insn	2, 0x0eda
     60c:	0000                	.insn	2, 0x0000
     60e:	03e6                	.insn	2, 0x03e6
     610:	0000                	.insn	2, 0x0000
     612:	03e2                	.insn	2, 0x03e2
     614:	0000                	.insn	2, 0x0000
     616:	e602                	.insn	2, 0xe602
     618:	000e                	.insn	2, 0x000e
     61a:	f400                	.insn	2, 0xf400
     61c:	f0000003          	lb	zero,-256(zero) # ffffff00 <_sp+0x77ffff00>
     620:	04000003          	lb	zero,64(zero) # 40 <__stack_size-0x1ffffc0>
     624:	0ef2                	.insn	2, 0x0ef2
     626:	0000                	.insn	2, 0x0000
     628:	040a                	.insn	2, 0x040a
     62a:	0000                	.insn	2, 0x0000
     62c:	03fe                	.insn	2, 0x03fe
     62e:	0000                	.insn	2, 0x0000
     630:	fe04                	.insn	2, 0xfe04
     632:	000e                	.insn	2, 0x000e
     634:	2600                	.insn	2, 0x2600
     636:	0004                	.insn	2, 0x0004
     638:	2200                	.insn	2, 0x2200
     63a:	0004                	.insn	2, 0x0004
     63c:	0000                	.insn	2, 0x0000
     63e:	7609                	.insn	2, 0x7609
     640:	000e                	.insn	2, 0x000e
     642:	8c00                	.insn	2, 0x8c00
     644:	0002                	.insn	2, 0x0002
     646:	ad80                	.insn	2, 0xad80
     648:	00ca                	.insn	2, 0x00ca
     64a:	0000                	.insn	2, 0x0000
     64c:	031d                	.insn	2, 0x031d
     64e:	6419                	.insn	2, 0x6419
     650:	0006                	.insn	2, 0x0006
     652:	0200                	.insn	2, 0x0200
     654:	0e86                	.insn	2, 0x0e86
     656:	0000                	.insn	2, 0x0000
     658:	0440                	.insn	2, 0x0440
     65a:	0000                	.insn	2, 0x0000
     65c:	0430                	.insn	2, 0x0430
     65e:	0000                	.insn	2, 0x0000
     660:	9202                	.insn	2, 0x9202
     662:	000e                	.insn	2, 0x000e
     664:	6e00                	.insn	2, 0x6e00
     666:	0004                	.insn	2, 0x0004
     668:	5e00                	.insn	2, 0x5e00
     66a:	0004                	.insn	2, 0x0004
     66c:	0400                	.insn	2, 0x0400
     66e:	0e9e                	.insn	2, 0x0e9e
     670:	0000                	.insn	2, 0x0000
     672:	04a4                	.insn	2, 0x04a4
     674:	0000                	.insn	2, 0x0000
     676:	0494                	.insn	2, 0x0494
     678:	0000                	.insn	2, 0x0000
     67a:	aa04                	.insn	2, 0xaa04
     67c:	000e                	.insn	2, 0x000e
     67e:	d200                	.insn	2, 0xd200
     680:	0004                	.insn	2, 0x0004
     682:	c200                	.insn	2, 0xc200
     684:	0004                	.insn	2, 0x0004
     686:	0000                	.insn	2, 0x0000
     688:	be09                	.insn	2, 0xbe09
     68a:	dc00000f          	.insn	4, 0xdc00000f
     68e:	0002                	.insn	2, 0x0002
     690:	c380                	.insn	2, 0xc380
     692:	00e8                	.insn	2, 0x00e8
     694:	0000                	.insn	2, 0x0000
     696:	a107032b          	.insn	4, 0xa107032b
     69a:	0006                	.insn	2, 0x0006
     69c:	0200                	.insn	2, 0x0200
     69e:	0fcc                	.insn	2, 0x0fcc
     6a0:	0000                	.insn	2, 0x0000
     6a2:	04f8                	.insn	2, 0x04f8
     6a4:	0000                	.insn	2, 0x0000
     6a6:	04f0                	.insn	2, 0x04f0
     6a8:	0000                	.insn	2, 0x0000
     6aa:	d804                	.insn	2, 0xd804
     6ac:	1c00000f          	.insn	4, 0x1c00000f
     6b0:	0005                	.insn	2, 0x0005
     6b2:	1400                	.insn	2, 0x1400
     6b4:	0005                	.insn	2, 0x0005
     6b6:	0400                	.insn	2, 0x0400
     6b8:	0fe4                	.insn	2, 0x0fe4
     6ba:	0000                	.insn	2, 0x0000
     6bc:	0539                	.insn	2, 0x0539
     6be:	0000                	.insn	2, 0x0000
     6c0:	052e                	.insn	2, 0x052e
     6c2:	0000                	.insn	2, 0x0000
     6c4:	0900                	.insn	2, 0x0900
     6c6:	0f56                	.insn	2, 0x0f56
     6c8:	0000                	.insn	2, 0x0000
     6ca:	031c                	.insn	2, 0x031c
     6cc:	8000                	.insn	2, 0x8000
     6ce:	0fd6                	.insn	2, 0x0fd6
     6d0:	0001                	.insn	2, 0x0001
     6d2:	2000                	.insn	2, 0x2000
     6d4:	06d10b03          	lb	s6,109(sp)
     6d8:	0000                	.insn	2, 0x0000
     6da:	6102                	.insn	2, 0x6102
     6dc:	5900000f          	.insn	4, 0x5900000f
     6e0:	0005                	.insn	2, 0x0005
     6e2:	5500                	.insn	2, 0x5500
     6e4:	0005                	.insn	2, 0x0005
     6e6:	0200                	.insn	2, 0x0200
     6e8:	0f6d                	.insn	2, 0x0f6d
     6ea:	0000                	.insn	2, 0x0000
     6ec:	00000567          	jalr	a0,0(zero) # 0 <__stack_size-0x2000000>
     6f0:	00000563          	beq	zero,zero,6fa <__stack_size-0x1fff906>
     6f4:	0500                	.insn	2, 0x0500
     6f6:	00000def          	jal	s11,6f6 <__stack_size-0x1fff90a>
     6fa:	03f8                	.insn	2, 0x03f8
     6fc:	8000                	.insn	2, 0x8000
     6fe:	0139                	.insn	2, 0x0139
     700:	011e                	.insn	2, 0x011e
     702:	0000                	.insn	2, 0x0000
     704:	06f40337          	lui	t1,0x6f40
     708:	0000                	.insn	2, 0x0000
     70a:	ff02                	.insn	2, 0xff02
     70c:	000d                	.insn	2, 0x000d
     70e:	7c00                	.insn	2, 0x7c00
     710:	0005                	.insn	2, 0x0005
     712:	7500                	.insn	2, 0x7500
     714:	0005                	.insn	2, 0x0005
     716:	0000                	.insn	2, 0x0000
     718:	ef05                	.insn	2, 0xef05
     71a:	000d                	.insn	2, 0x000d
     71c:	3400                	.insn	2, 0x3400
     71e:	0004                	.insn	2, 0x0004
     720:	4880                	.insn	2, 0x4880
     722:	2d01                	.insn	2, 0x2d01
     724:	0001                	.insn	2, 0x0001
     726:	3b00                	.insn	2, 0x3b00
     728:	00071703          	lh	a4,0(a4)
     72c:	0200                	.insn	2, 0x0200
     72e:	0dff 0000 05a0 0000 	.insn	10, 0x059c000005a000000dff
     736:	059c 
     738:	0000                	.insn	2, 0x0000
     73a:	0500                	.insn	2, 0x0500
     73c:	00000def          	jal	s11,73c <__stack_size-0x1fff8c4>
     740:	0470                	.insn	2, 0x0470
     742:	8000                	.insn	2, 0x8000
     744:	0154                	.insn	2, 0x0154
     746:	0139                	.insn	2, 0x0139
     748:	0000                	.insn	2, 0x0000
     74a:	073a033f ff020000 	.insn	8, 0xff020000073a033f
     752:	000d                	.insn	2, 0x000d
     754:	b400                	.insn	2, 0xb400
     756:	0005                	.insn	2, 0x0005
     758:	b000                	.insn	2, 0xb000
     75a:	0005                	.insn	2, 0x0005
     75c:	0000                	.insn	2, 0x0000
     75e:	ef05                	.insn	2, 0xef05
     760:	000d                	.insn	2, 0x000d
     762:	ac00                	.insn	2, 0xac00
     764:	0004                	.insn	2, 0x0004
     766:	6080                	.insn	2, 0x6080
     768:	4501                	.insn	2, 0x4501
     76a:	0001                	.insn	2, 0x0001
     76c:	4300                	.insn	2, 0x4300
     76e:	00075d03          	lhu	s10,0(a4)
     772:	0200                	.insn	2, 0x0200
     774:	0dff 0000 05cc 0000 	.insn	10, 0x05c8000005cc00000dff
     77c:	05c8 
     77e:	0000                	.insn	2, 0x0000
     780:	0500                	.insn	2, 0x0500
     782:	00000def          	jal	s11,782 <__stack_size-0x1fff87e>
     786:	04e8                	.insn	2, 0x04e8
     788:	8000                	.insn	2, 0x8000
     78a:	016c                	.insn	2, 0x016c
     78c:	0151                	.insn	2, 0x0151
     78e:	0000                	.insn	2, 0x0000
     790:	07800347          	.insn	4, 0x07800347
     794:	0000                	.insn	2, 0x0000
     796:	ff02                	.insn	2, 0xff02
     798:	000d                	.insn	2, 0x000d
     79a:	e400                	.insn	2, 0xe400
     79c:	0005                	.insn	2, 0x0005
     79e:	e000                	.insn	2, 0xe000
     7a0:	0005                	.insn	2, 0x0005
     7a2:	0000                	.insn	2, 0x0000
     7a4:	ef05                	.insn	2, 0xef05
     7a6:	000d                	.insn	2, 0x000d
     7a8:	2400                	.insn	2, 0x2400
     7aa:	0005                	.insn	2, 0x0005
     7ac:	7880                	.insn	2, 0x7880
     7ae:	5d01                	.insn	2, 0x5d01
     7b0:	0001                	.insn	2, 0x0001
     7b2:	4b00                	.insn	2, 0x4b00
     7b4:	0007a303          	lw	t1,0(a5)
     7b8:	0200                	.insn	2, 0x0200
     7ba:	0dff 0000 05f8 0000 	.insn	10, 0x05f4000005f800000dff
     7c2:	05f4 
     7c4:	0000                	.insn	2, 0x0000
     7c6:	0500                	.insn	2, 0x0500
     7c8:	00000def          	jal	s11,7c8 <__stack_size-0x1fff838>
     7cc:	0564                	.insn	2, 0x0564
     7ce:	8000                	.insn	2, 0x8000
     7d0:	0184                	.insn	2, 0x0184
     7d2:	0169                	.insn	2, 0x0169
     7d4:	0000                	.insn	2, 0x0000
     7d6:	0350                	.insn	2, 0x0350
     7d8:	07c6                	.insn	2, 0x07c6
     7da:	0000                	.insn	2, 0x0000
     7dc:	ff02                	.insn	2, 0xff02
     7de:	000d                	.insn	2, 0x000d
     7e0:	0e00                	.insn	2, 0x0e00
     7e2:	0006                	.insn	2, 0x0006
     7e4:	0a00                	.insn	2, 0x0a00
     7e6:	0006                	.insn	2, 0x0006
     7e8:	0000                	.insn	2, 0x0000
     7ea:	ef05                	.insn	2, 0xef05
     7ec:	000d                	.insn	2, 0x000d
     7ee:	a400                	.insn	2, 0xa400
     7f0:	0005                	.insn	2, 0x0005
     7f2:	9280                	.insn	2, 0x9280
     7f4:	7501                	.insn	2, 0x7501
     7f6:	0001                	.insn	2, 0x0001
     7f8:	5400                	.insn	2, 0x5400
     7fa:	0007e903          	.insn	4, 0x0007e903
     7fe:	0200                	.insn	2, 0x0200
     800:	0dff 0000 0622 0000 	.insn	10, 0x061e0000062200000dff
     808:	061e 
     80a:	0000                	.insn	2, 0x0000
     80c:	0500                	.insn	2, 0x0500
     80e:	00000def          	jal	s11,80e <__stack_size-0x1fff7f2>
     812:	05e4                	.insn	2, 0x05e4
     814:	8000                	.insn	2, 0x8000
     816:	01a0                	.insn	2, 0x01a0
     818:	0184                	.insn	2, 0x0184
     81a:	0000                	.insn	2, 0x0000
     81c:	0359                	.insn	2, 0x0359
     81e:	080c                	.insn	2, 0x080c
     820:	0000                	.insn	2, 0x0000
     822:	ff02                	.insn	2, 0xff02
     824:	000d                	.insn	2, 0x000d
     826:	3600                	.insn	2, 0x3600
     828:	0006                	.insn	2, 0x0006
     82a:	3200                	.insn	2, 0x3200
     82c:	0006                	.insn	2, 0x0006
     82e:	0000                	.insn	2, 0x0000
     830:	ef05                	.insn	2, 0xef05
     832:	000d                	.insn	2, 0x000d
     834:	3800                	.insn	2, 0x3800
     836:	0006                	.insn	2, 0x0006
     838:	af80                	.insn	2, 0xaf80
     83a:	9301                	.insn	2, 0x9301
     83c:	0001                	.insn	2, 0x0001
     83e:	5e00                	.insn	2, 0x5e00
     840:	00082f03          	lw	t5,0(a6)
     844:	0200                	.insn	2, 0x0200
     846:	0dff 0000 064a 0000 	.insn	10, 0x06460000064a00000dff
     84e:	0646 
     850:	0000                	.insn	2, 0x0000
     852:	0500                	.insn	2, 0x0500
     854:	00000def          	jal	s11,854 <__stack_size-0x1fff7ac>
     858:	0678                	.insn	2, 0x0678
     85a:	8000                	.insn	2, 0x8000
     85c:	01bc                	.insn	2, 0x01bc
     85e:	019f 0000 0365      	.insn	6, 0x03650000019f
     864:	0852                	.insn	2, 0x0852
     866:	0000                	.insn	2, 0x0000
     868:	ff02                	.insn	2, 0xff02
     86a:	000d                	.insn	2, 0x000d
     86c:	5e00                	.insn	2, 0x5e00
     86e:	0006                	.insn	2, 0x0006
     870:	5a00                	.insn	2, 0x5a00
     872:	0006                	.insn	2, 0x0006
     874:	0000                	.insn	2, 0x0000
     876:	ef05                	.insn	2, 0xef05
     878:	000d                	.insn	2, 0x000d
     87a:	bc00                	.insn	2, 0xbc00
     87c:	0006                	.insn	2, 0x0006
     87e:	ca80                	.insn	2, 0xca80
     880:	ab01                	.insn	2, 0xab01
     882:	0001                	.insn	2, 0x0001
     884:	6900                	.insn	2, 0x6900
     886:	00087503          	.insn	4, 0x00087503
     88a:	0200                	.insn	2, 0x0200
     88c:	0dff 0000 0672 0000 	.insn	10, 0x066e0000067200000dff
     894:	066e 
     896:	0000                	.insn	2, 0x0000
     898:	0500                	.insn	2, 0x0500
     89a:	00000def          	jal	s11,89a <__stack_size-0x1fff766>
     89e:	0700                	.insn	2, 0x0700
     8a0:	8000                	.insn	2, 0x8000
     8a2:	01d8                	.insn	2, 0x01d8
     8a4:	01ba                	.insn	2, 0x01ba
     8a6:	0000                	.insn	2, 0x0000
     8a8:	036e                	.insn	2, 0x036e
     8aa:	0898                	.insn	2, 0x0898
     8ac:	0000                	.insn	2, 0x0000
     8ae:	ff02                	.insn	2, 0xff02
     8b0:	000d                	.insn	2, 0x000d
     8b2:	8600                	.insn	2, 0x8600
     8b4:	0006                	.insn	2, 0x0006
     8b6:	8200                	.insn	2, 0x8200
     8b8:	0006                	.insn	2, 0x0006
     8ba:	0000                	.insn	2, 0x0000
     8bc:	ef05                	.insn	2, 0xef05
     8be:	000d                	.insn	2, 0x000d
     8c0:	5800                	.insn	2, 0x5800
     8c2:	e7800007          	.insn	4, 0xe7800007
     8c6:	c901                	.insn	2, 0xc901
     8c8:	0001                	.insn	2, 0x0001
     8ca:	7300                	.insn	2, 0x7300
     8cc:	0008bb03          	.insn	4, 0x0008bb03
     8d0:	0200                	.insn	2, 0x0200
     8d2:	0dff 0000 069a 0000 	.insn	10, 0x06960000069a00000dff
     8da:	0696 
     8dc:	0000                	.insn	2, 0x0000
     8de:	0500                	.insn	2, 0x0500
     8e0:	00000def          	jal	s11,8e0 <__stack_size-0x1fff720>
     8e4:	078c                	.insn	2, 0x078c
     8e6:	8000                	.insn	2, 0x8000
     8e8:	01d501f3          	.insn	4, 0x01d501f3
     8ec:	0000                	.insn	2, 0x0000
     8ee:	037a                	.insn	2, 0x037a
     8f0:	08de                	.insn	2, 0x08de
     8f2:	0000                	.insn	2, 0x0000
     8f4:	ff02                	.insn	2, 0xff02
     8f6:	000d                	.insn	2, 0x000d
     8f8:	ae00                	.insn	2, 0xae00
     8fa:	0006                	.insn	2, 0x0006
     8fc:	aa00                	.insn	2, 0xaa00
     8fe:	0006                	.insn	2, 0x0006
     900:	0000                	.insn	2, 0x0000
     902:	ef05                	.insn	2, 0xef05
     904:	000d                	.insn	2, 0x000d
     906:	c000                	.insn	2, 0xc000
     908:	fe800007          	.insn	4, 0xfe800007
     90c:	e101                	.insn	2, 0xe101
     90e:	0001                	.insn	2, 0x0001
     910:	7e00                	.insn	2, 0x7e00
     912:	00090103          	lb	sp,0(s2)
     916:	0200                	.insn	2, 0x0200
     918:	0dff 0000 06c2 0000 	.insn	10, 0x06be000006c200000dff
     920:	06be 
     922:	0000                	.insn	2, 0x0000
     924:	0500                	.insn	2, 0x0500
     926:	00000def          	jal	s11,926 <__stack_size-0x1fff6da>
     92a:	07ec                	.insn	2, 0x07ec
     92c:	8000                	.insn	2, 0x8000
     92e:	020a                	.insn	2, 0x020a
     930:	01ed                	.insn	2, 0x01ed
     932:	0000                	.insn	2, 0x0000
     934:	0386                	.insn	2, 0x0386
     936:	0924                	.insn	2, 0x0924
     938:	0000                	.insn	2, 0x0000
     93a:	ff02                	.insn	2, 0xff02
     93c:	000d                	.insn	2, 0x000d
     93e:	d600                	.insn	2, 0xd600
     940:	0006                	.insn	2, 0x0006
     942:	d200                	.insn	2, 0xd200
     944:	0006                	.insn	2, 0x0006
     946:	0000                	.insn	2, 0x0000
     948:	ef05                	.insn	2, 0xef05
     94a:	000d                	.insn	2, 0x000d
     94c:	2400                	.insn	2, 0x2400
     94e:	0008                	.insn	2, 0x0008
     950:	1680                	.insn	2, 0x1680
     952:	f902                	.insn	2, 0xf902
     954:	0001                	.insn	2, 0x0001
     956:	8b00                	.insn	2, 0x8b00
     958:	00094703          	lbu	a4,0(s2)
     95c:	0200                	.insn	2, 0x0200
     95e:	0dff 0000 06e3 0000 	.insn	10, 0x06df000006e300000dff
     966:	06df 
     968:	0000                	.insn	2, 0x0000
     96a:	0500                	.insn	2, 0x0500
     96c:	00000def          	jal	s11,96c <__stack_size-0x1fff694>
     970:	0858                	.insn	2, 0x0858
     972:	8000                	.insn	2, 0x8000
     974:	02050223          	sb	zero,36(a0)
     978:	0000                	.insn	2, 0x0000
     97a:	096a038f          	.insn	4, 0x096a038f
     97e:	0000                	.insn	2, 0x0000
     980:	ff02                	.insn	2, 0xff02
     982:	000d                	.insn	2, 0x000d
     984:	f700                	.insn	2, 0xf700
     986:	0006                	.insn	2, 0x0006
     988:	f300                	.insn	2, 0xf300
     98a:	0006                	.insn	2, 0x0006
     98c:	0000                	.insn	2, 0x0000
     98e:	0000d803          	lhu	a6,0(ra)
     992:	4080                	.insn	2, 0x4080
     994:	0014                	.insn	2, 0x0014
     996:	8600                	.insn	2, 0x8600
     998:	0009                	.insn	2, 0x0009
     99a:	0100                	.insn	2, 0x0100
     99c:	5b01                	.insn	2, 0x5b01
     99e:	0305                	.insn	2, 0x0305
     9a0:	162c                	.insn	2, 0x162c
     9a2:	8000                	.insn	2, 0x8000
     9a4:	0101                	.insn	2, 0x0101
     9a6:	015c                	.insn	2, 0x015c
     9a8:	601c004f          	.insn	4, 0x601c004f
     9ac:	0002                	.insn	2, 0x0002
     9ae:	f180                	.insn	2, 0xf180
     9b0:	1c00000f          	.insn	4, 0x1c00000f
     9b4:	02cc                	.insn	2, 0x02cc
     9b6:	8000                	.insn	2, 0x8000
     9b8:	0000144b          	.insn	4, 0x144b
     9bc:	a01c                	.insn	2, 0xa01c
     9be:	4b800003          	lb	zero,1208(zero) # 4b8 <__stack_size-0x1fffb48>
     9c2:	0014                	.insn	2, 0x0014
     9c4:	0300                	.insn	2, 0x0300
     9c6:	0418                	.insn	2, 0x0418
     9c8:	8000                	.insn	2, 0x8000
     9ca:	038c                	.insn	2, 0x038c
     9cc:	0000                	.insn	2, 0x0000
     9ce:	09b8                	.insn	2, 0x09b8
     9d0:	0000                	.insn	2, 0x0000
     9d2:	0101                	.insn	2, 0x0101
     9d4:	055a                	.insn	2, 0x055a
     9d6:	00165003          	lhu	zero,1(a2)
     9da:	0080                	.insn	2, 0x0080
     9dc:	00042803          	lw	a6,0(s0)
     9e0:	8c80                	.insn	2, 0x8c80
     9e2:	d5000003          	lb	zero,-688(zero) # fffffd50 <_sp+0x77fffd50>
     9e6:	0009                	.insn	2, 0x0009
     9e8:	0100                	.insn	2, 0x0100
     9ea:	5a01                	.insn	2, 0x5a01
     9ec:	0305                	.insn	2, 0x0305
     9ee:	166c                	.insn	2, 0x166c
     9f0:	8000                	.insn	2, 0x8000
     9f2:	0101                	.insn	2, 0x0101
     9f4:	0085025b          	.insn	4, 0x0085025b
     9f8:	0300                	.insn	2, 0x0300
     9fa:	0454                	.insn	2, 0x0454
     9fc:	8000                	.insn	2, 0x8000
     9fe:	038c                	.insn	2, 0x038c
     a00:	0000                	.insn	2, 0x0000
     a02:	09ec                	.insn	2, 0x09ec
     a04:	0000                	.insn	2, 0x0000
     a06:	0101                	.insn	2, 0x0101
     a08:	055a                	.insn	2, 0x055a
     a0a:	00168803          	lb	a6,1(a3)
     a0e:	0080                	.insn	2, 0x0080
     a10:	00046403          	.insn	4, 0x00046403
     a14:	8c80                	.insn	2, 0x8c80
     a16:	09000003          	lb	zero,144(zero) # 90 <__stack_size-0x1ffff70>
     a1a:	000a                	.insn	2, 0x000a
     a1c:	0100                	.insn	2, 0x0100
     a1e:	5a01                	.insn	2, 0x5a01
     a20:	0305                	.insn	2, 0x0305
     a22:	166c                	.insn	2, 0x166c
     a24:	8000                	.insn	2, 0x8000
     a26:	0101                	.insn	2, 0x0101
     a28:	0085025b          	.insn	4, 0x0085025b
     a2c:	0300                	.insn	2, 0x0300
     a2e:	0490                	.insn	2, 0x0490
     a30:	8000                	.insn	2, 0x8000
     a32:	038c                	.insn	2, 0x038c
     a34:	0000                	.insn	2, 0x0000
     a36:	0a20                	.insn	2, 0x0a20
     a38:	0000                	.insn	2, 0x0000
     a3a:	0101                	.insn	2, 0x0101
     a3c:	055a                	.insn	2, 0x055a
     a3e:	0016a403          	lw	s0,1(a3)
     a42:	0080                	.insn	2, 0x0080
     a44:	0004a003          	lw	zero,0(s1) # 180 <__stack_size-0x1fffe80>
     a48:	8c80                	.insn	2, 0x8c80
     a4a:	3d000003          	lb	zero,976(zero) # 3d0 <__stack_size-0x1fffc30>
     a4e:	000a                	.insn	2, 0x000a
     a50:	0100                	.insn	2, 0x0100
     a52:	5a01                	.insn	2, 0x5a01
     a54:	0305                	.insn	2, 0x0305
     a56:	16c0                	.insn	2, 0x16c0
     a58:	8000                	.insn	2, 0x8000
     a5a:	0101                	.insn	2, 0x0101
     a5c:	0084025b          	.insn	4, 0x0084025b
     a60:	0300                	.insn	2, 0x0300
     a62:	04cc                	.insn	2, 0x04cc
     a64:	8000                	.insn	2, 0x8000
     a66:	038c                	.insn	2, 0x038c
     a68:	0000                	.insn	2, 0x0000
     a6a:	0a54                	.insn	2, 0x0a54
     a6c:	0000                	.insn	2, 0x0000
     a6e:	0101                	.insn	2, 0x0101
     a70:	055a                	.insn	2, 0x055a
     a72:	0016dc03          	lhu	s8,1(a3)
     a76:	0080                	.insn	2, 0x0080
     a78:	0004dc03          	lhu	s8,0(s1)
     a7c:	8c80                	.insn	2, 0x8c80
     a7e:	71000003          	lb	zero,1808(zero) # 710 <__stack_size-0x1fff8f0>
     a82:	000a                	.insn	2, 0x000a
     a84:	0100                	.insn	2, 0x0100
     a86:	5a01                	.insn	2, 0x5a01
     a88:	0305                	.insn	2, 0x0305
     a8a:	16c0                	.insn	2, 0x16c0
     a8c:	8000                	.insn	2, 0x8000
     a8e:	0101                	.insn	2, 0x0101
     a90:	0083025b          	.insn	4, 0x0083025b
     a94:	0300                	.insn	2, 0x0300
     a96:	0508                	.insn	2, 0x0508
     a98:	8000                	.insn	2, 0x8000
     a9a:	038c                	.insn	2, 0x038c
     a9c:	0000                	.insn	2, 0x0000
     a9e:	0a88                	.insn	2, 0x0a88
     aa0:	0000                	.insn	2, 0x0000
     aa2:	0101                	.insn	2, 0x0101
     aa4:	055a                	.insn	2, 0x055a
     aa6:	0016f803          	.insn	4, 0x0016f803
     aaa:	0080                	.insn	2, 0x0080
     aac:	00051803          	lh	a6,0(a0)
     ab0:	8c80                	.insn	2, 0x8c80
     ab2:	a5000003          	lb	zero,-1456(zero) # fffffa50 <_sp+0x77fffa50>
     ab6:	000a                	.insn	2, 0x000a
     ab8:	0100                	.insn	2, 0x0100
     aba:	5a01                	.insn	2, 0x5a01
     abc:	0305                	.insn	2, 0x0305
     abe:	166c                	.insn	2, 0x166c
     ac0:	8000                	.insn	2, 0x8000
     ac2:	0101                	.insn	2, 0x0101
     ac4:	0079025b          	.insn	4, 0x0079025b
     ac8:	0300                	.insn	2, 0x0300
     aca:	0548                	.insn	2, 0x0548
     acc:	8000                	.insn	2, 0x8000
     ace:	038c                	.insn	2, 0x038c
     ad0:	0000                	.insn	2, 0x0000
     ad2:	0abc                	.insn	2, 0x0abc
     ad4:	0000                	.insn	2, 0x0000
     ad6:	0101                	.insn	2, 0x0101
     ad8:	055a                	.insn	2, 0x055a
     ada:	00171403          	lh	s0,1(a4)
     ade:	0080                	.insn	2, 0x0080
     ae0:	00055403          	lhu	s0,0(a0)
     ae4:	8c80                	.insn	2, 0x8c80
     ae6:	d3000003          	lb	zero,-720(zero) # fffffd30 <_sp+0x77fffd30>
     aea:	000a                	.insn	2, 0x000a
     aec:	0100                	.insn	2, 0x0100
     aee:	5a01                	.insn	2, 0x5a01
     af0:	0305                	.insn	2, 0x0305
     af2:	1730                	.insn	2, 0x1730
     af4:	8000                	.insn	2, 0x8000
     af6:	0300                	.insn	2, 0x0300
     af8:	0580                	.insn	2, 0x0580
     afa:	8000                	.insn	2, 0x8000
     afc:	038c                	.insn	2, 0x038c
     afe:	0000                	.insn	2, 0x0000
     b00:	0aea                	.insn	2, 0x0aea
     b02:	0000                	.insn	2, 0x0000
     b04:	0101                	.insn	2, 0x0101
     b06:	055a                	.insn	2, 0x055a
     b08:	00175c03          	lhu	s8,1(a4)
     b0c:	0080                	.insn	2, 0x0080
     b0e:	00059003          	lh	zero,0(a1) # 92a0000 <__stack_size+0x72a0000>
     b12:	8c80                	.insn	2, 0x8c80
     b14:	06000003          	lb	zero,96(zero) # 60 <__stack_size-0x1ffffa0>
     b18:	0100000b          	.insn	4, 0x0100000b
     b1c:	5a01                	.insn	2, 0x5a01
     b1e:	0305                	.insn	2, 0x0305
     b20:	166c                	.insn	2, 0x166c
     b22:	8000                	.insn	2, 0x8000
     b24:	0101                	.insn	2, 0x0101
     b26:	0030015b          	.insn	4, 0x0030015b
     b2a:	0005c003          	lbu	zero,0(a1)
     b2e:	8c80                	.insn	2, 0x8c80
     b30:	1d000003          	lb	zero,464(zero) # 1d0 <__stack_size-0x1fffe30>
     b34:	0100000b          	.insn	4, 0x0100000b
     b38:	5a01                	.insn	2, 0x5a01
     b3a:	0305                	.insn	2, 0x0305
     b3c:	1780                	.insn	2, 0x1780
     b3e:	8000                	.insn	2, 0x8000
     b40:	0300                	.insn	2, 0x0300
     b42:	05d0                	.insn	2, 0x05d0
     b44:	8000                	.insn	2, 0x8000
     b46:	038c                	.insn	2, 0x038c
     b48:	0000                	.insn	2, 0x0000
     b4a:	0b3a                	.insn	2, 0x0b3a
     b4c:	0000                	.insn	2, 0x0000
     b4e:	0101                	.insn	2, 0x0101
     b50:	055a                	.insn	2, 0x055a
     b52:	00166c03          	.insn	4, 0x00166c03
     b56:	0180                	.insn	2, 0x0180
     b58:	5b01                	.insn	2, 0x5b01
     b5a:	7802                	.insn	2, 0x7802
     b5c:	0000                	.insn	2, 0x0000
     b5e:	00060003          	lb	zero,0(a2)
     b62:	8c80                	.insn	2, 0x8c80
     b64:	51000003          	lb	zero,1296(zero) # 510 <__stack_size-0x1fffaf0>
     b68:	0100000b          	.insn	4, 0x0100000b
     b6c:	5a01                	.insn	2, 0x5a01
     b6e:	0305                	.insn	2, 0x0305
     b70:	17a4                	.insn	2, 0x17a4
     b72:	8000                	.insn	2, 0x8000
     b74:	0300                	.insn	2, 0x0300
     b76:	0610                	.insn	2, 0x0610
     b78:	8000                	.insn	2, 0x8000
     b7a:	038c                	.insn	2, 0x038c
     b7c:	0000                	.insn	2, 0x0000
     b7e:	0b6e                	.insn	2, 0x0b6e
     b80:	0000                	.insn	2, 0x0000
     b82:	0101                	.insn	2, 0x0101
     b84:	055a                	.insn	2, 0x055a
     b86:	00166c03          	.insn	4, 0x00166c03
     b8a:	0180                	.insn	2, 0x0180
     b8c:	5b01                	.insn	2, 0x5b01
     b8e:	7802                	.insn	2, 0x7802
     b90:	0000                	.insn	2, 0x0000
     b92:	00063803          	.insn	4, 0x00063803
     b96:	9f80                	.insn	2, 0x9f80
     b98:	8b000003          	lb	zero,-1872(zero) # fffff8b0 <_sp+0x77fff8b0>
     b9c:	0100000b          	.insn	4, 0x0100000b
     ba0:	5a01                	.insn	2, 0x5a01
     ba2:	7802                	.insn	2, 0x7802
     ba4:	0100                	.insn	2, 0x0100
     ba6:	5b01                	.insn	2, 0x5b01
     ba8:	0305                	.insn	2, 0x0305
     baa:	162c                	.insn	2, 0x162c
     bac:	8000                	.insn	2, 0x8000
     bae:	0300                	.insn	2, 0x0300
     bb0:	0658                	.insn	2, 0x0658
     bb2:	8000                	.insn	2, 0x8000
     bb4:	038c                	.insn	2, 0x038c
     bb6:	0000                	.insn	2, 0x0000
     bb8:	0ba8                	.insn	2, 0x0ba8
     bba:	0000                	.insn	2, 0x0000
     bbc:	0101                	.insn	2, 0x0101
     bbe:	055a                	.insn	2, 0x055a
     bc0:	0017c803          	lbu	a6,1(a5)
     bc4:	0180                	.insn	2, 0x0180
     bc6:	5b01                	.insn	2, 0x5b01
     bc8:	7802                	.insn	2, 0x7802
     bca:	0000                	.insn	2, 0x0000
     bcc:	00066403          	.insn	4, 0x00066403
     bd0:	8c80                	.insn	2, 0x8c80
     bd2:	bf000003          	lb	zero,-1040(zero) # fffffbf0 <_sp+0x77fffbf0>
     bd6:	0100000b          	.insn	4, 0x0100000b
     bda:	5a01                	.insn	2, 0x5a01
     bdc:	0305                	.insn	2, 0x0305
     bde:	17ec                	.insn	2, 0x17ec
     be0:	8000                	.insn	2, 0x8000
     be2:	0300                	.insn	2, 0x0300
     be4:	0694                	.insn	2, 0x0694
     be6:	8000                	.insn	2, 0x8000
     be8:	038c                	.insn	2, 0x038c
     bea:	0000                	.insn	2, 0x0000
     bec:	0bd6                	.insn	2, 0x0bd6
     bee:	0000                	.insn	2, 0x0000
     bf0:	0101                	.insn	2, 0x0101
     bf2:	055a                	.insn	2, 0x055a
     bf4:	00182403          	lw	s0,1(a6)
     bf8:	0080                	.insn	2, 0x0080
     bfa:	0006a403          	lw	s0,0(a3)
     bfe:	8c80                	.insn	2, 0x8c80
     c00:	f2000003          	lb	zero,-224(zero) # ffffff20 <_sp+0x77ffff20>
     c04:	0100000b          	.insn	4, 0x0100000b
     c08:	5a01                	.insn	2, 0x5a01
     c0a:	0305                	.insn	2, 0x0305
     c0c:	166c                	.insn	2, 0x166c
     c0e:	8000                	.insn	2, 0x8000
     c10:	0101                	.insn	2, 0x0101
     c12:	0030015b          	.insn	4, 0x0030015b
     c16:	0006d803          	lhu	a6,0(a3)
     c1a:	8c80                	.insn	2, 0x8c80
     c1c:	09000003          	lb	zero,144(zero) # 90 <__stack_size-0x1ffff70>
     c20:	000c                	.insn	2, 0x000c
     c22:	0100                	.insn	2, 0x0100
     c24:	5a01                	.insn	2, 0x5a01
     c26:	0305                	.insn	2, 0x0305
     c28:	184c                	.insn	2, 0x184c
     c2a:	8000                	.insn	2, 0x8000
     c2c:	0300                	.insn	2, 0x0300
     c2e:	06e8                	.insn	2, 0x06e8
     c30:	8000                	.insn	2, 0x8000
     c32:	038c                	.insn	2, 0x038c
     c34:	0000                	.insn	2, 0x0000
     c36:	0c26                	.insn	2, 0x0c26
     c38:	0000                	.insn	2, 0x0000
     c3a:	0101                	.insn	2, 0x0101
     c3c:	055a                	.insn	2, 0x055a
     c3e:	00166c03          	.insn	4, 0x00166c03
     c42:	0180                	.insn	2, 0x0180
     c44:	5b01                	.insn	2, 0x5b01
     c46:	8502                	.insn	2, 0x8502
     c48:	0000                	.insn	2, 0x0000
     c4a:	00071c03          	lh	s8,0(a4)
     c4e:	8c80                	.insn	2, 0x8c80
     c50:	3d000003          	lb	zero,976(zero) # 3d0 <__stack_size-0x1fffc30>
     c54:	000c                	.insn	2, 0x000c
     c56:	0100                	.insn	2, 0x0100
     c58:	5a01                	.insn	2, 0x5a01
     c5a:	0305                	.insn	2, 0x0305
     c5c:	1874                	.insn	2, 0x1874
     c5e:	8000                	.insn	2, 0x8000
     c60:	0300                	.insn	2, 0x0300
     c62:	072c                	.insn	2, 0x072c
     c64:	8000                	.insn	2, 0x8000
     c66:	038c                	.insn	2, 0x038c
     c68:	0000                	.insn	2, 0x0000
     c6a:	0c5a                	.insn	2, 0x0c5a
     c6c:	0000                	.insn	2, 0x0000
     c6e:	0101                	.insn	2, 0x0101
     c70:	055a                	.insn	2, 0x055a
     c72:	00166c03          	.insn	4, 0x00166c03
     c76:	0180                	.insn	2, 0x0180
     c78:	5b01                	.insn	2, 0x5b01
     c7a:	7802                	.insn	2, 0x7802
     c7c:	0000                	.insn	2, 0x0000
     c7e:	00075803          	lhu	a6,0(a4)
     c82:	9f80                	.insn	2, 0x9f80
     c84:	77000003          	lb	zero,1904(zero) # 770 <__stack_size-0x1fff890>
     c88:	000c                	.insn	2, 0x000c
     c8a:	0100                	.insn	2, 0x0100
     c8c:	5a01                	.insn	2, 0x5a01
     c8e:	7802                	.insn	2, 0x7802
     c90:	0100                	.insn	2, 0x0100
     c92:	5b01                	.insn	2, 0x5b01
     c94:	0305                	.insn	2, 0x0305
     c96:	162c                	.insn	2, 0x162c
     c98:	8000                	.insn	2, 0x8000
     c9a:	0300                	.insn	2, 0x0300
     c9c:	0778                	.insn	2, 0x0778
     c9e:	8000                	.insn	2, 0x8000
     ca0:	038c                	.insn	2, 0x038c
     ca2:	0000                	.insn	2, 0x0000
     ca4:	0c94                	.insn	2, 0x0c94
     ca6:	0000                	.insn	2, 0x0000
     ca8:	0101                	.insn	2, 0x0101
     caa:	055a                	.insn	2, 0x055a
     cac:	00189c03          	lh	s8,1(a7)
     cb0:	0180                	.insn	2, 0x0180
     cb2:	5b01                	.insn	2, 0x5b01
     cb4:	7802                	.insn	2, 0x7802
     cb6:	0000                	.insn	2, 0x0000
     cb8:	00078403          	lb	s0,0(a5)
     cbc:	8c80                	.insn	2, 0x8c80
     cbe:	ab000003          	lb	zero,-1360(zero) # fffffab0 <_sp+0x77fffab0>
     cc2:	000c                	.insn	2, 0x000c
     cc4:	0100                	.insn	2, 0x0100
     cc6:	5a01                	.insn	2, 0x5a01
     cc8:	0305                	.insn	2, 0x0305
     cca:	17ec                	.insn	2, 0x17ec
     ccc:	8000                	.insn	2, 0x8000
     cce:	0300                	.insn	2, 0x0300
     cd0:	07ac                	.insn	2, 0x07ac
     cd2:	8000                	.insn	2, 0x8000
     cd4:	038c                	.insn	2, 0x038c
     cd6:	0000                	.insn	2, 0x0000
     cd8:	0cc2                	.insn	2, 0x0cc2
     cda:	0000                	.insn	2, 0x0000
     cdc:	0101                	.insn	2, 0x0101
     cde:	055a                	.insn	2, 0x055a
     ce0:	0018c403          	lbu	s0,1(a7)
     ce4:	0080                	.insn	2, 0x0080
     ce6:	0007bc03          	.insn	4, 0x0007bc03
     cea:	8c80                	.insn	2, 0x8c80
     cec:	df000003          	lb	zero,-528(zero) # fffffdf0 <_sp+0x77fffdf0>
     cf0:	000c                	.insn	2, 0x000c
     cf2:	0100                	.insn	2, 0x0100
     cf4:	5a01                	.insn	2, 0x5a01
     cf6:	0305                	.insn	2, 0x0305
     cf8:	166c                	.insn	2, 0x166c
     cfa:	8000                	.insn	2, 0x8000
     cfc:	0101                	.insn	2, 0x0101
     cfe:	0078025b          	.insn	4, 0x0078025b
     d02:	0300                	.insn	2, 0x0300
     d04:	07dc                	.insn	2, 0x07dc
     d06:	8000                	.insn	2, 0x8000
     d08:	038c                	.insn	2, 0x038c
     d0a:	0000                	.insn	2, 0x0000
     d0c:	0cf6                	.insn	2, 0x0cf6
     d0e:	0000                	.insn	2, 0x0000
     d10:	0101                	.insn	2, 0x0101
     d12:	055a                	.insn	2, 0x055a
     d14:	0018e003          	.insn	4, 0x0018e003
     d18:	0080                	.insn	2, 0x0080
     d1a:	0007ec03          	.insn	4, 0x0007ec03
     d1e:	8c80                	.insn	2, 0x8c80
     d20:	13000003          	lb	zero,304(zero) # 130 <__stack_size-0x1fffed0>
     d24:	000d                	.insn	2, 0x000d
     d26:	0100                	.insn	2, 0x0100
     d28:	5a01                	.insn	2, 0x5a01
     d2a:	0305                	.insn	2, 0x0305
     d2c:	166c                	.insn	2, 0x166c
     d2e:	8000                	.insn	2, 0x8000
     d30:	0101                	.insn	2, 0x0101
     d32:	0078025b          	.insn	4, 0x0078025b
     d36:	0300                	.insn	2, 0x0300
     d38:	0804                	.insn	2, 0x0804
     d3a:	8000                	.insn	2, 0x8000
     d3c:	038c                	.insn	2, 0x038c
     d3e:	0000                	.insn	2, 0x0000
     d40:	00000d2f          	.insn	4, 0x0d2f
     d44:	0101                	.insn	2, 0x0101
     d46:	055a                	.insn	2, 0x055a
     d48:	0018fc03          	.insn	4, 0x0018fc03
     d4c:	0180                	.insn	2, 0x0180
     d4e:	5b01                	.insn	2, 0x5b01
     d50:	3001                	.insn	2, 0x3001
     d52:	0300                	.insn	2, 0x0300
     d54:	0814                	.insn	2, 0x0814
     d56:	8000                	.insn	2, 0x8000
     d58:	038c                	.insn	2, 0x038c
     d5a:	0000                	.insn	2, 0x0000
     d5c:	0d4c                	.insn	2, 0x0d4c
     d5e:	0000                	.insn	2, 0x0000
     d60:	0101                	.insn	2, 0x0101
     d62:	055a                	.insn	2, 0x055a
     d64:	00166c03          	.insn	4, 0x00166c03
     d68:	0180                	.insn	2, 0x0180
     d6a:	5b01                	.insn	2, 0x5b01
     d6c:	8502                	.insn	2, 0x8502
     d6e:	0000                	.insn	2, 0x0000
     d70:	00082403          	lw	s0,0(a6)
     d74:	9f80                	.insn	2, 0x9f80
     d76:	6a000003          	lb	zero,1696(zero) # 6a0 <__stack_size-0x1fff960>
     d7a:	000d                	.insn	2, 0x000d
     d7c:	0100                	.insn	2, 0x0100
     d7e:	5a01                	.insn	2, 0x5a01
     d80:	7f809103          	lh	sp,2040(ra)
     d84:	0101                	.insn	2, 0x0101
     d86:	1803055b          	.insn	4, 0x1803055b
     d8a:	0019                	.insn	2, 0x0019
     d8c:	0080                	.insn	2, 0x0080
     d8e:	00083c03          	.insn	4, 0x00083c03
     d92:	8c80                	.insn	2, 0x8c80
     d94:	88000003          	lb	zero,-1920(zero) # fffff880 <_sp+0x77fff880>
     d98:	000d                	.insn	2, 0x000d
     d9a:	0100                	.insn	2, 0x0100
     d9c:	5a01                	.insn	2, 0x5a01
     d9e:	0305                	.insn	2, 0x0305
     da0:	1938                	.insn	2, 0x1938
     da2:	8000                	.insn	2, 0x8000
     da4:	0101                	.insn	2, 0x0101
     da6:	8091035b          	.insn	4, 0x8091035b
     daa:	007f 4803 0008 8c80 	.insn	10, 0x00038c8000084803007f
     db2:	0003 
     db4:	9f00                	.insn	2, 0x9f00
     db6:	000d                	.insn	2, 0x000d
     db8:	0100                	.insn	2, 0x0100
     dba:	5a01                	.insn	2, 0x5a01
     dbc:	0305                	.insn	2, 0x0305
     dbe:	1954                	.insn	2, 0x1954
     dc0:	8000                	.insn	2, 0x8000
     dc2:	0300                	.insn	2, 0x0300
     dc4:	0858                	.insn	2, 0x0858
     dc6:	8000                	.insn	2, 0x8000
     dc8:	039f 0000 0dbd      	.insn	6, 0x0dbd0000039f
     dce:	0000                	.insn	2, 0x0000
     dd0:	0101                	.insn	2, 0x0101
     dd2:	035a                	.insn	2, 0x035a
     dd4:	a091                	.insn	2, 0xa091
     dd6:	017f 5b01 0305 198c 	.insn	10, 0x8000198c03055b01017f
     dde:	8000 
     de0:	0300                	.insn	2, 0x0300
     de2:	0870                	.insn	2, 0x0870
     de4:	8000                	.insn	2, 0x8000
     de6:	038c                	.insn	2, 0x038c
     de8:	0000                	.insn	2, 0x0000
     dea:	00000ddb          	.insn	4, 0x0ddb
     dee:	0101                	.insn	2, 0x0101
     df0:	055a                	.insn	2, 0x055a
     df2:	0019ac03          	lw	s8,1(s3)
     df6:	0180                	.insn	2, 0x0180
     df8:	5b01                	.insn	2, 0x5b01
     dfa:	7fa09103          	lh	sp,2042(ra)
     dfe:	1600                	.insn	2, 0x1600
     e00:	087c                	.insn	2, 0x087c
     e02:	8000                	.insn	2, 0x8000
     e04:	038c                	.insn	2, 0x038c
     e06:	0000                	.insn	2, 0x0000
     e08:	0101                	.insn	2, 0x0101
     e0a:	055a                	.insn	2, 0x055a
     e0c:	0019c803          	lbu	a6,1(s3)
     e10:	0080                	.insn	2, 0x0080
     e12:	1700                	.insn	2, 0x1700
     e14:	012a                	.insn	2, 0x012a
     e16:	0000                	.insn	2, 0x0000
     e18:	02cd                	.insn	2, 0x02cd
     e1a:	f809                	.insn	2, 0xf809
     e1c:	0000                	.insn	2, 0x0000
     e1e:	0c00                	.insn	2, 0x0c00
     e20:	000e                	.insn	2, 0x000e
     e22:	0600                	.insn	2, 0x0600
     e24:	03b9                	.insn	2, 0x03b9
     e26:	0000                	.insn	2, 0x0000
     e28:	02cd                	.insn	2, 0x02cd
     e2a:	00004013          	xori	zero,zero,0
     e2e:	0000                	.insn	2, 0x0000
     e30:	0001e917          	auipc	s2,0x1e
     e34:	bc00                	.insn	2, 0xbc00
     e36:	0902                	.insn	2, 0x0902
     e38:	00f8                	.insn	2, 0x00f8
     e3a:	0000                	.insn	2, 0x0000
     e3c:	0e35                	.insn	2, 0x0e35
     e3e:	0000                	.insn	2, 0x0000
     e40:	6406                	.insn	2, 0x6406
     e42:	0001                	.insn	2, 0x0001
     e44:	c000                	.insn	2, 0xc000
     e46:	0d02                	.insn	2, 0x0d02
     e48:	00c8                	.insn	2, 0x00c8
     e4a:	0000                	.insn	2, 0x0000
     e4c:	f30a                	.insn	2, 0xf30a
     e4e:	0002                	.insn	2, 0x0002
     e50:	c200                	.insn	2, 0xc200
     e52:	0f02                	.insn	2, 0x0f02
     e54:	00c8                	.insn	2, 0x00c8
     e56:	0000                	.insn	2, 0x0000
     e58:	1700                	.insn	2, 0x1700
     e5a:	01e2                	.insn	2, 0x01e2
     e5c:	0000                	.insn	2, 0x0000
     e5e:	f8090297          	auipc	t0,0xf8090
     e62:	0000                	.insn	2, 0x0000
     e64:	7600                	.insn	2, 0x7600
     e66:	000e                	.insn	2, 0x000e
     e68:	0600                	.insn	2, 0x0600
     e6a:	0402                	.insn	2, 0x0402
     e6c:	0000                	.insn	2, 0x0000
     e6e:	029d                	.insn	2, 0x029d
     e70:	8408                	.insn	2, 0x8408
     e72:	0000                	.insn	2, 0x0000
     e74:	0600                	.insn	2, 0x0600
     e76:	0064                	.insn	2, 0x0064
     e78:	0000                	.insn	2, 0x0000
     e7a:	029e                	.insn	2, 0x029e
     e7c:	8408                	.insn	2, 0x8408
     e7e:	0000                	.insn	2, 0x0000
     e80:	0a00                	.insn	2, 0x0a00
     e82:	00ce                	.insn	2, 0x00ce
     e84:	0000                	.insn	2, 0x0000
     e86:	02a0                	.insn	2, 0x02a0
     e88:	d412                	.insn	2, 0xd412
     e8a:	0000                	.insn	2, 0x0000
     e8c:	0a00                	.insn	2, 0x0a00
     e8e:	02c4                	.insn	2, 0x02c4
     e90:	0000                	.insn	2, 0x0000
     e92:	02a1                	.insn	2, 0x02a1
     e94:	ec12                	.insn	2, 0xec12
     e96:	0000                	.insn	2, 0x0000
     e98:	0000                	.insn	2, 0x0000
     e9a:	0001db17          	auipc	s6,0x1d
     e9e:	7e00                	.insn	2, 0x7e00
     ea0:	0d02                	.insn	2, 0x0d02
     ea2:	00c8                	.insn	2, 0x00c8
     ea4:	0000                	.insn	2, 0x0000
     ea6:	00000eb7          	lui	t4,0x0
     eaa:	e706                	.insn	2, 0xe706
     eac:	85000003          	lb	zero,-1968(zero) # fffff850 <_sp+0x77fff850>
     eb0:	1002                	.insn	2, 0x1002
     eb2:	00ec                	.insn	2, 0x00ec
     eb4:	0000                	.insn	2, 0x0000
     eb6:	8206                	.insn	2, 0x8206
     eb8:	0000                	.insn	2, 0x0000
     eba:	8600                	.insn	2, 0x8600
     ebc:	1002                	.insn	2, 0x1002
     ebe:	00ec                	.insn	2, 0x00ec
     ec0:	0000                	.insn	2, 0x0000
     ec2:	7d0a                	.insn	2, 0x7d0a
     ec4:	0001                	.insn	2, 0x0001
     ec6:	8800                	.insn	2, 0x8800
     ec8:	1202                	.insn	2, 0x1202
     eca:	00ec                	.insn	2, 0x00ec
     ecc:	0000                	.insn	2, 0x0000
     ece:	d60a                	.insn	2, 0xd60a
     ed0:	0000                	.insn	2, 0x0000
     ed2:	8900                	.insn	2, 0x8900
     ed4:	1202                	.insn	2, 0x1202
     ed6:	00ec                	.insn	2, 0x00ec
     ed8:	0000                	.insn	2, 0x0000
     eda:	1200                	.insn	2, 0x1200
     edc:	02a4                	.insn	2, 0x02a4
     ede:	0000                	.insn	2, 0x0000
     ee0:	0266                	.insn	2, 0x0266
     ee2:	00000f0b          	.insn	4, 0x0f0b
     ee6:	f406                	.insn	2, 0xf406
     ee8:	6b000003          	lb	zero,1712(zero) # 6b0 <__stack_size-0x1fff950>
     eec:	0f02                	.insn	2, 0x0f02
     eee:	00000f0b          	.insn	4, 0x0f0b
     ef2:	5606                	.insn	2, 0x5606
     ef4:	0000                	.insn	2, 0x0000
     ef6:	6c00                	.insn	2, 0x6c00
     ef8:	0b02                	.insn	2, 0x0b02
     efa:	0f10                	.insn	2, 0x0f10
     efc:	0000                	.insn	2, 0x0000
     efe:	4206                	.insn	2, 0x4206
     f00:	0001                	.insn	2, 0x0001
     f02:	6d00                	.insn	2, 0x6d00
     f04:	0502                	.insn	2, 0x0502
     f06:	0040                	.insn	2, 0x0040
     f08:	0000                	.insn	2, 0x0000
     f0a:	cd06                	.insn	2, 0xcd06
     f0c:	0001                	.insn	2, 0x0001
     f0e:	6e00                	.insn	2, 0x6e00
     f10:	0502                	.insn	2, 0x0502
     f12:	0040                	.insn	2, 0x0040
     f14:	0000                	.insn	2, 0x0000
     f16:	140a                	.insn	2, 0x140a
     f18:	0002                	.insn	2, 0x0002
     f1a:	7000                	.insn	2, 0x7000
     f1c:	1102                	.insn	2, 0x1102
     f1e:	00e0                	.insn	2, 0x00e0
     f20:	0000                	.insn	2, 0x0000
     f22:	ce0a                	.insn	2, 0xce0a
     f24:	0000                	.insn	2, 0x0000
     f26:	7100                	.insn	2, 0x7100
     f28:	1102                	.insn	2, 0x1102
     f2a:	00e0                	.insn	2, 0x00e0
     f2c:	0000                	.insn	2, 0x0000
     f2e:	0d00                	.insn	2, 0x0d00
     f30:	0040                	.insn	2, 0x0040
     f32:	0000                	.insn	2, 0x0000
     f34:	200d                	.insn	2, 0x200d
     f36:	0001                	.insn	2, 0x0001
     f38:	1200                	.insn	2, 0x1200
     f3a:	029d                	.insn	2, 0x029d
     f3c:	0000                	.insn	2, 0x0000
     f3e:	025e                	.insn	2, 0x025e
     f40:	0f51                	.insn	2, 0x0f51
     f42:	0000                	.insn	2, 0x0000
     f44:	4206                	.insn	2, 0x4206
     f46:	0001                	.insn	2, 0x0001
     f48:	5e00                	.insn	2, 0x5e00
     f4a:	1702                	.insn	2, 0x1702
     f4c:	00e0                	.insn	2, 0x00e0
     f4e:	0000                	.insn	2, 0x0000
     f50:	cd06                	.insn	2, 0xcd06
     f52:	0001                	.insn	2, 0x0001
     f54:	5e00                	.insn	2, 0x5e00
     f56:	3002                	.insn	2, 0x3002
     f58:	00e0                	.insn	2, 0x00e0
     f5a:	0000                	.insn	2, 0x0000
     f5c:	8106                	.insn	2, 0x8106
     f5e:	0004                	.insn	2, 0x0004
     f60:	5f00                	.insn	2, 0x5f00
     f62:	1802                	.insn	2, 0x1802
     f64:	0f51                	.insn	2, 0x0f51
     f66:	0000                	.insn	2, 0x0000
     f68:	ce0a                	.insn	2, 0xce0a
     f6a:	0000                	.insn	2, 0x0000
     f6c:	6000                	.insn	2, 0x6000
     f6e:	0d02                	.insn	2, 0x0d02
     f70:	00e0                	.insn	2, 0x00e0
     f72:	0000                	.insn	2, 0x0000
     f74:	0d00                	.insn	2, 0x0d00
     f76:	00e0                	.insn	2, 0x00e0
     f78:	0000                	.insn	2, 0x0000
     f7a:	9612                	.insn	2, 0x9612
     f7c:	0002                	.insn	2, 0x0002
     f7e:	3c00                	.insn	2, 0x3c00
     f80:	7a02                	.insn	2, 0x7a02
     f82:	0600000f          	fence	or,unknown
     f86:	03c8                	.insn	2, 0x03c8
     f88:	0000                	.insn	2, 0x0000
     f8a:	0241                	.insn	2, 0x0241
     f8c:	c811                	.insn	2, 0xc811
     f8e:	0000                	.insn	2, 0x0000
     f90:	0600                	.insn	2, 0x0600
     f92:	0000039b          	.insn	4, 0x039b
     f96:	0242                	.insn	2, 0x0242
     f98:	7a0e                	.insn	2, 0x7a0e
     f9a:	0000000f          	fence	unknown,unknown
     f9e:	c80d                	.insn	2, 0xc80d
     fa0:	0000                	.insn	2, 0x0000
     fa2:	2e00                	.insn	2, 0x2e00
     fa4:	0000028f          	.insn	4, 0x028f
     fa8:	1c01                	.insn	2, 0x1c01
     faa:	0602                	.insn	2, 0x0602
     fac:	1201                	.insn	2, 0x1201
     fae:	0288                	.insn	2, 0x0288
     fb0:	0000                	.insn	2, 0x0000
     fb2:	0211                	.insn	2, 0x0211
     fb4:	0fa1                	.insn	2, 0x0fa1
     fb6:	0000                	.insn	2, 0x0000
     fb8:	9d0a                	.insn	2, 0x9d0a
     fba:	0000                	.insn	2, 0x0000
     fbc:	1500                	.insn	2, 0x1500
     fbe:	0b02                	.insn	2, 0x0b02
     fc0:	00f8                	.insn	2, 0x00f8
     fc2:	0000                	.insn	2, 0x0000
     fc4:	1200                	.insn	2, 0x1200
     fc6:	0281                	.insn	2, 0x0281
     fc8:	0000                	.insn	2, 0x0000
     fca:	0fb90203          	lb	tp,251(s2) # 1ef2b <__stack_size-0x1fe10d5>
     fce:	0000                	.insn	2, 0x0000
     fd0:	cb06                	.insn	2, 0xcb06
     fd2:	0002                	.insn	2, 0x0002
     fd4:	0800                	.insn	2, 0x0800
     fd6:	1202                	.insn	2, 0x1202
     fd8:	0fb9                	.insn	2, 0x0fb9
     fda:	0000                	.insn	2, 0x0000
     fdc:	0d00                	.insn	2, 0x0d00
     fde:	00000223          	sb	zero,4(zero) # 4 <__stack_size-0x1fffffc>
     fe2:	00027a2f          	.insn	4, 0x00027a2f
     fe6:	0100                	.insn	2, 0x0100
     fe8:	01ed                	.insn	2, 0x01ed
     fea:	0106                	.insn	2, 0x0106
     fec:	0ff1                	.insn	2, 0x0ff1
     fee:	0000                	.insn	2, 0x0000
     ff0:	8106                	.insn	2, 0x8106
     ff2:	0004                	.insn	2, 0x0004
     ff4:	f200                	.insn	2, 0xf200
     ff6:	1001                	.insn	2, 0x1001
     ff8:	0f51                	.insn	2, 0x0f51
     ffa:	0000                	.insn	2, 0x0000
     ffc:	ce0a                	.insn	2, 0xce0a
     ffe:	0000                	.insn	2, 0x0000
    1000:	f400                	.insn	2, 0xf400
    1002:	0d01                	.insn	2, 0x0d01
    1004:	00e0                	.insn	2, 0x00e0
    1006:	0000                	.insn	2, 0x0000
    1008:	f30a                	.insn	2, 0xf30a
    100a:	0002                	.insn	2, 0x0002
    100c:	f500                	.insn	2, 0xf500
    100e:	0f01                	.insn	2, 0x0f01
    1010:	00c8                	.insn	2, 0x00c8
    1012:	0000                	.insn	2, 0x0000
    1014:	3000                	.insn	2, 0x3000
    1016:	00000273          	.insn	4, 0x0273
    101a:	ce01                	.insn	2, 0xce01
    101c:	0601                	.insn	2, 0x0601
    101e:	09e0                	.insn	2, 0x09e0
    1020:	8000                	.insn	2, 0x8000
    1022:	015c                	.insn	2, 0x015c
    1024:	0000                	.insn	2, 0x0000
    1026:	9c01                	.insn	2, 0x9c01
    1028:	10f9                	.insn	2, 0x10f9
    102a:	0000                	.insn	2, 0x0000
    102c:	6c31                	.insn	2, 0x6c31
    102e:	01000003          	lb	zero,16(zero) # 10 <__stack_size-0x1fffff0>
    1032:	01d1                	.insn	2, 0x01d1
    1034:	2315                	.insn	2, 0x2315
    1036:	0002                	.insn	2, 0x0002
    1038:	0b00                	.insn	2, 0x0b00
    103a:	07000007          	.insn	4, 0x07000007
    103e:	10000007          	.insn	4, 0x10000007
    1042:	0246                	.insn	2, 0x0246
    1044:	0000                	.insn	2, 0x0000
    1046:	01d4                	.insn	2, 0x01d4
    1048:	00022313          	slti	t1,tp,0
    104c:	2f00                	.insn	2, 0x2f00
    104e:	27000007          	.insn	4, 0x27000007
    1052:	1d000007          	.insn	4, 0x1d000007
    1056:	0fa1                	.insn	2, 0x0fa1
    1058:	0000                	.insn	2, 0x0000
    105a:	0a60                	.insn	2, 0x0a60
    105c:	8000                	.insn	2, 0x8000
    105e:	000a600f          	.insn	4, 0x000a600f
    1062:	2480                	.insn	2, 0x2480
    1064:	0000                	.insn	2, 0x0000
    1066:	dd00                	.insn	2, 0xdd00
    1068:	0301                	.insn	2, 0x0301
    106a:	0000109b          	.insn	4, 0x109b
    106e:	ac02                	.insn	2, 0xac02
    1070:	5400000f          	.insn	4, 0x5400000f
    1074:	52000007          	.insn	4, 0x52000007
    1078:	1e000007          	.insn	4, 0x1e000007
    107c:	0f15                	.insn	2, 0x0f15
    107e:	0000                	.insn	2, 0x0000
    1080:	0a74                	.insn	2, 0x0a74
    1082:	8000                	.insn	2, 0x8000
    1084:	1818                	.insn	2, 0x1818
    1086:	0000                	.insn	2, 0x0000
    1088:	0200                	.insn	2, 0x0200
    108a:	0f20                	.insn	2, 0x0f20
    108c:	0000                	.insn	2, 0x0000
    108e:	075f 0000 075d      	.insn	6, 0x075d0000075f
    1094:	0000                	.insn	2, 0x0000
    1096:	2c02                	.insn	2, 0x2c02
    1098:	6b00000f          	.insn	4, 0x6b00000f
    109c:	69000007          	.insn	4, 0x69000007
    10a0:	02000007          	.insn	4, 0x02000007
    10a4:	0f38                	.insn	2, 0x0f38
    10a6:	0000                	.insn	2, 0x0000
    10a8:	077a                	.insn	2, 0x077a
    10aa:	0000                	.insn	2, 0x0000
    10ac:	0778                	.insn	2, 0x0778
    10ae:	0000                	.insn	2, 0x0000
    10b0:	4404                	.insn	2, 0x4404
    10b2:	8d00000f          	.insn	4, 0x8d00000f
    10b6:	8b000007          	.insn	4, 0x8b000007
    10ba:	00000007          	.insn	4, 0x0007
    10be:	0900                	.insn	2, 0x0900
    10c0:	0f15                	.insn	2, 0x0f15
    10c2:	0000                	.insn	2, 0x0000
    10c4:	0b34                	.insn	2, 0x0b34
    10c6:	8000                	.insn	2, 0x8000
    10c8:	2431                	.insn	2, 0x2431
    10ca:	0000                	.insn	2, 0x0000
    10cc:	e700                	.insn	2, 0xe700
    10ce:	0501                	.insn	2, 0x0501
    10d0:	10e5                	.insn	2, 0x10e5
    10d2:	0000                	.insn	2, 0x0000
    10d4:	2002                	.insn	2, 0x2002
    10d6:	9900000f          	.insn	4, 0x9900000f
    10da:	97000007          	.insn	4, 0x97000007
    10de:	02000007          	.insn	4, 0x02000007
    10e2:	0f2c                	.insn	2, 0x0f2c
    10e4:	0000                	.insn	2, 0x0000
    10e6:	07a5                	.insn	2, 0x07a5
    10e8:	0000                	.insn	2, 0x0000
    10ea:	000007a3          	sb	zero,15(zero) # f <__stack_size-0x1fffff1>
    10ee:	3802                	.insn	2, 0x3802
    10f0:	b100000f          	.insn	4, 0xb100000f
    10f4:	af000007          	.insn	4, 0xaf000007
    10f8:	04000007          	.insn	4, 0x04000007
    10fc:	0f44                	.insn	2, 0x0f44
    10fe:	0000                	.insn	2, 0x0000
    1100:	07be                	.insn	2, 0x07be
    1102:	0000                	.insn	2, 0x0000
    1104:	07bc                	.insn	2, 0x07bc
    1106:	0000                	.insn	2, 0x0000
    1108:	1600                	.insn	2, 0x1600
    110a:	0b18                	.insn	2, 0x0b18
    110c:	8000                	.insn	2, 0x8000
    110e:	0f56                	.insn	2, 0x0f56
    1110:	0000                	.insn	2, 0x0000
    1112:	0101                	.insn	2, 0x0101
    1114:	6891055b          	.insn	4, 0x6891055b
    1118:	2306                	.insn	2, 0x2306
    111a:	0008                	.insn	2, 0x0008
    111c:	3200                	.insn	2, 0x3200
    111e:	00000197          	auipc	gp,0x0
    1122:	bf01                	.insn	2, 0xbf01
    1124:	0e01                	.insn	2, 0x0e01
    1126:	0084                	.insn	2, 0x0084
    1128:	0000                	.insn	2, 0x0000
    112a:	2501                	.insn	2, 0x2501
    112c:	0011                	.insn	2, 0x0011
    112e:	0600                	.insn	2, 0x0600
    1130:	00000113          	addi	sp,zero,0
    1134:	471d01bf 33000000 	.insn	8, 0x33000000471d01bf
    113c:	6572                	.insn	2, 0x6572
    113e:	0074                	.insn	2, 0x0074
    1140:	c201                	.insn	2, 0xc201
    1142:	0901                	.insn	2, 0x0901
    1144:	0084                	.insn	2, 0x0084
    1146:	0000                	.insn	2, 0x0000
    1148:	0c00                	.insn	2, 0x0c00
    114a:	0fbe                	.insn	2, 0x0fbe
    114c:	0000                	.insn	2, 0x0000
    114e:	08e8                	.insn	2, 0x08e8
    1150:	8000                	.insn	2, 0x8000
    1152:	0030                	.insn	2, 0x0030
    1154:	0000                	.insn	2, 0x0000
    1156:	9c01                	.insn	2, 0x9c01
    1158:	00001153          	.insn	4, 0x1153
    115c:	cc0e                	.insn	2, 0xcc0e
    115e:	0100000f          	fence	w,unknown
    1162:	045a                	.insn	2, 0x045a
    1164:	0fd8                	.insn	2, 0x0fd8
    1166:	0000                	.insn	2, 0x0000
    1168:	07d0                	.insn	2, 0x07d0
    116a:	0000                	.insn	2, 0x0000
    116c:	07c8                	.insn	2, 0x07c8
    116e:	0000                	.insn	2, 0x0000
    1170:	000fe41b          	.insn	4, 0x000fe41b
    1174:	0000                	.insn	2, 0x0000
    1176:	0c00                	.insn	2, 0x0c00
    1178:	0fa1                	.insn	2, 0x0fa1
    117a:	0000                	.insn	2, 0x0000
    117c:	0918                	.insn	2, 0x0918
    117e:	8000                	.insn	2, 0x8000
    1180:	002c                	.insn	2, 0x002c
    1182:	0000                	.insn	2, 0x0000
    1184:	9c01                	.insn	2, 0x9c01
    1186:	11b1                	.insn	2, 0x11b1
    1188:	0000                	.insn	2, 0x0000
    118a:	ac0e                	.insn	2, 0xac0e
    118c:	0100000f          	fence	w,unknown
    1190:	1e5a                	.insn	2, 0x1e5a
    1192:	0f15                	.insn	2, 0x0f15
    1194:	0000                	.insn	2, 0x0000
    1196:	0930                	.insn	2, 0x0930
    1198:	8000                	.insn	2, 0x8000
    119a:	0c09                	.insn	2, 0x0c09
    119c:	0000                	.insn	2, 0x0000
    119e:	0200                	.insn	2, 0x0200
    11a0:	0f20                	.insn	2, 0x0f20
    11a2:	0000                	.insn	2, 0x0000
    11a4:	000007fb          	.insn	4, 0x07fb
    11a8:	07f9                	.insn	2, 0x07f9
    11aa:	0000                	.insn	2, 0x0000
    11ac:	2c02                	.insn	2, 0x2c02
    11ae:	0700000f          	fence	orw,unknown
    11b2:	0008                	.insn	2, 0x0008
    11b4:	0500                	.insn	2, 0x0500
    11b6:	0008                	.insn	2, 0x0008
    11b8:	0200                	.insn	2, 0x0200
    11ba:	0f38                	.insn	2, 0x0f38
    11bc:	0000                	.insn	2, 0x0000
    11be:	0816                	.insn	2, 0x0816
    11c0:	0000                	.insn	2, 0x0000
    11c2:	0814                	.insn	2, 0x0814
    11c4:	0000                	.insn	2, 0x0000
    11c6:	4404                	.insn	2, 0x4404
    11c8:	2900000f          	.insn	4, 0x2900000f
    11cc:	0008                	.insn	2, 0x0008
    11ce:	2700                	.insn	2, 0x2700
    11d0:	0008                	.insn	2, 0x0008
    11d2:	0000                	.insn	2, 0x0000
    11d4:	0c00                	.insn	2, 0x0c00
    11d6:	0f89                	.insn	2, 0x0f89
    11d8:	0000                	.insn	2, 0x0000
    11da:	0944                	.insn	2, 0x0944
    11dc:	8000                	.insn	2, 0x8000
    11de:	0030                	.insn	2, 0x0030
    11e0:	0000                	.insn	2, 0x0000
    11e2:	9c01                	.insn	2, 0x9c01
    11e4:	11d2                	.insn	2, 0x11d2
    11e6:	0000                	.insn	2, 0x0000
    11e8:	9404                	.insn	2, 0x9404
    11ea:	3500000f          	.insn	4, 0x3500000f
    11ee:	0008                	.insn	2, 0x0008
    11f0:	3300                	.insn	2, 0x3300
    11f2:	0008                	.insn	2, 0x0008
    11f4:	0000                	.insn	2, 0x0000
    11f6:	7f34                	.insn	2, 0x7f34
    11f8:	7400000f          	.insn	4, 0x7400000f
    11fc:	0009                	.insn	2, 0x0009
    11fe:	1880                	.insn	2, 0x1880
    1200:	0000                	.insn	2, 0x0000
    1202:	0100                	.insn	2, 0x0100
    1204:	0c9c                	.insn	2, 0x0c9c
    1206:	0f56                	.insn	2, 0x0f56
    1208:	0000                	.insn	2, 0x0000
    120a:	098c                	.insn	2, 0x098c
    120c:	8000                	.insn	2, 0x8000
    120e:	0054                	.insn	2, 0x0054
    1210:	0000                	.insn	2, 0x0000
    1212:	9c01                	.insn	2, 0x9c01
    1214:	1268                	.insn	2, 0x1268
    1216:	0000                	.insn	2, 0x0000
    1218:	610e                	.insn	2, 0x610e
    121a:	0100000f          	fence	w,unknown
    121e:	0e5a                	.insn	2, 0x0e5a
    1220:	0f6d                	.insn	2, 0x0f6d
    1222:	0000                	.insn	2, 0x0000
    1224:	5b01                	.insn	2, 0x5b01
    1226:	0c1d                	.insn	2, 0x0c1d
    1228:	000e                	.insn	2, 0x000e
    122a:	8c00                	.insn	2, 0x8c00
    122c:	0009                	.insn	2, 0x0009
    122e:	0380                	.insn	2, 0x0380
    1230:	098c                	.insn	2, 0x098c
    1232:	8000                	.insn	2, 0x8000
    1234:	0008                	.insn	2, 0x0008
    1236:	0000                	.insn	2, 0x0000
    1238:	0245                	.insn	2, 0x0245
    123a:	3608                	.insn	2, 0x3608
    123c:	0012                	.insn	2, 0x0012
    123e:	0200                	.insn	2, 0x0200
    1240:	0e1c                	.insn	2, 0x0e1c
    1242:	0000                	.insn	2, 0x0000
    1244:	084d                	.insn	2, 0x084d
    1246:	0000                	.insn	2, 0x0000
    1248:	0000084b          	.insn	4, 0x084b
    124c:	2804                	.insn	2, 0x2804
    124e:	000e                	.insn	2, 0x000e
    1250:	5800                	.insn	2, 0x5800
    1252:	0008                	.insn	2, 0x0008
    1254:	5600                	.insn	2, 0x5600
    1256:	0008                	.insn	2, 0x0008
    1258:	0000                	.insn	2, 0x0000
    125a:	5635                	.insn	2, 0x5635
    125c:	b400000f          	.insn	4, 0xb400000f
    1260:	0009                	.insn	2, 0x0009
    1262:	0e80                	.insn	2, 0x0e80
    1264:	09b4                	.insn	2, 0x09b4
    1266:	8000                	.insn	2, 0x8000
    1268:	0018                	.insn	2, 0x0018
    126a:	0000                	.insn	2, 0x0000
    126c:	3c01                	.insn	2, 0x3c01
    126e:	0602                	.insn	2, 0x0602
    1270:	6102                	.insn	2, 0x6102
    1272:	6300000f          	.insn	4, 0x6300000f
    1276:	0008                	.insn	2, 0x0008
    1278:	6100                	.insn	2, 0x6100
    127a:	0008                	.insn	2, 0x0008
    127c:	0200                	.insn	2, 0x0200
    127e:	0f6d                	.insn	2, 0x0f6d
    1280:	0000                	.insn	2, 0x0000
    1282:	0000086f          	jal	a6,1282 <__stack_size-0x1ffed7e>
    1286:	086d                	.insn	2, 0x086d
    1288:	0000                	.insn	2, 0x0000
    128a:	0000                	.insn	2, 0x0000
    128c:	150c                	.insn	2, 0x150c
    128e:	3c00000f          	.insn	4, 0x3c00000f
    1292:	1080000b          	.insn	4, 0x1080000b
    1296:	0000                	.insn	2, 0x0000
    1298:	0100                	.insn	2, 0x0100
    129a:	a49c                	.insn	2, 0xa49c
    129c:	0012                	.insn	2, 0x0012
    129e:	0200                	.insn	2, 0x0200
    12a0:	0f20                	.insn	2, 0x0f20
    12a2:	0000                	.insn	2, 0x0000
    12a4:	087e                	.insn	2, 0x087e
    12a6:	0000                	.insn	2, 0x0000
    12a8:	0878                	.insn	2, 0x0878
    12aa:	0000                	.insn	2, 0x0000
    12ac:	2c0e                	.insn	2, 0x2c0e
    12ae:	0100000f          	fence	w,unknown
    12b2:	0f380e5b          	.insn	4, 0x0f380e5b
    12b6:	0000                	.insn	2, 0x0000
    12b8:	5c01                	.insn	2, 0x5c01
    12ba:	4404                	.insn	2, 0x4404
    12bc:	a400000f          	.insn	4, 0xa400000f
    12c0:	0008                	.insn	2, 0x0008
    12c2:	9e00                	.insn	2, 0x9e00
    12c4:	0008                	.insn	2, 0x0008
    12c6:	0000                	.insn	2, 0x0000
    12c8:	b70c                	.insn	2, 0xb70c
    12ca:	000e                	.insn	2, 0x000e
    12cc:	4c00                	.insn	2, 0x4c00
    12ce:	7080000b          	.insn	4, 0x7080000b
    12d2:	0000                	.insn	2, 0x0000
    12d4:	0100                	.insn	2, 0x0100
    12d6:	069c                	.insn	2, 0x069c
    12d8:	02000013          	addi	zero,zero,32
    12dc:	0ec2                	.insn	2, 0x0ec2
    12de:	0000                	.insn	2, 0x0000
    12e0:	08ca                	.insn	2, 0x08ca
    12e2:	0000                	.insn	2, 0x0000
    12e4:	08c6                	.insn	2, 0x08c6
    12e6:	0000                	.insn	2, 0x0000
    12e8:	ce02                	.insn	2, 0xce02
    12ea:	000e                	.insn	2, 0x000e
    12ec:	e700                	.insn	2, 0xe700
    12ee:	0008                	.insn	2, 0x0008
    12f0:	e300                	.insn	2, 0xe300
    12f2:	0008                	.insn	2, 0x0008
    12f4:	0200                	.insn	2, 0x0200
    12f6:	0eda                	.insn	2, 0x0eda
    12f8:	0000                	.insn	2, 0x0000
    12fa:	090a                	.insn	2, 0x090a
    12fc:	0000                	.insn	2, 0x0000
    12fe:	0900                	.insn	2, 0x0900
    1300:	0000                	.insn	2, 0x0000
    1302:	e602                	.insn	2, 0xe602
    1304:	000e                	.insn	2, 0x000e
    1306:	4c00                	.insn	2, 0x4c00
    1308:	0009                	.insn	2, 0x0009
    130a:	4600                	.insn	2, 0x4600
    130c:	0009                	.insn	2, 0x0009
    130e:	0400                	.insn	2, 0x0400
    1310:	0ef2                	.insn	2, 0x0ef2
    1312:	0000                	.insn	2, 0x0000
    1314:	00000977          	.insn	4, 0x0977
    1318:	0000096b          	.insn	4, 0x096b
    131c:	fe04                	.insn	2, 0xfe04
    131e:	000e                	.insn	2, 0x000e
    1320:	c600                	.insn	2, 0xc600
    1322:	0009                	.insn	2, 0x0009
    1324:	bc00                	.insn	2, 0xbc00
    1326:	0009                	.insn	2, 0x0009
    1328:	0000                	.insn	2, 0x0000
    132a:	760c                	.insn	2, 0x760c
    132c:	000e                	.insn	2, 0x000e
    132e:	bc00                	.insn	2, 0xbc00
    1330:	1c80000b          	.insn	4, 0x1c80000b
    1334:	0000                	.insn	2, 0x0000
    1336:	0100                	.insn	2, 0x0100
    1338:	489c                	.insn	2, 0x489c
    133a:	02000013          	addi	zero,zero,32
    133e:	0e86                	.insn	2, 0x0e86
    1340:	0000                	.insn	2, 0x0000
    1342:	0a12                	.insn	2, 0x0a12
    1344:	0000                	.insn	2, 0x0000
    1346:	0a0a                	.insn	2, 0x0a0a
    1348:	0000                	.insn	2, 0x0000
    134a:	920e                	.insn	2, 0x920e
    134c:	000e                	.insn	2, 0x000e
    134e:	0100                	.insn	2, 0x0100
    1350:	0e9e045b          	.insn	4, 0x0e9e045b
    1354:	0000                	.insn	2, 0x0000
    1356:	0a41                	.insn	2, 0x0a41
    1358:	0000                	.insn	2, 0x0000
    135a:	0a39                	.insn	2, 0x0a39
    135c:	0000                	.insn	2, 0x0000
    135e:	aa04                	.insn	2, 0xaa04
    1360:	000e                	.insn	2, 0x000e
    1362:	7000                	.insn	2, 0x7000
    1364:	000a                	.insn	2, 0x000a
    1366:	6800                	.insn	2, 0x6800
    1368:	000a                	.insn	2, 0x000a
    136a:	0000                	.insn	2, 0x0000
    136c:	350c                	.insn	2, 0x350c
    136e:	000e                	.insn	2, 0x000e
    1370:	d800                	.insn	2, 0xd800
    1372:	4480000b          	.insn	4, 0x4480000b
    1376:	0000                	.insn	2, 0x0000
    1378:	0100                	.insn	2, 0x0100
    137a:	f79c                	.insn	2, 0xf79c
    137c:	02000013          	addi	zero,zero,32
    1380:	0e45                	.insn	2, 0x0e45
    1382:	0000                	.insn	2, 0x0000
    1384:	0a9d                	.insn	2, 0x0a9d
    1386:	0000                	.insn	2, 0x0000
    1388:	00000a97          	auipc	s5,0x0
    138c:	5102                	.insn	2, 0x5102
    138e:	000e                	.insn	2, 0x000e
    1390:	c100                	.insn	2, 0xc100
    1392:	000a                	.insn	2, 0x000a
    1394:	bb00                	.insn	2, 0xbb00
    1396:	000a                	.insn	2, 0x000a
    1398:	0400                	.insn	2, 0x0400
    139a:	0e5d                	.insn	2, 0x0e5d
    139c:	0000                	.insn	2, 0x0000
    139e:	00000ae7          	jalr	s5,0(zero) # 0 <__stack_size-0x2000000>
    13a2:	0adf 0000 691b      	.insn	6, 0x691b00000adf
    13a8:	000e                	.insn	2, 0x000e
    13aa:	4100                	.insn	2, 0x4100
    13ac:	7609                	.insn	2, 0x7609
    13ae:	000e                	.insn	2, 0x000e
    13b0:	d800                	.insn	2, 0xd800
    13b2:	0780000b          	.insn	4, 0x0780000b
    13b6:	00000033          	add	zero,zero,zero
    13ba:	02a5                	.insn	2, 0x02a5
    13bc:	d209                	.insn	2, 0xd209
    13be:	02000013          	addi	zero,zero,32
    13c2:	0e86                	.insn	2, 0x0e86
    13c4:	0000                	.insn	2, 0x0000
    13c6:	0b09                	.insn	2, 0x0b09
    13c8:	0000                	.insn	2, 0x0000
    13ca:	0b05                	.insn	2, 0x0b05
    13cc:	0000                	.insn	2, 0x0000
    13ce:	9202                	.insn	2, 0x9202
    13d0:	000e                	.insn	2, 0x000e
    13d2:	1f00                	.insn	2, 0x1f00
    13d4:	1b00000b          	.insn	4, 0x1b00000b
    13d8:	0400000b          	.insn	4, 0x0400000b
    13dc:	0e9e                	.insn	2, 0x0e9e
    13de:	0000                	.insn	2, 0x0000
    13e0:	00000b37          	lui	s6,0x0
    13e4:	0b31                	.insn	2, 0x0b31
    13e6:	0000                	.insn	2, 0x0000
    13e8:	aa04                	.insn	2, 0xaa04
    13ea:	000e                	.insn	2, 0x000e
    13ec:	5400                	.insn	2, 0x5400
    13ee:	4e00000b          	.insn	4, 0x4e00000b
    13f2:	0000000b          	.insn	4, 0x000b
    13f6:	f016                	.insn	2, 0xf016
    13f8:	9f80000b          	.insn	4, 0x9f80000b
    13fc:	01000003          	lb	zero,16(zero) # 10 <__stack_size-0x1fffff0>
    1400:	5a01                	.insn	2, 0x5a01
    1402:	a309                	.insn	2, 0xa309
    1404:	2b0aa503          	lw	a0,688(s5) # 1638 <__stack_size-0x1ffe9c8>
    1408:	32a8                	.insn	2, 0x32a8
    140a:	00a8                	.insn	2, 0x00a8
    140c:	0101                	.insn	2, 0x0101
    140e:	03a3095b          	.insn	4, 0x03a3095b
    1412:	0ba5                	.insn	2, 0x0ba5
    1414:	a832a82b          	.insn	4, 0xa832a82b
    1418:	0000                	.insn	2, 0x0000
    141a:	0c00                	.insn	2, 0x0c00
    141c:	0e0c                	.insn	2, 0x0e0c
    141e:	0000                	.insn	2, 0x0000
    1420:	0c1c                	.insn	2, 0x0c1c
    1422:	8000                	.insn	2, 0x8000
    1424:	000c                	.insn	2, 0x000c
    1426:	0000                	.insn	2, 0x0000
    1428:	9c01                	.insn	2, 0x9c01
    142a:	1425                	.insn	2, 0x1425
    142c:	0000                	.insn	2, 0x0000
    142e:	1c02                	.insn	2, 0x1c02
    1430:	000e                	.insn	2, 0x000e
    1432:	7100                	.insn	2, 0x7100
    1434:	6b00000b          	.insn	4, 0x6b00000b
    1438:	0400000b          	.insn	4, 0x0400000b
    143c:	0e28                	.insn	2, 0x0e28
    143e:	0000                	.insn	2, 0x0000
    1440:	00000b97          	auipc	s7,0x0
    1444:	0b91                	.insn	2, 0x0b91
    1446:	0000                	.insn	2, 0x0000
    1448:	0c00                	.insn	2, 0x0c00
    144a:	00000def          	jal	s11,144a <__stack_size-0x1ffebb6>
    144e:	0c28                	.insn	2, 0x0c28
    1450:	8000                	.insn	2, 0x8000
    1452:	0010                	.insn	2, 0x0010
    1454:	0000                	.insn	2, 0x0000
    1456:	9c01                	.insn	2, 0x9c01
    1458:	1440                	.insn	2, 0x1440
    145a:	0000                	.insn	2, 0x0000
    145c:	ff0e                	.insn	2, 0xff0e
    145e:	000d                	.insn	2, 0x000d
    1460:	0100                	.insn	2, 0x0100
    1462:	005a                	.insn	2, 0x005a
    1464:	0d36                	.insn	2, 0x0d36
    1466:	0002                	.insn	2, 0x0002
    1468:	0300                	.insn	2, 0x0300
    146a:	0002                	.insn	2, 0x0002
    146c:	0500                	.insn	2, 0x0500
    146e:	3700                	.insn	2, 0x3700
    1470:	00f0                	.insn	2, 0x00f0
    1472:	0000                	.insn	2, 0x0000
    1474:	00f0                	.insn	2, 0x00f0
    1476:	0000                	.insn	2, 0x0000
    1478:	8000                	.insn	2, 0x8000
    147a:	0005                	.insn	2, 0x0005
    147c:	0500                	.insn	2, 0x0500
    147e:	0100                	.insn	2, 0x0100
    1480:	9304                	.insn	2, 0x9304
    1482:	12000003          	lb	zero,288(zero) # 120 <__stack_size-0x1fffee0>
    1486:	04c2                	.insn	2, 0x04c2
    1488:	0000                	.insn	2, 0x0000
    148a:	031d                	.insn	2, 0x031d
    148c:	00031647          	.insn	4, 0x00031647
    1490:	012c                	.insn	2, 0x012c
    1492:	0000                	.insn	2, 0x0000
    1494:	0000                	.insn	2, 0x0000
    1496:	0000                	.insn	2, 0x0000
    1498:	0c38                	.insn	2, 0x0c38
    149a:	8000                	.insn	2, 0x8000
    149c:	069c                	.insn	2, 0x069c
    149e:	0000                	.insn	2, 0x0000
    14a0:	1852                	.insn	2, 0x1852
    14a2:	0000                	.insn	2, 0x0000
    14a4:	0804                	.insn	2, 0x0804
    14a6:	0000b707          	.insn	4, 0xb707
    14aa:	0400                	.insn	2, 0x0400
    14ac:	0704                	.insn	2, 0x0704
    14ae:	00c1                	.insn	2, 0x00c1
    14b0:	0000                	.insn	2, 0x0000
    14b2:	0104                	.insn	2, 0x0104
    14b4:	8d08                	.insn	2, 0x8d08
    14b6:	13000003          	lb	zero,304(zero) # 130 <__stack_size-0x1fffed0>
    14ba:	0000004b          	.insn	4, 0x004b
    14be:	3914                	.insn	2, 0x3914
    14c0:	0000                	.insn	2, 0x0000
    14c2:	0000                	.insn	2, 0x0000
    14c4:	4815                	.insn	2, 0x4815
    14c6:	0005                	.insn	2, 0x0005
    14c8:	0300                	.insn	2, 0x0300
    14ca:	00570f0b          	.insn	4, 0x00570f0b
    14ce:	0000                	.insn	2, 0x0000
    14d0:	0000400b          	.insn	4, 0x400b
    14d4:	0e00                	.insn	2, 0x0e00
    14d6:	0539                	.insn	2, 0x0539
    14d8:	0000                	.insn	2, 0x0000
    14da:	1b28                	.insn	2, 0x1b28
    14dc:	00000067          	jalr	zero,0(zero) # 0 <__stack_size-0x2000000>
    14e0:	0416                	.insn	2, 0x0416
    14e2:	04a0                	.insn	2, 0x04a0
    14e4:	0000                	.insn	2, 0x0000
    14e6:	400e                	.insn	2, 0x400e
    14e8:	0005                	.insn	2, 0x0005
    14ea:	6700                	.insn	2, 0x6700
    14ec:	5c18                	.insn	2, 0x5c18
    14ee:	0000                	.insn	2, 0x0000
    14f0:	1700                	.insn	2, 0x1700
    14f2:	0000004b          	.insn	4, 0x004b
    14f6:	1301                	.insn	2, 0x1301
    14f8:	0508                	.insn	2, 0x0508
    14fa:	00468803          	lb	a6,4(a3)
    14fe:	1880                	.insn	2, 0x1880
    1500:	04b2                	.insn	2, 0x04b2
    1502:	0000                	.insn	2, 0x0000
    1504:	1401                	.insn	2, 0x1401
    1506:	980e                	.insn	2, 0x980e
    1508:	0000                	.insn	2, 0x0000
    150a:	0500                	.insn	2, 0x0500
    150c:	00468403          	lb	s0,4(a3)
    1510:	0b80                	.insn	2, 0x0b80
    1512:	009d                	.insn	2, 0x009d
    1514:	0000                	.insn	2, 0x0000
    1516:	0104                	.insn	2, 0x0104
    1518:	9608                	.insn	2, 0x9608
    151a:	19000003          	lb	zero,400(zero) # 190 <__stack_size-0x1fffe70>
    151e:	009d                	.insn	2, 0x009d
    1520:	0000                	.insn	2, 0x0000
    1522:	2e1a                	.insn	2, 0x2e1a
    1524:	0004                	.insn	2, 0x0004
    1526:	0100                	.insn	2, 0x0100
    1528:	0692                	.insn	2, 0x0692
    152a:	0ce0                	.insn	2, 0x0ce0
    152c:	8000                	.insn	2, 0x8000
    152e:	05f4                	.insn	2, 0x05f4
    1530:	0000                	.insn	2, 0x0000
    1532:	9c01                	.insn	2, 0x9c01
    1534:	0425                	.insn	2, 0x0425
    1536:	0000                	.insn	2, 0x0000
    1538:	746d661b          	.insn	4, 0x746d661b
    153c:	0100                	.insn	2, 0x0100
    153e:	04250e93          	addi	t4,a0,66
    1542:	0000                	.insn	2, 0x0000
    1544:	0bc9                	.insn	2, 0x0bc9
    1546:	0000                	.insn	2, 0x0000
    1548:	00000bc3          	.insn	4, 0x0bc3
    154c:	1d1c                	.insn	2, 0x1d1c
    154e:	7261                	.insn	2, 0x7261
    1550:	0070                	.insn	2, 0x0070
    1552:	9701                	.insn	2, 0x9701
    1554:	6d0a                	.insn	2, 0x6d0a
    1556:	0000                	.insn	2, 0x0000
    1558:	0300                	.insn	2, 0x0300
    155a:	8c91                	.insn	2, 0x8c91
    155c:	057f 042a 0000 0d1c 	.insn	10, 0x80000d1c0000042a057f
    1564:	8000 
    1566:	4208                	.insn	2, 0x4208
    1568:	0002                	.insn	2, 0x0002
    156a:	9b00                	.insn	2, 0x9b00
    156c:	0102                	.insn	2, 0x0102
    156e:	00000437          	lui	s0,0x0
    1572:	0c1c                	.insn	2, 0x0c1c
    1574:	0000                	.insn	2, 0x0000
    1576:	0be8                	.insn	2, 0x0be8
    1578:	0000                	.insn	2, 0x0000
    157a:	4201                	.insn	2, 0x4201
    157c:	0004                	.insn	2, 0x0004
    157e:	dc00                	.insn	2, 0xdc00
    1580:	000c                	.insn	2, 0x000c
    1582:	b200                	.insn	2, 0xb200
    1584:	000c                	.insn	2, 0x000c
    1586:	0300                	.insn	2, 0x0300
    1588:	044d                	.insn	2, 0x044d
    158a:	0000                	.insn	2, 0x0000
    158c:	0d58                	.insn	2, 0x0d58
    158e:	0000                	.insn	2, 0x0000
    1590:	00000d37          	lui	s10,0x0
    1594:	00045603          	lhu	a2,0(s0) # 0 <__stack_size-0x2000000>
    1598:	c500                	.insn	2, 0xc500
    159a:	000d                	.insn	2, 0x000d
    159c:	a100                	.insn	2, 0xa100
    159e:	000d                	.insn	2, 0x000d
    15a0:	0300                	.insn	2, 0x0300
    15a2:	045f 0000 0ead      	.insn	6, 0x0ead0000045f
    15a8:	0000                	.insn	2, 0x0000
    15aa:	0e29                	.insn	2, 0x0e29
    15ac:	0000                	.insn	2, 0x0000
    15ae:	00046803          	.insn	4, 0x00046803
    15b2:	b600                	.insn	2, 0xb600
    15b4:	b200000f          	.insn	4, 0xb200000f
    15b8:	0300000f          	fence	rw,unknown
    15bc:	0471                	.insn	2, 0x0471
    15be:	0000                	.insn	2, 0x0000
    15c0:	0fea                	.insn	2, 0x0fea
    15c2:	0000                	.insn	2, 0x0000
    15c4:	0fc6                	.insn	2, 0x0fc6
    15c6:	0000                	.insn	2, 0x0000
    15c8:	00047a03          	.insn	4, 0x00047a03
    15cc:	4c00                	.insn	2, 0x4c00
    15ce:	0010                	.insn	2, 0x0010
    15d0:	3600                	.insn	2, 0x3600
    15d2:	0010                	.insn	2, 0x0010
    15d4:	0f00                	.insn	2, 0x0f00
    15d6:	00000483          	lb	s1,0(zero) # 0 <__stack_size-0x2000000>
    15da:	7f909103          	lh	sp,2041(ra)
    15de:	00048c03          	lb	s8,0(s1)
    15e2:	9f00                	.insn	2, 0x9f00
    15e4:	0010                	.insn	2, 0x0010
    15e6:	8200                	.insn	2, 0x8200
    15e8:	0010                	.insn	2, 0x0010
    15ea:	0300                	.insn	2, 0x0300
    15ec:	0495                	.insn	2, 0x0495
    15ee:	0000                	.insn	2, 0x0000
    15f0:	00001133          	sll	sp,zero,zero
    15f4:	10e9                	.insn	2, 0x10e9
    15f6:	0000                	.insn	2, 0x0000
    15f8:	00049e0f          	.insn	4, 0x00049e0f
    15fc:	0100                	.insn	2, 0x0100
    15fe:	0664                	.insn	2, 0x0664
    1600:	04d5                	.insn	2, 0x04d5
    1602:	0000                	.insn	2, 0x0000
    1604:	0fbc                	.insn	2, 0x0fbc
    1606:	8000                	.insn	2, 0x8000
    1608:	52ca                	.insn	2, 0x52ca
    160a:	0002                	.insn	2, 0x0002
    160c:	8d00                	.insn	2, 0x8d00
    160e:	c606                	.insn	2, 0xc606
    1610:	0001                	.insn	2, 0x0001
    1612:	0100                	.insn	2, 0x0100
    1614:	04df 0000 11d8      	.insn	6, 0x11d8000004df
    161a:	0000                	.insn	2, 0x0000
    161c:	11d0                	.insn	2, 0x11d0
    161e:	0000                	.insn	2, 0x0000
    1620:	d505                	.insn	2, 0xd505
    1622:	0004                	.insn	2, 0x0004
    1624:	c000                	.insn	2, 0xc000
    1626:	ce80000f          	.insn	4, 0xce80000f
    162a:	026c                	.insn	2, 0x026c
    162c:	0000                	.insn	2, 0x0000
    162e:	061a                	.insn	2, 0x061a
    1630:	df01                	.insn	2, 0xdf01
    1632:	0004                	.insn	2, 0x0004
    1634:	eb00                	.insn	2, 0xeb00
    1636:	0011                	.insn	2, 0x0011
    1638:	e700                	.insn	2, 0xe700
    163a:	0011                	.insn	2, 0x0011
    163c:	0000                	.insn	2, 0x0000
    163e:	0600                	.insn	2, 0x0600
    1640:	04d5                	.insn	2, 0x04d5
    1642:	0000                	.insn	2, 0x0000
    1644:	0d68                	.insn	2, 0x0d68
    1646:	8000                	.insn	2, 0x8000
    1648:	7c1a                	.insn	2, 0x7c1a
    164a:	0002                	.insn	2, 0x0002
    164c:	5400                	.insn	2, 0x5400
    164e:	0904                	.insn	2, 0x0904
    1650:	0002                	.insn	2, 0x0002
    1652:	0100                	.insn	2, 0x0100
    1654:	04df 0000 11f9      	.insn	6, 0x11f9000004df
    165a:	0000                	.insn	2, 0x0000
    165c:	000011f3          	.insn	4, 0x11f3
    1660:	d50c                	.insn	2, 0xd50c
    1662:	0004                	.insn	2, 0x0004
    1664:	6400                	.insn	2, 0x6400
    1666:	0011                	.insn	2, 0x0011
    1668:	6b80                	.insn	2, 0x6b80
    166a:	6401                	.insn	2, 0x6401
    166c:	0011                	.insn	2, 0x0011
    166e:	1080                	.insn	2, 0x1080
    1670:	0000                	.insn	2, 0x0000
    1672:	0100                	.insn	2, 0x0100
    1674:	04df 0000 120c      	.insn	6, 0x120c000004df
    167a:	0000                	.insn	2, 0x0000
    167c:	1208                	.insn	2, 0x1208
    167e:	0000                	.insn	2, 0x0000
    1680:	0000                	.insn	2, 0x0000
    1682:	d506                	.insn	2, 0xd506
    1684:	0004                	.insn	2, 0x0004
    1686:	7400                	.insn	2, 0x7400
    1688:	000e                	.insn	2, 0x000e
    168a:	5a80                	.insn	2, 0x5a80
    168c:	0291                	.insn	2, 0x0291
    168e:	0000                	.insn	2, 0x0000
    1690:	024c047b          	.insn	4, 0x024c047b
    1694:	0000                	.insn	2, 0x0000
    1696:	df01                	.insn	2, 0xdf01
    1698:	0004                	.insn	2, 0x0004
    169a:	1a00                	.insn	2, 0x1a00
    169c:	0012                	.insn	2, 0x0012
    169e:	1400                	.insn	2, 0x1400
    16a0:	0012                	.insn	2, 0x0012
    16a2:	0c00                	.insn	2, 0x0c00
    16a4:	04d5                	.insn	2, 0x04d5
    16a6:	0000                	.insn	2, 0x0000
    16a8:	11d0                	.insn	2, 0x11d0
    16aa:	8000                	.insn	2, 0x8000
    16ac:	0186                	.insn	2, 0x0186
    16ae:	11d0                	.insn	2, 0x11d0
    16b0:	8000                	.insn	2, 0x8000
    16b2:	0014                	.insn	2, 0x0014
    16b4:	0000                	.insn	2, 0x0000
    16b6:	df01                	.insn	2, 0xdf01
    16b8:	0004                	.insn	2, 0x0004
    16ba:	2d00                	.insn	2, 0x2d00
    16bc:	0012                	.insn	2, 0x0012
    16be:	2900                	.insn	2, 0x2900
    16c0:	0012                	.insn	2, 0x0012
    16c2:	0000                	.insn	2, 0x0000
    16c4:	0600                	.insn	2, 0x0600
    16c6:	04d5                	.insn	2, 0x04d5
    16c8:	0000                	.insn	2, 0x0000
    16ca:	0f5c                	.insn	2, 0x0f5c
    16cc:	8000                	.insn	2, 0x8000
    16ce:	9c9f 0002 8c00      	.insn	6, 0x8c0000029c9f
    16d4:	9a1f 0002 0100      	.insn	6, 0x010000029a1f
    16da:	04df 0000 123d      	.insn	6, 0x123d000004df
    16e0:	0000                	.insn	2, 0x0000
    16e2:	1235                	.insn	2, 0x1235
    16e4:	0000                	.insn	2, 0x0000
    16e6:	d510                	.insn	2, 0xd510
    16e8:	0004                	.insn	2, 0x0004
    16ea:	6000                	.insn	2, 0x6000
    16ec:	a380000f          	.insn	4, 0xa380000f
    16f0:	0f60                	.insn	2, 0x0f60
    16f2:	8000                	.insn	2, 0x8000
    16f4:	0010                	.insn	2, 0x0010
    16f6:	0000                	.insn	2, 0x0000
    16f8:	df01                	.insn	2, 0xdf01
    16fa:	0004                	.insn	2, 0x0004
    16fc:	5000                	.insn	2, 0x5000
    16fe:	0012                	.insn	2, 0x0012
    1700:	4c00                	.insn	2, 0x4c00
    1702:	0012                	.insn	2, 0x0012
    1704:	0800                	.insn	2, 0x0800
    1706:	0f70                	.insn	2, 0x0f70
    1708:	8000                	.insn	2, 0x8000
    170a:	0109                	.insn	2, 0x0109
    170c:	025a                	.insn	2, 0x025a
    170e:	0089                	.insn	2, 0x0089
    1710:	0000                	.insn	2, 0x0000
    1712:	0600                	.insn	2, 0x0600
    1714:	04d5                	.insn	2, 0x04d5
    1716:	0000                	.insn	2, 0x0000
    1718:	0fe8                	.insn	2, 0x0fe8
    171a:	8000                	.insn	2, 0x8000
    171c:	b1de                	.insn	2, 0xb1de
    171e:	0002                	.insn	2, 0x0002
    1720:	8e00                	.insn	2, 0x8e00
    1722:	0002e613          	ori	a2,t0,0
    1726:	0100                	.insn	2, 0x0100
    1728:	04df 0000 1260      	.insn	6, 0x1260000004df
    172e:	0000                	.insn	2, 0x0000
    1730:	1258                	.insn	2, 0x1258
    1732:	0000                	.insn	2, 0x0000
    1734:	d505                	.insn	2, 0xd505
    1736:	0004                	.insn	2, 0x0004
    1738:	0800                	.insn	2, 0x0800
    173a:	0010                	.insn	2, 0x0010
    173c:	f080                	.insn	2, 0xf080
    173e:	000002cb          	.insn	4, 0x02cb
    1742:	061a                	.insn	2, 0x061a
    1744:	df01                	.insn	2, 0xdf01
    1746:	0004                	.insn	2, 0x0004
    1748:	7700                	.insn	2, 0x7700
    174a:	0012                	.insn	2, 0x0012
    174c:	7300                	.insn	2, 0x7300
    174e:	0012                	.insn	2, 0x0012
    1750:	0800                	.insn	2, 0x0800
    1752:	1018                	.insn	2, 0x1018
    1754:	8000                	.insn	2, 0x8000
    1756:	0109                	.insn	2, 0x0109
    1758:	025a                	.insn	2, 0x025a
    175a:	0085                	.insn	2, 0x0085
    175c:	0000                	.insn	2, 0x0000
    175e:	0d00                	.insn	2, 0x0d00
    1760:	04d5                	.insn	2, 0x04d5
    1762:	0000                	.insn	2, 0x0000
    1764:	104c                	.insn	2, 0x104c
    1766:	8000                	.insn	2, 0x8000
    1768:	0104                	.insn	2, 0x0104
    176a:	02d6                	.insn	2, 0x02d6
    176c:	0000                	.insn	2, 0x0000
    176e:	0470                	.insn	2, 0x0470
    1770:	032a                	.insn	2, 0x032a
    1772:	0000                	.insn	2, 0x0000
    1774:	df01                	.insn	2, 0xdf01
    1776:	0004                	.insn	2, 0x0004
    1778:	8900                	.insn	2, 0x8900
    177a:	0012                	.insn	2, 0x0012
    177c:	8100                	.insn	2, 0x8100
    177e:	0012                	.insn	2, 0x0012
    1780:	0c00                	.insn	2, 0x0c00
    1782:	04d5                	.insn	2, 0x04d5
    1784:	0000                	.insn	2, 0x0000
    1786:	11e4                	.insn	2, 0x11e4
    1788:	8000                	.insn	2, 0x8000
    178a:	018d                	.insn	2, 0x018d
    178c:	11e4                	.insn	2, 0x11e4
    178e:	8000                	.insn	2, 0x8000
    1790:	0010                	.insn	2, 0x0010
    1792:	0000                	.insn	2, 0x0000
    1794:	df01                	.insn	2, 0xdf01
    1796:	0004                	.insn	2, 0x0004
    1798:	9c00                	.insn	2, 0x9c00
    179a:	0012                	.insn	2, 0x0012
    179c:	9800                	.insn	2, 0x9800
    179e:	0012                	.insn	2, 0x0012
    17a0:	0000                	.insn	2, 0x0000
    17a2:	0d00                	.insn	2, 0x0d00
    17a4:	000004bf 80001268 	.insn	8, 0x80001268000004bf
    17ac:	02e601bb          	.insn	4, 0x02e601bb
    17b0:	0000                	.insn	2, 0x0000
    17b2:	046c                	.insn	2, 0x046c
    17b4:	0000038b          	.insn	4, 0x038b
    17b8:	c901                	.insn	2, 0xc901
    17ba:	0004                	.insn	2, 0x0004
    17bc:	b400                	.insn	2, 0xb400
    17be:	0012                	.insn	2, 0x0012
    17c0:	a400                	.insn	2, 0xa400
    17c2:	0012                	.insn	2, 0x0012
    17c4:	0700                	.insn	2, 0x0700
    17c6:	04d5                	.insn	2, 0x04d5
    17c8:	0000                	.insn	2, 0x0000
    17ca:	10f8                	.insn	2, 0x10f8
    17cc:	8000                	.insn	2, 0x8000
    17ce:	013c                	.insn	2, 0x013c
    17d0:	0300                	.insn	2, 0x0300
    17d2:	0000                	.insn	2, 0x0000
    17d4:	0330                	.insn	2, 0x0330
    17d6:	df01                	.insn	2, 0xdf01
    17d8:	0004                	.insn	2, 0x0004
    17da:	d900                	.insn	2, 0xd900
    17dc:	0012                	.insn	2, 0x0012
    17de:	d100                	.insn	2, 0xd100
    17e0:	0012                	.insn	2, 0x0012
    17e2:	0700                	.insn	2, 0x0700
    17e4:	04d5                	.insn	2, 0x04d5
    17e6:	0000                	.insn	2, 0x0000
    17e8:	10fc                	.insn	2, 0x10fc
    17ea:	8000                	.insn	2, 0x8000
    17ec:	0140                	.insn	2, 0x0140
    17ee:	0310                	.insn	2, 0x0310
    17f0:	0000                	.insn	2, 0x0000
    17f2:	061a                	.insn	2, 0x061a
    17f4:	df01                	.insn	2, 0xdf01
    17f6:	0004                	.insn	2, 0x0004
    17f8:	ec00                	.insn	2, 0xec00
    17fa:	0012                	.insn	2, 0x0012
    17fc:	e800                	.insn	2, 0xe800
    17fe:	0012                	.insn	2, 0x0012
    1800:	0000                	.insn	2, 0x0000
    1802:	0000                	.insn	2, 0x0000
    1804:	d50d                	.insn	2, 0xd50d
    1806:	0004                	.insn	2, 0x0004
    1808:	2000                	.insn	2, 0x2000
    180a:	0011                	.insn	2, 0x0011
    180c:	4e80                	.insn	2, 0x4e80
    180e:	1b01                	.insn	2, 0x1b01
    1810:	6d000003          	lb	zero,1744(zero) # 6d0 <__stack_size-0x1fff930>
    1814:	d914                	.insn	2, 0xd914
    1816:	01000003          	lb	zero,16(zero) # 10 <__stack_size-0x1fffff0>
    181a:	04df 0000 12fc      	.insn	6, 0x12fc000004df
    1820:	0000                	.insn	2, 0x0000
    1822:	12f4                	.insn	2, 0x12f4
    1824:	0000                	.insn	2, 0x0000
    1826:	0004d507          	.insn	4, 0x0004d507
    182a:	4400                	.insn	2, 0x4400
    182c:	0011                	.insn	2, 0x0011
    182e:	6180                	.insn	2, 0x6180
    1830:	3001                	.insn	2, 0x3001
    1832:	1a000003          	lb	zero,416(zero) # 1a0 <__stack_size-0x1fffe60>
    1836:	0106                	.insn	2, 0x0106
    1838:	04df 0000 1313      	.insn	6, 0x1313000004df
    183e:	0000                	.insn	2, 0x0000
    1840:	0000130f          	.insn	4, 0x130f
    1844:	5408                	.insn	2, 0x5408
    1846:	0011                	.insn	2, 0x0011
    1848:	0980                	.insn	2, 0x0980
    184a:	5a01                	.insn	2, 0x5a01
    184c:	8302                	.insn	2, 0x8302
    184e:	0000                	.insn	2, 0x0000
    1850:	0000                	.insn	2, 0x0000
    1852:	0004d507          	.insn	4, 0x0004d507
    1856:	1800                	.insn	2, 0x1800
    1858:	0012                	.insn	2, 0x0012
    185a:	9d80                	.insn	2, 0x9d80
    185c:	3b01                	.insn	2, 0x3b01
    185e:	6b000003          	lb	zero,1712(zero) # 6b0 <__stack_size-0x1fff950>
    1862:	0120                	.insn	2, 0x0120
    1864:	04df 0000 1325      	.insn	6, 0x1325000004df
    186a:	0000                	.insn	2, 0x0000
    186c:	131d                	.insn	2, 0x131d
    186e:	0000                	.insn	2, 0x0000
    1870:	0004d507          	.insn	4, 0x0004d507
    1874:	3800                	.insn	2, 0x3800
    1876:	0012                	.insn	2, 0x0012
    1878:	af80                	.insn	2, 0xaf80
    187a:	5501                	.insn	2, 0x5501
    187c:	1a000003          	lb	zero,416(zero) # 1a0 <__stack_size-0x1fffe60>
    1880:	0106                	.insn	2, 0x0106
    1882:	04df 0000 133c      	.insn	6, 0x133c000004df
    1888:	0000                	.insn	2, 0x0000
    188a:	1338                	.insn	2, 0x1338
    188c:	0000                	.insn	2, 0x0000
    188e:	4808                	.insn	2, 0x4808
    1890:	0012                	.insn	2, 0x0012
    1892:	0980                	.insn	2, 0x0980
    1894:	5a01                	.insn	2, 0x5a01
    1896:	8502                	.insn	2, 0x8502
    1898:	0000                	.insn	2, 0x0000
    189a:	0000                	.insn	2, 0x0000
    189c:	0000                	.insn	2, 0x0000
    189e:	0000a40b          	.insn	4, 0xa40b
    18a2:	1e00                	.insn	2, 0x1e00
    18a4:	04b9                	.insn	2, 0x04b9
    18a6:	0000                	.insn	2, 0x0000
    18a8:	4601                	.insn	2, 0x4601
    18aa:	0106                	.insn	2, 0x0106
    18ac:	04a8                	.insn	2, 0x04a8
    18ae:	0000                	.insn	2, 0x0000
    18b0:	660a                	.insn	2, 0x660a
    18b2:	746d                	.insn	2, 0x746d
    18b4:	4700                	.insn	2, 0x4700
    18b6:	250e                	.insn	2, 0x250e
    18b8:	0004                	.insn	2, 0x0004
    18ba:	0a00                	.insn	2, 0x0a00
    18bc:	7261                	.insn	2, 0x7261
    18be:	0070                	.insn	2, 0x0070
    18c0:	0a48                	.insn	2, 0x0a48
    18c2:	006d                	.insn	2, 0x006d
    18c4:	0000                	.insn	2, 0x0000
    18c6:	7202                	.insn	2, 0x7202
    18c8:	4b00                	.insn	2, 0x4b00
    18ca:	0000320f          	.insn	4, 0x320f
    18ce:	0200                	.insn	2, 0x0200
    18d0:	0069                	.insn	2, 0x0069
    18d2:	0032124b          	.insn	4, 0x0032124b
    18d6:	0000                	.insn	2, 0x0000
    18d8:	6a02                	.insn	2, 0x6a02
    18da:	4b00                	.insn	2, 0x4b00
    18dc:	3215                	.insn	2, 0x3215
    18de:	0000                	.insn	2, 0x0000
    18e0:	0200                	.insn	2, 0x0200
    18e2:	184b0077          	.insn	4, 0x184b0077
    18e6:	0032                	.insn	2, 0x0032
    18e8:	0000                	.insn	2, 0x0000
    18ea:	6602                	.insn	2, 0x6602
    18ec:	4b00                	.insn	2, 0x4b00
    18ee:	0000321b          	.insn	4, 0x321b
    18f2:	0200                	.insn	2, 0x0200
    18f4:	0076                	.insn	2, 0x0076
    18f6:	104c                	.insn	2, 0x104c
    18f8:	04a8                	.insn	2, 0x04a8
    18fa:	0000                	.insn	2, 0x0000
    18fc:	7302                	.insn	2, 0x7302
    18fe:	4d00                	.insn	2, 0x4d00
    1900:	0004af07          	.insn	4, 0x0004af07
    1904:	0200                	.insn	2, 0x0200
    1906:	0e4d0063          	beq	s10,tp,19e6 <__stack_size-0x1ffe61a>
    190a:	009d                	.insn	2, 0x009d
    190c:	0000                	.insn	2, 0x0000
    190e:	6402                	.insn	2, 0x6402
    1910:	4d00                	.insn	2, 0x4d00
    1912:	9d11                	.insn	2, 0x9d11
    1914:	0000                	.insn	2, 0x0000
    1916:	0200                	.insn	2, 0x0200
    1918:	0070                	.insn	2, 0x0070
    191a:	154d                	.insn	2, 0x154d
    191c:	0098                	.insn	2, 0x0098
    191e:	0000                	.insn	2, 0x0000
    1920:	0400                	.insn	2, 0x0400
    1922:	0704                	.insn	2, 0x0704
    1924:	00bc                	.insn	2, 0x00bc
    1926:	0000                	.insn	2, 0x0000
    1928:	9d1f 0000 bf00      	.insn	6, 0xbf0000009d1f
    192e:	0004                	.insn	2, 0x0004
    1930:	2000                	.insn	2, 0x2000
    1932:	0032                	.insn	2, 0x0032
    1934:	0000                	.insn	2, 0x0000
    1936:	5211000f          	.insn	4, 0x5211000f
    193a:	0005                	.insn	2, 0x0005
    193c:	2b00                	.insn	2, 0x2b00
    193e:	04d5                	.insn	2, 0x04d5
    1940:	0000                	.insn	2, 0x0000
    1942:	730a                	.insn	2, 0x730a
    1944:	7274                	.insn	2, 0x7274
    1946:	2c00                	.insn	2, 0x2c00
    1948:	250e                	.insn	2, 0x250e
    194a:	0004                	.insn	2, 0x0004
    194c:	0000                	.insn	2, 0x0000
    194e:	5811                	.insn	2, 0x5811
    1950:	0005                	.insn	2, 0x0005
    1952:	1a00                	.insn	2, 0x1a00
    1954:	04e9                	.insn	2, 0x04e9
    1956:	0000                	.insn	2, 0x0000
    1958:	630a                	.insn	2, 0x630a
    195a:	1a00                	.insn	2, 0x1a00
    195c:	9d12                	.insn	2, 0x9d12
    195e:	0000                	.insn	2, 0x0000
    1960:	0000                	.insn	2, 0x0000
    1962:	d521                	.insn	2, 0xd521
    1964:	0004                	.insn	2, 0x0004
    1966:	3800                	.insn	2, 0x3800
    1968:	000c                	.insn	2, 0x000c
    196a:	3080                	.insn	2, 0x3080
    196c:	0000                	.insn	2, 0x0000
    196e:	0100                	.insn	2, 0x0100
    1970:	2a9c                	.insn	2, 0x2a9c
    1972:	0005                	.insn	2, 0x0005
    1974:	0100                	.insn	2, 0x0100
    1976:	04df 0000 134c      	.insn	6, 0x134c000004df
    197c:	0000                	.insn	2, 0x0000
    197e:	1346                	.insn	2, 0x1346
    1980:	0000                	.insn	2, 0x0000
    1982:	d510                	.insn	2, 0xd510
    1984:	0004                	.insn	2, 0x0004
    1986:	5400                	.insn	2, 0x5400
    1988:	000c                	.insn	2, 0x000c
    198a:	0b80                	.insn	2, 0x0b80
    198c:	0c54                	.insn	2, 0x0c54
    198e:	8000                	.insn	2, 0x8000
    1990:	0010                	.insn	2, 0x0010
    1992:	0000                	.insn	2, 0x0000
    1994:	df01                	.insn	2, 0xdf01
    1996:	0004                	.insn	2, 0x0004
    1998:	6700                	.insn	2, 0x6700
    199a:	65000013          	addi	zero,zero,1616
    199e:	00000013          	addi	zero,zero,0
    19a2:	2200                	.insn	2, 0x2200
    19a4:	000004bf 80000c68 	.insn	8, 0x80000c68000004bf
    19ac:	0078                	.insn	2, 0x0078
    19ae:	0000                	.insn	2, 0x0000
    19b0:	9c01                	.insn	2, 0x9c01
    19b2:	c901                	.insn	2, 0xc901
    19b4:	0004                	.insn	2, 0x0004
    19b6:	7a00                	.insn	2, 0x7a00
    19b8:	76000013          	addi	zero,zero,1888
    19bc:	05000013          	addi	zero,zero,80
    19c0:	04d5                	.insn	2, 0x04d5
    19c2:	0000                	.insn	2, 0x0000
    19c4:	0cac                	.insn	2, 0x0cac
    19c6:	8000                	.insn	2, 0x8000
    19c8:	2c12                	.insn	2, 0x2c12
    19ca:	0002                	.insn	2, 0x0002
    19cc:	3000                	.insn	2, 0x3000
    19ce:	04df0103          	lb	sp,77(t5)
    19d2:	0000                	.insn	2, 0x0000
    19d4:	138a                	.insn	2, 0x138a
    19d6:	0000                	.insn	2, 0x0000
    19d8:	1386                	.insn	2, 0x1386
    19da:	0000                	.insn	2, 0x0000
    19dc:	d505                	.insn	2, 0xd505
    19de:	0004                	.insn	2, 0x0004
    19e0:	a400                	.insn	2, 0xa400
    19e2:	000c                	.insn	2, 0x000c
    19e4:	0e80                	.insn	2, 0x0e80
    19e6:	00000237          	lui	tp,0x0
    19ea:	061a                	.insn	2, 0x061a
    19ec:	df01                	.insn	2, 0xdf01
    19ee:	0004                	.insn	2, 0x0004
    19f0:	9a00                	.insn	2, 0x9a00
    19f2:	96000013          	addi	zero,zero,-1696
    19f6:	00000013          	addi	zero,zero,0
    19fa:	0000                	.insn	2, 0x0000
    19fc:	5b00                	.insn	2, 0x5b00
    19fe:	0000                	.insn	2, 0x0000
    1a00:	0500                	.insn	2, 0x0500
    1a02:	0100                	.insn	2, 0x0100
    1a04:	a004                	.insn	2, 0xa004
    1a06:	0005                	.insn	2, 0x0005
    1a08:	0100                	.insn	2, 0x0100
    1a0a:	2856                	.insn	2, 0x2856
    1a0c:	0000                	.insn	2, 0x0000
    1a0e:	12d4                	.insn	2, 0x12d4
    1a10:	8000                	.insn	2, 0x8000
    1a12:	01b4                	.insn	2, 0x01b4
    1a14:	055e                	.insn	2, 0x055e
    1a16:	0000                	.insn	2, 0x0000
    1a18:	00000587          	.insn	4, 0x0587
    1a1c:	004a                	.insn	2, 0x004a
    1a1e:	0000                	.insn	2, 0x0000
    1a20:	8001                	.insn	2, 0x8001
    1a22:	f002                	.insn	2, 0xf002
    1a24:	0000                	.insn	2, 0x0000
    1a26:	5d00                	.insn	2, 0x5d00
    1a28:	12d4                	.insn	2, 0x12d4
    1a2a:	8000                	.insn	2, 0x8000
    1a2c:	0184                	.insn	2, 0x0184
    1a2e:	e402                	.insn	2, 0xe402
    1a30:	0005                	.insn	2, 0x0005
    1a32:	5d00                	.insn	2, 0x5d00
    1a34:	12dc                	.insn	2, 0x12dc
    1a36:	8000                	.insn	2, 0x8000
    1a38:	0248                	.insn	2, 0x0248
    1a3a:	000005db          	.insn	4, 0x05db
    1a3e:	dc5d                	.insn	2, 0xdc5d
    1a40:	0012                	.insn	2, 0x0012
    1a42:	4880                	.insn	2, 0x4880
    1a44:	ee02                	.insn	2, 0xee02
    1a46:	0005                	.insn	2, 0x0005
    1a48:	5d00                	.insn	2, 0x5d00
    1a4a:	1324                	.insn	2, 0x1324
    1a4c:	8000                	.insn	2, 0x8000
    1a4e:	0210                	.insn	2, 0x0210
    1a50:	05f8                	.insn	2, 0x05f8
    1a52:	0000                	.insn	2, 0x0000
    1a54:	585d                	.insn	2, 0x585d
    1a56:	30800013          	addi	zero,zero,776
    1a5a:	0003                	.short	0x0003

Disassembly of section .debug_abbrev:

00000000 <.debug_abbrev>:
   0:	1101                	.insn	2, 0x1101
   2:	1000                	.insn	2, 0x1000
   4:	12011117          	auipc	sp,0x12011
   8:	1b0e030f          	.insn	4, 0x1b0e030f
   c:	250e                	.insn	2, 0x250e
   e:	130e                	.insn	2, 0x130e
  10:	0005                	.insn	2, 0x0005
  12:	0000                	.insn	2, 0x0000
  14:	4901                	.insn	2, 0x4901
  16:	0200                	.insn	2, 0x0200
  18:	7e18                	.insn	2, 0x7e18
  1a:	0018                	.insn	2, 0x0018
  1c:	0200                	.insn	2, 0x0200
  1e:	0005                	.insn	2, 0x0005
  20:	1331                	.insn	2, 0x1331
  22:	1702                	.insn	2, 0x1702
  24:	001742b7          	lui	t0,0x174
  28:	0300                	.insn	2, 0x0300
  2a:	0148                	.insn	2, 0x0148
  2c:	017d                	.insn	2, 0x017d
  2e:	1301137f 34040000 	.insn	12, 0x02133100340400001301137f
  36:	02133100 
  3a:	1742b717          	auipc	a4,0x1742b
  3e:	0000                	.insn	2, 0x0000
  40:	1d05                	.insn	2, 0x1d05
  42:	3101                	.insn	2, 0x3101
  44:	b8015213          	.insn	4, 0xb8015213
  48:	0542                	.insn	2, 0x0542
  4a:	1755                	.insn	2, 0x1755
  4c:	2158                	.insn	2, 0x2158
  4e:	5901                	.insn	2, 0x5901
  50:	5705                	.insn	2, 0x5705
  52:	0821                	.insn	2, 0x0821
  54:	1301                	.insn	2, 0x1301
  56:	0000                	.insn	2, 0x0000
  58:	0506                	.insn	2, 0x0506
  5a:	0300                	.insn	2, 0x0300
  5c:	3a0e                	.insn	2, 0x3a0e
  5e:	0121                	.insn	2, 0x0121
  60:	0b39053b          	.insn	4, 0x0b39053b
  64:	1349                	.insn	2, 0x1349
  66:	0000                	.insn	2, 0x0000
  68:	03003407          	.insn	4, 0x03003407
  6c:	3a0e                	.insn	2, 0x3a0e
  6e:	0121                	.insn	2, 0x0121
  70:	0b39053b          	.insn	4, 0x0b39053b
  74:	1349                	.insn	2, 0x1349
  76:	1802193f 24080000 	.insn	8, 0x240800001802193f
  7e:	0b00                	.insn	2, 0x0b00
  80:	030b3e0b          	.insn	4, 0x030b3e0b
  84:	000e                	.insn	2, 0x000e
  86:	0900                	.insn	2, 0x0900
  88:	011d                	.insn	2, 0x011d
  8a:	1331                	.insn	2, 0x1331
  8c:	0152                	.insn	2, 0x0152
  8e:	42b8                	.insn	2, 0x42b8
  90:	5817550b          	.insn	4, 0x5817550b
  94:	0121                	.insn	2, 0x0121
  96:	0559                	.insn	2, 0x0559
  98:	13010b57          	.insn	4, 0x13010b57
  9c:	0000                	.insn	2, 0x0000
  9e:	340a                	.insn	2, 0x340a
  a0:	0300                	.insn	2, 0x0300
  a2:	3a0e                	.insn	2, 0x3a0e
  a4:	0121                	.insn	2, 0x0121
  a6:	0b39053b          	.insn	4, 0x0b39053b
  aa:	1349                	.insn	2, 0x1349
  ac:	0000                	.insn	2, 0x0000
  ae:	03000d0b          	.insn	4, 0x03000d0b
  b2:	3a0e                	.insn	2, 0x3a0e
  b4:	0121                	.insn	2, 0x0121
  b6:	0b39053b          	.insn	4, 0x0b39053b
  ba:	1349                	.insn	2, 0x1349
  bc:	0b38                	.insn	2, 0x0b38
  be:	0000                	.insn	2, 0x0000
  c0:	2e0c                	.insn	2, 0x2e0c
  c2:	3101                	.insn	2, 0x3101
  c4:	12011113          	.insn	4, 0x12011113
  c8:	4006                	.insn	2, 0x4006
  ca:	7a18                	.insn	2, 0x7a18
  cc:	0119                	.insn	2, 0x0119
  ce:	0d000013          	addi	zero,zero,208
  d2:	210b000f          	.insn	4, 0x210b000f
  d6:	4904                	.insn	2, 0x4904
  d8:	0e000013          	addi	zero,zero,224
  dc:	0005                	.insn	2, 0x0005
  de:	1331                	.insn	2, 0x1331
  e0:	1802                	.insn	2, 0x1802
  e2:	0000                	.insn	2, 0x0000
  e4:	0300160f          	.insn	4, 0x0300160f
  e8:	3a0e                	.insn	2, 0x3a0e
  ea:	0121                	.insn	2, 0x0121
  ec:	0b39053b          	.insn	4, 0x0b39053b
  f0:	1349                	.insn	2, 0x1349
  f2:	0000                	.insn	2, 0x0000
  f4:	3410                	.insn	2, 0x3410
  f6:	0300                	.insn	2, 0x0300
  f8:	3a0e                	.insn	2, 0x3a0e
  fa:	0121                	.insn	2, 0x0121
  fc:	0b39053b          	.insn	4, 0x0b39053b
 100:	1349                	.insn	2, 0x1349
 102:	1702                	.insn	2, 0x1702
 104:	001742b7          	lui	t0,0x174
 108:	1100                	.insn	2, 0x1100
 10a:	0028                	.insn	2, 0x0028
 10c:	0b1c0e03          	lb	t3,177(s8)
 110:	0000                	.insn	2, 0x0000
 112:	2e12                	.insn	2, 0x2e12
 114:	3f01                	.insn	2, 0x3f01
 116:	0319                	.insn	2, 0x0319
 118:	3a0e                	.insn	2, 0x3a0e
 11a:	0121                	.insn	2, 0x0121
 11c:	2139053b          	.insn	4, 0x2139053b
 120:	2706                	.insn	2, 0x2706
 122:	2019                	.insn	2, 0x2019
 124:	0121                	.insn	2, 0x0121
 126:	1301                	.insn	2, 0x1301
 128:	0000                	.insn	2, 0x0000
 12a:	49010113          	addi	sp,sp,1168 # 12011494 <__stack_size+0x10011494>
 12e:	00130113          	addi	sp,t1,1 # 6f40001 <__stack_size+0x4f40001>
 132:	1400                	.insn	2, 0x1400
 134:	0021                	.insn	2, 0x0021
 136:	1349                	.insn	2, 0x1349
 138:	00000b2f          	.insn	4, 0x0b2f
 13c:	3415                	.insn	2, 0x3415
 13e:	0300                	.insn	2, 0x0300
 140:	3a0e                	.insn	2, 0x3a0e
 142:	0121                	.insn	2, 0x0121
 144:	0b39053b          	.insn	4, 0x0b39053b
 148:	1349                	.insn	2, 0x1349
 14a:	1802                	.insn	2, 0x1802
 14c:	0000                	.insn	2, 0x0000
 14e:	4816                	.insn	2, 0x4816
 150:	7d01                	.insn	2, 0x7d01
 152:	7f01                	.insn	2, 0x7f01
 154:	17000013          	addi	zero,zero,368
 158:	012e                	.insn	2, 0x012e
 15a:	0e03193f 3b01213a 	.insn	8, 0x3b01213a0e03193f
 162:	3905                	.insn	2, 0x3905
 164:	4919270b          	.insn	4, 0x4919270b
 168:	01212013          	slti	zero,sp,18
 16c:	1301                	.insn	2, 0x1301
 16e:	0000                	.insn	2, 0x0000
 170:	1318                	.insn	2, 0x1318
 172:	0b01                	.insn	2, 0x0b01
 174:	01213a0b          	.insn	4, 0x01213a0b
 178:	2139053b          	.insn	4, 0x2139053b
 17c:	0105                	.insn	2, 0x0105
 17e:	19000013          	addi	zero,zero,400
 182:	000d                	.insn	2, 0x000d
 184:	213a0e03          	lb	t3,531(s4)
 188:	3b01                	.insn	2, 0x3b01
 18a:	3905                	.insn	2, 0x3905
 18c:	0721                	.insn	2, 0x0721
 18e:	1349                	.insn	2, 0x1349
 190:	0000                	.insn	2, 0x0000
 192:	051a                	.insn	2, 0x051a
 194:	4900                	.insn	2, 0x4900
 196:	1b000013          	addi	zero,zero,432
 19a:	0034                	.insn	2, 0x0034
 19c:	1331                	.insn	2, 0x1331
 19e:	0b1c                	.insn	2, 0x0b1c
 1a0:	0000                	.insn	2, 0x0000
 1a2:	481c                	.insn	2, 0x481c
 1a4:	7d00                	.insn	2, 0x7d00
 1a6:	7f01                	.insn	2, 0x7f01
 1a8:	1d000013          	addi	zero,zero,464
 1ac:	011d                	.insn	2, 0x011d
 1ae:	1331                	.insn	2, 0x1331
 1b0:	0152                	.insn	2, 0x0152
 1b2:	42b8                	.insn	2, 0x42b8
 1b4:	1201110b          	.insn	4, 0x1201110b
 1b8:	5806                	.insn	2, 0x5806
 1ba:	0121                	.insn	2, 0x0121
 1bc:	0559                	.insn	2, 0x0559
 1be:	13010b57          	.insn	4, 0x13010b57
 1c2:	0000                	.insn	2, 0x0000
 1c4:	1d1e                	.insn	2, 0x1d1e
 1c6:	3101                	.insn	2, 0x3101
 1c8:	b8015213          	.insn	4, 0xb8015213
 1cc:	0b42                	.insn	2, 0x0b42
 1ce:	1755                	.insn	2, 0x1755
 1d0:	2158                	.insn	2, 0x2158
 1d2:	5901                	.insn	2, 0x5901
 1d4:	8e21                	.insn	2, 0x8e21
 1d6:	5704                	.insn	2, 0x5704
 1d8:	0321                	.insn	2, 0x0321
 1da:	0000                	.insn	2, 0x0000
 1dc:	111f 2501 130e      	.insn	6, 0x130e2501111f
 1e2:	0b01900b          	.insn	4, 0x0b01900b
 1e6:	0191                	.insn	2, 0x0191
 1e8:	0306                	.insn	2, 0x0306
 1ea:	1b1f 551f 1117      	.insn	6, 0x1117551f1b1f
 1f0:	1001                	.insn	2, 0x1001
 1f2:	20000017          	auipc	zero,0x20000
 1f6:	0024                	.insn	2, 0x0024
 1f8:	0b3e0b0b          	.insn	4, 0x0b3e0b0b
 1fc:	00000803          	lb	a6,0(zero) # 0 <__stack_size-0x2000000>
 200:	1621                	.insn	2, 0x1621
 202:	0300                	.insn	2, 0x0300
 204:	3a0e                	.insn	2, 0x3a0e
 206:	390b3b0b          	.insn	4, 0x390b3b0b
 20a:	0013490b          	.insn	4, 0x0013490b
 20e:	2200                	.insn	2, 0x2200
 210:	0026                	.insn	2, 0x0026
 212:	1349                	.insn	2, 0x1349
 214:	0000                	.insn	2, 0x0000
 216:	3e010423          	sb	zero,1000(sp)
 21a:	490b0b0b          	.insn	4, 0x490b0b0b
 21e:	3b0b3a13          	sltiu	s4,s6,944
 222:	3905                	.insn	2, 0x3905
 224:	0013010b          	.insn	4, 0x0013010b
 228:	2400                	.insn	2, 0x2400
 22a:	0b0b0117          	auipc	sp,0xb0b0
 22e:	0b3a                	.insn	2, 0x0b3a
 230:	0b39053b          	.insn	4, 0x0b39053b
 234:	1301                	.insn	2, 0x1301
 236:	0000                	.insn	2, 0x0000
 238:	1325                	.insn	2, 0x1325
 23a:	0301                	.insn	2, 0x0301
 23c:	0b0e                	.insn	2, 0x0b0e
 23e:	3b0b3a0b          	.insn	4, 0x3b0b3a0b
 242:	3905                	.insn	2, 0x3905
 244:	0013010b          	.insn	4, 0x0013010b
 248:	2600                	.insn	2, 0x2600
 24a:	0034                	.insn	2, 0x0034
 24c:	0b3a0803          	lb	a6,179(s4)
 250:	0b39053b          	.insn	4, 0x0b39053b
 254:	1349                	.insn	2, 0x1349
 256:	1802193f 21270000 	.insn	8, 0x212700001802193f
 25e:	4900                	.insn	2, 0x4900
 260:	00052f13          	slti	t5,a0,0
 264:	2800                	.insn	2, 0x2800
 266:	012e                	.insn	2, 0x012e
 268:	0e03193f 0b3b0b3a 	.insn	8, 0x0b3b0b3a0e03193f
 270:	0b39                	.insn	2, 0x0b39
 272:	193c1927          	.insn	4, 0x193c1927
 276:	1301                	.insn	2, 0x1301
 278:	0000                	.insn	2, 0x0000
 27a:	1829                	.insn	2, 0x1829
 27c:	0000                	.insn	2, 0x0000
 27e:	2a00                	.insn	2, 0x2a00
 280:	012e                	.insn	2, 0x012e
 282:	0e03193f 0b3b0b3a 	.insn	8, 0x0b3b0b3a0e03193f
 28a:	0b39                	.insn	2, 0x0b39
 28c:	13491927          	.insn	4, 0x13491927
 290:	193c                	.insn	2, 0x193c
 292:	1301                	.insn	2, 0x1301
 294:	0000                	.insn	2, 0x0000
 296:	3f012e2b          	.insn	4, 0x3f012e2b
 29a:	0319                	.insn	2, 0x0319
 29c:	3a0e                	.insn	2, 0x3a0e
 29e:	39053b0b          	.insn	4, 0x39053b0b
 2a2:	4919270b          	.insn	4, 0x4919270b
 2a6:	12011113          	.insn	4, 0x12011113
 2aa:	4006                	.insn	2, 0x4006
 2ac:	7a18                	.insn	2, 0x7a18
 2ae:	0119                	.insn	2, 0x0119
 2b0:	2c000013          	addi	zero,zero,704
 2b4:	0034                	.insn	2, 0x0034
 2b6:	0b3a0e03          	lb	t3,179(s4)
 2ba:	0b39053b          	.insn	4, 0x0b39053b
 2be:	1349                	.insn	2, 0x1349
 2c0:	051c                	.insn	2, 0x051c
 2c2:	0000                	.insn	2, 0x0000
 2c4:	1d2d                	.insn	2, 0x1d2d
 2c6:	3100                	.insn	2, 0x3100
 2c8:	b8015213          	.insn	4, 0xb8015213
 2cc:	0b42                	.insn	2, 0x0b42
 2ce:	1755                	.insn	2, 0x1755
 2d0:	0b58                	.insn	2, 0x0b58
 2d2:	0559                	.insn	2, 0x0559
 2d4:	00000b57          	.insn	4, 0x0b57
 2d8:	2e2e                	.insn	2, 0x2e2e
 2da:	3f00                	.insn	2, 0x3f00
 2dc:	0319                	.insn	2, 0x0319
 2de:	3a0e                	.insn	2, 0x3a0e
 2e0:	39053b0b          	.insn	4, 0x39053b0b
 2e4:	2019270b          	.insn	4, 0x2019270b
 2e8:	2f00000b          	.insn	4, 0x2f00000b
 2ec:	012e                	.insn	2, 0x012e
 2ee:	0e03193f 053b0b3a 	.insn	8, 0x053b0b3a0e03193f
 2f6:	0b39                	.insn	2, 0x0b39
 2f8:	0b20                	.insn	2, 0x0b20
 2fa:	1301                	.insn	2, 0x1301
 2fc:	0000                	.insn	2, 0x0000
 2fe:	2e30                	.insn	2, 0x2e30
 300:	3f01                	.insn	2, 0x3f01
 302:	0319                	.insn	2, 0x0319
 304:	3a0e                	.insn	2, 0x3a0e
 306:	39053b0b          	.insn	4, 0x39053b0b
 30a:	1201110b          	.insn	4, 0x1201110b
 30e:	4006                	.insn	2, 0x4006
 310:	7a18                	.insn	2, 0x7a18
 312:	0119                	.insn	2, 0x0119
 314:	31000013          	addi	zero,zero,784
 318:	0005                	.insn	2, 0x0005
 31a:	0b3a0e03          	lb	t3,179(s4)
 31e:	0b39053b          	.insn	4, 0x0b39053b
 322:	1349                	.insn	2, 0x1349
 324:	1702                	.insn	2, 0x1702
 326:	001742b7          	lui	t0,0x174
 32a:	3200                	.insn	2, 0x3200
 32c:	012e                	.insn	2, 0x012e
 32e:	0b3a0e03          	lb	t3,179(s4)
 332:	0b39053b          	.insn	4, 0x0b39053b
 336:	13491927          	.insn	4, 0x13491927
 33a:	0b20                	.insn	2, 0x0b20
 33c:	1301                	.insn	2, 0x1301
 33e:	0000                	.insn	2, 0x0000
 340:	03003433          	mulhu	s0,zero,a6
 344:	3a08                	.insn	2, 0x3a08
 346:	39053b0b          	.insn	4, 0x39053b0b
 34a:	0013490b          	.insn	4, 0x0013490b
 34e:	3400                	.insn	2, 0x3400
 350:	002e                	.insn	2, 0x002e
 352:	1331                	.insn	2, 0x1331
 354:	0111                	.insn	2, 0x0111
 356:	0612                	.insn	2, 0x0612
 358:	1840                	.insn	2, 0x1840
 35a:	197a                	.insn	2, 0x197a
 35c:	0000                	.insn	2, 0x0000
 35e:	1d35                	.insn	2, 0x1d35
 360:	3101                	.insn	2, 0x3101
 362:	b8015213          	.insn	4, 0xb8015213
 366:	0b42                	.insn	2, 0x0b42
 368:	0111                	.insn	2, 0x0111
 36a:	0612                	.insn	2, 0x0612
 36c:	0b58                	.insn	2, 0x0b58
 36e:	0559                	.insn	2, 0x0559
 370:	00000b57          	.insn	4, 0x0b57
 374:	2e36                	.insn	2, 0x2e36
 376:	3f00                	.insn	2, 0x3f00
 378:	3c19                	.insn	2, 0x3c19
 37a:	6e19                	.insn	2, 0x6e19
 37c:	030e                	.insn	2, 0x030e
 37e:	3a0e                	.insn	2, 0x3a0e
 380:	000b3b0b          	.insn	4, 0x000b3b0b
 384:	3700                	.insn	2, 0x3700
 386:	002e                	.insn	2, 0x002e
 388:	193c193f 0e030e6e 	.insn	8, 0x0e030e6e193c193f
 390:	0000                	.insn	2, 0x0000
 392:	0100                	.insn	2, 0x0100
 394:	0005                	.insn	2, 0x0005
 396:	1331                	.insn	2, 0x1331
 398:	1702                	.insn	2, 0x1702
 39a:	001742b7          	lui	t0,0x174
 39e:	0200                	.insn	2, 0x0200
 3a0:	0034                	.insn	2, 0x0034
 3a2:	213a0803          	lb	a6,531(s4)
 3a6:	3b01                	.insn	2, 0x3b01
 3a8:	490b390b          	.insn	4, 0x490b390b
 3ac:	03000013          	addi	zero,zero,48
 3b0:	0034                	.insn	2, 0x0034
 3b2:	1331                	.insn	2, 0x1331
 3b4:	1702                	.insn	2, 0x1702
 3b6:	001742b7          	lui	t0,0x174
 3ba:	0400                	.insn	2, 0x0400
 3bc:	0024                	.insn	2, 0x0024
 3be:	0b3e0b0b          	.insn	4, 0x0b3e0b0b
 3c2:	00000e03          	lb	t3,0(zero) # 0 <__stack_size-0x2000000>
 3c6:	1d05                	.insn	2, 0x1d05
 3c8:	3101                	.insn	2, 0x3101
 3ca:	b8015213          	.insn	4, 0xb8015213
 3ce:	0b42                	.insn	2, 0x0b42
 3d0:	1755                	.insn	2, 0x1755
 3d2:	2158                	.insn	2, 0x2158
 3d4:	5901                	.insn	2, 0x5901
 3d6:	000b570b          	.insn	4, 0x000b570b
 3da:	0600                	.insn	2, 0x0600
 3dc:	011d                	.insn	2, 0x011d
 3de:	1331                	.insn	2, 0x1331
 3e0:	0152                	.insn	2, 0x0152
 3e2:	42b8                	.insn	2, 0x42b8
 3e4:	5817550b          	.insn	4, 0x5817550b
 3e8:	0121                	.insn	2, 0x0121
 3ea:	0b59                	.insn	2, 0x0b59
 3ec:	13010b57          	.insn	4, 0x13010b57
 3f0:	0000                	.insn	2, 0x0000
 3f2:	31011d07          	.insn	4, 0x31011d07
 3f6:	b8015213          	.insn	4, 0xb8015213
 3fa:	0542                	.insn	2, 0x0542
 3fc:	1755                	.insn	2, 0x1755
 3fe:	2158                	.insn	2, 0x2158
 400:	5901                	.insn	2, 0x5901
 402:	000b570b          	.insn	4, 0x000b570b
 406:	0800                	.insn	2, 0x0800
 408:	0148                	.insn	2, 0x0148
 40a:	017d                	.insn	2, 0x017d
 40c:	0000                	.insn	2, 0x0000
 40e:	4909                	.insn	2, 0x4909
 410:	0200                	.insn	2, 0x0200
 412:	7e18                	.insn	2, 0x7e18
 414:	0018                	.insn	2, 0x0018
 416:	0a00                	.insn	2, 0x0a00
 418:	0005                	.insn	2, 0x0005
 41a:	213a0803          	lb	a6,531(s4)
 41e:	3b01                	.insn	2, 0x3b01
 420:	490b390b          	.insn	4, 0x490b390b
 424:	0b000013          	addi	zero,zero,176
 428:	210b000f          	.insn	4, 0x210b000f
 42c:	4904                	.insn	2, 0x4904
 42e:	0c000013          	addi	zero,zero,192
 432:	011d                	.insn	2, 0x011d
 434:	1331                	.insn	2, 0x1331
 436:	0152                	.insn	2, 0x0152
 438:	42b8                	.insn	2, 0x42b8
 43a:	1105                	.insn	2, 0x1105
 43c:	1201                	.insn	2, 0x1201
 43e:	5806                	.insn	2, 0x5806
 440:	0121                	.insn	2, 0x0121
 442:	2159                	.insn	2, 0x2159
 444:	571a                	.insn	2, 0x571a
 446:	0621                	.insn	2, 0x0621
 448:	0000                	.insn	2, 0x0000
 44a:	1d0d                	.insn	2, 0x1d0d
 44c:	3101                	.insn	2, 0x3101
 44e:	b8015213          	.insn	4, 0xb8015213
 452:	0542                	.insn	2, 0x0542
 454:	1755                	.insn	2, 0x1755
 456:	2158                	.insn	2, 0x2158
 458:	5901                	.insn	2, 0x5901
 45a:	010b570b          	.insn	4, 0x010b570b
 45e:	0e000013          	addi	zero,zero,224
 462:	0016                	.insn	2, 0x0016
 464:	213a0e03          	lb	t3,531(s4)
 468:	3b02                	.insn	2, 0x3b02
 46a:	490b390b          	.insn	4, 0x490b390b
 46e:	0f000013          	addi	zero,zero,240
 472:	0034                	.insn	2, 0x0034
 474:	1331                	.insn	2, 0x1331
 476:	1802                	.insn	2, 0x1802
 478:	0000                	.insn	2, 0x0000
 47a:	1d10                	.insn	2, 0x1d10
 47c:	3101                	.insn	2, 0x3101
 47e:	b8015213          	.insn	4, 0xb8015213
 482:	0b42                	.insn	2, 0x0b42
 484:	0111                	.insn	2, 0x0111
 486:	0612                	.insn	2, 0x0612
 488:	2158                	.insn	2, 0x2158
 48a:	5901                	.insn	2, 0x5901
 48c:	1a21                	.insn	2, 0x1a21
 48e:	00062157          	.insn	4, 0x00062157
 492:	1100                	.insn	2, 0x1100
 494:	012e                	.insn	2, 0x012e
 496:	0e03193f 3b01213a 	.insn	8, 0x3b01213a0e03193f
 49e:	0621390b          	.insn	4, 0x0621390b
 4a2:	21201927          	.insn	4, 0x21201927
 4a6:	0101                	.insn	2, 0x0101
 4a8:	12000013          	addi	zero,zero,288
 4ac:	0111                	.insn	2, 0x0111
 4ae:	0e25                	.insn	2, 0x0e25
 4b0:	01900b13          	addi	s6,zero,25
 4b4:	0601910b          	.insn	4, 0x0601910b
 4b8:	1f1b1f03          	lh	t5,497(s6) # 1f1 <__stack_size-0x1fffe0f>
 4bc:	0111                	.insn	2, 0x0111
 4be:	0612                	.insn	2, 0x0612
 4c0:	1710                	.insn	2, 0x1710
 4c2:	0000                	.insn	2, 0x0000
 4c4:	27011513          	.insn	4, 0x27011513
 4c8:	0119                	.insn	2, 0x0119
 4ca:	14000013          	addi	zero,zero,320
 4ce:	0005                	.insn	2, 0x0005
 4d0:	1349                	.insn	2, 0x1349
 4d2:	0000                	.insn	2, 0x0000
 4d4:	3415                	.insn	2, 0x3415
 4d6:	0300                	.insn	2, 0x0300
 4d8:	3a0e                	.insn	2, 0x3a0e
 4da:	390b3b0b          	.insn	4, 0x390b3b0b
 4de:	3f13490b          	.insn	4, 0x3f13490b
 4e2:	3c19                	.insn	2, 0x3c19
 4e4:	0019                	.insn	2, 0x0019
 4e6:	1600                	.insn	2, 0x1600
 4e8:	0b0b000f          	.insn	4, 0x0b0b000f
 4ec:	00000e03          	lb	t3,0(zero) # 0 <__stack_size-0x2000000>
 4f0:	47003417          	auipc	s0,0x47003
 4f4:	3b0b3a13          	sltiu	s4,s6,944
 4f8:	020b390b          	.insn	4, 0x020b390b
 4fc:	0018                	.insn	2, 0x0018
 4fe:	1800                	.insn	2, 0x1800
 500:	0034                	.insn	2, 0x0034
 502:	0b3a0e03          	lb	t3,179(s4)
 506:	0b390b3b          	.insn	4, 0x0b390b3b
 50a:	1349                	.insn	2, 0x1349
 50c:	1802                	.insn	2, 0x1802
 50e:	0000                	.insn	2, 0x0000
 510:	2619                	.insn	2, 0x2619
 512:	4900                	.insn	2, 0x4900
 514:	1a000013          	addi	zero,zero,416
 518:	012e                	.insn	2, 0x012e
 51a:	0e03193f 0b3b0b3a 	.insn	8, 0x0b3b0b3a0e03193f
 522:	0b39                	.insn	2, 0x0b39
 524:	01111927          	.insn	4, 0x01111927
 528:	0612                	.insn	2, 0x0612
 52a:	1840                	.insn	2, 0x1840
 52c:	197c                	.insn	2, 0x197c
 52e:	1301                	.insn	2, 0x1301
 530:	0000                	.insn	2, 0x0000
 532:	0300051b          	.insn	4, 0x0300051b
 536:	3a08                	.insn	2, 0x3a08
 538:	390b3b0b          	.insn	4, 0x390b3b0b
 53c:	0213490b          	.insn	4, 0x0213490b
 540:	1742b717          	auipc	a4,0x1742b
 544:	0000                	.insn	2, 0x0000
 546:	181c                	.insn	2, 0x181c
 548:	0000                	.insn	2, 0x0000
 54a:	1d00                	.insn	2, 0x1d00
 54c:	0034                	.insn	2, 0x0034
 54e:	0b3a0803          	lb	a6,179(s4)
 552:	0b390b3b          	.insn	4, 0x0b390b3b
 556:	1349                	.insn	2, 0x1349
 558:	1802                	.insn	2, 0x1802
 55a:	0000                	.insn	2, 0x0000
 55c:	2e1e                	.insn	2, 0x2e1e
 55e:	0301                	.insn	2, 0x0301
 560:	3a0e                	.insn	2, 0x3a0e
 562:	390b3b0b          	.insn	4, 0x390b3b0b
 566:	2019270b          	.insn	4, 0x2019270b
 56a:	0013010b          	.insn	4, 0x0013010b
 56e:	1f00                	.insn	2, 0x1f00
 570:	0101                	.insn	2, 0x0101
 572:	1349                	.insn	2, 0x1349
 574:	1301                	.insn	2, 0x1301
 576:	0000                	.insn	2, 0x0000
 578:	2120                	.insn	2, 0x2120
 57a:	4900                	.insn	2, 0x4900
 57c:	000b2f13          	slti	t5,s6,0
 580:	2100                	.insn	2, 0x2100
 582:	012e                	.insn	2, 0x012e
 584:	1331                	.insn	2, 0x1331
 586:	0111                	.insn	2, 0x0111
 588:	0612                	.insn	2, 0x0612
 58a:	1840                	.insn	2, 0x1840
 58c:	1301                	.insn	2, 0x1301
 58e:	0000                	.insn	2, 0x0000
 590:	2e22                	.insn	2, 0x2e22
 592:	3101                	.insn	2, 0x3101
 594:	12011113          	.insn	4, 0x12011113
 598:	4006                	.insn	2, 0x4006
 59a:	7c18                	.insn	2, 0x7c18
 59c:	0019                	.insn	2, 0x0019
 59e:	0000                	.insn	2, 0x0000
 5a0:	1101                	.insn	2, 0x1101
 5a2:	1001                	.insn	2, 0x1001
 5a4:	12011117          	auipc	sp,0x12011
 5a8:	1b0e030f          	.insn	4, 0x1b0e030f
 5ac:	250e                	.insn	2, 0x250e
 5ae:	130e                	.insn	2, 0x130e
 5b0:	0005                	.insn	2, 0x0005
 5b2:	0200                	.insn	2, 0x0200
 5b4:	002e                	.insn	2, 0x002e
 5b6:	193f0e03          	lb	t3,403(t5)
 5ba:	1549                	.insn	2, 0x1549
 5bc:	0111                	.insn	2, 0x0111
 5be:	0f12                	.insn	2, 0x0f12
 5c0:	0000                	.insn	2, 0x0000
 5c2:	00003b03          	.insn	4, 0x3b03
	...

Disassembly of section .debug_aranges:

00000000 <.debug_aranges>:
   0:	001c                	.insn	2, 0x001c
   2:	0000                	.insn	2, 0x0000
   4:	0002                	.insn	2, 0x0002
   6:	0000                	.insn	2, 0x0000
   8:	0000                	.insn	2, 0x0000
   a:	0004                	.insn	2, 0x0004
   c:	0000                	.insn	2, 0x0000
   e:	0000                	.insn	2, 0x0000
  10:	0000                	.insn	2, 0x0000
  12:	8000                	.insn	2, 0x8000
  14:	001c                	.insn	2, 0x001c
	...
  1e:	0000                	.insn	2, 0x0000
  20:	0024                	.insn	2, 0x0024
  22:	0000                	.insn	2, 0x0000
  24:	0002                	.insn	2, 0x0002
  26:	0024                	.insn	2, 0x0024
  28:	0000                	.insn	2, 0x0000
  2a:	0004                	.insn	2, 0x0004
  2c:	0000                	.insn	2, 0x0000
  2e:	0000                	.insn	2, 0x0000
  30:	08e8                	.insn	2, 0x08e8
  32:	8000                	.insn	2, 0x8000
  34:	0350                	.insn	2, 0x0350
  36:	0000                	.insn	2, 0x0000
  38:	001c                	.insn	2, 0x001c
  3a:	8000                	.insn	2, 0x8000
  3c:	08cc                	.insn	2, 0x08cc
	...
  46:	0000                	.insn	2, 0x0000
  48:	001c                	.insn	2, 0x001c
  4a:	0000                	.insn	2, 0x0000
  4c:	0002                	.insn	2, 0x0002
  4e:	1479                	.insn	2, 0x1479
  50:	0000                	.insn	2, 0x0000
  52:	0004                	.insn	2, 0x0004
  54:	0000                	.insn	2, 0x0000
  56:	0000                	.insn	2, 0x0000
  58:	0c38                	.insn	2, 0x0c38
  5a:	8000                	.insn	2, 0x8000
  5c:	069c                	.insn	2, 0x069c
	...
  66:	0000                	.insn	2, 0x0000
  68:	001c                	.insn	2, 0x001c
  6a:	0000                	.insn	2, 0x0000
  6c:	0002                	.insn	2, 0x0002
  6e:	19fd                	.insn	2, 0x19fd
  70:	0000                	.insn	2, 0x0000
  72:	0004                	.insn	2, 0x0004
  74:	0000                	.insn	2, 0x0000
  76:	0000                	.insn	2, 0x0000
  78:	12d4                	.insn	2, 0x12d4
  7a:	8000                	.insn	2, 0x8000
  7c:	00b4                	.insn	2, 0x00b4
	...

Disassembly of section .debug_str:

00000000 <.debug_str>:
   0:	2e2e                	.insn	2, 0x2e2e
   2:	2f2e2e2f          	.insn	4, 0x2f2e2e2f
   6:	72617473          	.insn	4, 0x72617473
   a:	2e74                	.insn	2, 0x2e74
   c:	682f0053          	.insn	4, 0x682f0053
  10:	2f656d6f          	jal	s10,56306 <__stack_size-0x1fa9cfa>
  14:	7574                	.insn	2, 0x7574
  16:	7574                	.insn	2, 0x7574
  18:	7574                	.insn	2, 0x7574
  1a:	6d69712f          	.insn	4, 0x6d69712f
  1e:	6e65                	.insn	2, 0x6e65
  20:	69732f67          	.insn	4, 0x69732f67
  24:	756d                	.insn	2, 0x756d
  26:	616c                	.insn	2, 0x616c
  28:	6f74                	.insn	2, 0x6f74
  2a:	2f72                	.insn	2, 0x2f72
  2c:	6162                	.insn	2, 0x6162
  2e:	6572                	.insn	2, 0x6572
  30:	656d                	.insn	2, 0x656d
  32:	6174                	.insn	2, 0x6174
  34:	2f6c                	.insn	2, 0x2f6c
  36:	6562                	.insn	2, 0x6562
  38:	636e                	.insn	2, 0x636e
  3a:	6d68                	.insn	2, 0x6d68
  3c:	7261                	.insn	2, 0x7261
  3e:	632f736b          	.insn	4, 0x632f736b
  42:	6d65726f          	jal	tp,57718 <__stack_size-0x1fa88e8>
  46:	7261                	.insn	2, 0x7261
  48:	4e47006b          	.insn	4, 0x4e47006b
  4c:	2055                	.insn	2, 0x2055
  4e:	5341                	.insn	2, 0x5341
  50:	3220                	.insn	2, 0x3220
  52:	342e                	.insn	2, 0x342e
  54:	0035                	.insn	2, 0x0035
  56:	7241                	.insn	2, 0x7241
  58:	5f72                	.insn	2, 0x5f72
  5a:	5f32                	.insn	2, 0x5f32
  5c:	6150                	.insn	2, 0x6150
  5e:	5f72                	.insn	2, 0x5f72
  60:	6552                	.insn	2, 0x6552
  62:	0066                	.insn	2, 0x0066
  64:	5f727453          	.insn	4, 0x5f727453
  68:	5f32                	.insn	2, 0x5f32
  6a:	6150                	.insn	2, 0x6150
  6c:	5f72                	.insn	2, 0x5f72
  6e:	6552                	.insn	2, 0x6552
  70:	0066                	.insn	2, 0x0066
  72:	7450                	.insn	2, 0x7450
  74:	5f72                	.insn	2, 0x5f72
  76:	706d6f43          	.insn	4, 0x706d6f43
  7a:	7300                	.insn	2, 0x7300
  7c:	7274                	.insn	2, 0x7274
  7e:	00706d63          	bltu	zero,t2,98 <__stack_size-0x1ffff68>
  82:	325f6843          	.insn	4, 0x325f6843
  86:	505f 7261 565f      	.insn	6, 0x565f7261505f
  8c:	6c61                	.insn	2, 0x6c61
  8e:	7300                	.insn	2, 0x7300
  90:	7a69                	.insn	2, 0x7a69
  92:	5f65                	.insn	2, 0x5f65
  94:	0074                	.insn	2, 0x0074
  96:	5f727453          	.insn	4, 0x5f727453
  9a:	42003033          	.insn	4, 0x42003033
  9e:	5f6c6f6f          	jal	t5,c6694 <__stack_size-0x1f3996c>
  a2:	6f4c                	.insn	2, 0x6f4c
  a4:	72410063          	beq	sp,tp,7c4 <__stack_size-0x1fff83c>
  a8:	5f72                	.insn	2, 0x5f72
  aa:	5f31                	.insn	2, 0x5f31
  ac:	626f6c47          	.insn	4, 0x626f6c47
  b0:	4400                	.insn	2, 0x4400
  b2:	7369                	.insn	2, 0x7369
  b4:	6c007263          	bgeu	zero,zero,778 <__stack_size-0x1fff888>
  b8:	20676e6f          	jal	t3,762be <__stack_size-0x1f89d42>
  bc:	6f6c                	.insn	2, 0x6f6c
  be:	676e                	.insn	2, 0x676e
  c0:	7520                	.insn	2, 0x7520
  c2:	736e                	.insn	2, 0x736e
  c4:	6769                	.insn	2, 0x6769
  c6:	656e                	.insn	2, 0x656e
  c8:	2064                	.insn	2, 0x2064
  ca:	6e69                	.insn	2, 0x6e69
  cc:	0074                	.insn	2, 0x0074
  ce:	6e49                	.insn	2, 0x6e49
  d0:	5f74                	.insn	2, 0x5f74
  d2:	6f4c                	.insn	2, 0x6f4c
  d4:	68430063          	beq	t1,tp,754 <__stack_size-0x1fff8ac>
  d8:	325f 4c5f 636f      	.insn	6, 0x636f4c5f325f
  de:	5300                	.insn	2, 0x5300
  e0:	7274                	.insn	2, 0x7274
  e2:	435f 6d6f 0070      	.insn	6, 0x00706d6f435f
  e8:	6176                	.insn	2, 0x6176
  ea:	6972                	.insn	2, 0x6972
  ec:	6e61                	.insn	2, 0x6e61
  ee:	0074                	.insn	2, 0x0074
  f0:	5f5f 6964 7376      	.insn	6, 0x737669645f5f
  f6:	3369                	.insn	2, 0x3369
  f8:	5200                	.insn	2, 0x5200
  fa:	6365                	.insn	2, 0x6365
  fc:	505f 696f 746e      	.insn	6, 0x746e696f505f
 102:	7265                	.insn	2, 0x7265
 104:	6c00                	.insn	2, 0x6c00
 106:	20676e6f          	jal	t3,7630c <__stack_size-0x1f89cf4>
 10a:	6f6c                	.insn	2, 0x6f6c
 10c:	676e                	.insn	2, 0x676e
 10e:	6920                	.insn	2, 0x6920
 110:	746e                	.insn	2, 0x746e
 112:	7300                	.insn	2, 0x7300
 114:	7a69                	.insn	2, 0x7a69
 116:	0065                	.insn	2, 0x0065
 118:	6e49                	.insn	2, 0x6e49
 11a:	5f74                	.insn	2, 0x5f74
 11c:	626f6c47          	.insn	4, 0x626f6c47
 120:	6600                	.insn	2, 0x6600
 122:	6572                	.insn	2, 0x6572
 124:	5f65                	.insn	2, 0x5f65
 126:	656d                	.insn	2, 0x656d
 128:	006d                	.insn	2, 0x006d
 12a:	63656863          	bltu	a0,s6,75a <__stack_size-0x1fff8a6>
 12e:	6176006b          	.insn	4, 0x6176006b
 132:	5f72                	.insn	2, 0x5f72
 134:	0031                	.insn	2, 0x0031
 136:	6176                	.insn	2, 0x6176
 138:	5f72                	.insn	2, 0x5f72
 13a:	0032                	.insn	2, 0x0032
 13c:	6176                	.insn	2, 0x6176
 13e:	5f72                	.insn	2, 0x5f72
 140:	6e490033          	.insn	4, 0x6e490033
 144:	5f74                	.insn	2, 0x5f74
 146:	5f31                	.insn	2, 0x5f31
 148:	6150                	.insn	2, 0x6150
 14a:	5f72                	.insn	2, 0x5f72
 14c:	6156                	.insn	2, 0x6156
 14e:	006c                	.insn	2, 0x006c
 150:	6f42                	.insn	2, 0x6f42
 152:	475f6c6f          	jal	s8,f6dc6 <__stack_size-0x1f0923a>
 156:	6f6c                	.insn	2, 0x6f6c
 158:	0062                	.insn	2, 0x0062
 15a:	5f727453          	.insn	4, 0x5f727453
 15e:	5f31                	.insn	2, 0x5f31
 160:	6f4c                	.insn	2, 0x6f4c
 162:	6e450063          	beq	a0,tp,842 <__stack_size-0x1fff7be>
 166:	6d75                	.insn	2, 0x6d75
 168:	505f 7261 565f      	.insn	6, 0x565f7261505f
 16e:	6c61                	.insn	2, 0x6c61
 170:	4500                	.insn	2, 0x4500
 172:	756e                	.insn	2, 0x756e
 174:	656d                	.insn	2, 0x656d
 176:	6172                	.insn	2, 0x6172
 178:	6974                	.insn	2, 0x6974
 17a:	43006e6f          	jal	t3,65aa <__stack_size-0x1ff9a56>
 17e:	5f68                	.insn	2, 0x5f68
 180:	5f31                	.insn	2, 0x5f31
 182:	6f4c                	.insn	2, 0x6f4c
 184:	6e490063          	beq	s2,tp,864 <__stack_size-0x1fff79c>
 188:	5f74                	.insn	2, 0x5f74
 18a:	5f31                	.insn	2, 0x5f31
 18c:	6f4c                	.insn	2, 0x6f4c
 18e:	656d0063          	beq	s10,s6,7ce <__stack_size-0x1fff832>
 192:	6f6d                	.insn	2, 0x6f6d
 194:	7972                	.insn	2, 0x7972
 196:	6d00                	.insn	2, 0x6d00
 198:	6179                	.insn	2, 0x6179
 19a:	6c6c                	.insn	2, 0x6c6c
 19c:	4e00636f          	jal	t1,667c <__stack_size-0x1ff9984>
 1a0:	7865                	.insn	2, 0x7865
 1a2:	5f74                	.insn	2, 0x5f74
 1a4:	7450                	.insn	2, 0x7450
 1a6:	5f72                	.insn	2, 0x5f72
 1a8:	626f6c47          	.insn	4, 0x626f6c47
 1ac:	4d00                	.insn	2, 0x4d00
 1ae:	6369                	.insn	2, 0x6369
 1b0:	6f72                	.insn	2, 0x6f72
 1b2:	6f636573          	.insn	4, 0x6f636573
 1b6:	646e                	.insn	2, 0x646e
 1b8:	68730073          	.insn	4, 0x68730073
 1bc:	2074726f          	jal	tp,47bc2 <__stack_size-0x1fb843e>
 1c0:	6e75                	.insn	2, 0x6e75
 1c2:	6e676973          	.insn	4, 0x6e676973
 1c6:	6465                	.insn	2, 0x6465
 1c8:	6920                	.insn	2, 0x6920
 1ca:	746e                	.insn	2, 0x746e
 1cc:	4900                	.insn	2, 0x4900
 1ce:	746e                	.insn	2, 0x746e
 1d0:	325f 505f 7261      	.insn	6, 0x7261505f325f
 1d6:	565f 6c61 4600      	.insn	6, 0x46006c61565f
 1dc:	6e75                	.insn	2, 0x6e75
 1de:	00315f63          	bge	sp,gp,1fc <__stack_size-0x1fffe04>
 1e2:	7546                	.insn	2, 0x7546
 1e4:	636e                	.insn	2, 0x636e
 1e6:	325f 4600 6e75      	.insn	6, 0x6e754600325f
 1ec:	00335f63          	bge	t1,gp,20a <__stack_size-0x1fffdf6>
 1f0:	315f6843          	.insn	4, 0x315f6843
 1f4:	435f 6d6f 0070      	.insn	6, 0x00706d6f435f
 1fa:	495f6843          	.insn	4, 0x495f6843
 1fe:	646e                	.insn	2, 0x646e
 200:	7865                	.insn	2, 0x7865
 202:	5f00                	.insn	2, 0x5f00
 204:	625f 6975 746c      	.insn	6, 0x746c6975625f
 20a:	6e69                	.insn	2, 0x6e69
 20c:	6d5f 6d65 7063      	.insn	6, 0x70636d656d5f
 212:	0079                	.insn	2, 0x0079
 214:	6e49                	.insn	2, 0x6e49
 216:	5f74                	.insn	2, 0x5f74
 218:	6e49                	.insn	2, 0x6e49
 21a:	6564                	.insn	2, 0x6564
 21c:	0078                	.insn	2, 0x0078
 21e:	6449                	.insn	2, 0x6449
 220:	6e65                	.insn	2, 0x6e65
 222:	5f74                	.insn	2, 0x5f74
 224:	0031                	.insn	2, 0x0031
 226:	6449                	.insn	2, 0x6449
 228:	6e65                	.insn	2, 0x6e65
 22a:	5f74                	.insn	2, 0x5f74
 22c:	0032                	.insn	2, 0x0032
 22e:	6449                	.insn	2, 0x6449
 230:	6e65                	.insn	2, 0x6e65
 232:	5f74                	.insn	2, 0x5f74
 234:	64490033          	.insn	4, 0x64490033
 238:	6e65                	.insn	2, 0x6e65
 23a:	5f74                	.insn	2, 0x5f74
 23c:	0034                	.insn	2, 0x0034
 23e:	6449                	.insn	2, 0x6449
 240:	6e65                	.insn	2, 0x6e65
 242:	5f74                	.insn	2, 0x5f74
 244:	0035                	.insn	2, 0x0035
 246:	654e                	.insn	2, 0x654e
 248:	7478                	.insn	2, 0x7478
 24a:	525f 6365 726f      	.insn	6, 0x726f6365525f
 250:	0064                	.insn	2, 0x0064
 252:	7241                	.insn	2, 0x7241
 254:	5f72                	.insn	2, 0x5f72
 256:	5f32                	.insn	2, 0x5f32
 258:	626f6c47          	.insn	4, 0x626f6c47
 25c:	6c00                	.insn	2, 0x6c00
 25e:	20676e6f          	jal	t3,76464 <__stack_size-0x1f89b9c>
 262:	6f64                	.insn	2, 0x6f64
 264:	6275                	.insn	2, 0x6275
 266:	656c                	.insn	2, 0x656c
 268:	4300                	.insn	2, 0x4300
 26a:	5f68                	.insn	2, 0x5f68
 26c:	5f32                	.insn	2, 0x5f32
 26e:	706d6f43          	.insn	4, 0x706d6f43
 272:	5000                	.insn	2, 0x5000
 274:	6f72                	.insn	2, 0x6f72
 276:	00315f63          	bge	sp,gp,294 <__stack_size-0x1fffd6c>
 27a:	7250                	.insn	2, 0x7250
 27c:	325f636f          	jal	t1,f6da0 <__stack_size-0x1f09260>
 280:	5000                	.insn	2, 0x5000
 282:	6f72                	.insn	2, 0x6f72
 284:	00335f63          	bge	t1,gp,2a2 <__stack_size-0x1fffd5e>
 288:	7250                	.insn	2, 0x7250
 28a:	345f636f          	jal	t1,f6dce <__stack_size-0x1f09232>
 28e:	5000                	.insn	2, 0x5000
 290:	6f72                	.insn	2, 0x6f72
 292:	00355f63          	bge	a0,gp,2b0 <__stack_size-0x1fffd50>
 296:	7250                	.insn	2, 0x7250
 298:	365f636f          	jal	t1,f6dfc <__stack_size-0x1f09204>
 29c:	5000                	.insn	2, 0x5000
 29e:	6f72                	.insn	2, 0x6f72
 2a0:	00375f63          	bge	a4,gp,2be <__stack_size-0x1fffd42>
 2a4:	7250                	.insn	2, 0x7250
 2a6:	385f636f          	jal	t1,f6e2a <__stack_size-0x1f091d6>
 2aa:	4900                	.insn	2, 0x4900
 2ac:	746e                	.insn	2, 0x746e
 2ae:	335f 4c5f 636f      	.insn	6, 0x636f4c5f335f
 2b4:	4300                	.insn	2, 0x4300
 2b6:	7061                	.insn	2, 0x7061
 2b8:	7469                	.insn	2, 0x7469
 2ba:	6c61                	.insn	2, 0x6c61
 2bc:	4c5f 7465 6574      	.insn	6, 0x657474654c5f
 2c2:	0072                	.insn	2, 0x0072
 2c4:	4c5f6843          	.insn	4, 0x4c5f6843
 2c8:	5000636f          	jal	t1,67c8 <__stack_size-0x1ff9838>
 2cc:	7274                	.insn	2, 0x7274
 2ce:	525f 6665 505f      	.insn	6, 0x505f6665525f
 2d4:	7261                	.insn	2, 0x7261
 2d6:	7200                	.insn	2, 0x7200
 2d8:	6365                	.insn	2, 0x6365
 2da:	0064726f          	jal	tp,472e0 <__stack_size-0x1fb8d20>
 2de:	5f656e4f          	.insn	4, 0x5f656e4f
 2e2:	6946                	.insn	2, 0x6946
 2e4:	7466                	.insn	2, 0x7466
 2e6:	0079                	.insn	2, 0x0079
 2e8:	6f44                	.insn	2, 0x6f44
 2ea:	656e                	.insn	2, 0x656e
 2ec:	6600                	.insn	2, 0x6600
 2ee:	6f6c                	.insn	2, 0x6f6c
 2f0:	7461                	.insn	2, 0x7461
 2f2:	4500                	.insn	2, 0x4500
 2f4:	756e                	.insn	2, 0x756e
 2f6:	5f6d                	.insn	2, 0x5f6d
 2f8:	6f4c                	.insn	2, 0x6f4c
 2fa:	4e470063          	beq	a4,tp,7da <__stack_size-0x1fff826>
 2fe:	2055                	.insn	2, 0x2055
 300:	20333243          	.insn	4, 0x20333243
 304:	3531                	.insn	2, 0x3531
 306:	312e                	.insn	2, 0x312e
 308:	302e                	.insn	2, 0x302e
 30a:	2d20                	.insn	2, 0x2d20
 30c:	616d                	.insn	2, 0x616d
 30e:	6962                	.insn	2, 0x6962
 310:	693d                	.insn	2, 0x693d
 312:	706c                	.insn	2, 0x706c
 314:	2d203233          	.insn	4, 0x2d203233
 318:	636d                	.insn	2, 0x636d
 31a:	6f6d                	.insn	2, 0x6f6d
 31c:	6564                	.insn	2, 0x6564
 31e:	3d6c                	.insn	2, 0x3d6c
 320:	656d                	.insn	2, 0x656d
 322:	6c64                	.insn	2, 0x6c64
 324:	2d20776f          	jal	a4,75f6 <__stack_size-0x1ff8a0a>
 328:	696d                	.insn	2, 0x696d
 32a:	732d6173          	.insn	4, 0x732d6173
 32e:	6570                	.insn	2, 0x6570
 330:	30323d63          	.insn	4, 0x30323d63
 334:	3931                	.insn	2, 0x3931
 336:	3231                	.insn	2, 0x3231
 338:	3331                	.insn	2, 0x3331
 33a:	2d20                	.insn	2, 0x2d20
 33c:	616d                	.insn	2, 0x616d
 33e:	6372                	.insn	2, 0x6372
 340:	3d68                	.insn	2, 0x3d68
 342:	7672                	.insn	2, 0x7672
 344:	61693233          	.insn	4, 0x61693233
 348:	7a5f 6369 7273      	.insn	6, 0x727363697a5f
 34e:	7a5f 6161 6f6d      	.insn	6, 0x6f6d61617a5f
 354:	7a5f 6c61 7372      	.insn	6, 0x73726c617a5f
 35a:	672d2063          	.insn	4, 0x672d2063
 35e:	7764                	.insn	2, 0x7764
 360:	7261                	.insn	2, 0x7261
 362:	2066                	.insn	2, 0x2066
 364:	4f2d                	.insn	2, 0x4f2d
 366:	2032                	.insn	2, 0x2032
 368:	4f2d                	.insn	2, 0x4f2d
 36a:	0032                	.insn	2, 0x0032
 36c:	7450                	.insn	2, 0x7450
 36e:	5f72                	.insn	2, 0x5f72
 370:	6156                	.insn	2, 0x6156
 372:	5f6c                	.insn	2, 0x5f6c
 374:	6150                	.insn	2, 0x6150
 376:	0072                	.insn	2, 0x0072
 378:	7355                	.insn	2, 0x7355
 37a:	7265                	.insn	2, 0x7265
 37c:	545f 6d69 0065      	.insn	6, 0x00656d69545f
 382:	6542                	.insn	2, 0x6542
 384:	5f6e6967          	.insn	4, 0x5f6e6967
 388:	6954                	.insn	2, 0x6954
 38a:	656d                	.insn	2, 0x656d
 38c:	7500                	.insn	2, 0x7500
 38e:	736e                	.insn	2, 0x736e
 390:	6769                	.insn	2, 0x6769
 392:	656e                	.insn	2, 0x656e
 394:	2064                	.insn	2, 0x2064
 396:	72616863          	bltu	sp,t1,ac6 <__stack_size-0x1fff53a>
 39a:	4500                	.insn	2, 0x4500
 39c:	756e                	.insn	2, 0x756e
 39e:	5f6d                	.insn	2, 0x5f6d
 3a0:	6552                	.insn	2, 0x6552
 3a2:	5f66                	.insn	2, 0x5f66
 3a4:	6150                	.insn	2, 0x6150
 3a6:	0072                	.insn	2, 0x0072
 3a8:	6844                	.insn	2, 0x6844
 3aa:	7972                	.insn	2, 0x7972
 3ac:	6e6f7473          	.insn	4, 0x6e6f7473
 3b0:	7365                	.insn	2, 0x7365
 3b2:	505f 7265 535f      	.insn	6, 0x535f7265505f
 3b8:	6365                	.insn	2, 0x6365
 3ba:	00646e6f          	jal	t3,463c0 <__stack_size-0x1fb9c40>
 3be:	726f6873          	.insn	4, 0x726f6873
 3c2:	2074                	.insn	2, 0x2074
 3c4:	6e69                	.insn	2, 0x6e69
 3c6:	0074                	.insn	2, 0x0074
 3c8:	6e45                	.insn	2, 0x6e45
 3ca:	6d75                	.insn	2, 0x6d75
 3cc:	565f 6c61 505f      	.insn	6, 0x505f6c61565f
 3d2:	7261                	.insn	2, 0x7261
 3d4:	4200                	.insn	2, 0x4200
 3d6:	656c6f6f          	jal	t5,c6a2c <__stack_size-0x1f395d4>
 3da:	6e61                	.insn	2, 0x6e61
 3dc:	4300                	.insn	2, 0x4300
 3de:	5f68                	.insn	2, 0x5f68
 3e0:	5f31                	.insn	2, 0x5f31
 3e2:	626f6c47          	.insn	4, 0x626f6c47
 3e6:	4300                	.insn	2, 0x4300
 3e8:	5f68                	.insn	2, 0x5f68
 3ea:	5f31                	.insn	2, 0x5f31
 3ec:	6150                	.insn	2, 0x6150
 3ee:	5f72                	.insn	2, 0x5f72
 3f0:	6156                	.insn	2, 0x6156
 3f2:	006c                	.insn	2, 0x006c
 3f4:	7241                	.insn	2, 0x7241
 3f6:	5f72                	.insn	2, 0x5f72
 3f8:	5f31                	.insn	2, 0x5f31
 3fa:	6150                	.insn	2, 0x6150
 3fc:	5f72                	.insn	2, 0x5f72
 3fe:	6552                	.insn	2, 0x6552
 400:	0066                	.insn	2, 0x0066
 402:	5f727453          	.insn	4, 0x5f727453
 406:	5f31                	.insn	2, 0x5f31
 408:	6150                	.insn	2, 0x6150
 40a:	5f72                	.insn	2, 0x5f72
 40c:	6552                	.insn	2, 0x6552
 40e:	0066                	.insn	2, 0x0066
 410:	325f6843          	.insn	4, 0x325f6843
 414:	475f 6f6c 0062      	.insn	6, 0x00626f6c475f
 41a:	6e45                	.insn	2, 0x6e45
 41c:	6d75                	.insn	2, 0x6d75
 41e:	435f 6d6f 0070      	.insn	6, 0x00706d6f435f
 424:	5f727453          	.insn	4, 0x5f727453
 428:	5f32                	.insn	2, 0x5f32
 42a:	6f4c                	.insn	2, 0x6f4c
 42c:	70780063          	beq	a6,t2,b2c <__stack_size-0x1fff4d4>
 430:	6972                	.insn	2, 0x6972
 432:	746e                	.insn	2, 0x746e
 434:	0066                	.insn	2, 0x0066
 436:	5f727453          	.insn	4, 0x5f727453
 43a:	5f32                	.insn	2, 0x5f32
 43c:	706d6f43          	.insn	4, 0x706d6f43
 440:	4500                	.insn	2, 0x4500
 442:	646e                	.insn	2, 0x646e
 444:	545f 6d69 0065      	.insn	6, 0x00656d69545f
 44a:	6e49                	.insn	2, 0x6e49
 44c:	5f74                	.insn	2, 0x5f74
 44e:	5f32                	.insn	2, 0x5f32
 450:	6f4c                	.insn	2, 0x6f4c
 452:	754e0063          	beq	t3,s4,b92 <__stack_size-0x1fff46e>
 456:	626d                	.insn	2, 0x626d
 458:	7265                	.insn	2, 0x7265
 45a:	4f5f 5f66 7552      	.insn	6, 0x75525f664f5f
 460:	736e                	.insn	2, 0x736e
 462:	4500                	.insn	2, 0x4500
 464:	435f 6d6f 5f70      	.insn	6, 0x5f706d6f435f
 46a:	0032                	.insn	2, 0x0032
 46c:	6170                	.insn	2, 0x6170
 46e:	6d007373          	.insn	4, 0x6d007373
 472:	6961                	.insn	2, 0x6961
 474:	006e                	.insn	2, 0x006e
 476:	5f656e4f          	.insn	4, 0x5f656e4f
 47a:	6854                	.insn	2, 0x6854
 47c:	7269                	.insn	2, 0x7269
 47e:	7974                	.insn	2, 0x7974
 480:	4900                	.insn	2, 0x4900
 482:	746e                	.insn	2, 0x746e
 484:	505f 7261 525f      	.insn	6, 0x525f7261505f
 48a:	6665                	.insn	2, 0x6665
 48c:	5200                	.insn	2, 0x5200
 48e:	6e75                	.insn	2, 0x6e75
 490:	495f 646e 7865      	.insn	6, 0x7865646e495f
 496:	4900                	.insn	2, 0x4900
 498:	746e                	.insn	2, 0x746e
 49a:	435f 6d6f 0070      	.insn	6, 0x00706d6f435f
 4a0:	5f5f 7562 6c69      	.insn	6, 0x6c6975625f5f
 4a6:	6974                	.insn	2, 0x6974
 4a8:	5f6e                	.insn	2, 0x5f6e
 4aa:	6176                	.insn	2, 0x6176
 4ac:	6c5f 7369 0074      	.insn	6, 0x007473696c5f
 4b2:	7074756f          	jal	a0,483b8 <__stack_size-0x1fb7c48>
 4b6:	7274                	.insn	2, 0x7274
 4b8:	7800                	.insn	2, 0x7800
 4ba:	7076                	.insn	2, 0x7076
 4bc:	6972                	.insn	2, 0x6972
 4be:	746e                	.insn	2, 0x746e
 4c0:	0066                	.insn	2, 0x0066
 4c2:	20554e47          	.insn	4, 0x20554e47
 4c6:	20333243          	.insn	4, 0x20333243
 4ca:	3531                	.insn	2, 0x3531
 4cc:	312e                	.insn	2, 0x312e
 4ce:	302e                	.insn	2, 0x302e
 4d0:	2d20                	.insn	2, 0x2d20
 4d2:	616d                	.insn	2, 0x616d
 4d4:	6962                	.insn	2, 0x6962
 4d6:	693d                	.insn	2, 0x693d
 4d8:	706c                	.insn	2, 0x706c
 4da:	2d203233          	.insn	4, 0x2d203233
 4de:	636d                	.insn	2, 0x636d
 4e0:	6f6d                	.insn	2, 0x6f6d
 4e2:	6564                	.insn	2, 0x6564
 4e4:	3d6c                	.insn	2, 0x3d6c
 4e6:	656d                	.insn	2, 0x656d
 4e8:	6c64                	.insn	2, 0x6c64
 4ea:	2d20776f          	jal	a4,77bc <__stack_size-0x1ff8844>
 4ee:	696d                	.insn	2, 0x696d
 4f0:	732d6173          	.insn	4, 0x732d6173
 4f4:	6570                	.insn	2, 0x6570
 4f6:	30323d63          	.insn	4, 0x30323d63
 4fa:	3931                	.insn	2, 0x3931
 4fc:	3231                	.insn	2, 0x3231
 4fe:	3331                	.insn	2, 0x3331
 500:	2d20                	.insn	2, 0x2d20
 502:	616d                	.insn	2, 0x616d
 504:	6372                	.insn	2, 0x6372
 506:	3d68                	.insn	2, 0x3d68
 508:	7672                	.insn	2, 0x7672
 50a:	6d693233          	.insn	4, 0x6d693233
 50e:	5f61                	.insn	2, 0x5f61
 510:	697a                	.insn	2, 0x697a
 512:	5f727363          	bgeu	tp,s7,af8 <__stack_size-0x1fff508>
 516:	6d7a                	.insn	2, 0x6d7a
 518:	756d                	.insn	2, 0x756d
 51a:	5f6c                	.insn	2, 0x5f6c
 51c:	617a                	.insn	2, 0x617a
 51e:	6d61                	.insn	2, 0x6d61
 520:	617a5f6f          	jal	t5,a6336 <__stack_size-0x1f59cca>
 524:	726c                	.insn	2, 0x726c
 526:	2d206373          	.insn	4, 0x2d206373
 52a:	61776467          	.insn	4, 0x61776467
 52e:	6672                	.insn	2, 0x6672
 530:	2d20                	.insn	2, 0x2d20
 532:	2d20324f          	.insn	4, 0x2d20324f
 536:	5f00324f          	.insn	4, 0x5f00324f
 53a:	675f 756e 5f63      	.insn	6, 0x5f63756e675f
 540:	6176                	.insn	2, 0x6176
 542:	6c5f 7369 0074      	.insn	6, 0x007473696c5f
 548:	6678                	.insn	2, 0x6678
 54a:	6e75                	.insn	2, 0x6e75
 54c:	756f5f63          	bge	t5,s6,caa <__stack_size-0x1fff356>
 550:	0074                	.insn	2, 0x0074
 552:	7078                	.insn	2, 0x7078
 554:	7475                	.insn	2, 0x7475
 556:	70780073          	.insn	4, 0x70780073
 55a:	7475                	.insn	2, 0x7475
 55c:	2e2e0063          	beq	t3,sp,83c <__stack_size-0x1fff7c4>
 560:	2f2e2e2f          	.insn	4, 0x2f2e2e2f
 564:	2e2e                	.insn	2, 0x2e2e
 566:	672f2e2f          	amoand.w.aqrl	t3,s2,(t5)
 56a:	6c2f6363          	bltu	t5,sp,c30 <__stack_size-0x1fff3d0>
 56e:	6269                	.insn	2, 0x6269
 570:	2f636367          	.insn	4, 0x2f636367
 574:	666e6f63          	bltu	t3,t1,bf2 <__stack_size-0x1fff40e>
 578:	6769                	.insn	2, 0x6769
 57a:	7369722f          	.insn	4, 0x7369722f
 57e:	642f7663          	bgeu	t5,sp,bca <__stack_size-0x1fff436>
 582:	7669                	.insn	2, 0x7669
 584:	532e                	.insn	2, 0x532e
 586:	2f00                	.insn	2, 0x2f00
 588:	6f68                	.insn	2, 0x6f68
 58a:	656d                	.insn	2, 0x656d
 58c:	7475742f          	.insn	4, 0x7475742f
 590:	7475                	.insn	2, 0x7475
 592:	2f75                	.insn	2, 0x2f75
 594:	6972                	.insn	2, 0x6972
 596:	2d766373          	.insn	4, 0x2d766373
 59a:	2d756e67          	.insn	4, 0x2d756e67
 59e:	6f74                	.insn	2, 0x6f74
 5a0:	68636c6f          	jal	s8,36c26 <__stack_size-0x1fc93da>
 5a4:	6961                	.insn	2, 0x6961
 5a6:	2f6e                	.insn	2, 0x2f6e
 5a8:	7562                	.insn	2, 0x7562
 5aa:	6c69                	.insn	2, 0x6c69
 5ac:	2d64                	.insn	2, 0x2d64
 5ae:	2d636367          	.insn	4, 0x2d636367
 5b2:	656e                	.insn	2, 0x656e
 5b4:	62696c77          	.insn	4, 0x62696c77
 5b8:	732d                	.insn	2, 0x732d
 5ba:	6174                	.insn	2, 0x6174
 5bc:	2f326567          	.insn	4, 0x2f326567
 5c0:	6972                	.insn	2, 0x6972
 5c2:	33766373          	.insn	4, 0x33766373
 5c6:	2d32                	.insn	2, 0x2d32
 5c8:	6e75                	.insn	2, 0x6e75
 5ca:	776f6e6b          	.insn	4, 0x776f6e6b
 5ce:	2d6e                	.insn	2, 0x2d6e
 5d0:	6c65                	.insn	2, 0x6c65
 5d2:	2f66                	.insn	2, 0x2f66
 5d4:	696c                	.insn	2, 0x696c
 5d6:	6762                	.insn	2, 0x6762
 5d8:	5f006363          	bltu	zero,a6,bbe <__stack_size-0x1fff442>
 5dc:	685f 6469 6564      	.insn	6, 0x65646469685f
 5e2:	5f6e                	.insn	2, 0x5f6e
 5e4:	5f5f 6475 7669      	.insn	6, 0x766964755f5f
 5ea:	00336973          	.insn	4, 0x00336973
 5ee:	5f5f 6d75 646f      	.insn	6, 0x646f6d755f5f
 5f4:	00336973          	.insn	4, 0x00336973
 5f8:	5f5f 6f6d 7364      	.insn	6, 0x73646f6d5f5f
 5fe:	3369                	.insn	2, 0x3369
	...

Disassembly of section .debug_loclists:

00000000 <.debug_loclists>:
       0:	00000bb3          	add	s7,zero,zero
       4:	0005                	.insn	2, 0x0005
       6:	0004                	.insn	2, 0x0004
       8:	0000                	.insn	2, 0x0000
       a:	0000                	.insn	2, 0x0000
       c:	8561                	.insn	2, 0x8561
       e:	8501                	.insn	2, 0x8501
      10:	c101                	.insn	2, 0xc101
      12:	c901                	.insn	2, 0xc901
      14:	d001                	.insn	2, 0xd001
      16:	d001                	.insn	2, 0xd001
      18:	f701                	.insn	2, 0xf701
      1a:	f701                	.insn	2, 0xf701
      1c:	8f01                	.insn	2, 0x8f01
      1e:	8f02                	.insn	2, 0x8f02
      20:	9d02                	.insn	2, 0x9d02
      22:	ad02                	.insn	2, 0xad02
      24:	b702                	.insn	2, 0xb702
      26:	b702                	.insn	2, 0xb702
      28:	bc02                	.insn	2, 0xbc02
      2a:	bc02                	.insn	2, 0xbc02
      2c:	be02                	.insn	2, 0xbe02
      2e:	be02                	.insn	2, 0xbe02
      30:	c502                	.insn	2, 0xc502
      32:	c502                	.insn	2, 0xc502
      34:	c602                	.insn	2, 0xc602
      36:	b102                	.insn	2, 0xb102
      38:	b704                	.insn	2, 0xb704
      3a:	b704                	.insn	2, 0xb704
      3c:	0004                	.insn	2, 0x0004
      3e:	e806                	.insn	2, 0xe806
      40:	0001                	.insn	2, 0x0001
      42:	0480                	.insn	2, 0x0480
      44:	4400                	.insn	2, 0x4400
      46:	3202                	.insn	2, 0x3202
      48:	049f f444 0201      	.insn	6, 0x0201f444049f
      4e:	f4049f33          	.insn	4, 0xf4049f33
      52:	8c01                	.insn	2, 0x8c01
      54:	0102                	.insn	2, 0x0102
      56:	045a                	.insn	2, 0x045a
      58:	028c                	.insn	2, 0x028c
      5a:	0394                	.insn	2, 0x0394
      5c:	3302                	.insn	2, 0x3302
      5e:	049f 0394 0398      	.insn	6, 0x03980394049f
      64:	3202                	.insn	2, 0x3202
      66:	049f 0398 03cc      	.insn	6, 0x03cc0398049f
      6c:	3302                	.insn	2, 0x3302
      6e:	049f 03e4 0490      	.insn	6, 0x049003e4049f
      74:	5a01                	.insn	2, 0x5a01
      76:	9004                	.insn	2, 0x9004
      78:	9404                	.insn	2, 0x9404
      7a:	0104                	.insn	2, 0x0104
      7c:	045f 0494 049c      	.insn	6, 0x049c0494045f
      82:	5a01                	.insn	2, 0x5a01
      84:	9c04                	.insn	2, 0x9c04
      86:	af04                	.insn	2, 0xaf04
      88:	0104                	.insn	2, 0x0104
      8a:	045f 04af 04c8      	.insn	6, 0x04c804af045f
      90:	7ee09103          	lh	sp,2030(ra)
      94:	d804                	.insn	2, 0xd804
      96:	f80d                	.insn	2, 0xf80d
      98:	020d                	.insn	2, 0x020d
      9a:	f8049f33          	.insn	4, 0xf8049f33
      9e:	800d                	.insn	2, 0x800d
      a0:	010e                	.insn	2, 0x010e
      a2:	005a                	.insn	2, 0x005a
      a4:	ab62                	.insn	2, 0xab62
      a6:	ab01                	.insn	2, 0xab01
      a8:	b401                	.insn	2, 0xb401
      aa:	b601                	.insn	2, 0xb601
      ac:	bb01                	.insn	2, 0xbb01
      ae:	d001                	.insn	2, 0xd001
      b0:	d401                	.insn	2, 0xd401
      b2:	e101                	.insn	2, 0xe101
      b4:	f601                	.insn	2, 0xf601
      b6:	f701                	.insn	2, 0xf701
      b8:	8f01                	.insn	2, 0x8f01
      ba:	8f02                	.insn	2, 0x8f02
      bc:	9302                	.insn	2, 0x9302
      be:	b702                	.insn	2, 0xb702
      c0:	c502                	.insn	2, 0xc502
      c2:	c502                	.insn	2, 0xc502
      c4:	c602                	.insn	2, 0xc602
      c6:	b102                	.insn	2, 0xb102
      c8:	b404                	.insn	2, 0xb404
      ca:	b404                	.insn	2, 0xb404
      cc:	b704                	.insn	2, 0xb704
      ce:	b704                	.insn	2, 0xb704
      d0:	0004                	.insn	2, 0x0004
      d2:	e806                	.insn	2, 0xe806
      d4:	0001                	.insn	2, 0x0001
      d6:	0480                	.insn	2, 0x0480
      d8:	a400                	.insn	2, 0xa400
      da:	0201                	.insn	2, 0x0201
      dc:	a4049f33          	.insn	4, 0xa4049f33
      e0:	a801                	.insn	2, 0xa801
      e2:	0101                	.insn	2, 0x0101
      e4:	045a                	.insn	2, 0x045a
      e6:	01b0                	.insn	2, 0x01b0
      e8:	01d0                	.insn	2, 0x01d0
      ea:	5a01                	.insn	2, 0x5a01
      ec:	8c04                	.insn	2, 0x8c04
      ee:	9802                	.insn	2, 0x9802
      f0:	0102                	.insn	2, 0x0102
      f2:	045a                	.insn	2, 0x045a
      f4:	02c0                	.insn	2, 0x02c0
      f6:	038c                	.insn	2, 0x038c
      f8:	6901                	.insn	2, 0x6901
      fa:	9404                	.insn	2, 0x9404
      fc:	02039803          	lh	a6,32(t2)
     100:	98049f33          	.insn	4, 0x98049f33
     104:	0103a803          	lw	a6,16(t2)
     108:	0469                	.insn	2, 0x0469
     10a:	0490                	.insn	2, 0x0490
     10c:	5d0104af          	.insn	4, 0x5d0104af
     110:	af04                	.insn	2, 0xaf04
     112:	c804                	.insn	2, 0xc804
     114:	0304                	.insn	2, 0x0304
     116:	dc91                	.insn	2, 0xdc91
     118:	047e                	.insn	2, 0x047e
     11a:	0dd8                	.insn	2, 0x0dd8
     11c:	0dec                	.insn	2, 0x0dec
     11e:	3302                	.insn	2, 0x3302
     120:	049f 0dec 0df8      	.insn	6, 0x0df80dec049f
     126:	6901                	.insn	2, 0x6901
     128:	f804                	.insn	2, 0xf804
     12a:	800d                	.insn	2, 0x800d
     12c:	010e                	.insn	2, 0x010e
     12e:	005d                	.insn	2, 0x005d
     130:	af4e                	.insn	2, 0xaf4e
     132:	b104                	.insn	2, 0xb104
     134:	0004                	.insn	2, 0x0004
     136:	a806                	.insn	2, 0xa806
     138:	0001                	.insn	2, 0x0001
     13a:	0480                	.insn	2, 0x0480
     13c:	d400                	.insn	2, 0xd400
     13e:	020d                	.insn	2, 0x020d
     140:	98049f37          	lui	t5,0x98049
     144:	c00e                	.insn	2, 0xc00e
     146:	020e                	.insn	2, 0x020e
     148:	a5009f37          	lui	t5,0xa5009
     14c:	ab01                	.insn	2, 0xab01
     14e:	ab01                	.insn	2, 0xab01
     150:	b401                	.insn	2, 0xb401
     152:	b701                	.insn	2, 0xb701
     154:	b801                	.insn	2, 0xb801
     156:	d001                	.insn	2, 0xd001
     158:	d401                	.insn	2, 0xd401
     15a:	e101                	.insn	2, 0xe101
     15c:	f001                	.insn	2, 0xf001
     15e:	f001                	.insn	2, 0xf001
     160:	f601                	.insn	2, 0xf601
     162:	8f01                	.insn	2, 0x8f01
     164:	9302                	.insn	2, 0x9302
     166:	b102                	.insn	2, 0xb102
     168:	b404                	.insn	2, 0xb404
     16a:	b404                	.insn	2, 0xb404
     16c:	b704                	.insn	2, 0xb704
     16e:	0604                	.insn	2, 0x0604
     170:	0260                	.insn	2, 0x0260
     172:	8000                	.insn	2, 0x8000
     174:	0004                	.insn	2, 0x0004
     176:	032c                	.insn	2, 0x032c
     178:	4108                	.insn	2, 0x4108
     17a:	049f 302c 5f01      	.insn	6, 0x5f01302c049f
     180:	4004                	.insn	2, 0x4004
     182:	0148                	.insn	2, 0x0148
     184:	045f 0194 01a0      	.insn	6, 0x01a00194045f
     18a:	5f01                	.insn	2, 0x5f01
     18c:	c804                	.insn	2, 0xc804
     18e:	f801                	.insn	2, 0xf801
     190:	0101                	.insn	2, 0x0101
     192:	045f 01f8 0294      	.insn	6, 0x029401f8045f
     198:	9f440803          	lb	a6,-1548(s0) # 47002ee4 <__stack_size+0x45002ee4>
     19c:	a004                	.insn	2, 0xa004
     19e:	b002                	.insn	2, 0xb002
     1a0:	0102                	.insn	2, 0x0102
     1a2:	045f 0ce0 0cf4      	.insn	6, 0x0cf40ce0045f
     1a8:	9f410803          	lb	a6,-1548(sp) # 12010f98 <__stack_size+0x10010f98>
     1ac:	f404                	.insn	2, 0xf404
     1ae:	800c                	.insn	2, 0x800c
     1b0:	030d                	.insn	2, 0x030d
     1b2:	4408                	.insn	2, 0x4408
     1b4:	009f ab64 ab01      	.insn	6, 0xab01ab64009f
     1ba:	b401                	.insn	2, 0xb401
     1bc:	b601                	.insn	2, 0xb601
     1be:	b801                	.insn	2, 0xb801
     1c0:	ce01                	.insn	2, 0xce01
     1c2:	d401                	.insn	2, 0xd401
     1c4:	dc01                	.insn	2, 0xdc01
     1c6:	f601                	.insn	2, 0xf601
     1c8:	f701                	.insn	2, 0xf701
     1ca:	8f01                	.insn	2, 0x8f01
     1cc:	8f02                	.insn	2, 0x8f02
     1ce:	9302                	.insn	2, 0x9302
     1d0:	b102                	.insn	2, 0xb102
     1d2:	b702                	.insn	2, 0xb702
     1d4:	b702                	.insn	2, 0xb702
     1d6:	af02                	.insn	2, 0xaf02
     1d8:	b104                	.insn	2, 0xb104
     1da:	b404                	.insn	2, 0xb404
     1dc:	b404                	.insn	2, 0xb404
     1de:	b704                	.insn	2, 0xb704
     1e0:	b704                	.insn	2, 0xb704
     1e2:	0004                	.insn	2, 0x0004
     1e4:	e806                	.insn	2, 0xe806
     1e6:	0001                	.insn	2, 0x0001
     1e8:	0480                	.insn	2, 0x0480
     1ea:	a400                	.insn	2, 0xa400
     1ec:	0201                	.insn	2, 0x0201
     1ee:	9f31                	.insn	2, 0x9f31
     1f0:	a404                	.insn	2, 0xa404
     1f2:	a801                	.insn	2, 0xa801
     1f4:	0101                	.insn	2, 0x0101
     1f6:	046a                	.insn	2, 0x046a
     1f8:	01b0                	.insn	2, 0x01b0
     1fa:	01c0                	.insn	2, 0x01c0
     1fc:	6a01                	.insn	2, 0x6a01
     1fe:	fc04                	.insn	2, 0xfc04
     200:	9801                	.insn	2, 0x9801
     202:	0102                	.insn	2, 0x0102
     204:	046a                	.insn	2, 0x046a
     206:	02b4                	.insn	2, 0x02b4
     208:	038c                	.insn	2, 0x038c
     20a:	3002                	.insn	2, 0x3002
     20c:	049f 0394 0398      	.insn	6, 0x03980394049f
     212:	3102                	.insn	2, 0x3102
     214:	049f 0398 03a8      	.insn	6, 0x03a80398049f
     21a:	3002                	.insn	2, 0x3002
     21c:	049f 03e4 0490      	.insn	6, 0x049003e4049f
     222:	6a01                	.insn	2, 0x6a01
     224:	9004                	.insn	2, 0x9004
     226:	9404                	.insn	2, 0x9404
     228:	010d                	.insn	2, 0x010d
     22a:	0469                	.insn	2, 0x0469
     22c:	0dd8                	.insn	2, 0x0dd8
     22e:	0dec                	.insn	2, 0x0dec
     230:	3102                	.insn	2, 0x3102
     232:	049f 0dec 0df8      	.insn	6, 0x0df80dec049f
     238:	3002                	.insn	2, 0x3002
     23a:	049f 0df8 0e80      	.insn	6, 0x0e800df8049f
     240:	6901                	.insn	2, 0x6901
     242:	4e00                	.insn	2, 0x4e00
     244:	02ac4f4f          	.insn	4, 0x02ac4f4f
     248:	02ac                	.insn	2, 0x02ac
     24a:	02b1                	.insn	2, 0x02b1
     24c:	02b1                	.insn	2, 0x02b1
     24e:	02b6                	.insn	2, 0x02b6
     250:	04b1                	.insn	2, 0x04b1
     252:	a80604b7          	lui	s1,0xa8060
     256:	0001                	.insn	2, 0x0001
     258:	0480                	.insn	2, 0x0480
     25a:	0400                	.insn	2, 0x0400
     25c:	3102                	.insn	2, 0x3102
     25e:	049f a004 0104      	.insn	6, 0x0104a004049f
     264:	0469                	.insn	2, 0x0469
     266:	04a0                	.insn	2, 0x04a0
     268:	04a4                	.insn	2, 0x04a4
     26a:	9f7f8903          	lb	s2,-1545(t6)
     26e:	a404                	.insn	2, 0xa404
     270:	d004                	.insn	2, 0xd004
     272:	0104                	.insn	2, 0x0104
     274:	0469                	.insn	2, 0x0469
     276:	0e98                	.insn	2, 0x0e98
     278:	0eb8                	.insn	2, 0x0eb8
     27a:	6901                	.insn	2, 0x6901
     27c:	0c00                	.insn	2, 0x0c00
     27e:	081e                	.insn	2, 0x081e
     280:	001c                	.insn	2, 0x001c
     282:	8000                	.insn	2, 0x8000
     284:	0364                	.insn	2, 0x0364
     286:	3008                	.insn	2, 0x3008
     288:	009f 2d19 2f2d      	.insn	6, 0x2f2d2d19009f
     28e:	7006                	.insn	2, 0x7006
     290:	0000                	.insn	2, 0x0000
     292:	0480                	.insn	2, 0x0480
     294:	3c00                	.insn	2, 0x3c00
     296:	5f01                	.insn	2, 0x5f01
     298:	3c04                	.insn	2, 0x3c04
     29a:	0244                	.insn	2, 0x0244
     29c:	007e                	.insn	2, 0x007e
     29e:	2000                	.insn	2, 0x2000
     2a0:	0835                	.insn	2, 0x0835
     2a2:	0080                	.insn	2, 0x0080
     2a4:	8000                	.insn	2, 0x8000
     2a6:	0344                	.insn	2, 0x0344
     2a8:	3008                	.insn	2, 0x3008
     2aa:	009f 3028 3c30      	.insn	6, 0x3c303028009f
     2b0:	9806                	.insn	2, 0x9806
     2b2:	0000                	.insn	2, 0x0000
     2b4:	0480                	.insn	2, 0x0480
     2b6:	2000                	.insn	2, 0x2000
     2b8:	5e01                	.insn	2, 0x5e01
     2ba:	2004                	.insn	2, 0x2004
     2bc:	507e033f 5f5d009f 	.insn	8, 0x5f5d009f507e033f
     2c4:	e808                	.insn	2, 0xe808
     2c6:	0001                	.insn	2, 0x0001
     2c8:	0080                	.insn	2, 0x0080
     2ca:	3102                	.insn	2, 0x3102
     2cc:	009f 7d65 7e7d      	.insn	6, 0x7e7d7d65009f
     2d2:	7e7e                	.insn	2, 0x7e7e
     2d4:	028f01f7          	.insn	4, 0x028f01f7
     2d8:	e806                	.insn	2, 0xe806
     2da:	0001                	.insn	2, 0x0001
     2dc:	0480                	.insn	2, 0x0480
     2de:	2c00                	.insn	2, 0x2c00
     2e0:	9104                	.insn	2, 0x9104
     2e2:	7f80                	.insn	2, 0x7f80
     2e4:	049f 2f2c 5a01      	.insn	6, 0x5a012f2c049f
     2ea:	2f04                	.insn	2, 0x2f04
     2ec:	0430                	.insn	2, 0x0430
     2ee:	8091                	.insn	2, 0x8091
     2f0:	94049f7f 04039803 	.insn	12, 0x9f7f80910403980394049f7f
     2f8:	9f7f8091 
     2fc:	6500                	.insn	2, 0x6500
     2fe:	7c7c                	.insn	2, 0x7c7c
     300:	7e7e                	.insn	2, 0x7e7e
     302:	f77e                	.insn	2, 0xf77e
     304:	8f01                	.insn	2, 0x8f01
     306:	0602                	.insn	2, 0x0602
     308:	01e8                	.insn	2, 0x01e8
     30a:	8000                	.insn	2, 0x8000
     30c:	0004                	.insn	2, 0x0004
     30e:	0428                	.insn	2, 0x0428
     310:	a091                	.insn	2, 0xa091
     312:	28049f7f 045b012f 	.insn	12, 0x9104302f045b012f28049f7f
     31a:	9104302f 
     31e:	7fa0                	.insn	2, 0x7fa0
     320:	049f 0394 0398      	.insn	6, 0x03980394049f
     326:	9104                	.insn	2, 0x9104
     328:	7fa0                	.insn	2, 0x7fa0
     32a:	009f 796a 7e79      	.insn	6, 0x7e79796a009f
     330:	028f01f7          	.insn	4, 0x028f01f7
     334:	e806                	.insn	2, 0xe806
     336:	0001                	.insn	2, 0x0001
     338:	0480                	.insn	2, 0x0480
     33a:	2400                	.insn	2, 0x2400
     33c:	3202                	.insn	2, 0x3202
     33e:	049f 3024 3302      	.insn	6, 0x33023024049f
     344:	049f 0394 0398      	.insn	6, 0x03980394049f
     34a:	3202                	.insn	2, 0x3202
     34c:	009f 766c 01fd      	.insn	6, 0x01fd766c009f
     352:	e806028f          	.insn	4, 0xe806028f
     356:	0001                	.insn	2, 0x0001
     358:	0480                	.insn	2, 0x0480
     35a:	2400                	.insn	2, 0x2400
     35c:	7f829103          	lh	sp,2040(t0) # 1747f8 <__stack_size-0x1e8b808>
     360:	9404                	.insn	2, 0x9404
     362:	03039803          	lh	a6,48(t2)
     366:	5908                	.insn	2, 0x5908
     368:	009f 766c 01f7      	.insn	6, 0x01f7766c009f
     36e:	e806028f          	.insn	4, 0xe806028f
     372:	0001                	.insn	2, 0x0001
     374:	0480                	.insn	2, 0x0480
     376:	2400                	.insn	2, 0x2400
     378:	9f590803          	lb	a6,-1547(s2)
     37c:	9404                	.insn	2, 0x9404
     37e:	03039803          	lh	a6,48(t2)
     382:	5908                	.insn	2, 0x5908
     384:	009f 7e70 01f7      	.insn	6, 0x01f77e70009f
     38a:	e806028f          	.insn	4, 0xe806028f
     38e:	0001                	.insn	2, 0x0001
     390:	0480                	.insn	2, 0x0480
     392:	2f00                	.insn	2, 0x2f00
     394:	7f829103          	lh	sp,2040(t0)
     398:	9404                	.insn	2, 0x9404
     39a:	03039803          	lh	a6,48(t2)
     39e:	5908                	.insn	2, 0x5908
     3a0:	009f 7e71 01f7      	.insn	6, 0x01f77e71009f
     3a6:	e806028f          	.insn	4, 0xe806028f
     3aa:	0001                	.insn	2, 0x0001
     3ac:	0480                	.insn	2, 0x0480
     3ae:	2f00                	.insn	2, 0x2f00
     3b0:	7f829103          	lh	sp,2040(t0)
     3b4:	9404                	.insn	2, 0x9404
     3b6:	03039803          	lh	a6,48(t2)
     3ba:	5908                	.insn	2, 0x5908
     3bc:	009f 0187 01a2      	.insn	6, 0x01a20187009f
     3c2:	2c08                	.insn	2, 0x2c08
     3c4:	0002                	.insn	2, 0x0002
     3c6:	3080                	.insn	2, 0x3080
     3c8:	0306                	.insn	2, 0x0306
     3ca:	1a7c                	.insn	2, 0x1a7c
     3cc:	8000                	.insn	2, 0x8000
     3ce:	009f 0187 01a2      	.insn	6, 0x01a20187009f
     3d4:	2c08                	.insn	2, 0x2c08
     3d6:	0002                	.insn	2, 0x0002
     3d8:	3080                	.insn	2, 0x3080
     3da:	0306                	.insn	2, 0x0306
     3dc:	1f44                	.insn	2, 0x1f44
     3de:	8000                	.insn	2, 0x8000
     3e0:	009f 0187 01a2      	.insn	6, 0x01a20187009f
     3e6:	2c08                	.insn	2, 0x2c08
     3e8:	0002                	.insn	2, 0x0002
     3ea:	3080                	.insn	2, 0x3080
     3ec:	3302                	.insn	2, 0x3302
     3ee:	009f 0187 01a2      	.insn	6, 0x01a20187009f
     3f4:	2c08                	.insn	2, 0x2c08
     3f6:	0002                	.insn	2, 0x0002
     3f8:	3080                	.insn	2, 0x3080
     3fa:	3702                	.insn	2, 0x3702
     3fc:	009f 0196 019a      	.insn	6, 0x019a0196009f
     402:	019a                	.insn	2, 0x019a
     404:	019e                	.insn	2, 0x019e
     406:	019e                	.insn	2, 0x019e
     408:	01a2                	.insn	2, 0x01a2
     40a:	5406                	.insn	2, 0x5406
     40c:	0002                	.insn	2, 0x0002
     40e:	0480                	.insn	2, 0x0480
     410:	0400                	.insn	2, 0x0400
     412:	3802                	.insn	2, 0x3802
     414:	049f 0804 3902      	.insn	6, 0x39020804049f
     41a:	049f 0808 3a02      	.insn	6, 0x3a020808049f
     420:	009f 018b 01a2      	.insn	6, 0x01a2018b009f
     426:	2c08                	.insn	2, 0x2c08
     428:	0002                	.insn	2, 0x0002
     42a:	3080                	.insn	2, 0x3080
     42c:	3802                	.insn	2, 0x3802
     42e:	009f 01ad 01b4      	.insn	6, 0x01b401ad009f
     434:	01d0                	.insn	2, 0x01d0
     436:	01d2                	.insn	2, 0x01d2
     438:	01e2                	.insn	2, 0x01e2
     43a:	01ee                	.insn	2, 0x01ee
     43c:	0293028f          	.insn	4, 0x0293028f
     440:	8c06                	.insn	2, 0x8c06
     442:	0002                	.insn	2, 0x0002
     444:	0480                	.insn	2, 0x0480
     446:	0400                	.insn	2, 0x0400
     448:	5f01                	.insn	2, 0x5f01
     44a:	6804                	.insn	2, 0x6804
     44c:	0170                	.insn	2, 0x0170
     44e:	045f 019c 01cc      	.insn	6, 0x01cc019c045f
     454:	5f01                	.insn	2, 0x5f01
     456:	f404                	.insn	2, 0xf404
     458:	8401                	.insn	2, 0x8401
     45a:	0102                	.insn	2, 0x0102
     45c:	005f 01ad 01b4      	.insn	6, 0x01b401ad005f
     462:	01d0                	.insn	2, 0x01d0
     464:	01d2                	.insn	2, 0x01d2
     466:	01e2                	.insn	2, 0x01e2
     468:	01ee                	.insn	2, 0x01ee
     46a:	0293028f          	.insn	4, 0x0293028f
     46e:	8c06                	.insn	2, 0x8c06
     470:	0002                	.insn	2, 0x0002
     472:	0480                	.insn	2, 0x0480
     474:	0400                	.insn	2, 0x0400
     476:	9f430803          	lb	a6,-1548(t1)
     47a:	6804                	.insn	2, 0x6804
     47c:	0370                	.insn	2, 0x0370
     47e:	4308                	.insn	2, 0x4308
     480:	049f 019c 01cc      	.insn	6, 0x01cc019c049f
     486:	9f430803          	lb	a6,-1548(t1)
     48a:	f404                	.insn	2, 0xf404
     48c:	8401                	.insn	2, 0x8401
     48e:	0302                	.insn	2, 0x0302
     490:	4308                	.insn	2, 0x4308
     492:	009f 01b1 01b4      	.insn	6, 0x01b401b1009f
     498:	01d0                	.insn	2, 0x01d0
     49a:	01d4                	.insn	2, 0x01d4
     49c:	01e6                	.insn	2, 0x01e6
     49e:	01f2                	.insn	2, 0x01f2
     4a0:	0293028f          	.insn	4, 0x0293028f
     4a4:	8c06                	.insn	2, 0x8c06
     4a6:	0002                	.insn	2, 0x0002
     4a8:	0480                	.insn	2, 0x0480
     4aa:	0400                	.insn	2, 0x0400
     4ac:	5f01                	.insn	2, 0x5f01
     4ae:	6804                	.insn	2, 0x6804
     4b0:	0174                	.insn	2, 0x0174
     4b2:	045f 019c 01d8      	.insn	6, 0x01d8019c045f
     4b8:	5f01                	.insn	2, 0x5f01
     4ba:	f404                	.insn	2, 0xf404
     4bc:	8401                	.insn	2, 0x8401
     4be:	0102                	.insn	2, 0x0102
     4c0:	005f 01b2 01b4      	.insn	6, 0x01b401b2005f
     4c6:	01d0                	.insn	2, 0x01d0
     4c8:	01d4                	.insn	2, 0x01d4
     4ca:	01f201e7          	jalr	gp,31(tp) # 1f <__stack_size-0x1ffffe1>
     4ce:	0293028f          	.insn	4, 0x0293028f
     4d2:	8c06                	.insn	2, 0x8c06
     4d4:	0002                	.insn	2, 0x0002
     4d6:	0480                	.insn	2, 0x0480
     4d8:	0400                	.insn	2, 0x0400
     4da:	5f01                	.insn	2, 0x5f01
     4dc:	6804                	.insn	2, 0x6804
     4de:	0174                	.insn	2, 0x0174
     4e0:	045f 019c 01d8      	.insn	6, 0x01d8019c045f
     4e6:	5f01                	.insn	2, 0x5f01
     4e8:	f404                	.insn	2, 0xf404
     4ea:	8401                	.insn	2, 0x8401
     4ec:	0102                	.insn	2, 0x0102
     4ee:	005f 01c3 01ca      	.insn	6, 0x01ca01c3005f
     4f4:	029f 02af dc06      	.insn	6, 0xdc0602af029f
     4fa:	0002                	.insn	2, 0x0002
     4fc:	0480                	.insn	2, 0x0480
     4fe:	0000                	.insn	2, 0x0000
     500:	a006                	.insn	2, 0xa006
     502:	03f9                	.insn	2, 0x03f9
     504:	0000                	.insn	2, 0x0000
     506:	0400                	.insn	2, 0x0400
     508:	01d8                	.insn	2, 0x01d8
     50a:	01f0                	.insn	2, 0x01f0
     50c:	a006                	.insn	2, 0xa006
     50e:	03f9                	.insn	2, 0x03f9
     510:	0000                	.insn	2, 0x0000
     512:	0000                	.insn	2, 0x0000
     514:	02aa02a7          	.insn	4, 0x02aa02a7
     518:	02aa                	.insn	2, 0x02aa
     51a:	02ad                	.insn	2, 0x02ad
     51c:	bc06                	.insn	2, 0xbc06
     51e:	04800003          	lb	zero,72(zero) # 48 <__stack_size-0x1ffffb8>
     522:	0800                	.insn	2, 0x0800
     524:	9f097a03          	.insn	4, 0x9f097a03
     528:	0804                	.insn	2, 0x0804
     52a:	0110                	.insn	2, 0x0110
     52c:	005a                	.insn	2, 0x005a
     52e:	01c9                	.insn	2, 0x01c9
     530:	01d0                	.insn	2, 0x01d0
     532:	02ae                	.insn	2, 0x02ae
     534:	04b1                	.insn	2, 0x04b1
     536:	060004b7          	lui	s1,0x6000
     53a:	02dc                	.insn	2, 0x02dc
     53c:	8000                	.insn	2, 0x8000
     53e:	0004                	.insn	2, 0x0004
     540:	0218                	.insn	2, 0x0218
     542:	9f30                	.insn	2, 0x9f30
     544:	f004                	.insn	2, 0xf004
     546:	e401                	.insn	2, 0xe401
     548:	9f30020b          	.insn	4, 0x9f30020b
     54c:	8404                	.insn	2, 0x8404
     54e:	8c0c                	.insn	2, 0x8c0c
     550:	020c                	.insn	2, 0x020c
     552:	9f30                	.insn	2, 0x9f30
     554:	d600                	.insn	2, 0xd600
     556:	dd01                	.insn	2, 0xdd01
     558:	0801                	.insn	2, 0x0801
     55a:	031c                	.insn	2, 0x031c
     55c:	8000                	.insn	2, 0x8000
     55e:	0200                	.insn	2, 0x0200
     560:	9f30                	.insn	2, 0x9f30
     562:	d600                	.insn	2, 0xd600
     564:	dd01                	.insn	2, 0xdd01
     566:	0801                	.insn	2, 0x0801
     568:	031c                	.insn	2, 0x031c
     56a:	8000                	.insn	2, 0x8000
     56c:	0600                	.insn	2, 0x0600
     56e:	49a0                	.insn	2, 0x49a0
     570:	0004                	.insn	2, 0x0004
     572:	0000                	.insn	2, 0x0000
     574:	b900                	.insn	2, 0xb900
     576:	c302                	.insn	2, 0xc302
     578:	b702                	.insn	2, 0xb702
     57a:	0004                	.insn	2, 0x0004
     57c:	f806                	.insn	2, 0xf806
     57e:	04800003          	lb	zero,72(zero) # 48 <__stack_size-0x1ffffb8>
     582:	1c00                	.insn	2, 0x1c00
     584:	7b08                	.insn	2, 0x7b08
     586:	3500                	.insn	2, 0x3500
     588:	0829                	.insn	2, 0x0829
     58a:	049f1aff 09f009e8 	.insn	12, 0x35007b0809f009e8049f1aff
     592:	35007b08 
     596:	0829                	.insn	2, 0x0829
     598:	009f1aff 02cf02c8 	.insn	12, 0x0004340802cf02c8009f1aff
     5a0:	00043408 
     5a4:	1c80                	.insn	2, 0x1c80
     5a6:	7b08                	.insn	2, 0x7b08
     5a8:	3100                	.insn	2, 0x3100
     5aa:	0829                	.insn	2, 0x0829
     5ac:	009f1aff 02db02d4 	.insn	12, 0x0004700802db02d4009f1aff
     5b4:	00047008 
     5b8:	1c80                	.insn	2, 0x1c80
     5ba:	7b0c                	.insn	2, 0x7b0c
     5bc:	0800                	.insn	2, 0x0800
     5be:	41081aff 1aff0829 	.insn	12, 0x02e0009f1aff082941081aff
     5c6:	02e0009f 
     5ca:	ac0802e7          	jalr	t0,-1344(a6)
     5ce:	0004                	.insn	2, 0x0004
     5d0:	1c80                	.insn	2, 0x1c80
     5d2:	7b0c                	.insn	2, 0x7b0c
     5d4:	0800                	.insn	2, 0x0800
     5d6:	42081aff 1aff0829 	.insn	12, 0x02ec009f1aff082942081aff
     5de:	02ec009f 
     5e2:	e80802f3          	.insn	4, 0xe80802f3
     5e6:	0004                	.insn	2, 0x0004
     5e8:	1c80                	.insn	2, 0x1c80
     5ea:	7b08                	.insn	2, 0x7b08
     5ec:	3700                	.insn	2, 0x3700
     5ee:	0829                	.insn	2, 0x0829
     5f0:	009f1aff 02ff02f8 	.insn	12, 0x0005240802ff02f8009f1aff
     5f8:	00052408 
     5fc:	2080                	.insn	2, 0x2080
     5fe:	7b0a                	.insn	2, 0x7b0a
     600:	0a00                	.insn	2, 0x0a00
     602:	271a                	.insn	2, 0x271a
     604:	0829                	.insn	2, 0x0829
     606:	009f1aff 038b0384 	.insn	12, 0x00056408038b0384009f1aff
     60e:	00056408 
     612:	1880                	.insn	2, 0x1880
     614:	7b08                	.insn	2, 0x7b08
     616:	3000                	.insn	2, 0x3000
     618:	0829                	.insn	2, 0x0829
     61a:	009f1aff 03990392 	.insn	12, 0x0005a40803990392009f1aff
     622:	0005a408 
     626:	1880                	.insn	2, 0x1880
     628:	7b08                	.insn	2, 0x7b08
     62a:	3200                	.insn	2, 0x3200
     62c:	0829                	.insn	2, 0x0829
     62e:	009f1aff 03a703a0 	.insn	12, 0x0005e40803a703a0009f1aff
     636:	0005e408 
     63a:	1880                	.insn	2, 0x1880
     63c:	7b08                	.insn	2, 0x7b08
     63e:	4100                	.insn	2, 0x4100
     640:	0829                	.insn	2, 0x0829
     642:	009f1aff 03b403af 	.insn	12, 0x0006380803b403af009f1aff
     64a:	00063808 
     64e:	1080                	.insn	2, 0x1080
     650:	7a08                	.insn	2, 0x7a08
     652:	3000                	.insn	2, 0x3000
     654:	0829                	.insn	2, 0x0829
     656:	009f1aff 03c303bc 	.insn	12, 0x0006780803c303bc009f1aff
     65e:	00067808 
     662:	1880                	.insn	2, 0x1880
     664:	7b08                	.insn	2, 0x7b08
     666:	3000                	.insn	2, 0x3000
     668:	0829                	.insn	2, 0x0829
     66a:	009f1aff 03d103ca 	.insn	12, 0x0006bc0803d103ca009f1aff
     672:	0006bc08 
     676:	1880                	.insn	2, 0x1880
     678:	7b08                	.insn	2, 0x7b08
     67a:	3100                	.insn	2, 0x3100
     67c:	0829                	.insn	2, 0x0829
     67e:	009f1aff 03df03d8 	.insn	12, 0x0007000803df03d8009f1aff
     686:	00070008 
     68a:	1880                	.insn	2, 0x1880
     68c:	7b08                	.insn	2, 0x7b08
     68e:	4200                	.insn	2, 0x4200
     690:	0829                	.insn	2, 0x0829
     692:	009f1aff 03ec03e7 	.insn	12, 0x0007580803ec03e7009f1aff
     69a:	00075808 
     69e:	1080                	.insn	2, 0x1080
     6a0:	7a08                	.insn	2, 0x7a08
     6a2:	3000                	.insn	2, 0x3000
     6a4:	0829                	.insn	2, 0x0829
     6a6:	009f1aff 03fa03f3 	.insn	12, 0x00078c0803fa03f3009f1aff
     6ae:	00078c08 
     6b2:	1c80                	.insn	2, 0x1c80
     6b4:	7f08                	.insn	2, 0x7f08
     6b6:	3500                	.insn	2, 0x3500
     6b8:	0829                	.insn	2, 0x0829
     6ba:	009f1aff 048503fe 	.insn	12, 0x0007c008048503fe009f1aff
     6c2:	0007c008 
     6c6:	1880                	.insn	2, 0x1880
     6c8:	7d08                	.insn	2, 0x7d08
     6ca:	3d00                	.insn	2, 0x3d00
     6cc:	0829                	.insn	2, 0x0829
     6ce:	009f1aff 0491048a 	.insn	12, 0x0007ec080491048a009f1aff
     6d6:	0007ec08 
     6da:	1480                	.insn	2, 0x1480
     6dc:	6901                	.insn	2, 0x6901
     6de:	9600                	.insn	2, 0x9600
     6e0:	9b04                	.insn	2, 0x9b04
     6e2:	0804                	.insn	2, 0x0804
     6e4:	0824                	.insn	2, 0x0824
     6e6:	8000                	.insn	2, 0x8000
     6e8:	0808                	.insn	2, 0x0808
     6ea:	007a                	.insn	2, 0x007a
     6ec:	2930                	.insn	2, 0x2930
     6ee:	ff08                	.insn	2, 0xff08
     6f0:	9f1a                	.insn	2, 0x9f1a
     6f2:	a300                	.insn	2, 0xa300
     6f4:	a804                	.insn	2, 0xa804
     6f6:	0804                	.insn	2, 0x0804
     6f8:	0858                	.insn	2, 0x0858
     6fa:	8000                	.insn	2, 0x8000
     6fc:	0808                	.insn	2, 0x0808
     6fe:	007a                	.insn	2, 0x007a
     700:	2930                	.insn	2, 0x2930
     702:	ff08                	.insn	2, 0xff08
     704:	9f1a                	.insn	2, 0x9f1a
     706:	0000                	.insn	2, 0x0000
     708:	2828                	.insn	2, 0x2828
     70a:	0600                	.insn	2, 0x0600
     70c:	09e0                	.insn	2, 0x09e0
     70e:	8000                	.insn	2, 0x8000
     710:	0004                	.insn	2, 0x0004
     712:	02a8                	.insn	2, 0x02a8
     714:	5a01                	.insn	2, 0x5a01
     716:	a804                	.insn	2, 0xa804
     718:	dc02                	.insn	2, 0xdc02
     71a:	0a02                	.insn	2, 0x0a02
     71c:	0aa503a3          	sb	a0,167(a0)
     720:	a832a82b          	.insn	4, 0xa832a82b
     724:	9f00                	.insn	2, 0x9f00
     726:	0400                	.insn	2, 0x0400
     728:	29292423          	sw	s2,648(s2)
     72c:	06003737          	lui	a4,0x6003
     730:	09ec                	.insn	2, 0x09ec
     732:	8000                	.insn	2, 0x8000
     734:	0004                	.insn	2, 0x0004
     736:	01a4                	.insn	2, 0x01a4
     738:	5f01                	.insn	2, 0x5f01
     73a:	8804                	.insn	2, 0x8804
     73c:	ab02                	.insn	2, 0xab02
     73e:	0102                	.insn	2, 0x0102
     740:	045f 02ab 02cc      	.insn	6, 0x02cc02ab045f
     746:	9102                	.insn	2, 0x9102
     748:	0468                	.insn	2, 0x0468
     74a:	02cc                	.insn	2, 0x02cc
     74c:	02d0                	.insn	2, 0x02d0
     74e:	7202                	.insn	2, 0x7202
     750:	0068                	.insn	2, 0x0068
     752:	60081f0f          	.insn	4, 0x60081f0f
     756:	000a                	.insn	2, 0x000a
     758:	2480                	.insn	2, 0x2480
     75a:	5f01                	.insn	2, 0x5f01
     75c:	1800                	.insn	2, 0x1800
     75e:	081f 0a74 8000      	.insn	6, 0x80000a74081f
     764:	0210                	.insn	2, 0x0210
     766:	9f3a                	.insn	2, 0x9f3a
     768:	1800                	.insn	2, 0x1800
     76a:	081f 0a74 8000      	.insn	6, 0x80000a74081f
     770:	0510                	.insn	2, 0x0510
     772:	00467803          	.insn	4, 0x00467803
     776:	0080                	.insn	2, 0x0080
     778:	1f18                	.insn	2, 0x1f18
     77a:	7408                	.insn	2, 0x7408
     77c:	000a                	.insn	2, 0x000a
     77e:	1080                	.insn	2, 0x1080
     780:	0309                	.insn	2, 0x0309
     782:	4680                	.insn	2, 0x4680
     784:	8000                	.insn	2, 0x8000
     786:	2306                	.insn	2, 0x2306
     788:	9f0c                	.insn	2, 0x9f0c
     78a:	1b00                	.insn	2, 0x1b00
     78c:	081f 0a74 8000      	.insn	6, 0x80000a74081f
     792:	0210                	.insn	2, 0x0210
     794:	9f3c                	.insn	2, 0x9f3c
     796:	3100                	.insn	2, 0x3100
     798:	0835                	.insn	2, 0x0835
     79a:	0b34                	.insn	2, 0x0b34
     79c:	8000                	.insn	2, 0x8000
     79e:	0200                	.insn	2, 0x0200
     7a0:	9f36                	.insn	2, 0x9f36
     7a2:	3100                	.insn	2, 0x3100
     7a4:	0835                	.insn	2, 0x0835
     7a6:	0b34                	.insn	2, 0x0b34
     7a8:	8000                	.insn	2, 0x8000
     7aa:	0200                	.insn	2, 0x0200
     7ac:	9f3a                	.insn	2, 0x9f3a
     7ae:	3100                	.insn	2, 0x3100
     7b0:	0835                	.insn	2, 0x0835
     7b2:	0b34                	.insn	2, 0x0b34
     7b4:	8000                	.insn	2, 0x8000
     7b6:	0300                	.insn	2, 0x0300
     7b8:	0c7f 009f 3534 3408 	.insn	10, 0x000b34083534009f0c7f
     7c0:	000b 
     7c2:	0080                	.insn	2, 0x0080
     7c4:	3802                	.insn	2, 0x3802
     7c6:	009f 0b06 0f0b      	.insn	6, 0x0f0b0b06009f
     7cc:	1110100f          	.insn	4, 0x1110100f
     7d0:	f406                	.insn	2, 0xf406
     7d2:	0008                	.insn	2, 0x0008
     7d4:	0480                	.insn	2, 0x0480
     7d6:	0800                	.insn	2, 0x0800
     7d8:	7a06                	.insn	2, 0x7a06
     7da:	0600                	.insn	2, 0x0600
     7dc:	049f0a23          	sb	s1,84(t5) # a5009054 <_sp+0x1d009054>
     7e0:	1808                	.insn	2, 0x1808
     7e2:	7a06                	.insn	2, 0x7a06
     7e4:	0600                	.insn	2, 0x0600
     7e6:	049f0923          	sb	s1,82(t5)
     7ea:	1c18                	.insn	2, 0x1c18
     7ec:	5f01                	.insn	2, 0x5f01
     7ee:	1c04                	.insn	2, 0x1c04
     7f0:	0620                	.insn	2, 0x0620
     7f2:	007a                	.insn	2, 0x007a
     7f4:	2306                	.insn	2, 0x2306
     7f6:	9f09                	.insn	2, 0x9f09
     7f8:	0900                	.insn	2, 0x0900
     7fa:	0810                	.insn	2, 0x0810
     7fc:	0930                	.insn	2, 0x0930
     7fe:	8000                	.insn	2, 0x8000
     800:	0210                	.insn	2, 0x0210
     802:	9f3a                	.insn	2, 0x9f3a
     804:	0900                	.insn	2, 0x0900
     806:	0810                	.insn	2, 0x0810
     808:	0930                	.insn	2, 0x0930
     80a:	8000                	.insn	2, 0x8000
     80c:	0510                	.insn	2, 0x0510
     80e:	00467803          	.insn	4, 0x00467803
     812:	0080                	.insn	2, 0x0080
     814:	1009                	.insn	2, 0x1009
     816:	3008                	.insn	2, 0x3008
     818:	0009                	.insn	2, 0x0009
     81a:	1080                	.insn	2, 0x1080
     81c:	0309                	.insn	2, 0x0309
     81e:	4680                	.insn	2, 0x4680
     820:	8000                	.insn	2, 0x8000
     822:	2306                	.insn	2, 0x2306
     824:	9f0c                	.insn	2, 0x9f0c
     826:	0c00                	.insn	2, 0x0c00
     828:	0810                	.insn	2, 0x0810
     82a:	0930                	.insn	2, 0x0930
     82c:	8000                	.insn	2, 0x8000
     82e:	0210                	.insn	2, 0x0210
     830:	9f3c                	.insn	2, 0x9f3c
     832:	0300                	.insn	2, 0x0300
     834:	0800                	.insn	2, 0x0800
     836:	0944                	.insn	2, 0x0944
     838:	8000                	.insn	2, 0x8000
     83a:	0e30                	.insn	2, 0x0e30
     83c:	00467103          	.insn	4, 0x00467103
     840:	9480                	.insn	2, 0x9480
     842:	0801                	.insn	2, 0x0801
     844:	2941                	.insn	2, 0x2941
     846:	ff08                	.insn	2, 0xff08
     848:	9f1a                	.insn	2, 0x9f1a
     84a:	0300                	.insn	2, 0x0300
     84c:	0809                	.insn	2, 0x0809
     84e:	098c                	.insn	2, 0x098c
     850:	8000                	.insn	2, 0x8000
     852:	0108                	.insn	2, 0x0108
     854:	005a                	.insn	2, 0x005a
     856:	0006                	.insn	2, 0x0006
     858:	8c08                	.insn	2, 0x8c08
     85a:	0009                	.insn	2, 0x0009
     85c:	5480                	.insn	2, 0x5480
     85e:	5a01                	.insn	2, 0x5a01
     860:	0f00                	.insn	2, 0x0f00
     862:	0812                	.insn	2, 0x0812
     864:	09b4                	.insn	2, 0x09b4
     866:	8000                	.insn	2, 0x8000
     868:	0210                	.insn	2, 0x0210
     86a:	9f31                	.insn	2, 0x9f31
     86c:	0e00                	.insn	2, 0x0e00
     86e:	0812                	.insn	2, 0x0812
     870:	09b4                	.insn	2, 0x09b4
     872:	8000                	.insn	2, 0x8000
     874:	0110                	.insn	2, 0x0110
     876:	0500005b          	.insn	4, 0x0500005b
     87a:	0605                	.insn	2, 0x0605
     87c:	0006                	.insn	2, 0x0006
     87e:	3c06                	.insn	2, 0x3c06
     880:	0480000b          	.insn	4, 0x0480000b
     884:	0400                	.insn	2, 0x0400
     886:	5a01                	.insn	2, 0x5a01
     888:	0404                	.insn	2, 0x0404
     88a:	0308                	.insn	2, 0x0308
     88c:	7e7a                	.insn	2, 0x7e7a
     88e:	049f 1008 a30a      	.insn	6, 0xa30a1008049f
     894:	2b0aa503          	lw	a0,688(s5)
     898:	32a8                	.insn	2, 0x32a8
     89a:	00a8                	.insn	2, 0x00a8
     89c:	009f 0503 0605      	.insn	6, 0x06050503009f
     8a2:	0006                	.insn	2, 0x0006
     8a4:	3c06                	.insn	2, 0x3c06
     8a6:	0480000b          	.insn	4, 0x0480000b
     8aa:	0400                	.insn	2, 0x0400
     8ac:	9f027a03          	.insn	4, 0x9f027a03
     8b0:	0404                	.insn	2, 0x0404
     8b2:	0108                	.insn	2, 0x0108
     8b4:	045a                	.insn	2, 0x045a
     8b6:	1008                	.insn	2, 0x1008
     8b8:	a30c                	.insn	2, 0xa30c
     8ba:	2b0aa503          	lw	a0,688(s5)
     8be:	32a8                	.insn	2, 0x32a8
     8c0:	00a8                	.insn	2, 0x00a8
     8c2:	009f0223          	sb	s1,4(t5)
     8c6:	0a00                	.insn	2, 0x0a00
     8c8:	000a                	.insn	2, 0x000a
     8ca:	4c06                	.insn	2, 0x4c06
     8cc:	0480000b          	.insn	4, 0x0480000b
     8d0:	2400                	.insn	2, 0x2400
     8d2:	5a01                	.insn	2, 0x5a01
     8d4:	2404                	.insn	2, 0x2404
     8d6:	0a70                	.insn	2, 0x0a70
     8d8:	0aa503a3          	sb	a0,167(a0)
     8dc:	a832a82b          	.insn	4, 0xa832a82b
     8e0:	9f00                	.insn	2, 0x9f00
     8e2:	0000                	.insn	2, 0x0000
     8e4:	2121                	.insn	2, 0x2121
     8e6:	0600                	.insn	2, 0x0600
     8e8:	0b4c                	.insn	2, 0x0b4c
     8ea:	8000                	.insn	2, 0x8000
     8ec:	0004                	.insn	2, 0x0004
     8ee:	0154                	.insn	2, 0x0154
     8f0:	7054045b          	.insn	4, 0x7054045b
     8f4:	a30a                	.insn	2, 0xa30a
     8f6:	2b0ba503          	lw	a0,688(s7) # 16f0 <__stack_size-0x1ffe910>
     8fa:	32a8                	.insn	2, 0x32a8
     8fc:	00a8                	.insn	2, 0x00a8
     8fe:	009f 0900 1d09      	.insn	6, 0x1d090900009f
     904:	201d                	.insn	2, 0x201d
     906:	2120                	.insn	2, 0x2120
     908:	0021                	.insn	2, 0x0021
     90a:	4c06                	.insn	2, 0x4c06
     90c:	0480000b          	.insn	4, 0x0480000b
     910:	2000                	.insn	2, 0x2000
     912:	5c01                	.insn	2, 0x5c01
     914:	2004                	.insn	2, 0x2004
     916:	0348                	.insn	2, 0x0348
     918:	7b7e                	.insn	2, 0x7b7e
     91a:	049f 5048 7d06      	.insn	6, 0x7d065048049f
     920:	0614                	.insn	2, 0x0614
     922:	1c35                	.insn	2, 0x1c35
     924:	049f 5450 7b0e      	.insn	6, 0x7b0e5450049f
     92a:	7c00                	.insn	2, 0x7c00
     92c:	2200                	.insn	2, 0x2200
     92e:	007f 2322 0614 1c35 	.insn	10, 0x049f1c3506142322007f
     936:	049f 
     938:	7054                	.insn	2, 0x7054
     93a:	a30a                	.insn	2, 0xa30a
     93c:	2b0ca503          	lw	a0,688(s9)
     940:	32a8                	.insn	2, 0x32a8
     942:	00a8                	.insn	2, 0x00a8
     944:	009f 1300 1513      	.insn	6, 0x15131300009f
     94a:	0015                	.insn	2, 0x0015
     94c:	4c06                	.insn	2, 0x4c06
     94e:	0480000b          	.insn	4, 0x0480000b
     952:	3800                	.insn	2, 0x3800
     954:	5d01                	.insn	2, 0x5d01
     956:	3804                	.insn	2, 0x3804
     958:	0240                	.insn	2, 0x0240
     95a:	007a                	.insn	2, 0x007a
     95c:	4004                	.insn	2, 0x4004
     95e:	0a70                	.insn	2, 0x0a70
     960:	0da503a3          	sb	s10,199(a0)
     964:	a832a82b          	.insn	4, 0xa832a82b
     968:	9f00                	.insn	2, 0x9f00
     96a:	1100                	.insn	2, 0x1100
     96c:	1616                	.insn	2, 0x1616
     96e:	1a1a                	.insn	2, 0x1a1a
     970:	1d1d                	.insn	2, 0x1d1d
     972:	2020                	.insn	2, 0x2020
     974:	2121                	.insn	2, 0x2121
     976:	0600                	.insn	2, 0x0600
     978:	0b80                	.insn	2, 0x0b80
     97a:	8000                	.insn	2, 0x8000
     97c:	0004                	.insn	2, 0x0004
     97e:	010c                	.insn	2, 0x010c
     980:	045e                	.insn	2, 0x045e
     982:	100c                	.insn	2, 0x100c
     984:	9f017e03          	.insn	4, 0x9f017e03
     988:	1004                	.insn	2, 0x1004
     98a:	0314                	.insn	2, 0x0314
     98c:	027e                	.insn	2, 0x027e
     98e:	049f 1c14 7d06      	.insn	6, 0x7d061c14049f
     994:	0614                	.insn	2, 0x0614
     996:	049f0223          	sb	s1,68(t5)
     99a:	201c                	.insn	2, 0x201c
     99c:	7b0e                	.insn	2, 0x7b0e
     99e:	7c00                	.insn	2, 0x7c00
     9a0:	2200                	.insn	2, 0x2200
     9a2:	007f 2322 0614 0223 	.insn	10, 0x049f022306142322007f
     9aa:	049f 
     9ac:	3c20                	.insn	2, 0x3c20
     9ae:	a30c                	.insn	2, 0xa30c
     9b0:	2b0ca503          	lw	a0,688(s9)
     9b4:	32a8                	.insn	2, 0x32a8
     9b6:	00a8                	.insn	2, 0x00a8
     9b8:	009f0723          	sb	s1,14(t5)
     9bc:	1d05                	.insn	2, 0x1d05
     9be:	201d                	.insn	2, 0x201d
     9c0:	2120                	.insn	2, 0x2120
     9c2:	2321                	.insn	2, 0x2321
     9c4:	50060023          	sb	zero,1280(a2)
     9c8:	0480000b          	.insn	4, 0x0480000b
     9cc:	4400                	.insn	2, 0x4400
     9ce:	5e01                	.insn	2, 0x5e01
     9d0:	4404                	.insn	2, 0x4404
     9d2:	024c                	.insn	2, 0x024c
     9d4:	147d                	.insn	2, 0x147d
     9d6:	4c04                	.insn	2, 0x4c04
     9d8:	0a50                	.insn	2, 0x0a50
     9da:	007c007b          	.insn	4, 0x007c007b
     9de:	7f22                	.insn	2, 0x7f22
     9e0:	2200                	.insn	2, 0x2200
     9e2:	50041423          	sh	zero,1288(s0)
     9e6:	115c                	.insn	2, 0x115c
     9e8:	007c                	.insn	2, 0x007c
     9ea:	007f a322 a503 2b0b 	.insn	10, 0x32a82b0ba503a322007f
     9f2:	32a8 
     9f4:	00a8                	.insn	2, 0x00a8
     9f6:	2322                	.insn	2, 0x2322
     9f8:	0414                	.insn	2, 0x0414
     9fa:	6c5c                	.insn	2, 0x6c5c
     9fc:	a30c                	.insn	2, 0xa30c
     9fe:	2b0ca503          	lw	a0,688(s9)
     a02:	32a8                	.insn	2, 0x32a8
     a04:	00a8                	.insn	2, 0x00a8
     a06:	009f0523          	sb	s1,10(t5)
     a0a:	0800                	.insn	2, 0x0800
     a0c:	0908                	.insn	2, 0x0908
     a0e:	0d09                	.insn	2, 0x0d09
     a10:	000d                	.insn	2, 0x000d
     a12:	bc06                	.insn	2, 0xbc06
     a14:	0480000b          	.insn	4, 0x0480000b
     a18:	0800                	.insn	2, 0x0800
     a1a:	5a01                	.insn	2, 0x5a01
     a1c:	0804                	.insn	2, 0x0804
     a1e:	0a0c                	.insn	2, 0x0a0c
     a20:	0aa503a3          	sb	a0,167(a0)
     a24:	a839a82b          	.insn	4, 0xa839a82b
     a28:	9f00                	.insn	2, 0x9f00
     a2a:	0c04                	.insn	2, 0x0c04
     a2c:	0118                	.insn	2, 0x0118
     a2e:	045a                	.insn	2, 0x045a
     a30:	1c18                	.insn	2, 0x1c18
     a32:	0305                	.insn	2, 0x0305
     a34:	4671                	.insn	2, 0x4671
     a36:	8000                	.insn	2, 0x8000
     a38:	0400                	.insn	2, 0x0400
     a3a:	0808                	.insn	2, 0x0808
     a3c:	0909                	.insn	2, 0x0909
     a3e:	0d0d                	.insn	2, 0x0d0d
     a40:	0600                	.insn	2, 0x0600
     a42:	0bbc                	.insn	2, 0x0bbc
     a44:	8000                	.insn	2, 0x8000
     a46:	0004                	.insn	2, 0x0004
     a48:	0108                	.insn	2, 0x0108
     a4a:	045a                	.insn	2, 0x045a
     a4c:	0c08                	.insn	2, 0x0c08
     a4e:	a30a                	.insn	2, 0xa30a
     a50:	2b0aa503          	lw	a0,688(s5)
     a54:	39a8                	.insn	2, 0x39a8
     a56:	00a8                	.insn	2, 0x00a8
     a58:	049f 180c 5a01      	.insn	6, 0x5a01180c049f
     a5e:	1804                	.insn	2, 0x1804
     a60:	051c                	.insn	2, 0x051c
     a62:	00467103          	.insn	4, 0x00467103
     a66:	0080                	.insn	2, 0x0080
     a68:	0805                	.insn	2, 0x0805
     a6a:	0908                	.insn	2, 0x0908
     a6c:	0d09                	.insn	2, 0x0d09
     a6e:	000d                	.insn	2, 0x000d
     a70:	bc06                	.insn	2, 0xbc06
     a72:	0480000b          	.insn	4, 0x0480000b
     a76:	0800                	.insn	2, 0x0800
     a78:	5a01                	.insn	2, 0x5a01
     a7a:	0804                	.insn	2, 0x0804
     a7c:	0a0c                	.insn	2, 0x0a0c
     a7e:	0aa503a3          	sb	a0,167(a0)
     a82:	a839a82b          	.insn	4, 0xa839a82b
     a86:	9f00                	.insn	2, 0x9f00
     a88:	0c04                	.insn	2, 0x0c04
     a8a:	0118                	.insn	2, 0x0118
     a8c:	045a                	.insn	2, 0x045a
     a8e:	1c18                	.insn	2, 0x1c18
     a90:	0305                	.insn	2, 0x0305
     a92:	4671                	.insn	2, 0x4671
     a94:	8000                	.insn	2, 0x8000
     a96:	0000                	.insn	2, 0x0000
     a98:	1515                	.insn	2, 0x1515
     a9a:	1d1d                	.insn	2, 0x1d1d
     a9c:	0600                	.insn	2, 0x0600
     a9e:	0bd8                	.insn	2, 0x0bd8
     aa0:	8000                	.insn	2, 0x8000
     aa2:	0004                	.insn	2, 0x0004
     aa4:	045a0117          	auipc	sp,0x45a0
     aa8:	a30a4017          	auipc	zero,0xa30a4
     aac:	2b0aa503          	lw	a0,688(s5)
     ab0:	32a8                	.insn	2, 0x32a8
     ab2:	00a8                	.insn	2, 0x00a8
     ab4:	049f 4440 5a01      	.insn	6, 0x5a014440049f
     aba:	0000                	.insn	2, 0x0000
     abc:	1515                	.insn	2, 0x1515
     abe:	1d1d                	.insn	2, 0x1d1d
     ac0:	0600                	.insn	2, 0x0600
     ac2:	0bd8                	.insn	2, 0x0bd8
     ac4:	8000                	.insn	2, 0x8000
     ac6:	0004                	.insn	2, 0x0004
     ac8:	045b0117          	auipc	sp,0x45b0
     acc:	a30a4017          	auipc	zero,0xa30a4
     ad0:	2b0ba503          	lw	a0,688(s7)
     ad4:	32a8                	.insn	2, 0x32a8
     ad6:	00a8                	.insn	2, 0x00a8
     ad8:	049f 4440 5b01      	.insn	6, 0x5b014440049f
     ade:	0500                	.insn	2, 0x0500
     ae0:	1111                	.insn	2, 0x1111
     ae2:	1818                	.insn	2, 0x1818
     ae4:	1d1c                	.insn	2, 0x1d1c
     ae6:	0600                	.insn	2, 0x0600
     ae8:	0bd8                	.insn	2, 0x0bd8
     aea:	8000                	.insn	2, 0x8000
     aec:	0004                	.insn	2, 0x0004
     aee:	020c                	.insn	2, 0x020c
     af0:	9f32                	.insn	2, 0x9f32
     af2:	0c04                	.insn	2, 0x0c04
     af4:	0220                	.insn	2, 0x0220
     af6:	20049f33          	.insn	4, 0x20049f33
     afa:	0230                	.insn	2, 0x0230
     afc:	9f3a                	.insn	2, 0x9f3a
     afe:	4004                	.insn	2, 0x4004
     b00:	0244                	.insn	2, 0x0244
     b02:	9f32                	.insn	2, 0x9f32
     b04:	0700                	.insn	2, 0x0700
     b06:	220e                	.insn	2, 0x220e
     b08:	0600                	.insn	2, 0x0600
     b0a:	0bd8                	.insn	2, 0x0bd8
     b0c:	8000                	.insn	2, 0x8000
     b0e:	0004                	.insn	2, 0x0004
     b10:	020c                	.insn	2, 0x020c
     b12:	027a                	.insn	2, 0x027a
     b14:	4004                	.insn	2, 0x4004
     b16:	0244                	.insn	2, 0x0244
     b18:	027a                	.insn	2, 0x027a
     b1a:	0700                	.insn	2, 0x0700
     b1c:	220e                	.insn	2, 0x220e
     b1e:	0600                	.insn	2, 0x0600
     b20:	0bd8                	.insn	2, 0x0bd8
     b22:	8000                	.insn	2, 0x8000
     b24:	0004                	.insn	2, 0x0004
     b26:	020c                	.insn	2, 0x020c
     b28:	4004037b          	.insn	4, 0x4004037b
     b2c:	0244                	.insn	2, 0x0244
     b2e:	0b00037b          	.insn	4, 0x0b00037b
     b32:	1414                	.insn	2, 0x1414
     b34:	1d15                	.insn	2, 0x1d15
     b36:	0600                	.insn	2, 0x0600
     b38:	0bd8                	.insn	2, 0x0bd8
     b3a:	8000                	.insn	2, 0x8000
     b3c:	0004                	.insn	2, 0x0004
     b3e:	0214                	.insn	2, 0x0214
     b40:	027a                	.insn	2, 0x027a
     b42:	1404                	.insn	2, 0x1404
     b44:	045f0117          	auipc	sp,0x45f0
     b48:	4440                	.insn	2, 0x4440
     b4a:	7a02                	.insn	2, 0x7a02
     b4c:	0002                	.insn	2, 0x0002
     b4e:	140c                	.insn	2, 0x140c
     b50:	1514                	.insn	2, 0x1514
     b52:	001d                	.insn	2, 0x001d
     b54:	d806                	.insn	2, 0xd806
     b56:	0480000b          	.insn	4, 0x0480000b
     b5a:	1400                	.insn	2, 0x1400
     b5c:	7a02                	.insn	2, 0x7a02
     b5e:	0402                	.insn	2, 0x0402
     b60:	1714                	.insn	2, 0x1714
     b62:	5f01                	.insn	2, 0x5f01
     b64:	4004                	.insn	2, 0x4004
     b66:	0244                	.insn	2, 0x0244
     b68:	027a                	.insn	2, 0x027a
     b6a:	0000                	.insn	2, 0x0000
     b6c:	0505                	.insn	2, 0x0505
     b6e:	0606                	.insn	2, 0x0606
     b70:	0600                	.insn	2, 0x0600
     b72:	0c1c                	.insn	2, 0x0c1c
     b74:	8000                	.insn	2, 0x8000
     b76:	0004                	.insn	2, 0x0004
     b78:	0104                	.insn	2, 0x0104
     b7a:	045a                	.insn	2, 0x045a
     b7c:	0804                	.insn	2, 0x0804
     b7e:	9f027a03          	.insn	4, 0x9f027a03
     b82:	0804                	.insn	2, 0x0804
     b84:	0a0c                	.insn	2, 0x0a0c
     b86:	0aa503a3          	sb	a0,167(a0)
     b8a:	a832a82b          	.insn	4, 0xa832a82b
     b8e:	9f00                	.insn	2, 0x9f00
     b90:	0300                	.insn	2, 0x0300
     b92:	0505                	.insn	2, 0x0505
     b94:	0606                	.insn	2, 0x0606
     b96:	0600                	.insn	2, 0x0600
     b98:	0c1c                	.insn	2, 0x0c1c
     b9a:	8000                	.insn	2, 0x8000
     b9c:	0004                	.insn	2, 0x0004
     b9e:	0104                	.insn	2, 0x0104
     ba0:	045a                	.insn	2, 0x045a
     ba2:	0804                	.insn	2, 0x0804
     ba4:	9f027a03          	.insn	4, 0x9f027a03
     ba8:	0804                	.insn	2, 0x0804
     baa:	0a0c                	.insn	2, 0x0a0c
     bac:	0aa503a3          	sb	a0,167(a0)
     bb0:	a832a82b          	.insn	4, 0xa832a82b
     bb4:	9f00                	.insn	2, 0x9f00
     bb6:	eb00                	.insn	2, 0xeb00
     bb8:	05000007          	.insn	4, 0x05000007
     bbc:	0400                	.insn	2, 0x0400
     bbe:	0000                	.insn	2, 0x0000
     bc0:	0000                	.insn	2, 0x0000
     bc2:	0000                	.insn	2, 0x0000
     bc4:	0505                	.insn	2, 0x0505
     bc6:	1616                	.insn	2, 0x1616
     bc8:	0400                	.insn	2, 0x0400
     bca:	01a8                	.insn	2, 0x01a8
     bcc:	01dc                	.insn	2, 0x01dc
     bce:	5a01                	.insn	2, 0x5a01
     bd0:	dc04                	.insn	2, 0xdc04
     bd2:	ac01                	.insn	2, 0xac01
     bd4:	0102                	.insn	2, 0x0102
     bd6:	0466                	.insn	2, 0x0466
     bd8:	02ac                	.insn	2, 0x02ac
     bda:	0d9c                	.insn	2, 0x0d9c
     bdc:	a30a                	.insn	2, 0xa30a
     bde:	2b0aa503          	lw	a0,688(s5)
     be2:	32a8                	.insn	2, 0x32a8
     be4:	00a8                	.insn	2, 0x00a8
     be6:	009f 0e08 130e      	.insn	6, 0x130e0e08009f
     bec:	2d262613          	slti	a2,a2,722
     bf0:	2f2d                	.insn	2, 0x2f2d
     bf2:	3432                	.insn	2, 0x3432
     bf4:	3a34                	.insn	2, 0x3a34
     bf6:	423a                	.insn	2, 0x423a
     bf8:	4742                	.insn	2, 0x4742
     bfa:	4f4e4e47          	.insn	4, 0x4f4e4e47
     bfe:	eb02eb4f          	.insn	4, 0xeb02eb4f
     c02:	f102                	.insn	2, 0xf102
     c04:	f102                	.insn	2, 0xf102
     c06:	f402                	.insn	2, 0xf402
     c08:	f402                	.insn	2, 0xf402
     c0a:	f702                	.insn	2, 0xf702
     c0c:	f702                	.insn	2, 0xf702
     c0e:	f802                	.insn	2, 0xf802
     c10:	f802                	.insn	2, 0xf802
     c12:	fa02                	.insn	2, 0xfa02
     c14:	fa02                	.insn	2, 0xfa02
     c16:	fd02                	.insn	2, 0xfd02
     c18:	fd02                	.insn	2, 0xfd02
     c1a:	0002                	.insn	2, 0x0002
     c1c:	e404                	.insn	2, 0xe404
     c1e:	e401                	.insn	2, 0xe401
     c20:	0101                	.insn	2, 0x0101
     c22:	0466                	.insn	2, 0x0466
     c24:	01e4                	.insn	2, 0x01e4
     c26:	02a0                	.insn	2, 0x02a0
     c28:	9f018603          	lb	a2,-1552(gp) # b0e <__stack_size-0x1fff4f2>
     c2c:	a004                	.insn	2, 0xa004
     c2e:	cc02                	.insn	2, 0xcc02
     c30:	0102                	.insn	2, 0x0102
     c32:	0465                	.insn	2, 0x0465
     c34:	02cc                	.insn	2, 0x02cc
     c36:	02d4                	.insn	2, 0x02d4
     c38:	6601                	.insn	2, 0x6601
     c3a:	d404                	.insn	2, 0xd404
     c3c:	d802                	.insn	2, 0xd802
     c3e:	0102                	.insn	2, 0x0102
     c40:	0465                	.insn	2, 0x0465
     c42:	0394                	.insn	2, 0x0394
     c44:	0394                	.insn	2, 0x0394
     c46:	6501                	.insn	2, 0x6501
     c48:	9404                	.insn	2, 0x9404
     c4a:	0303ac03          	lw	s8,48(t2)
     c4e:	0286                	.insn	2, 0x0286
     c50:	049f 03ac 03cc      	.insn	6, 0x03cc03ac049f
     c56:	6601                	.insn	2, 0x6601
     c58:	cc04                	.insn	2, 0xcc04
     c5a:	0303dc03          	lhu	s8,48(t2)
     c5e:	7f86                	.insn	2, 0x7f86
     c60:	049f 03dc 03fc      	.insn	6, 0x03fc03dc049f
     c66:	6601                	.insn	2, 0x6601
     c68:	fc04                	.insn	2, 0xfc04
     c6a:	03048003          	lb	zero,48(s1) # 6000030 <__stack_size+0x4000030>
     c6e:	0186                	.insn	2, 0x0186
     c70:	049f 0480 0aac      	.insn	6, 0x0aac0480049f
     c76:	6601                	.insn	2, 0x6601
     c78:	ac04                	.insn	2, 0xac04
     c7a:	bc0a                	.insn	2, 0xbc0a
     c7c:	010a                	.insn	2, 0x010a
     c7e:	0465                	.insn	2, 0x0465
     c80:	0abc                	.insn	2, 0x0abc
     c82:	0abc                	.insn	2, 0x0abc
     c84:	9f028603          	lb	a2,-1552(t0)
     c88:	bc04                	.insn	2, 0xbc04
     c8a:	c80a                	.insn	2, 0xc80a
     c8c:	030a                	.insn	2, 0x030a
     c8e:	0386                	.insn	2, 0x0386
     c90:	049f 0ac8 0acc      	.insn	6, 0x0acc0ac8049f
     c96:	6601                	.insn	2, 0x6601
     c98:	cc04                	.insn	2, 0xcc04
     c9a:	cc0a                	.insn	2, 0xcc0a
     c9c:	030a                	.insn	2, 0x030a
     c9e:	0286                	.insn	2, 0x0286
     ca0:	049f 0acc 0ad8      	.insn	6, 0x0ad80acc049f
     ca6:	9f038603          	lb	a2,-1552(t2)
     caa:	d804                	.insn	2, 0xd804
     cac:	9c0a                	.insn	2, 0x9c0a
     cae:	010d                	.insn	2, 0x010d
     cb0:	0066                	.insn	2, 0x0066
     cb2:	1608                	.insn	2, 0x1608
     cb4:	f576766f          	jal	a2,fff68c0a <_sp+0x77f68c0a>
     cb8:	fc01                	.insn	2, 0xfc01
     cba:	ff01                	.insn	2, 0xff01
     cbc:	8401                	.insn	2, 0x8401
     cbe:	8f02                	.insn	2, 0x8f02
     cc0:	9302                	.insn	2, 0x9302
     cc2:	9702                	.insn	2, 0x9702
     cc4:	9d02                	.insn	2, 0x9d02
     cc6:	a102                	.insn	2, 0xa102
     cc8:	a502                	.insn	2, 0xa502
     cca:	eb02                	.insn	2, 0xeb02
     ccc:	ff02                	.insn	2, 0xff02
     cce:	8302                	.insn	2, 0x8302
     cd0:	94038c03          	lb	s8,-1728(t2)
     cd4:	ce039403          	lh	s0,-800(t2)
     cd8:	0003ce03          	lbu	t3,0(t2)
     cdc:	e404                	.insn	2, 0xe404
     cde:	ac01                	.insn	2, 0xac01
     ce0:	0102                	.insn	2, 0x0102
     ce2:	0459                	.insn	2, 0x0459
     ce4:	04ec                	.insn	2, 0x04ec
     ce6:	0588                	.insn	2, 0x0588
     ce8:	5c01                	.insn	2, 0x5c01
     cea:	8804                	.insn	2, 0x8804
     cec:	e405                	.insn	2, 0xe405
     cee:	04590107          	.insn	4, 0x04590107
     cf2:	07f4                	.insn	2, 0x07f4
     cf4:	0884                	.insn	2, 0x0884
     cf6:	5c01                	.insn	2, 0x5c01
     cf8:	9404                	.insn	2, 0x9404
     cfa:	ac08                	.insn	2, 0xac08
     cfc:	0108                	.insn	2, 0x0108
     cfe:	0465                	.insn	2, 0x0465
     d00:	08b8                	.insn	2, 0x08b8
     d02:	08c8                	.insn	2, 0x08c8
     d04:	9f047903          	.insn	4, 0x9f047903
     d08:	d404                	.insn	2, 0xd404
     d0a:	e408                	.insn	2, 0xe408
     d0c:	0308                	.insn	2, 0x0308
     d0e:	0479                	.insn	2, 0x0479
     d10:	049f 08f0 0aac      	.insn	6, 0x0aac08f0049f
     d16:	5901                	.insn	2, 0x5901
     d18:	e004                	.insn	2, 0xe004
     d1a:	f00a                	.insn	2, 0xf00a
     d1c:	030a                	.insn	2, 0x030a
     d1e:	0479                	.insn	2, 0x0479
     d20:	049f 0bac 0bc4      	.insn	6, 0x0bc40bac049f
     d26:	6501                	.insn	2, 0x6501
     d28:	c404                	.insn	2, 0xc404
     d2a:	010d8c0b          	.insn	4, 0x010d8c0b
     d2e:	0459                	.insn	2, 0x0459
     d30:	0d8c                	.insn	2, 0x0d8c
     d32:	0d9c                	.insn	2, 0x0d9c
     d34:	5c01                	.insn	2, 0x5c01
     d36:	6900                	.insn	2, 0x6900
     d38:	f876                	.insn	2, 0xf876
     d3a:	fc01                	.insn	2, 0xfc01
     d3c:	8f01                	.insn	2, 0x8f01
     d3e:	9702                	.insn	2, 0x9702
     d40:	9902                	.insn	2, 0x9902
     d42:	a102                	.insn	2, 0xa102
     d44:	fe02                	.insn	2, 0xfe02
     d46:	8302                	.insn	2, 0x8302
     d48:	84038303          	lb	t1,-1984(t2)
     d4c:	85038403          	lb	s0,-1968(t2)
     d50:	86038503          	lb	a0,-1952(t2)
     d54:	0003ce03          	lbu	t3,0(t2)
     d58:	d804                	.insn	2, 0xd804
     d5a:	8804                	.insn	2, 0x8804
     d5c:	0205                	.insn	2, 0x0205
     d5e:	9f3a                	.insn	2, 0x9f3a
     d60:	e404                	.insn	2, 0xe404
     d62:	0207f407          	.insn	4, 0x0207f407
     d66:	9f38                	.insn	2, 0x9f38
     d68:	ac04                	.insn	2, 0xac04
     d6a:	c808                	.insn	2, 0xc808
     d6c:	0208                	.insn	2, 0x0208
     d6e:	9f32                	.insn	2, 0x9f32
     d70:	c804                	.insn	2, 0xc804
     d72:	e408                	.insn	2, 0xe408
     d74:	0208                	.insn	2, 0x0208
     d76:	9f40                	.insn	2, 0x9f40
     d78:	dc04                	.insn	2, 0xdc04
     d7a:	f00a                	.insn	2, 0xf00a
     d7c:	020a                	.insn	2, 0x020a
     d7e:	9f38                	.insn	2, 0x9f38
     d80:	f004                	.insn	2, 0xf004
     d82:	800a                	.insn	2, 0x800a
     d84:	9f3a020b          	.insn	4, 0x9f3a020b
     d88:	8004                	.insn	2, 0x8004
     d8a:	020b8c0b          	.insn	4, 0x020b8c0b
     d8e:	9f40                	.insn	2, 0x9f40
     d90:	8c04                	.insn	2, 0x8c04
     d92:	020b980b          	.insn	4, 0x020b980b
     d96:	9f32                	.insn	2, 0x9f32
     d98:	8c04                	.insn	2, 0x8c04
     d9a:	9c0d                	.insn	2, 0x9c0d
     d9c:	020d                	.insn	2, 0x020d
     d9e:	9f3a                	.insn	2, 0x9f3a
     da0:	7700                	.insn	2, 0x7700
     da2:	877c7b7b          	.insn	4, 0x877c7b7b
     da6:	8f01                	.insn	2, 0x8f01
     da8:	9201                	.insn	2, 0x9201
     daa:	bc01                	.insn	2, 0xbc01
     dac:	bd01                	.insn	2, 0xbd01
     dae:	c401                	.insn	2, 0xc401
     db0:	c401                	.insn	2, 0xc401
     db2:	c501                	.insn	2, 0xc501
     db4:	c901                	.insn	2, 0xc901
     db6:	d401                	.insn	2, 0xd401
     db8:	d401                	.insn	2, 0xd401
     dba:	d701                	.insn	2, 0xd701
     dbc:	e601                	.insn	2, 0xe601
     dbe:	eb02                	.insn	2, 0xeb02
     dc0:	c402                	.insn	2, 0xc402
     dc2:	0403c603          	lbu	a2,64(t2)
     dc6:	0588                	.insn	2, 0x0588
     dc8:	05a4                	.insn	2, 0x05a4
     dca:	3002                	.insn	2, 0x3002
     dcc:	049f 05a4 05a8      	.insn	6, 0x05a805a4049f
     dd2:	6501                	.insn	2, 0x6501
     dd4:	c004                	.insn	2, 0xc004
     dd6:	dc05                	.insn	2, 0xdc05
     dd8:	0105                	.insn	2, 0x0105
     dda:	0465                	.insn	2, 0x0465
     ddc:	05ec                	.insn	2, 0x05ec
     dde:	06e4                	.insn	2, 0x06e4
     de0:	6501                	.insn	2, 0x6501
     de2:	e804                	.insn	2, 0xe804
     de4:	f806                	.insn	2, 0xf806
     de6:	0806                	.insn	2, 0x0806
     de8:	0085                	.insn	2, 0x0085
     dea:	0091                	.insn	2, 0x0091
     dec:	231c                	.insn	2, 0x231c
     dee:	f8049f6f          	jal	t5,fff4a56e <_sp+0x77f4a56e>
     df2:	fc06                	.insn	2, 0xfc06
     df4:	0806                	.insn	2, 0x0806
     df6:	0085                	.insn	2, 0x0085
     df8:	0091                	.insn	2, 0x0091
     dfa:	231c                	.insn	2, 0x231c
     dfc:	9f70                	.insn	2, 0x9f70
     dfe:	8004                	.insn	2, 0x8004
     e00:	08079407          	.insn	4, 0x08079407
     e04:	0085                	.insn	2, 0x0085
     e06:	0091                	.insn	2, 0x0091
     e08:	231c                	.insn	2, 0x231c
     e0a:	94049f6f          	jal	t5,fff49f4a <_sp+0x77f49f4a>
     e0e:	08079c07          	.insn	4, 0x08079c07
     e12:	0085                	.insn	2, 0x0085
     e14:	0091                	.insn	2, 0x0091
     e16:	231c                	.insn	2, 0x231c
     e18:	9f70                	.insn	2, 0x9f70
     e1a:	a004                	.insn	2, 0xa004
     e1c:	ac0a                	.insn	2, 0xac0a
     e1e:	010a                	.insn	2, 0x010a
     e20:	0465                	.insn	2, 0x0465
     e22:	0cd8                	.insn	2, 0x0cd8
     e24:	0ce0                	.insn	2, 0x0ce0
     e26:	6501                	.insn	2, 0x6501
     e28:	9300                	.insn	2, 0x9300
     e2a:	9d01                	.insn	2, 0x9d01
     e2c:	9d01                	.insn	2, 0x9d01
     e2e:	a301                	.insn	2, 0xa301
     e30:	a901                	.insn	2, 0xa901
     e32:	ab01                	.insn	2, 0xab01
     e34:	ab01                	.insn	2, 0xab01
     e36:	ad01                	.insn	2, 0xad01
     e38:	ad01                	.insn	2, 0xad01
     e3a:	b201                	.insn	2, 0xb201
     e3c:	b901                	.insn	2, 0xb901
     e3e:	bb01                	.insn	2, 0xbb01
     e40:	bd01                	.insn	2, 0xbd01
     e42:	d801                	.insn	2, 0xd801
     e44:	d801                	.insn	2, 0xd801
     e46:	da01                	.insn	2, 0xda01
     e48:	da01                	.insn	2, 0xda01
     e4a:	e901                	.insn	2, 0xe901
     e4c:	e901                	.insn	2, 0xe901
     e4e:	eb01                	.insn	2, 0xeb01
     e50:	eb01                	.insn	2, 0xeb01
     e52:	f501                	.insn	2, 0xf501
     e54:	a601                	.insn	2, 0xa601
     e56:	aa02                	.insn	2, 0xaa02
     e58:	aa02                	.insn	2, 0xaa02
     e5a:	b002                	.insn	2, 0xb002
     e5c:	c902                	.insn	2, 0xc902
     e5e:	cd02                	.insn	2, 0xcd02
     e60:	cd02                	.insn	2, 0xcd02
     e62:	da02                	.insn	2, 0xda02
     e64:	da02                	.insn	2, 0xda02
     e66:	dc02                	.insn	2, 0xdc02
     e68:	dc02                	.insn	2, 0xdc02
     e6a:	e602                	.insn	2, 0xe602
     e6c:	e602                	.insn	2, 0xe602
     e6e:	e802                	.insn	2, 0xe802
     e70:	e802                	.insn	2, 0xe802
     e72:	ea02                	.insn	2, 0xea02
     e74:	ea02                	.insn	2, 0xea02
     e76:	eb02                	.insn	2, 0xeb02
     e78:	9402                	.insn	2, 0x9402
     e7a:	95039503          	lh	a0,-1712(t2)
     e7e:	9b039603          	lh	a2,-1616(t2)
     e82:	a803a803          	lw	a6,-1408(t2)
     e86:	aa03a903          	lw	s2,-1376(t2)
     e8a:	b603b603          	.insn	4, 0xb603b603
     e8e:	ba03b703          	.insn	4, 0xba03b703
     e92:	c003be03          	.insn	4, 0xc003be03
     e96:	c403c403          	lbu	s0,-960(t2)
     e9a:	c603c603          	lbu	a2,-928(t2)
     e9e:	c803c803          	lbu	a6,-896(t2)
     ea2:	c903c903          	lbu	s2,-880(t2)
     ea6:	ca03ca03          	lbu	s4,-864(t2)
     eaa:	0403ce03          	lbu	t3,64(t2)
     eae:	05ec                	.insn	2, 0x05ec
     eb0:	06a0                	.insn	2, 0x06a0
     eb2:	6501                	.insn	2, 0x6501
     eb4:	a004                	.insn	2, 0xa004
     eb6:	a806                	.insn	2, 0xa806
     eb8:	0106                	.insn	2, 0x0106
     eba:	06bc0463          	beq	s8,a1,f22 <__stack_size-0x1fff0de>
     ebe:	06bc                	.insn	2, 0x06bc
     ec0:	6301                	.insn	2, 0x6301
     ec2:	bc04                	.insn	2, 0xbc04
     ec4:	c406                	.insn	2, 0xc406
     ec6:	0306                	.insn	2, 0x0306
     ec8:	049f0183          	lb	gp,73(t5)
     ecc:	06c4                	.insn	2, 0x06c4
     ece:	06c8                	.insn	2, 0x06c8
     ed0:	6301                	.insn	2, 0x6301
     ed2:	d804                	.insn	2, 0xd804
     ed4:	e006                	.insn	2, 0xe006
     ed6:	0106                	.insn	2, 0x0106
     ed8:	06e80463          	beq	a6,a4,f40 <__stack_size-0x1fff0c0>
     edc:	079c                	.insn	2, 0x079c
     ede:	7ef89103          	lh	sp,2031(a7)
     ee2:	9c04                	.insn	2, 0x9c04
     ee4:	0707a807          	.insn	4, 0x0707a807
     ee8:	f891                	.insn	2, 0xf891
     eea:	067e                	.insn	2, 0x067e
     eec:	049f0123          	sb	s1,66(t5)
     ef0:	07a8                	.insn	2, 0x07a8
     ef2:	07c0                	.insn	2, 0x07c0
     ef4:	6901                	.insn	2, 0x6901
     ef6:	c004                	.insn	2, 0xc004
     ef8:	0307cc07          	.insn	4, 0x0307cc07
     efc:	0189                	.insn	2, 0x0189
     efe:	049f 07cc 07e4      	.insn	6, 0x07e407cc049f
     f04:	6901                	.insn	2, 0x6901
     f06:	f004                	.insn	2, 0xf004
     f08:	fc08                	.insn	2, 0xfc08
     f0a:	0208                	.insn	2, 0x0208
     f0c:	9f30                	.insn	2, 0x9f30
     f0e:	fc04                	.insn	2, 0xfc04
     f10:	9c08                	.insn	2, 0x9c08
     f12:	0109                	.insn	2, 0x0109
     f14:	0465                	.insn	2, 0x0465
     f16:	09d8                	.insn	2, 0x09d8
     f18:	09e8                	.insn	2, 0x09e8
     f1a:	9f018503          	lb	a0,-1552(gp)
     f1e:	e804                	.insn	2, 0xe804
     f20:	fc09                	.insn	2, 0xfc09
     f22:	0109                	.insn	2, 0x0109
     f24:	046a                	.insn	2, 0x046a
     f26:	09fc                	.insn	2, 0x09fc
     f28:	0a88                	.insn	2, 0x0a88
     f2a:	9f018a03          	lb	s4,-1552(gp)
     f2e:	8804                	.insn	2, 0x8804
     f30:	a00a                	.insn	2, 0xa00a
     f32:	010a                	.insn	2, 0x010a
     f34:	046a                	.insn	2, 0x046a
     f36:	0aa0                	.insn	2, 0x0aa0
     f38:	0aa0                	.insn	2, 0x0aa0
     f3a:	6301                	.insn	2, 0x6301
     f3c:	a004                	.insn	2, 0xa004
     f3e:	a80a                	.insn	2, 0xa80a
     f40:	030a                	.insn	2, 0x030a
     f42:	049f0183          	lb	gp,73(t5)
     f46:	0aa8                	.insn	2, 0x0aa8
     f48:	0aac                	.insn	2, 0x0aac
     f4a:	6301                	.insn	2, 0x6301
     f4c:	c404                	.insn	2, 0xc404
     f4e:	010bc80b          	.insn	4, 0x010bc80b
     f52:	0465                	.insn	2, 0x0465
     f54:	0bc8                	.insn	2, 0x0bc8
     f56:	0bcc                	.insn	2, 0x0bcc
     f58:	9f018503          	lb	a0,-1552(gp)
     f5c:	e004                	.insn	2, 0xe004
     f5e:	010bf00b          	.insn	4, 0x010bf00b
     f62:	0bf00463          	beq	zero,t6,100a <__stack_size-0x1ffeff6>
     f66:	0bf4                	.insn	2, 0x0bf4
     f68:	9f018303          	lb	t1,-1552(gp)
     f6c:	fc04                	.insn	2, 0xfc04
     f6e:	010c900b          	.insn	4, 0x010c900b
     f72:	0c900463          	beq	zero,s1,103a <__stack_size-0x1ffefc6>
     f76:	0c94                	.insn	2, 0x0c94
     f78:	9f018303          	lb	t1,-1552(gp)
     f7c:	b004                	.insn	2, 0xb004
     f7e:	b80c                	.insn	2, 0xb80c
     f80:	010c                	.insn	2, 0x010c
     f82:	0465                	.insn	2, 0x0465
     f84:	0cd0                	.insn	2, 0x0cd0
     f86:	0cd8                	.insn	2, 0x0cd8
     f88:	6501                	.insn	2, 0x6501
     f8a:	d804                	.insn	2, 0xd804
     f8c:	e00c                	.insn	2, 0xe00c
     f8e:	010c                	.insn	2, 0x010c
     f90:	0ce00463          	beq	zero,a4,1058 <__stack_size-0x1ffefa8>
     f94:	0cf0                	.insn	2, 0x0cf0
     f96:	3002                	.insn	2, 0x3002
     f98:	049f 0cf0 0cfc      	.insn	6, 0x0cfc0cf0049f
     f9e:	3102                	.insn	2, 0x3102
     fa0:	049f 0cfc 0d84      	.insn	6, 0x0d840cfc049f
     fa6:	9f018503          	lb	a0,-1552(gp)
     faa:	8404                	.insn	2, 0x8404
     fac:	8c0d                	.insn	2, 0x8c0d
     fae:	010d                	.insn	2, 0x010d
     fb0:	0069                	.insn	2, 0x0069
     fb2:	3f3c                	.insn	2, 0x3f3c
     fb4:	b004483f 0203c003 	.insn	8, 0x0203c003b004483f
     fbc:	9f30                	.insn	2, 0x9f30
     fbe:	c004                	.insn	2, 0xc004
     fc0:	0103e803          	.insn	4, 0x0103e803
     fc4:	3b330067          	jalr	zero,947(t1)
     fc8:	f501983b          	.insn	4, 0xf501983b
     fcc:	a401                	.insn	2, 0xa401
     fce:	f102                	.insn	2, 0xf102
     fd0:	f302                	.insn	2, 0xf302
     fd2:	f302                	.insn	2, 0xf302
     fd4:	f802                	.insn	2, 0xf802
     fd6:	f802                	.insn	2, 0xf802
     fd8:	f902                	.insn	2, 0xf902
     fda:	f902                	.insn	2, 0xf902
     fdc:	fe02                	.insn	2, 0xfe02
     fde:	fe02                	.insn	2, 0xfe02
     fe0:	8b02                	.insn	2, 0x8b02
     fe2:	92038c03          	lb	s8,-1760(t2)
     fe6:	0003ce03          	lbu	t3,0(t2)
     fea:	9404                	.insn	2, 0x9404
     fec:	0203b003          	.insn	4, 0x0203b003
     ff0:	9f30                	.insn	2, 0x9f30
     ff2:	b004                	.insn	2, 0xb004
     ff4:	01068003          	lb	zero,16(a3)
     ff8:	07e4045b          	.insn	4, 0x07e4045b
     ffc:	08ec                	.insn	2, 0x08ec
     ffe:	5b01                	.insn	2, 0x5b01
    1000:	bc04                	.insn	2, 0xbc04
    1002:	bc0a                	.insn	2, 0xbc0a
    1004:	020a                	.insn	2, 0x020a
    1006:	9f30                	.insn	2, 0x9f30
    1008:	bc04                	.insn	2, 0xbc04
    100a:	cc0a                	.insn	2, 0xcc0a
    100c:	020a                	.insn	2, 0x020a
    100e:	9f31                	.insn	2, 0x9f31
    1010:	cc04                	.insn	2, 0xcc04
    1012:	cc0a                	.insn	2, 0xcc0a
    1014:	020a                	.insn	2, 0x020a
    1016:	9f30                	.insn	2, 0x9f30
    1018:	cc04                	.insn	2, 0xcc04
    101a:	dc0a                	.insn	2, 0xdc0a
    101c:	020a                	.insn	2, 0x020a
    101e:	9f32                	.insn	2, 0x9f32
    1020:	dc04                	.insn	2, 0xdc04
    1022:	a70a                	.insn	2, 0xa70a
    1024:	045b010b          	.insn	4, 0x045b010b
    1028:	0bac                	.insn	2, 0x0bac
    102a:	5b010bbb          	.insn	4, 0x5b010bbb
    102e:	8c04                	.insn	2, 0x8c04
    1030:	9c0d                	.insn	2, 0x9c0d
    1032:	010d                	.insn	2, 0x010d
    1034:	906f005b          	.insn	4, 0x906f005b
    1038:	9001                	.insn	2, 0x9001
    103a:	9501                	.insn	2, 0x9501
    103c:	9501                	.insn	2, 0x9501
    103e:	9702                	.insn	2, 0x9702
    1040:	9f02                	.insn	2, 0x9f02
    1042:	a102                	.insn	2, 0xa102
    1044:	8102                	.insn	2, 0x8102
    1046:	ce038303          	lb	t1,-800(t2)
    104a:	ec040003          	lb	zero,-320(s0)
    104e:	e404                	.insn	2, 0xe404
    1050:	0105                	.insn	2, 0x0105
    1052:	045e                	.insn	2, 0x045e
    1054:	05e4                	.insn	2, 0x05e4
    1056:	05f4                	.insn	2, 0x05f4
    1058:	7a0c                	.insn	2, 0x7a0c
    105a:	a800                	.insn	2, 0xa800
    105c:	7d32                	.insn	2, 0x7d32
    105e:	a800                	.insn	2, 0xa800
    1060:	1b32                	.insn	2, 0x1b32
    1062:	00a8                	.insn	2, 0x00a8
    1064:	049f 08c0 08c8      	.insn	6, 0x08c808c0049f
    106a:	5e01                	.insn	2, 0x5e01
    106c:	dc04                	.insn	2, 0xdc04
    106e:	e408                	.insn	2, 0xe408
    1070:	0108                	.insn	2, 0x0108
    1072:	045e                	.insn	2, 0x045e
    1074:	0ae8                	.insn	2, 0x0ae8
    1076:	0af0                	.insn	2, 0x0af0
    1078:	5e01                	.insn	2, 0x5e01
    107a:	8c04                	.insn	2, 0x8c04
    107c:	9c0d                	.insn	2, 0x9c0d
    107e:	010d                	.insn	2, 0x010d
    1080:	005e                	.insn	2, 0x005e
    1082:	240e                	.insn	2, 0x240e
    1084:	452d                	.insn	2, 0x452d
    1086:	784e4c47          	.insn	4, 0x784e4c47
    108a:	7b78                	.insn	2, 0x7b78
    108c:	01f5                	.insn	2, 0x01f5
    108e:	028f0283          	lb	t0,40(t5)
    1092:	02a8                	.insn	2, 0x02a8
    1094:	02f002eb          	.insn	4, 0x02f002eb
    1098:	02f1                	.insn	2, 0x02f1
    109a:	03ce038b          	.insn	4, 0x03ce038b
    109e:	0400                	.insn	2, 0x0400
    10a0:	01e4                	.insn	2, 0x01e4
    10a2:	02c8                	.insn	2, 0x02c8
    10a4:	5a01                	.insn	2, 0x5a01
    10a6:	d404                	.insn	2, 0xd404
    10a8:	d802                	.insn	2, 0xd802
    10aa:	045a0103          	lb	sp,69(s4)
    10ae:	03dc                	.insn	2, 0x03dc
    10b0:	03f8                	.insn	2, 0x03f8
    10b2:	5a01                	.insn	2, 0x5a01
    10b4:	fc04                	.insn	2, 0xfc04
    10b6:	01058c03          	lb	s8,16(a1)
    10ba:	045a                	.insn	2, 0x045a
    10bc:	058c                	.insn	2, 0x058c
    10be:	05a4                	.insn	2, 0x05a4
    10c0:	7a04                	.insn	2, 0x7a04
    10c2:	00f8                	.insn	2, 0x00f8
    10c4:	049f 07e4 0890      	.insn	6, 0x089007e4049f
    10ca:	5a01                	.insn	2, 0x5a01
    10cc:	ac04                	.insn	2, 0xac04
    10ce:	f408                	.insn	2, 0xf408
    10d0:	0108                	.insn	2, 0x0108
    10d2:	045a                	.insn	2, 0x045a
    10d4:	0aac                	.insn	2, 0x0aac
    10d6:	5a010ab7          	lui	s5,0x5a010
    10da:	bc04                	.insn	2, 0xbc04
    10dc:	a70a                	.insn	2, 0xa70a
    10de:	045a010b          	.insn	4, 0x045a010b
    10e2:	0d8c                	.insn	2, 0x0d8c
    10e4:	0d9c                	.insn	2, 0x0d9c
    10e6:	5a01                	.insn	2, 0x5a01
    10e8:	5200                	.insn	2, 0x5200
    10ea:	5858                	.insn	2, 0x5858
    10ec:	665e                	.insn	2, 0x665e
    10ee:	7f766f6f          	jal	t5,680e4 <__stack_size-0x1f97f1c>
    10f2:	0188                	.insn	2, 0x0188
    10f4:	0188                	.insn	2, 0x0188
    10f6:	019b018b          	.insn	4, 0x019b018b
    10fa:	01a901a3          	sb	s10,3(s2)
    10fe:	01b2                	.insn	2, 0x01b2
    1100:	01bb01b7          	lui	gp,0x1bb0
    1104:	01da01bb          	.insn	4, 0x01da01bb
    1108:	01f5                	.insn	2, 0x01f5
    110a:	01fd                	.insn	2, 0x01fd
    110c:	01ff 0281 028f 0293 	.insn	10, 0x02970293028f028101ff
    1114:	0297 
    1116:	029d                	.insn	2, 0x029d
    1118:	02a1                	.insn	2, 0x02a1
    111a:	02aa                	.insn	2, 0x02aa
    111c:	02e6                	.insn	2, 0x02e6
    111e:	02fe02eb          	.insn	4, 0x02fe02eb
    1122:	02ff 0383 0386 03c4 	.insn	10, 0x03c603c40386038302ff
    112a:	03c6 
    112c:	03c6                	.insn	2, 0x03c6
    112e:	03c9                	.insn	2, 0x03c9
    1130:	03ce                	.insn	2, 0x03ce
    1132:	0400                	.insn	2, 0x0400
    1134:	0484                	.insn	2, 0x0484
    1136:	0498                	.insn	2, 0x0498
    1138:	5a01                	.insn	2, 0x5a01
    113a:	9804                	.insn	2, 0x9804
    113c:	c004                	.insn	2, 0xc004
    113e:	0104                	.insn	2, 0x0104
    1140:	045e                	.insn	2, 0x045e
    1142:	04d8                	.insn	2, 0x04d8
    1144:	04ec                	.insn	2, 0x04ec
    1146:	5e01                	.insn	2, 0x5e01
    1148:	ec04                	.insn	2, 0xec04
    114a:	8804                	.insn	2, 0x8804
    114c:	0405                	.insn	2, 0x0405
    114e:	c47f 9f00 b004 c405 	.insn	18, 0x7f0305d405c4045f0105c405b0049f00c47f
    1156:	0105 045f 05c4 05d4 
    115e:	7f03 
    1160:	9f50                	.insn	2, 0x9f50
    1162:	8c04                	.insn	2, 0x8c04
    1164:	a806                	.insn	2, 0xa806
    1166:	0106                	.insn	2, 0x0106
    1168:	0469                	.insn	2, 0x0469
    116a:	06bc                	.insn	2, 0x06bc
    116c:	06c8                	.insn	2, 0x06c8
    116e:	6901                	.insn	2, 0x6901
    1170:	d804                	.insn	2, 0xd804
    1172:	e006                	.insn	2, 0xe006
    1174:	0206                	.insn	2, 0x0206
    1176:	007d                	.insn	2, 0x007d
    1178:	e004                	.insn	2, 0xe004
    117a:	a806                	.insn	2, 0xa806
    117c:	04690107          	.insn	4, 0x04690107
    1180:	07e4                	.insn	2, 0x07e4
    1182:	07f8                	.insn	2, 0x07f8
    1184:	5e01                	.insn	2, 0x5e01
    1186:	8404                	.insn	2, 0x8404
    1188:	8808                	.insn	2, 0x8808
    118a:	0108                	.insn	2, 0x0108
    118c:	045e                	.insn	2, 0x045e
    118e:	08ac                	.insn	2, 0x08ac
    1190:	08b8                	.insn	2, 0x08b8
    1192:	5e01                	.insn	2, 0x5e01
    1194:	c804                	.insn	2, 0xc804
    1196:	d408                	.insn	2, 0xd408
    1198:	0108                	.insn	2, 0x0108
    119a:	045e                	.insn	2, 0x045e
    119c:	08e4                	.insn	2, 0x08e4
    119e:	08fc                	.insn	2, 0x08fc
    11a0:	5e01                	.insn	2, 0x5e01
    11a2:	a004                	.insn	2, 0xa004
    11a4:	ac0a                	.insn	2, 0xac0a
    11a6:	010a                	.insn	2, 0x010a
    11a8:	0469                	.insn	2, 0x0469
    11aa:	0adc                	.insn	2, 0x0adc
    11ac:	0ae0                	.insn	2, 0x0ae0
    11ae:	5e01                	.insn	2, 0x5e01
    11b0:	f004                	.insn	2, 0xf004
    11b2:	980a                	.insn	2, 0x980a
    11b4:	045e010b          	.insn	4, 0x045e010b
    11b8:	0cd8                	.insn	2, 0x0cd8
    11ba:	0ce0                	.insn	2, 0x0ce0
    11bc:	6901                	.insn	2, 0x6901
    11be:	e004                	.insn	2, 0xe004
    11c0:	fc0c                	.insn	2, 0xfc0c
    11c2:	010c                	.insn	2, 0x010c
    11c4:	045e                	.insn	2, 0x045e
    11c6:	0d8c                	.insn	2, 0x0d8c
    11c8:	0d9c                	.insn	2, 0x0d9c
    11ca:	7f04                	.insn	2, 0x7f04
    11cc:	00c4                	.insn	2, 0x00c4
    11ce:	009f 01bd 01c2      	.insn	6, 0x01c201bd009f
    11d4:	01ca                	.insn	2, 0x01ca
    11d6:	01d5                	.insn	2, 0x01d5
    11d8:	e804                	.insn	2, 0xe804
    11da:	f406                	.insn	2, 0xf406
    11dc:	0106                	.insn	2, 0x0106
    11de:	045a                	.insn	2, 0x045a
    11e0:	0784                	.insn	2, 0x0784
    11e2:	5a010797          	auipc	a5,0x5a010
    11e6:	ce00                	.insn	2, 0xce00
    11e8:	d501                	.insn	2, 0xd501
    11ea:	0401                	.insn	2, 0x0401
    11ec:	0788                	.insn	2, 0x0788
    11ee:	5a010797          	auipc	a5,0x5a010
    11f2:	1a00                	.insn	2, 0x1a00
    11f4:	eb24                	.insn	2, 0xeb24
    11f6:	f002                	.insn	2, 0xf002
    11f8:	0402                	.insn	2, 0x0402
    11fa:	02b0                	.insn	2, 0x02b0
    11fc:	02c8                	.insn	2, 0x02c8
    11fe:	5a01                	.insn	2, 0x5a01
    1200:	ac04                	.insn	2, 0xac04
    1202:	b70a                	.insn	2, 0xb70a
    1204:	010a                	.insn	2, 0x010a
    1206:	005a                	.insn	2, 0x005a
    1208:	02f002eb          	.insn	4, 0x02f002eb
    120c:	ac04                	.insn	2, 0xac04
    120e:	b70a                	.insn	2, 0xb70a
    1210:	010a                	.insn	2, 0x010a
    1212:	005a                	.insn	2, 0x005a
    1214:	665a                	.insn	2, 0x665a
    1216:	0386                	.insn	2, 0x0386
    1218:	bc04038b          	.insn	4, 0xbc04038b
    121c:	d804                	.insn	2, 0xd804
    121e:	0104                	.insn	2, 0x0104
    1220:	045a                	.insn	2, 0x045a
    1222:	0b98                	.insn	2, 0x0b98
    1224:	5a010ba7          	.insn	4, 0x5a010ba7
    1228:	8600                	.insn	2, 0x8600
    122a:	04038b03          	lb	s6,64(t2)
    122e:	0b98                	.insn	2, 0x0b98
    1230:	5a010ba7          	.insn	4, 0x5a010ba7
    1234:	9f00                	.insn	2, 0x9f00
    1236:	a301                	.insn	2, 0xa301
    1238:	ae01                	.insn	2, 0xae01
    123a:	b201                	.insn	2, 0xb201
    123c:	0401                	.insn	2, 0x0401
    123e:	06a4                	.insn	2, 0x06a4
    1240:	06a8                	.insn	2, 0x06a8
    1242:	6901                	.insn	2, 0x6901
    1244:	c404                	.insn	2, 0xc404
    1246:	c806                	.insn	2, 0xc806
    1248:	0106                	.insn	2, 0x0106
    124a:	0069                	.insn	2, 0x0069
    124c:	01a901a3          	sb	s10,3(s2)
    1250:	a804                	.insn	2, 0xa804
    1252:	bc06                	.insn	2, 0xbc06
    1254:	0106                	.insn	2, 0x0106
    1256:	0069                	.insn	2, 0x0069
    1258:	01de                	.insn	2, 0x01de
    125a:	01ec01e7          	jalr	gp,30(s8)
    125e:	01f5                	.insn	2, 0x01f5
    1260:	b004                	.insn	2, 0xb004
    1262:	0307c007          	.insn	4, 0x0307c007
    1266:	2008                	.insn	2, 0x2008
    1268:	049f 07cc 07e4      	.insn	6, 0x07e407cc049f
    126e:	9f200803          	lb	a6,-1550(zero) # fffff9f2 <_sp+0x77fff9f2>
    1272:	f000                	.insn	2, 0xf000
    1274:	f501                	.insn	2, 0xf501
    1276:	0401                	.insn	2, 0x0401
    1278:	07d0                	.insn	2, 0x07d0
    127a:	07e4                	.insn	2, 0x07e4
    127c:	9f200803          	lb	a6,-1550(zero) # fffff9f2 <_sp+0x77fff9f2>
    1280:	8400                	.insn	2, 0x8400
    1282:	8f02                	.insn	2, 0x8f02
    1284:	8c02                	.insn	2, 0x8c02
    1286:	04039203          	lh	tp,64(t2)
    128a:	0894                	.insn	2, 0x0894
    128c:	08ac                	.insn	2, 0x08ac
    128e:	5a01                	.insn	2, 0x5a01
    1290:	ac04                	.insn	2, 0xac04
    1292:	010bbb0b          	.insn	4, 0x010bbb0b
    1296:	005a                	.insn	2, 0x005a
    1298:	038c                	.insn	2, 0x038c
    129a:	0392                	.insn	2, 0x0392
    129c:	ac04                	.insn	2, 0xac04
    129e:	010bbb0b          	.insn	4, 0x010bbb0b
    12a2:	005a                	.insn	2, 0x005a
    12a4:	02b1                	.insn	2, 0x02b1
    12a6:	03bd02c7          	.insn	4, 0x03bd02c7
    12aa:	03be                	.insn	2, 0x03be
    12ac:	03c403c3          	.insn	4, 0x03c403c3
    12b0:	03cd                	.insn	2, 0x03cd
    12b2:	03ce                	.insn	2, 0x03ce
    12b4:	a404                	.insn	2, 0xa404
    12b6:	d809                	.insn	2, 0xd809
    12b8:	0109                	.insn	2, 0x0109
    12ba:	0464                	.insn	2, 0x0464
    12bc:	0cb0                	.insn	2, 0x0cb0
    12be:	0cb8                	.insn	2, 0x0cb8
    12c0:	6401                	.insn	2, 0x6401
    12c2:	d004                	.insn	2, 0xd004
    12c4:	d80c                	.insn	2, 0xd80c
    12c6:	010c                	.insn	2, 0x010c
    12c8:	0464                	.insn	2, 0x0464
    12ca:	0d84                	.insn	2, 0x0d84
    12cc:	0d8c                	.insn	2, 0x0d8c
    12ce:	6401                	.insn	2, 0x6401
    12d0:	b100                	.insn	2, 0xb100
    12d2:	b702                	.insn	2, 0xb702
    12d4:	bc02                	.insn	2, 0xbc02
    12d6:	c502                	.insn	2, 0xc502
    12d8:	0402                	.insn	2, 0x0402
    12da:	09a4                	.insn	2, 0x09a4
    12dc:	09b0                	.insn	2, 0x09b0
    12de:	5a01                	.insn	2, 0x5a01
    12e0:	c004                	.insn	2, 0xc004
    12e2:	cf09                	.insn	2, 0xcf09
    12e4:	0109                	.insn	2, 0x0109
    12e6:	005a                	.insn	2, 0x005a
    12e8:	02c0                	.insn	2, 0x02c0
    12ea:	02c5                	.insn	2, 0x02c5
    12ec:	c404                	.insn	2, 0xc404
    12ee:	cf09                	.insn	2, 0xcf09
    12f0:	0109                	.insn	2, 0x0109
    12f2:	005a                	.insn	2, 0x005a
    12f4:	02ce                	.insn	2, 0x02ce
    12f6:	02d8                	.insn	2, 0x02d8
    12f8:	02dd                	.insn	2, 0x02dd
    12fa:	02e6                	.insn	2, 0x02e6
    12fc:	e804                	.insn	2, 0xe804
    12fe:	fc09                	.insn	2, 0xfc09
    1300:	0309                	.insn	2, 0x0309
    1302:	2008                	.insn	2, 0x2008
    1304:	049f 0a88 0aa0      	.insn	6, 0x0aa00a88049f
    130a:	9f200803          	lb	a6,-1550(zero) # fffff9f2 <_sp+0x77fff9f2>
    130e:	e100                	.insn	2, 0xe100
    1310:	e602                	.insn	2, 0xe602
    1312:	0402                	.insn	2, 0x0402
    1314:	0a8c                	.insn	2, 0x0a8c
    1316:	0aa0                	.insn	2, 0x0aa0
    1318:	9f200803          	lb	a6,-1550(zero) # fffff9f2 <_sp+0x77fff9f2>
    131c:	9d00                	.insn	2, 0x9d00
    131e:	ab03a603          	lw	a2,-1360(t2)
    1322:	0403b403          	.insn	4, 0x0403b403
    1326:	0be0                	.insn	2, 0x0be0
    1328:	0bf0                	.insn	2, 0x0bf0
    132a:	9f200803          	lb	a6,-1550(zero) # fffff9f2 <_sp+0x77fff9f2>
    132e:	fc04                	.insn	2, 0xfc04
    1330:	030c900b          	.insn	4, 0x030c900b
    1334:	2008                	.insn	2, 0x2008
    1336:	009f 03af 03b4      	.insn	6, 0x03b403af009f
    133c:	8004                	.insn	2, 0x8004
    133e:	900c                	.insn	2, 0x900c
    1340:	030c                	.insn	2, 0x030c
    1342:	2008                	.insn	2, 0x2008
    1344:	009f 1000 1010      	.insn	6, 0x10101000009f
    134a:	0010                	.insn	2, 0x0010
    134c:	0004                	.insn	2, 0x0004
    134e:	045a012b          	.insn	4, 0x045a012b
    1352:	a30a2c2b          	.insn	4, 0xa30a2c2b
    1356:	2b0aa503          	lw	a0,688(s5) # 5a0102b0 <__stack_size+0x580102b0>
    135a:	39a8                	.insn	2, 0x39a8
    135c:	00a8                	.insn	2, 0x00a8
    135e:	049f 302c 5a01      	.insn	6, 0x5a01302c049f
    1364:	0b00                	.insn	2, 0x0b00
    1366:	0400                	.insn	2, 0x0400
    1368:	301c                	.insn	2, 0x301c
    136a:	a30a                	.insn	2, 0xa30a
    136c:	2b0aa503          	lw	a0,688(s5)
    1370:	39a8                	.insn	2, 0x39a8
    1372:	00a8                	.insn	2, 0x00a8
    1374:	009f 0400 1e04      	.insn	6, 0x1e040400009f
    137a:	3004                	.insn	2, 0x3004
    137c:	0144                	.insn	2, 0x0144
    137e:	045a                	.insn	2, 0x045a
    1380:	a044                	.insn	2, 0xa044
    1382:	0101                	.insn	2, 0x0101
    1384:	0058                	.insn	2, 0x0058
    1386:	0a06                	.insn	2, 0x0a06
    1388:	1b12                	.insn	2, 0x1b12
    138a:	5c04                	.insn	2, 0x5c04
    138c:	0164                	.insn	2, 0x0164
    138e:	045a                	.insn	2, 0x045a
    1390:	8774                	.insn	2, 0x8774
    1392:	0101                	.insn	2, 0x0101
    1394:	005a                	.insn	2, 0x005a
    1396:	0a06                	.insn	2, 0x0a06
    1398:	1b0e                	.insn	2, 0x1b0e
    139a:	5c04                	.insn	2, 0x5c04
    139c:	0164                	.insn	2, 0x0164
    139e:	045a                	.insn	2, 0x045a
    13a0:	876c                	.insn	2, 0x876c
    13a2:	0101                	.insn	2, 0x0101
    13a4:	005a                	.insn	2, 0x005a

Disassembly of section .debug_rnglists:

00000000 <.debug_rnglists>:
   0:	021c                	.insn	2, 0x021c
   2:	0000                	.insn	2, 0x0000
   4:	0005                	.insn	2, 0x0005
   6:	0004                	.insn	2, 0x0004
   8:	0000                	.insn	2, 0x0000
   a:	0000                	.insn	2, 0x0000
   c:	3005                	.insn	2, 0x3005
   e:	0009                	.insn	2, 0x0009
  10:	0480                	.insn	2, 0x0480
  12:	0000                	.insn	2, 0x0000
  14:	0404                	.insn	2, 0x0404
  16:	0010                	.insn	2, 0x0010
  18:	7405                	.insn	2, 0x7405
  1a:	000a                	.insn	2, 0x000a
  1c:	0480                	.insn	2, 0x0480
  1e:	0000                	.insn	2, 0x0000
  20:	0404                	.insn	2, 0x0404
  22:	0010                	.insn	2, 0x0010
  24:	1c05                	.insn	2, 0x1c05
  26:	0480000b          	.insn	4, 0x0480000b
  2a:	0400                	.insn	2, 0x0400
  2c:	0c04                	.insn	2, 0x0c04
  2e:	0414                	.insn	2, 0x0414
  30:	1818                	.insn	2, 0x1818
  32:	0500                	.insn	2, 0x0500
  34:	0bd8                	.insn	2, 0x0bd8
  36:	8000                	.insn	2, 0x8000
  38:	0004                	.insn	2, 0x0004
  3a:	040c                	.insn	2, 0x040c
  3c:	4040                	.insn	2, 0x4040
  3e:	4004                	.insn	2, 0x4004
  40:	0440                	.insn	2, 0x0440
  42:	4440                	.insn	2, 0x4440
  44:	0500                	.insn	2, 0x0500
  46:	001c                	.insn	2, 0x001c
  48:	8000                	.insn	2, 0x8000
  4a:	0004                	.insn	2, 0x0004
  4c:	0408                	.insn	2, 0x0408
  4e:	5440                	.insn	2, 0x5440
  50:	6004                	.insn	2, 0x6004
  52:	0064                	.insn	2, 0x0064
  54:	7805                	.insn	2, 0x7805
  56:	0000                	.insn	2, 0x0000
  58:	0480                	.insn	2, 0x0480
  5a:	0400                	.insn	2, 0x0400
  5c:	0804                	.insn	2, 0x0804
  5e:	0420                	.insn	2, 0x0420
  60:	403c                	.insn	2, 0x403c
  62:	4804                	.insn	2, 0x4804
  64:	004c                	.insn	2, 0x004c
  66:	ac05                	.insn	2, 0xac05
  68:	0001                	.insn	2, 0x0001
  6a:	0480                	.insn	2, 0x0480
  6c:	0000                	.insn	2, 0x0000
  6e:	1804                	.insn	2, 0x1804
  70:	041c                	.insn	2, 0x041c
  72:	3c38                	.insn	2, 0x3c38
  74:	0500                	.insn	2, 0x0500
  76:	01d0                	.insn	2, 0x01d0
  78:	8000                	.insn	2, 0x8000
  7a:	0004                	.insn	2, 0x0004
  7c:	0408                	.insn	2, 0x0408
  7e:	1818                	.insn	2, 0x1818
  80:	0500                	.insn	2, 0x0500
  82:	01e8                	.insn	2, 0x01e8
  84:	8000                	.insn	2, 0x8000
  86:	0004                	.insn	2, 0x0004
  88:	0400                	.insn	2, 0x0400
  8a:	0c08                	.insn	2, 0x0c08
  8c:	2004                	.insn	2, 0x2004
  8e:	0430                	.insn	2, 0x0430
  90:	0284                	.insn	2, 0x0284
  92:	028c                	.insn	2, 0x028c
  94:	9404                	.insn	2, 0x9404
  96:	00039803          	lh	a6,0(t2)
  9a:	e805                	.insn	2, 0xe805
  9c:	0001                	.insn	2, 0x0001
  9e:	0480                	.insn	2, 0x0480
  a0:	0000                	.insn	2, 0x0000
  a2:	0804                	.insn	2, 0x0804
  a4:	040c                	.insn	2, 0x040c
  a6:	2420                	.insn	2, 0x2420
  a8:	9404                	.insn	2, 0x9404
  aa:	04039403          	lh	s0,64(t2)
  ae:	0394                	.insn	2, 0x0394
  b0:	0394                	.insn	2, 0x0394
  b2:	9404                	.insn	2, 0x9404
  b4:	00039803          	lh	a6,0(t2)
  b8:	1805                	.insn	2, 0x1805
  ba:	0002                	.insn	2, 0x0002
  bc:	0480                	.insn	2, 0x0480
  be:	0800                	.insn	2, 0x0800
  c0:	0c04                	.insn	2, 0x0c04
  c2:	0410                	.insn	2, 0x0410
  c4:	1814                	.insn	2, 0x1814
  c6:	1c04                	.insn	2, 0x1c04
  c8:	0044                	.insn	2, 0x0044
  ca:	8805                	.insn	2, 0x8805
  cc:	0002                	.insn	2, 0x0002
  ce:	0480                	.insn	2, 0x0480
  d0:	0400                	.insn	2, 0x0400
  d2:	0404                	.insn	2, 0x0404
  d4:	040c                	.insn	2, 0x040c
  d6:	746c                	.insn	2, 0x746c
  d8:	a004                	.insn	2, 0xa004
  da:	a001                	.insn	2, 0xa001
  dc:	0401                	.insn	2, 0x0401
  de:	01cc                	.insn	2, 0x01cc
  e0:	01d0                	.insn	2, 0x01d0
  e2:	ec04                	.insn	2, 0xec04
  e4:	f401                	.insn	2, 0xf401
  e6:	0001                	.insn	2, 0x0001
  e8:	dc05                	.insn	2, 0xdc05
  ea:	0002                	.insn	2, 0x0002
  ec:	0480                	.insn	2, 0x0480
  ee:	0000                	.insn	2, 0x0000
  f0:	b404                	.insn	2, 0xb404
  f2:	b801                	.insn	2, 0xb801
  f4:	0401                	.insn	2, 0x0401
  f6:	01bc                	.insn	2, 0x01bc
  f8:	01c0                	.insn	2, 0x01c0
  fa:	d804                	.insn	2, 0xd804
  fc:	e801                	.insn	2, 0xe801
  fe:	0401                	.insn	2, 0x0401
 100:	01ec                	.insn	2, 0x01ec
 102:	01f0                	.insn	2, 0x01f0
 104:	e404                	.insn	2, 0xe404
 106:	040bec0b          	.insn	4, 0x040bec0b
 10a:	0bf0                	.insn	2, 0x0bf0
 10c:	0bf8                	.insn	2, 0x0bf8
 10e:	0500                	.insn	2, 0x0500
 110:	031c                	.insn	2, 0x031c
 112:	8000                	.insn	2, 0x8000
 114:	0004                	.insn	2, 0x0004
 116:	0400                	.insn	2, 0x0400
 118:	4c48                	.insn	2, 0x4c48
 11a:	6c04                	.insn	2, 0x6c04
 11c:	0074                	.insn	2, 0x0074
 11e:	ec05                	.insn	2, 0xec05
 120:	04800003          	lb	zero,72(zero) # 48 <__stack_size-0x1ffffb8>
 124:	0400                	.insn	2, 0x0400
 126:	0c04                	.insn	2, 0x0c04
 128:	0414                	.insn	2, 0x0414
 12a:	281c                	.insn	2, 0x281c
 12c:	0500                	.insn	2, 0x0500
 12e:	0434                	.insn	2, 0x0434
 130:	8000                	.insn	2, 0x8000
 132:	0004                	.insn	2, 0x0004
 134:	0408                	.insn	2, 0x0408
 136:	1c18                	.insn	2, 0x1c18
 138:	0500                	.insn	2, 0x0500
 13a:	0470                	.insn	2, 0x0470
 13c:	8000                	.insn	2, 0x8000
 13e:	0004                	.insn	2, 0x0004
 140:	0408                	.insn	2, 0x0408
 142:	1c18                	.insn	2, 0x1c18
 144:	0500                	.insn	2, 0x0500
 146:	04ac                	.insn	2, 0x04ac
 148:	8000                	.insn	2, 0x8000
 14a:	0004                	.insn	2, 0x0004
 14c:	0408                	.insn	2, 0x0408
 14e:	1c18                	.insn	2, 0x1c18
 150:	0500                	.insn	2, 0x0500
 152:	04e8                	.insn	2, 0x04e8
 154:	8000                	.insn	2, 0x8000
 156:	0004                	.insn	2, 0x0004
 158:	0408                	.insn	2, 0x0408
 15a:	1c18                	.insn	2, 0x1c18
 15c:	0500                	.insn	2, 0x0500
 15e:	0524                	.insn	2, 0x0524
 160:	8000                	.insn	2, 0x8000
 162:	0004                	.insn	2, 0x0004
 164:	040c                	.insn	2, 0x040c
 166:	201c                	.insn	2, 0x201c
 168:	0500                	.insn	2, 0x0500
 16a:	0564                	.insn	2, 0x0564
 16c:	8000                	.insn	2, 0x8000
 16e:	0004                	.insn	2, 0x0004
 170:	0404                	.insn	2, 0x0404
 172:	1814                	.insn	2, 0x1814
 174:	0500                	.insn	2, 0x0500
 176:	059c                	.insn	2, 0x059c
 178:	8000                	.insn	2, 0x8000
 17a:	0004                	.insn	2, 0x0004
 17c:	0404                	.insn	2, 0x0404
 17e:	0c08                	.insn	2, 0x0c08
 180:	1c04                	.insn	2, 0x1c04
 182:	0020                	.insn	2, 0x0020
 184:	dc05                	.insn	2, 0xdc05
 186:	0005                	.insn	2, 0x0005
 188:	0480                	.insn	2, 0x0480
 18a:	0400                	.insn	2, 0x0400
 18c:	0804                	.insn	2, 0x0804
 18e:	040c                	.insn	2, 0x040c
 190:	201c                	.insn	2, 0x201c
 192:	0500                	.insn	2, 0x0500
 194:	0638                	.insn	2, 0x0638
 196:	8000                	.insn	2, 0x8000
 198:	0004                	.insn	2, 0x0004
 19a:	040c                	.insn	2, 0x040c
 19c:	1c18                	.insn	2, 0x1c18
 19e:	0500                	.insn	2, 0x0500
 1a0:	0678                	.insn	2, 0x0678
 1a2:	8000                	.insn	2, 0x8000
 1a4:	0004                	.insn	2, 0x0004
 1a6:	0404                	.insn	2, 0x0404
 1a8:	1814                	.insn	2, 0x1814
 1aa:	0500                	.insn	2, 0x0500
 1ac:	06b4                	.insn	2, 0x06b4
 1ae:	8000                	.insn	2, 0x8000
 1b0:	0004                	.insn	2, 0x0004
 1b2:	0404                	.insn	2, 0x0404
 1b4:	0c08                	.insn	2, 0x0c08
 1b6:	1c04                	.insn	2, 0x1c04
 1b8:	0020                	.insn	2, 0x0020
 1ba:	f805                	.insn	2, 0xf805
 1bc:	0006                	.insn	2, 0x0006
 1be:	0480                	.insn	2, 0x0480
 1c0:	0400                	.insn	2, 0x0400
 1c2:	0804                	.insn	2, 0x0804
 1c4:	040c                	.insn	2, 0x040c
 1c6:	201c                	.insn	2, 0x201c
 1c8:	0500                	.insn	2, 0x0500
 1ca:	0758                	.insn	2, 0x0758
 1cc:	8000                	.insn	2, 0x8000
 1ce:	0004                	.insn	2, 0x0004
 1d0:	040c                	.insn	2, 0x040c
 1d2:	1c18                	.insn	2, 0x1c18
 1d4:	0500                	.insn	2, 0x0500
 1d6:	078c                	.insn	2, 0x078c
 1d8:	8000                	.insn	2, 0x8000
 1da:	0004                	.insn	2, 0x0004
 1dc:	0408                	.insn	2, 0x0408
 1de:	1c18                	.insn	2, 0x1c18
 1e0:	0500                	.insn	2, 0x0500
 1e2:	07c0                	.insn	2, 0x07c0
 1e4:	8000                	.insn	2, 0x8000
 1e6:	0004                	.insn	2, 0x0004
 1e8:	0408                	.insn	2, 0x0408
 1ea:	1814                	.insn	2, 0x1814
 1ec:	0500                	.insn	2, 0x0500
 1ee:	07ec                	.insn	2, 0x07ec
 1f0:	8000                	.insn	2, 0x8000
 1f2:	0004                	.insn	2, 0x0004
 1f4:	0404                	.insn	2, 0x0404
 1f6:	1410                	.insn	2, 0x1410
 1f8:	0500                	.insn	2, 0x0500
 1fa:	0824                	.insn	2, 0x0824
 1fc:	8000                	.insn	2, 0x8000
 1fe:	0004                	.insn	2, 0x0004
 200:	0404                	.insn	2, 0x0404
 202:	1410                	.insn	2, 0x1410
 204:	0500                	.insn	2, 0x0500
 206:	0858                	.insn	2, 0x0858
 208:	8000                	.insn	2, 0x8000
 20a:	0004                	.insn	2, 0x0004
 20c:	0404                	.insn	2, 0x0404
 20e:	1410                	.insn	2, 0x1410
 210:	0700                	.insn	2, 0x0700
 212:	08e8                	.insn	2, 0x08e8
 214:	8000                	.insn	2, 0x8000
 216:	06d0                	.insn	2, 0x06d0
 218:	00001c07          	.insn	4, 0x1c07
 21c:	cc80                	.insn	2, 0xcc80
 21e:	0011                	.insn	2, 0x0011
 220:	013c                	.insn	2, 0x013c
 222:	0000                	.insn	2, 0x0000
 224:	0005                	.insn	2, 0x0005
 226:	0004                	.insn	2, 0x0004
 228:	0000                	.insn	2, 0x0000
 22a:	0000                	.insn	2, 0x0000
 22c:	5404                	.insn	2, 0x5404
 22e:	0464                	.insn	2, 0x0464
 230:	706c                	.insn	2, 0x706c
 232:	7404                	.insn	2, 0x7404
 234:	0188                	.insn	2, 0x0188
 236:	0400                	.insn	2, 0x0400
 238:	5c54                	.insn	2, 0x5c54
 23a:	6c04                	.insn	2, 0x6c04
 23c:	046c                	.insn	2, 0x046c
 23e:	887c                	.insn	2, 0x887c
 240:	0001                	.insn	2, 0x0001
 242:	d804                	.insn	2, 0xd804
 244:	dc01                	.insn	2, 0xdc01
 246:	0401                	.insn	2, 0x0401
 248:	01e4                	.insn	2, 0x01e4
 24a:	0380                	.insn	2, 0x0380
 24c:	9404                	.insn	2, 0x9404
 24e:	000d9c03          	lh	s8,0(s11)
 252:	a804                	.insn	2, 0xa804
 254:	ac02                	.insn	2, 0xac02
 256:	0402                	.insn	2, 0x0402
 258:	06b8                	.insn	2, 0x06b8
 25a:	06bc                	.insn	2, 0x06bc
 25c:	e804                	.insn	2, 0xe804
 25e:	f406                	.insn	2, 0xf406
 260:	0406                	.insn	2, 0x0406
 262:	0784                	.insn	2, 0x0784
 264:	0790                	.insn	2, 0x0790
 266:	9404                	.insn	2, 0x9404
 268:	00079807          	.insn	4, 0x00079807
 26c:	a804                	.insn	2, 0xa804
 26e:	ac02                	.insn	2, 0xac02
 270:	0402                	.insn	2, 0x0402
 272:	0788                	.insn	2, 0x0788
 274:	0790                	.insn	2, 0x0790
 276:	9404                	.insn	2, 0x9404
 278:	00079807          	.insn	4, 0x00079807
 27c:	b004                	.insn	2, 0xb004
 27e:	c802                	.insn	2, 0xc802
 280:	0402                	.insn	2, 0x0402
 282:	05f8                	.insn	2, 0x05f8
 284:	05fc                	.insn	2, 0x05fc
 286:	8404                	.insn	2, 0x8404
 288:	8806                	.insn	2, 0x8806
 28a:	0406                	.insn	2, 0x0406
 28c:	0aac                	.insn	2, 0x0aac
 28e:	0abc                	.insn	2, 0x0abc
 290:	0400                	.insn	2, 0x0400
 292:	04bc                	.insn	2, 0x04bc
 294:	04d8                	.insn	2, 0x04d8
 296:	9804                	.insn	2, 0x9804
 298:	000bac0b          	.insn	4, 0x000bac0b
 29c:	a404                	.insn	2, 0xa404
 29e:	b806                	.insn	2, 0xb806
 2a0:	0406                	.insn	2, 0x0406
 2a2:	06c4                	.insn	2, 0x06c4
 2a4:	06d0                	.insn	2, 0x06d0
 2a6:	d404                	.insn	2, 0xd404
 2a8:	d806                	.insn	2, 0xd806
 2aa:	0406                	.insn	2, 0x0406
 2ac:	06d8                	.insn	2, 0x06d8
 2ae:	06dc                	.insn	2, 0x06dc
 2b0:	0400                	.insn	2, 0x0400
 2b2:	06fc                	.insn	2, 0x06fc
 2b4:	0780                	.insn	2, 0x0780
 2b6:	a804                	.insn	2, 0xa804
 2b8:	0407b007          	.insn	4, 0x0407b007
 2bc:	07b0                	.insn	2, 0x07b0
 2be:	07c0                	.insn	2, 0x07c0
 2c0:	c404                	.insn	2, 0xc404
 2c2:	0407c807          	.insn	4, 0x0407c807
 2c6:	07cc                	.insn	2, 0x07cc
 2c8:	07e4                	.insn	2, 0x07e4
 2ca:	0400                	.insn	2, 0x0400
 2cc:	07ac                	.insn	2, 0x07ac
 2ce:	07b0                	.insn	2, 0x07b0
 2d0:	d004                	.insn	2, 0xd004
 2d2:	0007e407          	.insn	4, 0x0007e407
 2d6:	8404                	.insn	2, 0x8404
 2d8:	8c08                	.insn	2, 0x8c08
 2da:	0408                	.insn	2, 0x0408
 2dc:	0894                	.insn	2, 0x0894
 2de:	08a4                	.insn	2, 0x08a4
 2e0:	ac04                	.insn	2, 0xac04
 2e2:	000bbc0b          	.insn	4, 0x000bbc0b
 2e6:	9c04                	.insn	2, 0x9c04
 2e8:	d809                	.insn	2, 0xd809
 2ea:	0409                	.insn	2, 0x0409
 2ec:	0c9c                	.insn	2, 0x0c9c
 2ee:	0ca4                	.insn	2, 0x0ca4
 2f0:	b004                	.insn	2, 0xb004
 2f2:	c40c                	.insn	2, 0xc40c
 2f4:	040c                	.insn	2, 0x040c
 2f6:	0cd0                	.insn	2, 0x0cd0
 2f8:	0cd8                	.insn	2, 0x0cd8
 2fa:	8404                	.insn	2, 0x8404
 2fc:	8c0d                	.insn	2, 0x8c0d
 2fe:	000d                	.insn	2, 0x000d
 300:	9c04                	.insn	2, 0x9c04
 302:	b009                	.insn	2, 0xb009
 304:	0409                	.insn	2, 0x0409
 306:	09b8                	.insn	2, 0x09b8
 308:	09bc                	.insn	2, 0x09bc
 30a:	c004                	.insn	2, 0xc004
 30c:	d009                	.insn	2, 0xd009
 30e:	0009                	.insn	2, 0x0009
 310:	9c04                	.insn	2, 0x9c04
 312:	a409                	.insn	2, 0xa409
 314:	0409                	.insn	2, 0x0409
 316:	09c4                	.insn	2, 0x09c4
 318:	09d0                	.insn	2, 0x09d0
 31a:	0400                	.insn	2, 0x0400
 31c:	09dc                	.insn	2, 0x09dc
 31e:	09e4                	.insn	2, 0x09e4
 320:	e804                	.insn	2, 0xe804
 322:	fc09                	.insn	2, 0xfc09
 324:	0409                	.insn	2, 0x0409
 326:	0a80                	.insn	2, 0x0a80
 328:	0a84                	.insn	2, 0x0a84
 32a:	8804                	.insn	2, 0x8804
 32c:	a00a                	.insn	2, 0xa00a
 32e:	000a                	.insn	2, 0x000a
 330:	dc04                	.insn	2, 0xdc04
 332:	e409                	.insn	2, 0xe409
 334:	0409                	.insn	2, 0x0409
 336:	0a8c                	.insn	2, 0x0a8c
 338:	0aa0                	.insn	2, 0x0aa0
 33a:	0400                	.insn	2, 0x0400
 33c:	0bd0                	.insn	2, 0x0bd0
 33e:	0bd4                	.insn	2, 0x0bd4
 340:	d804                	.insn	2, 0xd804
 342:	040be00b          	.insn	4, 0x040be00b
 346:	0be0                	.insn	2, 0x0be0
 348:	0bf0                	.insn	2, 0x0bf0
 34a:	f404                	.insn	2, 0xf404
 34c:	040bf80b          	.insn	4, 0x040bf80b
 350:	0bfc                	.insn	2, 0x0bfc
 352:	0c90                	.insn	2, 0x0c90
 354:	0400                	.insn	2, 0x0400
 356:	0bd8                	.insn	2, 0x0bd8
 358:	0be0                	.insn	2, 0x0be0
 35a:	8004                	.insn	2, 0x8004
 35c:	900c                	.insn	2, 0x900c
 35e:	000c                	.insn	2, 0x000c

Disassembly of section .debug_frame:

00000000 <.debug_frame>:
   0:	000c                	.insn	2, 0x000c
   2:	0000                	.insn	2, 0x0000
   4:	ffff                	.insn	2, 0xffff
   6:	ffff                	.insn	2, 0xffff
   8:	7c010003          	lb	zero,1984(sp) # 45f1304 <__stack_size+0x25f1304>
   c:	0c01                	.insn	2, 0x0c01
   e:	0002                	.insn	2, 0x0002
  10:	000c                	.insn	2, 0x000c
  12:	0000                	.insn	2, 0x0000
  14:	0000                	.insn	2, 0x0000
  16:	0000                	.insn	2, 0x0000
  18:	08e8                	.insn	2, 0x08e8
  1a:	8000                	.insn	2, 0x8000
  1c:	0030                	.insn	2, 0x0030
  1e:	0000                	.insn	2, 0x0000
  20:	000c                	.insn	2, 0x000c
  22:	0000                	.insn	2, 0x0000
  24:	0000                	.insn	2, 0x0000
  26:	0000                	.insn	2, 0x0000
  28:	0918                	.insn	2, 0x0918
  2a:	8000                	.insn	2, 0x8000
  2c:	002c                	.insn	2, 0x002c
  2e:	0000                	.insn	2, 0x0000
  30:	000c                	.insn	2, 0x000c
  32:	0000                	.insn	2, 0x0000
  34:	0000                	.insn	2, 0x0000
  36:	0000                	.insn	2, 0x0000
  38:	0944                	.insn	2, 0x0944
  3a:	8000                	.insn	2, 0x8000
  3c:	0030                	.insn	2, 0x0030
  3e:	0000                	.insn	2, 0x0000
  40:	000c                	.insn	2, 0x000c
  42:	0000                	.insn	2, 0x0000
  44:	0000                	.insn	2, 0x0000
  46:	0000                	.insn	2, 0x0000
  48:	0974                	.insn	2, 0x0974
  4a:	8000                	.insn	2, 0x8000
  4c:	0018                	.insn	2, 0x0018
  4e:	0000                	.insn	2, 0x0000
  50:	000c                	.insn	2, 0x000c
  52:	0000                	.insn	2, 0x0000
  54:	0000                	.insn	2, 0x0000
  56:	0000                	.insn	2, 0x0000
  58:	098c                	.insn	2, 0x098c
  5a:	8000                	.insn	2, 0x8000
  5c:	0054                	.insn	2, 0x0054
  5e:	0000                	.insn	2, 0x0000
  60:	001c                	.insn	2, 0x001c
  62:	0000                	.insn	2, 0x0000
  64:	0000                	.insn	2, 0x0000
  66:	0000                	.insn	2, 0x0000
  68:	09e0                	.insn	2, 0x09e0
  6a:	8000                	.insn	2, 0x8000
  6c:	015c                	.insn	2, 0x015c
  6e:	0000                	.insn	2, 0x0000
  70:	0e011803          	lh	a6,224(sp)
  74:	4420                	.insn	2, 0x4420
  76:	0181                	.insn	2, 0x0181
  78:	c168                	.insn	2, 0xc168
  7a:	0e54                	.insn	2, 0x0e54
  7c:	0000                	.insn	2, 0x0000
  7e:	0000                	.insn	2, 0x0000
  80:	000c                	.insn	2, 0x000c
  82:	0000                	.insn	2, 0x0000
  84:	0000                	.insn	2, 0x0000
  86:	0000                	.insn	2, 0x0000
  88:	0b3c                	.insn	2, 0x0b3c
  8a:	8000                	.insn	2, 0x8000
  8c:	0010                	.insn	2, 0x0010
  8e:	0000                	.insn	2, 0x0000
  90:	000c                	.insn	2, 0x000c
  92:	0000                	.insn	2, 0x0000
  94:	0000                	.insn	2, 0x0000
  96:	0000                	.insn	2, 0x0000
  98:	0b4c                	.insn	2, 0x0b4c
  9a:	8000                	.insn	2, 0x8000
  9c:	0070                	.insn	2, 0x0070
  9e:	0000                	.insn	2, 0x0000
  a0:	000c                	.insn	2, 0x000c
  a2:	0000                	.insn	2, 0x0000
  a4:	0000                	.insn	2, 0x0000
  a6:	0000                	.insn	2, 0x0000
  a8:	0bbc                	.insn	2, 0x0bbc
  aa:	8000                	.insn	2, 0x8000
  ac:	001c                	.insn	2, 0x001c
  ae:	0000                	.insn	2, 0x0000
  b0:	0018                	.insn	2, 0x0018
  b2:	0000                	.insn	2, 0x0000
  b4:	0000                	.insn	2, 0x0000
  b6:	0000                	.insn	2, 0x0000
  b8:	0bd8                	.insn	2, 0x0bd8
  ba:	8000                	.insn	2, 0x8000
  bc:	0044                	.insn	2, 0x0044
  be:	0000                	.insn	2, 0x0000
  c0:	0e50                	.insn	2, 0x0e50
  c2:	4410                	.insn	2, 0x4410
  c4:	0181                	.insn	2, 0x0181
  c6:	c160                	.insn	2, 0xc160
  c8:	0e48                	.insn	2, 0x0e48
  ca:	0000                	.insn	2, 0x0000
  cc:	000c                	.insn	2, 0x000c
  ce:	0000                	.insn	2, 0x0000
  d0:	0000                	.insn	2, 0x0000
  d2:	0000                	.insn	2, 0x0000
  d4:	0c1c                	.insn	2, 0x0c1c
  d6:	8000                	.insn	2, 0x8000
  d8:	000c                	.insn	2, 0x000c
  da:	0000                	.insn	2, 0x0000
  dc:	000c                	.insn	2, 0x000c
  de:	0000                	.insn	2, 0x0000
  e0:	0000                	.insn	2, 0x0000
  e2:	0000                	.insn	2, 0x0000
  e4:	0c28                	.insn	2, 0x0c28
  e6:	8000                	.insn	2, 0x8000
  e8:	0010                	.insn	2, 0x0010
  ea:	0000                	.insn	2, 0x0000
  ec:	0050                	.insn	2, 0x0050
  ee:	0000                	.insn	2, 0x0000
  f0:	0000                	.insn	2, 0x0000
  f2:	0000                	.insn	2, 0x0000
  f4:	001c                	.insn	2, 0x001c
  f6:	8000                	.insn	2, 0x8000
  f8:	08cc                	.insn	2, 0x08cc
  fa:	0000                	.insn	2, 0x0000
  fc:	0e4c                	.insn	2, 0x0e4c
  fe:	01b0                	.insn	2, 0x01b0
 100:	8174                	.insn	2, 0x8174
 102:	8801                	.insn	2, 0x8801
 104:	8902                	.insn	2, 0x8902
 106:	93049203          	lh	tp,-1744(s1)
 10a:	9405                	.insn	2, 0x9405
 10c:	9506                	.insn	2, 0x9506
 10e:	97089607          	.insn	4, 0x97089607
 112:	9809                	.insn	2, 0x9809
 114:	990a                	.insn	2, 0x990a
 116:	9b0c9a0b          	.insn	4, 0x9b0c9a0b
 11a:	030d                	.insn	2, 0x030d
 11c:	0828                	.insn	2, 0x0828
 11e:	c10a                	.insn	2, 0xc10a
 120:	c844                	.insn	2, 0xc844
 122:	c944                	.insn	2, 0xc944
 124:	d244                	.insn	2, 0xd244
 126:	d344                	.insn	2, 0xd344
 128:	d444                	.insn	2, 0xd444
 12a:	d544                	.insn	2, 0xd544
 12c:	d644                	.insn	2, 0xd644
 12e:	d744                	.insn	2, 0xd744
 130:	d844                	.insn	2, 0xd844
 132:	d944                	.insn	2, 0xd944
 134:	da44                	.insn	2, 0xda44
 136:	db44                	.insn	2, 0xdb44
 138:	0e48                	.insn	2, 0x0e48
 13a:	4400                	.insn	2, 0x4400
 13c:	0000000b          	.insn	4, 0x000b
 140:	000c                	.insn	2, 0x000c
 142:	0000                	.insn	2, 0x0000
 144:	ffff                	.insn	2, 0xffff
 146:	ffff                	.insn	2, 0xffff
 148:	7c010003          	lb	zero,1984(sp)
 14c:	0c01                	.insn	2, 0x0c01
 14e:	0002                	.insn	2, 0x0002
 150:	000c                	.insn	2, 0x000c
 152:	0000                	.insn	2, 0x0000
 154:	0140                	.insn	2, 0x0140
 156:	0000                	.insn	2, 0x0000
 158:	0c38                	.insn	2, 0x0c38
 15a:	8000                	.insn	2, 0x8000
 15c:	0030                	.insn	2, 0x0030
 15e:	0000                	.insn	2, 0x0000
 160:	0028                	.insn	2, 0x0028
 162:	0000                	.insn	2, 0x0000
 164:	0140                	.insn	2, 0x0140
 166:	0000                	.insn	2, 0x0000
 168:	0c68                	.insn	2, 0x0c68
 16a:	8000                	.insn	2, 0x8000
 16c:	0078                	.insn	2, 0x0078
 16e:	0000                	.insn	2, 0x0000
 170:	0e44                	.insn	2, 0x0e44
 172:	4810                	.insn	2, 0x4810
 174:	0288                	.insn	2, 0x0288
 176:	0181                	.insn	2, 0x0181
 178:	8954                	.insn	2, 0x8954
 17a:	02049203          	lh	tp,32(s1)
 17e:	c944                	.insn	2, 0xc944
 180:	d244                	.insn	2, 0xd244
 182:	c144                	.insn	2, 0xc144
 184:	c844                	.insn	2, 0xc844
 186:	0e44                	.insn	2, 0x0e44
 188:	0000                	.insn	2, 0x0000
 18a:	0000                	.insn	2, 0x0000
 18c:	006c                	.insn	2, 0x006c
 18e:	0000                	.insn	2, 0x0000
 190:	0140                	.insn	2, 0x0140
 192:	0000                	.insn	2, 0x0000
 194:	0ce0                	.insn	2, 0x0ce0
 196:	8000                	.insn	2, 0x8000
 198:	05f4                	.insn	2, 0x05f4
 19a:	0000                	.insn	2, 0x0000
 19c:	0e44                	.insn	2, 0x0e44
 19e:	0190                	.insn	2, 0x0190
 1a0:	8968                	.insn	2, 0x8968
 1a2:	8110960b          	.insn	4, 0x8110960b
 1a6:	5809                	.insn	2, 0x5809
 1a8:	0e94                	.insn	2, 0x0e94
 1aa:	886c                	.insn	2, 0x886c
 1ac:	920a                	.insn	2, 0x920a
 1ae:	950c                	.insn	2, 0x950c
 1b0:	93159b0f          	.insn	4, 0x93159b0f
 1b4:	970d                	.insn	2, 0x970d
 1b6:	9811                	.insn	2, 0x9811
 1b8:	9912                	.insn	2, 0x9912
 1ba:	02149a13          	slli	s4,s1,0x21
 1be:	c844                	.insn	2, 0xc844
 1c0:	d244                	.insn	2, 0xd244
 1c2:	d344                	.insn	2, 0xd344
 1c4:	d444                	.insn	2, 0xd444
 1c6:	d544                	.insn	2, 0xd544
 1c8:	d744                	.insn	2, 0xd744
 1ca:	d844                	.insn	2, 0xd844
 1cc:	d944                	.insn	2, 0xd944
 1ce:	da44                	.insn	2, 0xda44
 1d0:	db44                	.insn	2, 0xdb44
 1d2:	c144                	.insn	2, 0xc144
 1d4:	c944                	.insn	2, 0xc944
 1d6:	d644                	.insn	2, 0xd644
 1d8:	0e44                	.insn	2, 0x0e44
 1da:	4400                	.insn	2, 0x4400
 1dc:	900e                	.insn	2, 0x900e
 1de:	8101                	.insn	2, 0x8101
 1e0:	8809                	.insn	2, 0x8809
 1e2:	890a                	.insn	2, 0x890a
 1e4:	930c920b          	.insn	4, 0x930c920b
 1e8:	940d                	.insn	2, 0x940d
 1ea:	950e                	.insn	2, 0x950e
 1ec:	9710960f          	.insn	4, 0x9710960f
 1f0:	9811                	.insn	2, 0x9811
 1f2:	9912                	.insn	2, 0x9912
 1f4:	9b149a13          	.insn	4, 0x9b149a13
 1f8:	0015                	.insn	2, 0x0015
	...
