
dry:     file format elf32-littleriscv
dry


Disassembly of section .init:

80000000 <_start>:
_start():
/home/tututu/qimeng/simulator/baremetal/benchmarks/dhrystone/../../start.S:9
    .type _start,@function


_start:

  la gp, __global_pointer
80000000:	00005197          	auipc	gp,0x5
80000004:	1c818193          	addi	gp,gp,456 # 800051c8 <__global_pointer>
/home/tututu/qimeng/simulator/baremetal/benchmarks/dhrystone/../../start.S:10
  la sp, _sp
80000008:	08000117          	auipc	sp,0x8000
8000000c:	ff810113          	addi	sp,sp,-8 # 88000000 <_sp>
/home/tututu/qimeng/simulator/baremetal/benchmarks/dhrystone/../../start.S:12

  la a0, 0x80001000
80000010:	80001537          	lui	a0,0x80001
/home/tututu/qimeng/simulator/baremetal/benchmarks/dhrystone/../../start.S:13
  sw a0, 0(a0)
80000014:	00a52023          	sw	a0,0(a0) # 80001000 <_sp+0xf8001000>
/home/tututu/qimeng/simulator/baremetal/benchmarks/dhrystone/../../start.S:14
  lw a0, 0(a0)
80000018:	00052503          	lw	a0,0(a0)
/home/tututu/qimeng/simulator/baremetal/benchmarks/dhrystone/../../start.S:15
  call main
8000001c:	00c000ef          	jal	ra,80000028 <main>
/home/tututu/qimeng/simulator/baremetal/benchmarks/dhrystone/../../start.S:16
  ebreak
80000020:	00100073          	ebreak

80000024 <loop>:
loop():
/home/tututu/qimeng/simulator/baremetal/benchmarks/dhrystone/../../start.S:19

loop:
    j loop
80000024:	0000006f          	jal	zero,80000024 <loop>

Disassembly of section .text:

80000028 <main>:
main():
/home/tututu/qimeng/simulator/baremetal/benchmarks/dhrystone/dry.c:725
int main()
/*****/

/* main program, corresponds to procedures        */
/* Main and Proc_0 in the Ada version             */
{
80000028:	f5010113          	addi	sp,sp,-176
8000002c:	0a112623          	sw	ra,172(sp)
80000030:	0a812423          	sw	s0,168(sp)
80000034:	0a912223          	sw	s1,164(sp)
80000038:	0b212023          	sw	s2,160(sp)
8000003c:	09312e23          	sw	s3,156(sp)
80000040:	09412c23          	sw	s4,152(sp)
80000044:	09512a23          	sw	s5,148(sp)
80000048:	09612823          	sw	s6,144(sp)
8000004c:	09712623          	sw	s7,140(sp)
80000050:	09812423          	sw	s8,136(sp)
80000054:	09912223          	sw	s9,132(sp)
80000058:	09a12023          	sw	s10,128(sp)
8000005c:	07b12e23          	sw	s11,124(sp)
/home/tututu/qimeng/simulator/baremetal/benchmarks/dhrystone/dry.c:727

  uart_init();
80000060:	4cd000ef          	jal	ra,80000d2c <uart_init>
myalloc():
/home/tututu/qimeng/simulator/baremetal/benchmarks/dhrystone/dry.c:446
  while ((unsigned long)free_mem % 4 != 0)
80000064:	800056b7          	lui	a3,0x80005
80000068:	9cc6a783          	lw	a5,-1588(a3) # 800049cc <_sp+0xf80049cc>
8000006c:	0037f713          	andi	a4,a5,3
80000070:	00070c63          	beq	a4,zero,80000088 <main+0x60>
80000074:	00178713          	addi	a4,a5,1
80000078:	00377613          	andi	a2,a4,3
/home/tututu/qimeng/simulator/baremetal/benchmarks/dhrystone/dry.c:447
    free_mem++;
8000007c:	00070793          	addi	a5,a4,0
/home/tututu/qimeng/simulator/baremetal/benchmarks/dhrystone/dry.c:446
  while ((unsigned long)free_mem % 4 != 0)
80000080:	00170713          	addi	a4,a4,1
80000084:	fe061ae3          	bne	a2,zero,80000078 <main+0x50>
main():
/home/tututu/qimeng/simulator/baremetal/benchmarks/dhrystone/dry.c:742

  Number_Of_Runs = NUMBER_OF_RUNS;

  /* Initializations */

  Next_Ptr_Glob = (Rec_Pointer)myalloc(sizeof(Rec_Type));
80000088:	80005737          	lui	a4,0x80005
8000008c:	9af72623          	sw	a5,-1620(a4) # 800049ac <_sp+0xf80049ac>
myalloc():
/home/tututu/qimeng/simulator/baremetal/benchmarks/dhrystone/dry.c:446
  while ((unsigned long)free_mem % 4 != 0)
80000090:	0037f713          	andi	a4,a5,3
/home/tututu/qimeng/simulator/baremetal/benchmarks/dhrystone/dry.c:449
  free_mem += size;
80000094:	03078513          	addi	a0,a5,48
/home/tututu/qimeng/simulator/baremetal/benchmarks/dhrystone/dry.c:446
  while ((unsigned long)free_mem % 4 != 0)
80000098:	00070c63          	beq	a4,zero,800000b0 <main+0x88>
8000009c:	03178713          	addi	a4,a5,49
800000a0:	00377613          	andi	a2,a4,3
/home/tututu/qimeng/simulator/baremetal/benchmarks/dhrystone/dry.c:447
    free_mem++;
800000a4:	00070513          	addi	a0,a4,0
/home/tututu/qimeng/simulator/baremetal/benchmarks/dhrystone/dry.c:446
  while ((unsigned long)free_mem % 4 != 0)
800000a8:	00170713          	addi	a4,a4,1
800000ac:	fe061ae3          	bne	a2,zero,800000a0 <main+0x78>
main():
/home/tututu/qimeng/simulator/baremetal/benchmarks/dhrystone/dry.c:743
  Ptr_Glob = (Rec_Pointer)myalloc(sizeof(Rec_Type));
800000b0:	80005ab7          	lui	s5,0x80005
800000b4:	9aaaa823          	sw	a0,-1616(s5) # 800049b0 <_sp+0xf80049b0>
/home/tututu/qimeng/simulator/baremetal/benchmarks/dhrystone/dry.c:745

  Ptr_Glob->Ptr_Comp = Next_Ptr_Glob;
800000b8:	00f52023          	sw	a5,0(a0)
/home/tututu/qimeng/simulator/baremetal/benchmarks/dhrystone/dry.c:747
  Ptr_Glob->Discr = Ident_1;
  Ptr_Glob->variant.var_1.Enum_Comp = Ident_3;
800000bc:	00200793          	addi	a5,zero,2
800000c0:	00f52423          	sw	a5,8(a0)
/home/tututu/qimeng/simulator/baremetal/benchmarks/dhrystone/dry.c:749
  Ptr_Glob->variant.var_1.Int_Comp = 40;
  strcpy(Ptr_Glob->variant.var_1.Str_Comp, "DHRYSTONE PROGRAM, SOME STRING");
800000c4:	800025b7          	lui	a1,0x80002
/home/tututu/qimeng/simulator/baremetal/benchmarks/dhrystone/dry.c:748
  Ptr_Glob->variant.var_1.Int_Comp = 40;
800000c8:	02800793          	addi	a5,zero,40
myalloc():
/home/tututu/qimeng/simulator/baremetal/benchmarks/dhrystone/dry.c:449
  free_mem += size;
800000cc:	03050713          	addi	a4,a0,48
main():
/home/tututu/qimeng/simulator/baremetal/benchmarks/dhrystone/dry.c:748
  Ptr_Glob->variant.var_1.Int_Comp = 40;
800000d0:	00f52623          	sw	a5,12(a0)
/home/tututu/qimeng/simulator/baremetal/benchmarks/dhrystone/dry.c:749
  strcpy(Ptr_Glob->variant.var_1.Str_Comp, "DHRYSTONE PROGRAM, SOME STRING");
800000d4:	01f00613          	addi	a2,zero,31
800000d8:	86458593          	addi	a1,a1,-1948 # 80001864 <_sp+0xf8001864>
/home/tututu/qimeng/simulator/baremetal/benchmarks/dhrystone/dry.c:746
  Ptr_Glob->Discr = Ident_1;
800000dc:	00052223          	sw	zero,4(a0)
/home/tututu/qimeng/simulator/baremetal/benchmarks/dhrystone/dry.c:749
  strcpy(Ptr_Glob->variant.var_1.Str_Comp, "DHRYSTONE PROGRAM, SOME STRING");
800000e0:	01050513          	addi	a0,a0,16
myalloc():
/home/tututu/qimeng/simulator/baremetal/benchmarks/dhrystone/dry.c:449
  free_mem += size;
800000e4:	9ce6a623          	sw	a4,-1588(a3)
main():
/home/tututu/qimeng/simulator/baremetal/benchmarks/dhrystone/dry.c:749
  strcpy(Ptr_Glob->variant.var_1.Str_Comp, "DHRYSTONE PROGRAM, SOME STRING");
800000e8:	4c8010ef          	jal	ra,800015b0 <memcpy>
/home/tututu/qimeng/simulator/baremetal/benchmarks/dhrystone/dry.c:750
  strcpy(Str_1_Loc, "DHRYSTONE PROGRAM, 1'ST STRING");
800000ec:	800027b7          	lui	a5,0x80002
800000f0:	ba478793          	addi	a5,a5,-1116 # 80001ba4 <_sp+0xf8001ba4>
800000f4:	0107a803          	lw	a6,16(a5)
800000f8:	01c7d703          	lhu	a4,28(a5)
800000fc:	0007af03          	lw	t5,0(a5)
80000100:	0047ae83          	lw	t4,4(a5)
80000104:	0087ae03          	lw	t3,8(a5)
80000108:	00c7a303          	lw	t1,12(a5)
8000010c:	0147a603          	lw	a2,20(a5)
80000110:	0187a683          	lw	a3,24(a5)
80000114:	01e7c783          	lbu	a5,30(a5)
/home/tututu/qimeng/simulator/baremetal/benchmarks/dhrystone/dry.c:752

  Arr_2_Glob[8][7] = 10;
80000118:	800028b7          	lui	a7,0x80002
/home/tututu/qimeng/simulator/baremetal/benchmarks/dhrystone/dry.c:758
  /* Was missing in published program. Without this statement,    */
  /* Arr_2_Glob [8][7] would have an undefined value.             */
  /* Warning: With 16-Bit processors and Number_Of_Runs > 32000,  */
  /* overflow may occur for this array element.                   */

  xprintf("Dhrystone Benchmark, Version %s\n", Version);
8000011c:	800025b7          	lui	a1,0x80002
80000120:	80002537          	lui	a0,0x80002
/home/tututu/qimeng/simulator/baremetal/benchmarks/dhrystone/dry.c:752
  Arr_2_Glob[8][7] = 10;
80000124:	27488d13          	addi	s10,a7,628 # 80002274 <_sp+0xf8002274>
/home/tututu/qimeng/simulator/baremetal/benchmarks/dhrystone/dry.c:758
  xprintf("Dhrystone Benchmark, Version %s\n", Version);
80000128:	88458593          	addi	a1,a1,-1916 # 80001884 <_sp+0xf8001884>
8000012c:	89450513          	addi	a0,a0,-1900 # 80001894 <_sp+0xf8001894>
/home/tututu/qimeng/simulator/baremetal/benchmarks/dhrystone/dry.c:750
  strcpy(Str_1_Loc, "DHRYSTONE PROGRAM, 1'ST STRING");
80000130:	04f10723          	sb	a5,78(sp)
/home/tututu/qimeng/simulator/baremetal/benchmarks/dhrystone/dry.c:752
  Arr_2_Glob[8][7] = 10;
80000134:	00a00793          	addi	a5,zero,10
/home/tututu/qimeng/simulator/baremetal/benchmarks/dhrystone/dry.c:750
  strcpy(Str_1_Loc, "DHRYSTONE PROGRAM, 1'ST STRING");
80000138:	05012023          	sw	a6,64(sp)
8000013c:	04e11623          	sh	a4,76(sp)
80000140:	03e12823          	sw	t5,48(sp)
80000144:	03d12a23          	sw	t4,52(sp)
80000148:	03c12c23          	sw	t3,56(sp)
8000014c:	02612e23          	sw	t1,60(sp)
80000150:	04c12223          	sw	a2,68(sp)
80000154:	04d12423          	sw	a3,72(sp)
/home/tututu/qimeng/simulator/baremetal/benchmarks/dhrystone/dry.c:752
  Arr_2_Glob[8][7] = 10;
80000158:	64fd2e23          	sw	a5,1628(s10)
/home/tututu/qimeng/simulator/baremetal/benchmarks/dhrystone/dry.c:758
  xprintf("Dhrystone Benchmark, Version %s\n", Version);
8000015c:	569000ef          	jal	ra,80000ec4 <xprintf>
/home/tututu/qimeng/simulator/baremetal/benchmarks/dhrystone/dry.c:763

  Done = false;
  while (!Done) {

    xprintf("Trying %d runs through Dhrystone.\n", Number_Of_Runs);
80000160:	80002537          	lui	a0,0x80002
/home/tututu/qimeng/simulator/baremetal/benchmarks/dhrystone/dry.c:760
  Done = false;
80000164:	800057b7          	lui	a5,0x80005
/home/tututu/qimeng/simulator/baremetal/benchmarks/dhrystone/dry.c:763
    xprintf("Trying %d runs through Dhrystone.\n", Number_Of_Runs);
80000168:	3e800593          	addi	a1,zero,1000
8000016c:	8b850513          	addi	a0,a0,-1864 # 800018b8 <_sp+0xf80018b8>
/home/tututu/qimeng/simulator/baremetal/benchmarks/dhrystone/dry.c:760
  Done = false;
80000170:	9807ac23          	sw	zero,-1640(a5) # 80004998 <_sp+0xf8004998>
/home/tututu/qimeng/simulator/baremetal/benchmarks/dhrystone/dry.c:763
    xprintf("Trying %d runs through Dhrystone.\n", Number_Of_Runs);
80000174:	551000ef          	jal	ra,80000ec4 <xprintf>
/home/tututu/qimeng/simulator/baremetal/benchmarks/dhrystone/dry.c:769

    /***************/
    /* Start timer */
    /***************/

    for (Run_Index = 1; Run_Index <= Number_Of_Runs; ++Run_Index) {
80000178:	800027b7          	lui	a5,0x80002
8000017c:	c1878793          	addi	a5,a5,-1000 # 80001c18 <_sp+0xf8001c18>
/home/tututu/qimeng/simulator/baremetal/benchmarks/dhrystone/dry.c:776
      Proc_5();
      Proc_4();
      /* Ch_1_Glob == 'A', Ch_2_Glob == 'B', Bool_Glob == true */
      Int_1_Loc = 2;
      Int_2_Loc = 3;
      strcpy(Str_2_Loc, "DHRYSTONE PROGRAM, 2'ND STRING");
80000180:	0007a703          	lw	a4,0(a5)
80000184:	80002437          	lui	s0,0x80002
80000188:	80003b37          	lui	s6,0x80003
8000018c:	00e12623          	sw	a4,12(sp)
80000190:	0047a703          	lw	a4,4(a5)
/home/tututu/qimeng/simulator/baremetal/benchmarks/dhrystone/dry.c:799
      {
        if (Enum_Loc == Func_1(Ch_Index, 'C'))
        /* then, not executed */
        {
          Proc_6(Ident_1, &Enum_Loc);
          strcpy(Str_2_Loc, "DHRYSTONE PROGRAM, 3'RD STRING");
80000194:	80002837          	lui	a6,0x80002
/home/tututu/qimeng/simulator/baremetal/benchmarks/dhrystone/dry.c:769
    for (Run_Index = 1; Run_Index <= Number_Of_Runs; ++Run_Index) {
80000198:	00100493          	addi	s1,zero,1
/home/tututu/qimeng/simulator/baremetal/benchmarks/dhrystone/dry.c:776
      strcpy(Str_2_Loc, "DHRYSTONE PROGRAM, 2'ND STRING");
8000019c:	00e12823          	sw	a4,16(sp)
800001a0:	0087a703          	lw	a4,8(a5)
800001a4:	80005a37          	lui	s4,0x80005
800001a8:	80005937          	lui	s2,0x80005
800001ac:	00e12a23          	sw	a4,20(sp)
800001b0:	00c7a703          	lw	a4,12(a5)
800001b4:	80005bb7          	lui	s7,0x80005
800001b8:	dac40413          	addi	s0,s0,-596 # 80001dac <_sp+0xf8001dac>
800001bc:	00e12c23          	sw	a4,24(sp)
800001c0:	0107a703          	lw	a4,16(a5)
800001c4:	274b0b13          	addi	s6,s6,628 # 80003274 <_sp+0xf8003274>
800001c8:	800059b7          	lui	s3,0x80005
800001cc:	00e12e23          	sw	a4,28(sp)
800001d0:	0147a703          	lw	a4,20(a5)
/home/tututu/qimeng/simulator/baremetal/benchmarks/dhrystone/dry.c:799
          strcpy(Str_2_Loc, "DHRYSTONE PROGRAM, 3'RD STRING");
800001d4:	d3080d93          	addi	s11,a6,-720 # 80001d30 <_sp+0xf8001d30>
/home/tututu/qimeng/simulator/baremetal/benchmarks/dhrystone/dry.c:776
      strcpy(Str_2_Loc, "DHRYSTONE PROGRAM, 2'ND STRING");
800001d8:	02e12023          	sw	a4,32(sp)
800001dc:	0187a703          	lw	a4,24(a5)
800001e0:	02e12223          	sw	a4,36(sp)
800001e4:	01c7d703          	lhu	a4,28(a5)
800001e8:	01e7c783          	lbu	a5,30(a5)
800001ec:	02e12423          	sw	a4,40(sp)
800001f0:	02f12623          	sw	a5,44(sp)
Proc_5():
/home/tututu/qimeng/simulator/baremetal/benchmarks/dhrystone/dry.c:542
  Ch_1_Glob = 'A';
800001f4:	04100793          	addi	a5,zero,65
800001f8:	9afa00a3          	sb	a5,-1631(s4) # 800049a1 <_sp+0xf80049a1>
Proc_4():
/home/tututu/qimeng/simulator/baremetal/benchmarks/dhrystone/dry.c:535
  Ch_2_Glob = 'B';
800001fc:	04200793          	addi	a5,zero,66
80000200:	9af90023          	sb	a5,-1632(s2) # 800049a0 <_sp+0xf80049a0>
main():
/home/tututu/qimeng/simulator/baremetal/benchmarks/dhrystone/dry.c:776
      strcpy(Str_2_Loc, "DHRYSTONE PROGRAM, 2'ND STRING");
80000204:	00c12783          	lw	a5,12(sp)
Func_2():
/home/tututu/qimeng/simulator/baremetal/benchmarks/dhrystone/dry.c:675
    if (Func_1(Str_1_Par_Ref[Int_Loc], Str_2_Par_Ref[Int_Loc + 1]) == Ident_1)
80000208:	03214703          	lbu	a4,50(sp)
8000020c:	00000693          	addi	a3,zero,0
main():
/home/tututu/qimeng/simulator/baremetal/benchmarks/dhrystone/dry.c:776
      strcpy(Str_2_Loc, "DHRYSTONE PROGRAM, 2'ND STRING");
80000210:	04f12823          	sw	a5,80(sp)
80000214:	01012783          	lw	a5,16(sp)
80000218:	04f12a23          	sw	a5,84(sp)
8000021c:	01412783          	lw	a5,20(sp)
80000220:	04f12c23          	sw	a5,88(sp)
80000224:	01812783          	lw	a5,24(sp)
80000228:	04f12e23          	sw	a5,92(sp)
8000022c:	01c12783          	lw	a5,28(sp)
80000230:	06f12023          	sw	a5,96(sp)
80000234:	02012783          	lw	a5,32(sp)
80000238:	06f12223          	sw	a5,100(sp)
8000023c:	02412783          	lw	a5,36(sp)
80000240:	06f12423          	sw	a5,104(sp)
80000244:	02812783          	lw	a5,40(sp)
80000248:	06f11623          	sh	a5,108(sp)
8000024c:	02c12783          	lw	a5,44(sp)
80000250:	06f10723          	sb	a5,110(sp)
Func_1():
/home/tututu/qimeng/simulator/baremetal/benchmarks/dhrystone/dry.c:651
  if (Ch_2_Loc != Ch_2_Par_Val)
80000254:	05900793          	addi	a5,zero,89
80000258:	6cf70063          	beq	a4,a5,80000918 <main+0x8f0>
8000025c:	00068463          	beq	a3,zero,80000264 <main+0x23c>
80000260:	9afa00a3          	sb	a5,-1631(s4)
Func_2():
/home/tututu/qimeng/simulator/baremetal/benchmarks/dhrystone/dry.c:689
    if (strcmp(Str_1_Par_Ref, Str_2_Par_Ref) > 0) {
80000264:	05010593          	addi	a1,sp,80
80000268:	03010513          	addi	a0,sp,48
8000026c:	46c010ef          	jal	ra,800016d8 <strcmp>
Proc_8():
/home/tututu/qimeng/simulator/baremetal/benchmarks/dhrystone/dry.c:631
  Arr_2_Par_Ref[Int_Loc][Int_Loc - 1] += 1;
80000270:	65cd2703          	lw	a4,1628(s10)
Func_2():
/home/tututu/qimeng/simulator/baremetal/benchmarks/dhrystone/dry.c:689
    if (strcmp(Str_1_Par_Ref, Str_2_Par_Ref) > 0) {
80000274:	00050613          	addi	a2,a0,0
main():
/home/tututu/qimeng/simulator/baremetal/benchmarks/dhrystone/dry.c:791
      Proc_1(Ptr_Glob);
80000278:	9b0aa503          	lw	a0,-1616(s5)
Proc_8():
/home/tututu/qimeng/simulator/baremetal/benchmarks/dhrystone/dry.c:626
  Arr_1_Par_Ref[Int_Loc] = Int_2_Par_Val;
8000027c:	00700793          	addi	a5,zero,7
/home/tututu/qimeng/simulator/baremetal/benchmarks/dhrystone/dry.c:628
  Arr_1_Par_Ref[Int_Loc + 30] = Int_Loc;
80000280:	00800693          	addi	a3,zero,8
/home/tututu/qimeng/simulator/baremetal/benchmarks/dhrystone/dry.c:631
  Arr_2_Par_Ref[Int_Loc][Int_Loc - 1] += 1;
80000284:	00170713          	addi	a4,a4,1
main():
/home/tututu/qimeng/simulator/baremetal/benchmarks/dhrystone/dry.c:778
      Bool_Glob = !Func_2(Str_1_Loc, Str_2_Loc);
80000288:	00162613          	slti	a2,a2,1
Proc_8():
/home/tututu/qimeng/simulator/baremetal/benchmarks/dhrystone/dry.c:626
  Arr_1_Par_Ref[Int_Loc] = Int_2_Par_Val;
8000028c:	02f42023          	sw	a5,32(s0)
/home/tututu/qimeng/simulator/baremetal/benchmarks/dhrystone/dry.c:627
  Arr_1_Par_Ref[Int_Loc + 1] = Arr_1_Par_Ref[Int_Loc];
80000290:	02f42223          	sw	a5,36(s0)
/home/tututu/qimeng/simulator/baremetal/benchmarks/dhrystone/dry.c:632
  Arr_2_Par_Ref[Int_Loc + 20][Int_Loc] = Arr_1_Par_Ref[Int_Loc];
80000294:	60fb2023          	sw	a5,1536(s6)
/home/tututu/qimeng/simulator/baremetal/benchmarks/dhrystone/dry.c:628
  Arr_1_Par_Ref[Int_Loc + 30] = Int_Loc;
80000298:	08d42c23          	sw	a3,152(s0)
/home/tututu/qimeng/simulator/baremetal/benchmarks/dhrystone/dry.c:633
  Int_Glob = 5;
8000029c:	00500793          	addi	a5,zero,5
/home/tututu/qimeng/simulator/baremetal/benchmarks/dhrystone/dry.c:631
  Arr_2_Par_Ref[Int_Loc][Int_Loc - 1] += 1;
800002a0:	64ed2e23          	sw	a4,1628(s10)
/home/tututu/qimeng/simulator/baremetal/benchmarks/dhrystone/dry.c:633
  Int_Glob = 5;
800002a4:	9af9a423          	sw	a5,-1624(s3) # 800049a8 <_sp+0xf80049a8>
main():
/home/tututu/qimeng/simulator/baremetal/benchmarks/dhrystone/dry.c:778
      Bool_Glob = !Func_2(Str_1_Loc, Str_2_Loc);
800002a8:	9acba223          	sw	a2,-1628(s7) # 800049a4 <_sp+0xf80049a4>
Proc_8():
/home/tututu/qimeng/simulator/baremetal/benchmarks/dhrystone/dry.c:630
    Arr_2_Par_Ref[Int_Loc][Int_Index] = Int_Loc;
800002ac:	66dd2023          	sw	a3,1632(s10)
800002b0:	66dd2223          	sw	a3,1636(s10)
main():
/home/tututu/qimeng/simulator/baremetal/benchmarks/dhrystone/dry.c:791
      Proc_1(Ptr_Glob);
800002b4:	794000ef          	jal	ra,80000a48 <Proc_1>
/home/tututu/qimeng/simulator/baremetal/benchmarks/dhrystone/dry.c:792
      for (Ch_Index = 'A'; Ch_Index <= Ch_2_Glob; ++Ch_Index)
800002b8:	9a094703          	lbu	a4,-1632(s2)
800002bc:	04000793          	addi	a5,zero,64
800002c0:	66e7f063          	bgeu	a5,a4,80000920 <main+0x8f8>
800002c4:	00000893          	addi	a7,zero,0
800002c8:	04100793          	addi	a5,zero,65
800002cc:	00000813          	addi	a6,zero,0
/home/tututu/qimeng/simulator/baremetal/benchmarks/dhrystone/dry.c:777
      Enum_Loc = Ident_2;
800002d0:	00100c93          	addi	s9,zero,1
/home/tututu/qimeng/simulator/baremetal/benchmarks/dhrystone/dry.c:775
      Int_2_Loc = 3;
800002d4:	00300513          	addi	a0,zero,3
Func_1():
/home/tututu/qimeng/simulator/baremetal/benchmarks/dhrystone/dry.c:651
  if (Ch_2_Loc != Ch_2_Par_Val)
800002d8:	04300593          	addi	a1,zero,67
main():
/home/tututu/qimeng/simulator/baremetal/benchmarks/dhrystone/dry.c:792 (discriminator 2)
      for (Ch_Index = 'A'; Ch_Index <= Ch_2_Glob; ++Ch_Index)
800002dc:	00178793          	addi	a5,a5,1
800002e0:	0ff7f793          	andi	a5,a5,255
800002e4:	06f76a63          	bltu	a4,a5,80000358 <main+0x330>
Func_1():
/home/tututu/qimeng/simulator/baremetal/benchmarks/dhrystone/dry.c:653
    return (Ident_1);
800002e8:	00000693          	addi	a3,zero,0
/home/tututu/qimeng/simulator/baremetal/benchmarks/dhrystone/dry.c:651
  if (Ch_2_Loc != Ch_2_Par_Val)
800002ec:	62b78063          	beq	a5,a1,8000090c <main+0x8e4>
main():
/home/tututu/qimeng/simulator/baremetal/benchmarks/dhrystone/dry.c:795
        if (Enum_Loc == Func_1(Ch_Index, 'C'))
800002f0:	fedc96e3          	bne	s9,a3,800002dc <main+0x2b4>
/home/tututu/qimeng/simulator/baremetal/benchmarks/dhrystone/dry.c:799
          strcpy(Str_2_Loc, "DHRYSTONE PROGRAM, 3'RD STRING");
800002f4:	014da803          	lw	a6,20(s11)
800002f8:	018da503          	lw	a0,24(s11)
800002fc:	000daf83          	lw	t6,0(s11)
80000300:	004daf03          	lw	t5,4(s11)
80000304:	008dae83          	lw	t4,8(s11)
80000308:	00cdae03          	lw	t3,12(s11)
8000030c:	010da303          	lw	t1,16(s11)
80000310:	01cdd603          	lhu	a2,28(s11)
80000314:	01edc683          	lbu	a3,30(s11)
/home/tututu/qimeng/simulator/baremetal/benchmarks/dhrystone/dry.c:792
      for (Ch_Index = 'A'; Ch_Index <= Ch_2_Glob; ++Ch_Index)
80000318:	00178793          	addi	a5,a5,1
/home/tututu/qimeng/simulator/baremetal/benchmarks/dhrystone/dry.c:799
          strcpy(Str_2_Loc, "DHRYSTONE PROGRAM, 3'RD STRING");
8000031c:	07012223          	sw	a6,100(sp)
80000320:	06a12423          	sw	a0,104(sp)
80000324:	05f12823          	sw	t6,80(sp)
80000328:	05e12a23          	sw	t5,84(sp)
8000032c:	05d12c23          	sw	t4,88(sp)
80000330:	05c12e23          	sw	t3,92(sp)
80000334:	06612023          	sw	t1,96(sp)
80000338:	06c11623          	sh	a2,108(sp)
8000033c:	06d10723          	sb	a3,110(sp)
/home/tututu/qimeng/simulator/baremetal/benchmarks/dhrystone/dry.c:792
      for (Ch_Index = 'A'; Ch_Index <= Ch_2_Glob; ++Ch_Index)
80000340:	0ff7f793          	andi	a5,a5,255
/home/tututu/qimeng/simulator/baremetal/benchmarks/dhrystone/dry.c:801
          Int_2_Loc = Run_Index;
          Int_Glob = Run_Index;
80000344:	00048c13          	addi	s8,s1,0
/home/tututu/qimeng/simulator/baremetal/benchmarks/dhrystone/dry.c:799
          strcpy(Str_2_Loc, "DHRYSTONE PROGRAM, 3'RD STRING");
80000348:	00048513          	addi	a0,s1,0
8000034c:	00100813          	addi	a6,zero,1
Proc_6():
/home/tututu/qimeng/simulator/baremetal/benchmarks/dhrystone/dry.c:584
    *Enum_Ref_Par = Ident_1;
80000350:	00000c93          	addi	s9,zero,0
main():
/home/tututu/qimeng/simulator/baremetal/benchmarks/dhrystone/dry.c:792
      for (Ch_Index = 'A'; Ch_Index <= Ch_2_Glob; ++Ch_Index)
80000354:	f8f77ae3          	bgeu	a4,a5,800002e8 <main+0x2c0>
80000358:	00080463          	beq	a6,zero,80000360 <main+0x338>
8000035c:	9b89a423          	sw	s8,-1624(s3)
80000360:	5c088a63          	beq	a7,zero,80000934 <main+0x90c>
80000364:	04300793          	addi	a5,zero,67
80000368:	9afa00a3          	sb	a5,-1631(s4)
/home/tututu/qimeng/simulator/baremetal/benchmarks/dhrystone/dry.c:775
      Int_2_Loc = 3;
8000036c:	04300613          	addi	a2,zero,67
/home/tututu/qimeng/simulator/baremetal/benchmarks/dhrystone/dry.c:805
        }
      }
      /* Int_1_Loc == 3, Int_2_Loc == 3, Int_3_Loc == 7 */
      Int_2_Loc = Int_2_Loc * Int_1_Loc;
80000370:	00151793          	slli	a5,a0,0x1
80000374:	00a787b3          	add	a5,a5,a0
/home/tututu/qimeng/simulator/baremetal/benchmarks/dhrystone/dry.c:806
      Int_1_Loc = Int_2_Loc / Int_3_Loc;
80000378:	00078513          	addi	a0,a5,0
8000037c:	00700593          	addi	a1,zero,7
80000380:	00c12423          	sw	a2,8(sp)
80000384:	00f12223          	sw	a5,4(sp)
80000388:	174010ef          	jal	ra,800014fc <__divsi3>
/home/tututu/qimeng/simulator/baremetal/benchmarks/dhrystone/dry.c:807
      Int_2_Loc = 7 * (Int_2_Loc - Int_3_Loc) - Int_1_Loc;
8000038c:	00412783          	lw	a5,4(sp)
80000390:	00812603          	lw	a2,8(sp)
80000394:	ff978793          	addi	a5,a5,-7
80000398:	00379713          	slli	a4,a5,0x3
8000039c:	40f70733          	sub	a4,a4,a5
800003a0:	40a70733          	sub	a4,a4,a0
Proc_2():
/home/tututu/qimeng/simulator/baremetal/benchmarks/dhrystone/dry.c:503 (discriminator 2)
    if (Ch_1_Glob == 'A')
800003a4:	04100793          	addi	a5,zero,65
800003a8:	00f61863          	bne	a2,a5,800003b8 <main+0x390>
/home/tututu/qimeng/simulator/baremetal/benchmarks/dhrystone/dry.c:507
      *Int_Par_Ref = Int_Loc - Int_Glob;
800003ac:	9a89a783          	lw	a5,-1624(s3)
/home/tututu/qimeng/simulator/baremetal/benchmarks/dhrystone/dry.c:506
      Int_Loc -= 1;
800003b0:	00950513          	addi	a0,a0,9
/home/tututu/qimeng/simulator/baremetal/benchmarks/dhrystone/dry.c:507
      *Int_Par_Ref = Int_Loc - Int_Glob;
800003b4:	40f50533          	sub	a0,a0,a5
main():
/home/tututu/qimeng/simulator/baremetal/benchmarks/dhrystone/dry.c:769
    for (Run_Index = 1; Run_Index <= Number_Of_Runs; ++Run_Index) {
800003b8:	00148493          	addi	s1,s1,1
800003bc:	3e900793          	addi	a5,zero,1001
800003c0:	e2f49ae3          	bne	s1,a5,800001f4 <main+0x1cc>
/home/tututu/qimeng/simulator/baremetal/benchmarks/dhrystone/dry.c:821
    /**************/

    Done = true;
  }

  if (!check(Int_Glob == 5)) {
800003c4:	9a89a583          	lw	a1,-1624(s3)
/home/tututu/qimeng/simulator/baremetal/benchmarks/dhrystone/dry.c:818
    Done = true;
800003c8:	00100793          	addi	a5,zero,1
800003cc:	800056b7          	lui	a3,0x80005
800003d0:	98f6ac23          	sw	a5,-1640(a3) # 80004998 <_sp+0xf8004998>
check():
/home/tututu/qimeng/simulator/baremetal/benchmarks/dhrystone/dry.c:716
  if (!cond)
800003d4:	00500793          	addi	a5,zero,5
main():
/home/tututu/qimeng/simulator/baremetal/benchmarks/dhrystone/dry.c:821
  if (!check(Int_Glob == 5)) {
800003d8:	00070613          	addi	a2,a4,0
800003dc:	00050713          	addi	a4,a0,0
check():
/home/tututu/qimeng/simulator/baremetal/benchmarks/dhrystone/dry.c:716
  if (!cond)
800003e0:	54f58e63          	beq	a1,a5,8000093c <main+0x914>
800003e4:	00a12223          	sw	a0,4(sp)
main():
/home/tututu/qimeng/simulator/baremetal/benchmarks/dhrystone/dry.c:822
    xprintf("Int_Glob:            %d\n", Int_Glob);
800003e8:	80002537          	lui	a0,0x80002
800003ec:	8dc50513          	addi	a0,a0,-1828 # 800018dc <_sp+0xf80018dc>
check():
/home/tututu/qimeng/simulator/baremetal/benchmarks/dhrystone/dry.c:717
    pass = false;
800003f0:	800054b7          	lui	s1,0x80005
800003f4:	00c12423          	sw	a2,8(sp)
800003f8:	9c04a423          	sw	zero,-1592(s1) # 800049c8 <_sp+0xf80049c8>
main():
/home/tututu/qimeng/simulator/baremetal/benchmarks/dhrystone/dry.c:822
    xprintf("Int_Glob:            %d\n", Int_Glob);
800003fc:	2c9000ef          	jal	ra,80000ec4 <xprintf>
/home/tututu/qimeng/simulator/baremetal/benchmarks/dhrystone/dry.c:823
    xprintf("        should be:   %d\n", 5);
80000400:	80002537          	lui	a0,0x80002
80000404:	00500593          	addi	a1,zero,5
80000408:	8f850513          	addi	a0,a0,-1800 # 800018f8 <_sp+0xf80018f8>
8000040c:	2b9000ef          	jal	ra,80000ec4 <xprintf>
80000410:	00812603          	lw	a2,8(sp)
80000414:	00412703          	lw	a4,4(sp)
/home/tututu/qimeng/simulator/baremetal/benchmarks/dhrystone/dry.c:825
  }
  if (!check(Bool_Glob == 1)) {
80000418:	9a4ba583          	lw	a1,-1628(s7)
check():
/home/tututu/qimeng/simulator/baremetal/benchmarks/dhrystone/dry.c:716
  if (!cond)
8000041c:	00100793          	addi	a5,zero,1
80000420:	02f58a63          	beq	a1,a5,80000454 <main+0x42c>
main():
/home/tututu/qimeng/simulator/baremetal/benchmarks/dhrystone/dry.c:826
    xprintf("Bool_Glob:           %d\n", Bool_Glob);
80000424:	80002537          	lui	a0,0x80002
80000428:	91450513          	addi	a0,a0,-1772 # 80001914 <_sp+0xf8001914>
8000042c:	00c12423          	sw	a2,8(sp)
80000430:	00e12223          	sw	a4,4(sp)
check():
/home/tututu/qimeng/simulator/baremetal/benchmarks/dhrystone/dry.c:717
    pass = false;
80000434:	9c04a423          	sw	zero,-1592(s1)
main():
/home/tututu/qimeng/simulator/baremetal/benchmarks/dhrystone/dry.c:826
    xprintf("Bool_Glob:           %d\n", Bool_Glob);
80000438:	28d000ef          	jal	ra,80000ec4 <xprintf>
/home/tututu/qimeng/simulator/baremetal/benchmarks/dhrystone/dry.c:827
    xprintf("        should be:   %d\n", 1);
8000043c:	80002537          	lui	a0,0x80002
80000440:	00100593          	addi	a1,zero,1
80000444:	8f850513          	addi	a0,a0,-1800 # 800018f8 <_sp+0xf80018f8>
80000448:	27d000ef          	jal	ra,80000ec4 <xprintf>
8000044c:	00812603          	lw	a2,8(sp)
80000450:	00412703          	lw	a4,4(sp)
/home/tututu/qimeng/simulator/baremetal/benchmarks/dhrystone/dry.c:829
  }
  if (!check(Ch_1_Glob == 'A')) {
80000454:	9a1a4583          	lbu	a1,-1631(s4)
check():
/home/tututu/qimeng/simulator/baremetal/benchmarks/dhrystone/dry.c:716
  if (!cond)
80000458:	04100793          	addi	a5,zero,65
8000045c:	02f58a63          	beq	a1,a5,80000490 <main+0x468>
main():
/home/tututu/qimeng/simulator/baremetal/benchmarks/dhrystone/dry.c:830
    xprintf("Ch_1_Glob:           %c\n", Ch_1_Glob);
80000460:	80002537          	lui	a0,0x80002
80000464:	93050513          	addi	a0,a0,-1744 # 80001930 <_sp+0xf8001930>
80000468:	00c12423          	sw	a2,8(sp)
8000046c:	00e12223          	sw	a4,4(sp)
check():
/home/tututu/qimeng/simulator/baremetal/benchmarks/dhrystone/dry.c:717
    pass = false;
80000470:	9c04a423          	sw	zero,-1592(s1)
main():
/home/tututu/qimeng/simulator/baremetal/benchmarks/dhrystone/dry.c:830
    xprintf("Ch_1_Glob:           %c\n", Ch_1_Glob);
80000474:	251000ef          	jal	ra,80000ec4 <xprintf>
/home/tututu/qimeng/simulator/baremetal/benchmarks/dhrystone/dry.c:831
    xprintf("        should be:   %c\n", 'A');
80000478:	80002537          	lui	a0,0x80002
8000047c:	04100593          	addi	a1,zero,65
80000480:	94c50513          	addi	a0,a0,-1716 # 8000194c <_sp+0xf800194c>
80000484:	241000ef          	jal	ra,80000ec4 <xprintf>
80000488:	00812603          	lw	a2,8(sp)
8000048c:	00412703          	lw	a4,4(sp)
/home/tututu/qimeng/simulator/baremetal/benchmarks/dhrystone/dry.c:833
  }
  if (!check(Ch_2_Glob == 'B')) {
80000490:	9a094583          	lbu	a1,-1632(s2)
check():
/home/tututu/qimeng/simulator/baremetal/benchmarks/dhrystone/dry.c:716
  if (!cond)
80000494:	04200793          	addi	a5,zero,66
80000498:	02f58a63          	beq	a1,a5,800004cc <main+0x4a4>
main():
/home/tututu/qimeng/simulator/baremetal/benchmarks/dhrystone/dry.c:834
    xprintf("Ch_2_Glob:           %c\n", Ch_2_Glob);
8000049c:	80002537          	lui	a0,0x80002
800004a0:	96850513          	addi	a0,a0,-1688 # 80001968 <_sp+0xf8001968>
800004a4:	00c12423          	sw	a2,8(sp)
800004a8:	00e12223          	sw	a4,4(sp)
check():
/home/tututu/qimeng/simulator/baremetal/benchmarks/dhrystone/dry.c:717
    pass = false;
800004ac:	9c04a423          	sw	zero,-1592(s1)
main():
/home/tututu/qimeng/simulator/baremetal/benchmarks/dhrystone/dry.c:834
    xprintf("Ch_2_Glob:           %c\n", Ch_2_Glob);
800004b0:	215000ef          	jal	ra,80000ec4 <xprintf>
/home/tututu/qimeng/simulator/baremetal/benchmarks/dhrystone/dry.c:835
    xprintf("        should be:   %c\n", 'B');
800004b4:	80002537          	lui	a0,0x80002
800004b8:	04200593          	addi	a1,zero,66
800004bc:	94c50513          	addi	a0,a0,-1716 # 8000194c <_sp+0xf800194c>
800004c0:	205000ef          	jal	ra,80000ec4 <xprintf>
800004c4:	00812603          	lw	a2,8(sp)
800004c8:	00412703          	lw	a4,4(sp)
/home/tututu/qimeng/simulator/baremetal/benchmarks/dhrystone/dry.c:837
  }
  if (!check(Arr_1_Glob[8] == 7)) {
800004cc:	02042583          	lw	a1,32(s0)
check():
/home/tututu/qimeng/simulator/baremetal/benchmarks/dhrystone/dry.c:716
  if (!cond)
800004d0:	00700793          	addi	a5,zero,7
800004d4:	02f58a63          	beq	a1,a5,80000508 <main+0x4e0>
main():
/home/tututu/qimeng/simulator/baremetal/benchmarks/dhrystone/dry.c:838
    xprintf("Arr_1_Glob[8]:       %d\n", Arr_1_Glob[8]);
800004d8:	80002537          	lui	a0,0x80002
800004dc:	98450513          	addi	a0,a0,-1660 # 80001984 <_sp+0xf8001984>
800004e0:	00c12423          	sw	a2,8(sp)
800004e4:	00e12223          	sw	a4,4(sp)
check():
/home/tututu/qimeng/simulator/baremetal/benchmarks/dhrystone/dry.c:717
    pass = false;
800004e8:	9c04a423          	sw	zero,-1592(s1)
main():
/home/tututu/qimeng/simulator/baremetal/benchmarks/dhrystone/dry.c:838
    xprintf("Arr_1_Glob[8]:       %d\n", Arr_1_Glob[8]);
800004ec:	1d9000ef          	jal	ra,80000ec4 <xprintf>
/home/tututu/qimeng/simulator/baremetal/benchmarks/dhrystone/dry.c:839
    xprintf("        should be:   %d\n", 7);
800004f0:	80002537          	lui	a0,0x80002
800004f4:	00700593          	addi	a1,zero,7
800004f8:	8f850513          	addi	a0,a0,-1800 # 800018f8 <_sp+0xf80018f8>
800004fc:	1c9000ef          	jal	ra,80000ec4 <xprintf>
80000500:	00812603          	lw	a2,8(sp)
80000504:	00412703          	lw	a4,4(sp)
/home/tututu/qimeng/simulator/baremetal/benchmarks/dhrystone/dry.c:841
  }
  if (!check(Arr_2_Glob[8][7] == Number_Of_Runs + 10)) {
80000508:	65cd2583          	lw	a1,1628(s10)
check():
/home/tututu/qimeng/simulator/baremetal/benchmarks/dhrystone/dry.c:716
  if (!cond)
8000050c:	3f200793          	addi	a5,zero,1010
80000510:	02f58863          	beq	a1,a5,80000540 <main+0x518>
main():
/home/tututu/qimeng/simulator/baremetal/benchmarks/dhrystone/dry.c:842
    xprintf("Arr_2_Glob[8][7]:    %d\n", Arr_2_Glob[8][7]);
80000514:	80002537          	lui	a0,0x80002
80000518:	9a050513          	addi	a0,a0,-1632 # 800019a0 <_sp+0xf80019a0>
8000051c:	00c12423          	sw	a2,8(sp)
80000520:	00e12223          	sw	a4,4(sp)
check():
/home/tututu/qimeng/simulator/baremetal/benchmarks/dhrystone/dry.c:717
    pass = false;
80000524:	9c04a423          	sw	zero,-1592(s1)
main():
/home/tututu/qimeng/simulator/baremetal/benchmarks/dhrystone/dry.c:842
    xprintf("Arr_2_Glob[8][7]:    %d\n", Arr_2_Glob[8][7]);
80000528:	19d000ef          	jal	ra,80000ec4 <xprintf>
/home/tututu/qimeng/simulator/baremetal/benchmarks/dhrystone/dry.c:843
    xprintf("        should be:   Number_Of_Runs + 10\n");
8000052c:	80002537          	lui	a0,0x80002
80000530:	9bc50513          	addi	a0,a0,-1604 # 800019bc <_sp+0xf80019bc>
80000534:	191000ef          	jal	ra,80000ec4 <xprintf>
80000538:	00812603          	lw	a2,8(sp)
8000053c:	00412703          	lw	a4,4(sp)
/home/tututu/qimeng/simulator/baremetal/benchmarks/dhrystone/dry.c:846
  }

  if (!check((int)Ptr_Glob->Discr == 0)) {
80000540:	9b0aa783          	lw	a5,-1616(s5)
80000544:	0047a583          	lw	a1,4(a5)
check():
/home/tututu/qimeng/simulator/baremetal/benchmarks/dhrystone/dry.c:716
  if (!cond)
80000548:	02058a63          	beq	a1,zero,8000057c <main+0x554>
main():
/home/tututu/qimeng/simulator/baremetal/benchmarks/dhrystone/dry.c:847
    xprintf("Ptr_Glob->Discr:             %d\n", Ptr_Glob->Discr);
8000054c:	80002537          	lui	a0,0x80002
80000550:	9e850513          	addi	a0,a0,-1560 # 800019e8 <_sp+0xf80019e8>
80000554:	00c12423          	sw	a2,8(sp)
80000558:	00e12223          	sw	a4,4(sp)
check():
/home/tututu/qimeng/simulator/baremetal/benchmarks/dhrystone/dry.c:717
    pass = false;
8000055c:	9c04a423          	sw	zero,-1592(s1)
main():
/home/tututu/qimeng/simulator/baremetal/benchmarks/dhrystone/dry.c:847
    xprintf("Ptr_Glob->Discr:             %d\n", Ptr_Glob->Discr);
80000560:	165000ef          	jal	ra,80000ec4 <xprintf>
/home/tututu/qimeng/simulator/baremetal/benchmarks/dhrystone/dry.c:848
    xprintf("        should be:   %d\n", 0);
80000564:	80002537          	lui	a0,0x80002
80000568:	00000593          	addi	a1,zero,0
8000056c:	8f850513          	addi	a0,a0,-1800 # 800018f8 <_sp+0xf80018f8>
80000570:	155000ef          	jal	ra,80000ec4 <xprintf>
80000574:	00812603          	lw	a2,8(sp)
80000578:	00412703          	lw	a4,4(sp)
/home/tututu/qimeng/simulator/baremetal/benchmarks/dhrystone/dry.c:850
  }
  if (!check(Ptr_Glob->variant.var_1.Enum_Comp == 2)) {
8000057c:	9b0aa583          	lw	a1,-1616(s5)
check():
/home/tututu/qimeng/simulator/baremetal/benchmarks/dhrystone/dry.c:716
  if (!cond)
80000580:	00200793          	addi	a5,zero,2
main():
/home/tututu/qimeng/simulator/baremetal/benchmarks/dhrystone/dry.c:850
  if (!check(Ptr_Glob->variant.var_1.Enum_Comp == 2)) {
80000584:	0085a583          	lw	a1,8(a1)
check():
/home/tututu/qimeng/simulator/baremetal/benchmarks/dhrystone/dry.c:716
  if (!cond)
80000588:	02f58a63          	beq	a1,a5,800005bc <main+0x594>
main():
/home/tututu/qimeng/simulator/baremetal/benchmarks/dhrystone/dry.c:851
    xprintf("Ptr_Glob->Enum_Comp:         %d\n",
8000058c:	80002537          	lui	a0,0x80002
80000590:	a0c50513          	addi	a0,a0,-1524 # 80001a0c <_sp+0xf8001a0c>
80000594:	00c12423          	sw	a2,8(sp)
80000598:	00e12223          	sw	a4,4(sp)
check():
/home/tututu/qimeng/simulator/baremetal/benchmarks/dhrystone/dry.c:717
    pass = false;
8000059c:	9c04a423          	sw	zero,-1592(s1)
main():
/home/tututu/qimeng/simulator/baremetal/benchmarks/dhrystone/dry.c:851
    xprintf("Ptr_Glob->Enum_Comp:         %d\n",
800005a0:	125000ef          	jal	ra,80000ec4 <xprintf>
/home/tututu/qimeng/simulator/baremetal/benchmarks/dhrystone/dry.c:853
            Ptr_Glob->variant.var_1.Enum_Comp);
    xprintf("        should be:   %d\n", 2);
800005a4:	80002537          	lui	a0,0x80002
800005a8:	00200593          	addi	a1,zero,2
800005ac:	8f850513          	addi	a0,a0,-1800 # 800018f8 <_sp+0xf80018f8>
800005b0:	115000ef          	jal	ra,80000ec4 <xprintf>
800005b4:	00812603          	lw	a2,8(sp)
800005b8:	00412703          	lw	a4,4(sp)
/home/tututu/qimeng/simulator/baremetal/benchmarks/dhrystone/dry.c:855
  }
  if (!check(Ptr_Glob->variant.var_1.Int_Comp == 17)) {
800005bc:	9b0aa583          	lw	a1,-1616(s5)
check():
/home/tututu/qimeng/simulator/baremetal/benchmarks/dhrystone/dry.c:716
  if (!cond)
800005c0:	01100793          	addi	a5,zero,17
main():
/home/tututu/qimeng/simulator/baremetal/benchmarks/dhrystone/dry.c:855
  if (!check(Ptr_Glob->variant.var_1.Int_Comp == 17)) {
800005c4:	00c5a583          	lw	a1,12(a1)
check():
/home/tututu/qimeng/simulator/baremetal/benchmarks/dhrystone/dry.c:716
  if (!cond)
800005c8:	02f58a63          	beq	a1,a5,800005fc <main+0x5d4>
main():
/home/tututu/qimeng/simulator/baremetal/benchmarks/dhrystone/dry.c:856
    xprintf("Ptr_Glob->Int_Comp:          %d\n",
800005cc:	80002537          	lui	a0,0x80002
800005d0:	a3050513          	addi	a0,a0,-1488 # 80001a30 <_sp+0xf8001a30>
800005d4:	00c12423          	sw	a2,8(sp)
800005d8:	00e12223          	sw	a4,4(sp)
check():
/home/tututu/qimeng/simulator/baremetal/benchmarks/dhrystone/dry.c:717
    pass = false;
800005dc:	9c04a423          	sw	zero,-1592(s1)
main():
/home/tututu/qimeng/simulator/baremetal/benchmarks/dhrystone/dry.c:856
    xprintf("Ptr_Glob->Int_Comp:          %d\n",
800005e0:	0e5000ef          	jal	ra,80000ec4 <xprintf>
/home/tututu/qimeng/simulator/baremetal/benchmarks/dhrystone/dry.c:858
            Ptr_Glob->variant.var_1.Int_Comp);
    xprintf("        should be:   %d\n", 17);
800005e4:	80002537          	lui	a0,0x80002
800005e8:	01100593          	addi	a1,zero,17
800005ec:	8f850513          	addi	a0,a0,-1800 # 800018f8 <_sp+0xf80018f8>
800005f0:	0d5000ef          	jal	ra,80000ec4 <xprintf>
800005f4:	00812603          	lw	a2,8(sp)
800005f8:	00412703          	lw	a4,4(sp)
/home/tututu/qimeng/simulator/baremetal/benchmarks/dhrystone/dry.c:860
  }
  if (!check(strcmp(Ptr_Glob->variant.var_1.Str_Comp,
800005fc:	9b0aa403          	lw	s0,-1616(s5)
80000600:	800027b7          	lui	a5,0x80002
80000604:	86478593          	addi	a1,a5,-1948 # 80001864 <_sp+0xf8001864>
80000608:	01040413          	addi	s0,s0,16
8000060c:	00040513          	addi	a0,s0,0
80000610:	00c12423          	sw	a2,8(sp)
80000614:	00e12223          	sw	a4,4(sp)
80000618:	0c0010ef          	jal	ra,800016d8 <strcmp>
check():
/home/tututu/qimeng/simulator/baremetal/benchmarks/dhrystone/dry.c:716
  if (!cond)
8000061c:	00412703          	lw	a4,4(sp)
80000620:	00812603          	lw	a2,8(sp)
80000624:	02050663          	beq	a0,zero,80000650 <main+0x628>
main():
/home/tututu/qimeng/simulator/baremetal/benchmarks/dhrystone/dry.c:862
                    "DHRYSTONE PROGRAM, SOME STRING") == 0)) {
    xprintf("Ptr_Glob->Str_Comp:          %s\n",
80000628:	80002537          	lui	a0,0x80002
8000062c:	a5450513          	addi	a0,a0,-1452 # 80001a54 <_sp+0xf8001a54>
80000630:	00040593          	addi	a1,s0,0
check():
/home/tututu/qimeng/simulator/baremetal/benchmarks/dhrystone/dry.c:717
    pass = false;
80000634:	9c04a423          	sw	zero,-1592(s1)
main():
/home/tututu/qimeng/simulator/baremetal/benchmarks/dhrystone/dry.c:862
    xprintf("Ptr_Glob->Str_Comp:          %s\n",
80000638:	08d000ef          	jal	ra,80000ec4 <xprintf>
/home/tututu/qimeng/simulator/baremetal/benchmarks/dhrystone/dry.c:864
            Ptr_Glob->variant.var_1.Str_Comp);
    xprintf("        should be:   DHRYSTONE PROGRAM, SOME STRING\n");
8000063c:	80002537          	lui	a0,0x80002
80000640:	a7850513          	addi	a0,a0,-1416 # 80001a78 <_sp+0xf8001a78>
80000644:	081000ef          	jal	ra,80000ec4 <xprintf>
80000648:	00812603          	lw	a2,8(sp)
8000064c:	00412703          	lw	a4,4(sp)
/home/tututu/qimeng/simulator/baremetal/benchmarks/dhrystone/dry.c:867
  }

  if (!check((int)Next_Ptr_Glob->Discr == 0)) {
80000650:	800057b7          	lui	a5,0x80005
80000654:	9ac7a783          	lw	a5,-1620(a5) # 800049ac <_sp+0xf80049ac>
80000658:	0047a583          	lw	a1,4(a5)
check():
/home/tututu/qimeng/simulator/baremetal/benchmarks/dhrystone/dry.c:716
  if (!cond)
8000065c:	02058a63          	beq	a1,zero,80000690 <main+0x668>
main():
/home/tututu/qimeng/simulator/baremetal/benchmarks/dhrystone/dry.c:868
    xprintf("Next_Ptr_Glob->Discr:             %d\n", Next_Ptr_Glob->Discr);
80000660:	80002537          	lui	a0,0x80002
80000664:	ab050513          	addi	a0,a0,-1360 # 80001ab0 <_sp+0xf8001ab0>
80000668:	00c12423          	sw	a2,8(sp)
8000066c:	00e12223          	sw	a4,4(sp)
check():
/home/tututu/qimeng/simulator/baremetal/benchmarks/dhrystone/dry.c:717
    pass = false;
80000670:	9c04a423          	sw	zero,-1592(s1)
main():
/home/tututu/qimeng/simulator/baremetal/benchmarks/dhrystone/dry.c:868
    xprintf("Next_Ptr_Glob->Discr:             %d\n", Next_Ptr_Glob->Discr);
80000674:	051000ef          	jal	ra,80000ec4 <xprintf>
/home/tututu/qimeng/simulator/baremetal/benchmarks/dhrystone/dry.c:869
    xprintf("        should be:   %d\n", 0);
80000678:	80002537          	lui	a0,0x80002
8000067c:	00000593          	addi	a1,zero,0
80000680:	8f850513          	addi	a0,a0,-1800 # 800018f8 <_sp+0xf80018f8>
80000684:	041000ef          	jal	ra,80000ec4 <xprintf>
80000688:	00812603          	lw	a2,8(sp)
8000068c:	00412703          	lw	a4,4(sp)
/home/tututu/qimeng/simulator/baremetal/benchmarks/dhrystone/dry.c:871
  }
  if (!check(Next_Ptr_Glob->variant.var_1.Enum_Comp == 1)) {
80000690:	800057b7          	lui	a5,0x80005
80000694:	9ac7a583          	lw	a1,-1620(a5) # 800049ac <_sp+0xf80049ac>
check():
/home/tututu/qimeng/simulator/baremetal/benchmarks/dhrystone/dry.c:716
  if (!cond)
80000698:	00100793          	addi	a5,zero,1
main():
/home/tututu/qimeng/simulator/baremetal/benchmarks/dhrystone/dry.c:871
  if (!check(Next_Ptr_Glob->variant.var_1.Enum_Comp == 1)) {
8000069c:	0085a583          	lw	a1,8(a1)
check():
/home/tututu/qimeng/simulator/baremetal/benchmarks/dhrystone/dry.c:716
  if (!cond)
800006a0:	02f58a63          	beq	a1,a5,800006d4 <main+0x6ac>
main():
/home/tututu/qimeng/simulator/baremetal/benchmarks/dhrystone/dry.c:872
    xprintf("Next_Ptr_Glob->Enum_Comp:         %d\n",
800006a4:	80002537          	lui	a0,0x80002
800006a8:	ad850513          	addi	a0,a0,-1320 # 80001ad8 <_sp+0xf8001ad8>
800006ac:	00c12423          	sw	a2,8(sp)
800006b0:	00e12223          	sw	a4,4(sp)
check():
/home/tututu/qimeng/simulator/baremetal/benchmarks/dhrystone/dry.c:717
    pass = false;
800006b4:	9c04a423          	sw	zero,-1592(s1)
main():
/home/tututu/qimeng/simulator/baremetal/benchmarks/dhrystone/dry.c:872
    xprintf("Next_Ptr_Glob->Enum_Comp:         %d\n",
800006b8:	00d000ef          	jal	ra,80000ec4 <xprintf>
/home/tututu/qimeng/simulator/baremetal/benchmarks/dhrystone/dry.c:874
            Next_Ptr_Glob->variant.var_1.Enum_Comp);
    xprintf("        should be:   %d\n", 1);
800006bc:	80002537          	lui	a0,0x80002
800006c0:	00100593          	addi	a1,zero,1
800006c4:	8f850513          	addi	a0,a0,-1800 # 800018f8 <_sp+0xf80018f8>
800006c8:	7fc000ef          	jal	ra,80000ec4 <xprintf>
800006cc:	00812603          	lw	a2,8(sp)
800006d0:	00412703          	lw	a4,4(sp)
/home/tututu/qimeng/simulator/baremetal/benchmarks/dhrystone/dry.c:876
  }
  if (!check(Next_Ptr_Glob->variant.var_1.Int_Comp == 18)) {
800006d4:	800057b7          	lui	a5,0x80005
800006d8:	9ac7a583          	lw	a1,-1620(a5) # 800049ac <_sp+0xf80049ac>
check():
/home/tututu/qimeng/simulator/baremetal/benchmarks/dhrystone/dry.c:716
  if (!cond)
800006dc:	01200793          	addi	a5,zero,18
main():
/home/tututu/qimeng/simulator/baremetal/benchmarks/dhrystone/dry.c:876
  if (!check(Next_Ptr_Glob->variant.var_1.Int_Comp == 18)) {
800006e0:	00c5a583          	lw	a1,12(a1)
check():
/home/tututu/qimeng/simulator/baremetal/benchmarks/dhrystone/dry.c:716
  if (!cond)
800006e4:	02f58a63          	beq	a1,a5,80000718 <main+0x6f0>
main():
/home/tututu/qimeng/simulator/baremetal/benchmarks/dhrystone/dry.c:877
    xprintf("Next_Ptr_Glob->Int_Comp:          %d\n",
800006e8:	80002537          	lui	a0,0x80002
800006ec:	b0050513          	addi	a0,a0,-1280 # 80001b00 <_sp+0xf8001b00>
800006f0:	00c12423          	sw	a2,8(sp)
800006f4:	00e12223          	sw	a4,4(sp)
check():
/home/tututu/qimeng/simulator/baremetal/benchmarks/dhrystone/dry.c:717
    pass = false;
800006f8:	9c04a423          	sw	zero,-1592(s1)
main():
/home/tututu/qimeng/simulator/baremetal/benchmarks/dhrystone/dry.c:877
    xprintf("Next_Ptr_Glob->Int_Comp:          %d\n",
800006fc:	7c8000ef          	jal	ra,80000ec4 <xprintf>
/home/tututu/qimeng/simulator/baremetal/benchmarks/dhrystone/dry.c:879
            Next_Ptr_Glob->variant.var_1.Int_Comp);
    xprintf("        should be:   %d\n", 18);
80000700:	80002537          	lui	a0,0x80002
80000704:	01200593          	addi	a1,zero,18
80000708:	8f850513          	addi	a0,a0,-1800 # 800018f8 <_sp+0xf80018f8>
8000070c:	7b8000ef          	jal	ra,80000ec4 <xprintf>
80000710:	00812603          	lw	a2,8(sp)
80000714:	00412703          	lw	a4,4(sp)
/home/tututu/qimeng/simulator/baremetal/benchmarks/dhrystone/dry.c:881
  }
  if (!check(strcmp(Next_Ptr_Glob->variant.var_1.Str_Comp,
80000718:	800057b7          	lui	a5,0x80005
8000071c:	9ac7a403          	lw	s0,-1620(a5) # 800049ac <_sp+0xf80049ac>
80000720:	800027b7          	lui	a5,0x80002
80000724:	86478593          	addi	a1,a5,-1948 # 80001864 <_sp+0xf8001864>
80000728:	01040413          	addi	s0,s0,16
8000072c:	00040513          	addi	a0,s0,0
80000730:	00c12423          	sw	a2,8(sp)
80000734:	00e12223          	sw	a4,4(sp)
80000738:	7a1000ef          	jal	ra,800016d8 <strcmp>
check():
/home/tututu/qimeng/simulator/baremetal/benchmarks/dhrystone/dry.c:716
  if (!cond)
8000073c:	00412703          	lw	a4,4(sp)
80000740:	00812603          	lw	a2,8(sp)
80000744:	02050663          	beq	a0,zero,80000770 <main+0x748>
main():
/home/tututu/qimeng/simulator/baremetal/benchmarks/dhrystone/dry.c:883
                    "DHRYSTONE PROGRAM, SOME STRING") == 0)) {
    xprintf("Next_Ptr_Glob->Str_Comp:          %s\n",
80000748:	80002537          	lui	a0,0x80002
8000074c:	b2850513          	addi	a0,a0,-1240 # 80001b28 <_sp+0xf8001b28>
80000750:	00040593          	addi	a1,s0,0
check():
/home/tututu/qimeng/simulator/baremetal/benchmarks/dhrystone/dry.c:717
    pass = false;
80000754:	9c04a423          	sw	zero,-1592(s1)
main():
/home/tututu/qimeng/simulator/baremetal/benchmarks/dhrystone/dry.c:883
    xprintf("Next_Ptr_Glob->Str_Comp:          %s\n",
80000758:	76c000ef          	jal	ra,80000ec4 <xprintf>
/home/tututu/qimeng/simulator/baremetal/benchmarks/dhrystone/dry.c:885
            Next_Ptr_Glob->variant.var_1.Str_Comp);
    xprintf("        should be:   DHRYSTONE PROGRAM, SOME STRING\n");
8000075c:	80002537          	lui	a0,0x80002
80000760:	a7850513          	addi	a0,a0,-1416 # 80001a78 <_sp+0xf8001a78>
80000764:	760000ef          	jal	ra,80000ec4 <xprintf>
80000768:	00812603          	lw	a2,8(sp)
8000076c:	00412703          	lw	a4,4(sp)
check():
/home/tututu/qimeng/simulator/baremetal/benchmarks/dhrystone/dry.c:716
  if (!cond)
80000770:	00500793          	addi	a5,zero,5
80000774:	02f70863          	beq	a4,a5,800007a4 <main+0x77c>
main():
/home/tututu/qimeng/simulator/baremetal/benchmarks/dhrystone/dry.c:889
  }

  if (!check(Int_1_Loc == 5)) {
    xprintf("Int_1_Loc:           %d\n", Int_1_Loc);
80000778:	80002537          	lui	a0,0x80002
8000077c:	00070593          	addi	a1,a4,0
80000780:	b5050513          	addi	a0,a0,-1200 # 80001b50 <_sp+0xf8001b50>
80000784:	00c12223          	sw	a2,4(sp)
check():
/home/tututu/qimeng/simulator/baremetal/benchmarks/dhrystone/dry.c:717
    pass = false;
80000788:	9c04a423          	sw	zero,-1592(s1)
main():
/home/tututu/qimeng/simulator/baremetal/benchmarks/dhrystone/dry.c:889
    xprintf("Int_1_Loc:           %d\n", Int_1_Loc);
8000078c:	738000ef          	jal	ra,80000ec4 <xprintf>
/home/tututu/qimeng/simulator/baremetal/benchmarks/dhrystone/dry.c:890
    xprintf("        should be:   %d\n", 5);
80000790:	80002537          	lui	a0,0x80002
80000794:	00500593          	addi	a1,zero,5
80000798:	8f850513          	addi	a0,a0,-1800 # 800018f8 <_sp+0xf80018f8>
8000079c:	728000ef          	jal	ra,80000ec4 <xprintf>
800007a0:	00412603          	lw	a2,4(sp)
check():
/home/tututu/qimeng/simulator/baremetal/benchmarks/dhrystone/dry.c:716
  if (!cond)
800007a4:	00d00793          	addi	a5,zero,13
800007a8:	02f60463          	beq	a2,a5,800007d0 <main+0x7a8>
main():
/home/tututu/qimeng/simulator/baremetal/benchmarks/dhrystone/dry.c:893
  }
  if (!check(Int_2_Loc == 13)) {
    xprintf("Int_2_Loc:           %d\n", Int_2_Loc);
800007ac:	80002537          	lui	a0,0x80002
800007b0:	00060593          	addi	a1,a2,0
800007b4:	b6c50513          	addi	a0,a0,-1172 # 80001b6c <_sp+0xf8001b6c>
check():
/home/tututu/qimeng/simulator/baremetal/benchmarks/dhrystone/dry.c:717
    pass = false;
800007b8:	9c04a423          	sw	zero,-1592(s1)
main():
/home/tututu/qimeng/simulator/baremetal/benchmarks/dhrystone/dry.c:893
    xprintf("Int_2_Loc:           %d\n", Int_2_Loc);
800007bc:	708000ef          	jal	ra,80000ec4 <xprintf>
/home/tututu/qimeng/simulator/baremetal/benchmarks/dhrystone/dry.c:894
    xprintf("        should be:   %d\n", 13);
800007c0:	80002537          	lui	a0,0x80002
800007c4:	00d00593          	addi	a1,zero,13
800007c8:	8f850513          	addi	a0,a0,-1800 # 800018f8 <_sp+0xf80018f8>
800007cc:	6f8000ef          	jal	ra,80000ec4 <xprintf>
check():
/home/tututu/qimeng/simulator/baremetal/benchmarks/dhrystone/dry.c:716
  if (!cond)
800007d0:	020c9463          	bne	s9,zero,800007f8 <main+0x7d0>
main():
/home/tututu/qimeng/simulator/baremetal/benchmarks/dhrystone/dry.c:901
  if (!check(Int_3_Loc == 7)) {
    xprintf("Int_3_Loc:           %d\n", Int_3_Loc);
    xprintf("        should be:   %d\n", 7);
  }
  if (!check(Enum_Loc == 1)) {
    xprintf("Enum_Loc:            %d\n", Enum_Loc);
800007d4:	80002537          	lui	a0,0x80002
800007d8:	00000593          	addi	a1,zero,0
800007dc:	b8850513          	addi	a0,a0,-1144 # 80001b88 <_sp+0xf8001b88>
check():
/home/tututu/qimeng/simulator/baremetal/benchmarks/dhrystone/dry.c:717
    pass = false;
800007e0:	9c04a423          	sw	zero,-1592(s1)
main():
/home/tututu/qimeng/simulator/baremetal/benchmarks/dhrystone/dry.c:901
    xprintf("Enum_Loc:            %d\n", Enum_Loc);
800007e4:	6e0000ef          	jal	ra,80000ec4 <xprintf>
/home/tututu/qimeng/simulator/baremetal/benchmarks/dhrystone/dry.c:902
    xprintf("        should be:   %d\n", 1);
800007e8:	80002537          	lui	a0,0x80002
800007ec:	00100593          	addi	a1,zero,1
800007f0:	8f850513          	addi	a0,a0,-1800 # 800018f8 <_sp+0xf80018f8>
800007f4:	6d0000ef          	jal	ra,80000ec4 <xprintf>
/home/tututu/qimeng/simulator/baremetal/benchmarks/dhrystone/dry.c:905
  }

  if (!check(strcmp(Str_1_Loc, "DHRYSTONE PROGRAM, 1'ST STRING") == 0)) {
800007f8:	800027b7          	lui	a5,0x80002
800007fc:	ba478593          	addi	a1,a5,-1116 # 80001ba4 <_sp+0xf8001ba4>
80000800:	03010513          	addi	a0,sp,48
80000804:	6d5000ef          	jal	ra,800016d8 <strcmp>
check():
/home/tututu/qimeng/simulator/baremetal/benchmarks/dhrystone/dry.c:716
  if (!cond)
80000808:	02050263          	beq	a0,zero,8000082c <main+0x804>
main():
/home/tututu/qimeng/simulator/baremetal/benchmarks/dhrystone/dry.c:906
    xprintf("Str_1_Loc:           %s\n", Str_1_Loc);
8000080c:	80002537          	lui	a0,0x80002
80000810:	bc450513          	addi	a0,a0,-1084 # 80001bc4 <_sp+0xf8001bc4>
80000814:	03010593          	addi	a1,sp,48
check():
/home/tututu/qimeng/simulator/baremetal/benchmarks/dhrystone/dry.c:717
    pass = false;
80000818:	9c04a423          	sw	zero,-1592(s1)
main():
/home/tututu/qimeng/simulator/baremetal/benchmarks/dhrystone/dry.c:906
    xprintf("Str_1_Loc:           %s\n", Str_1_Loc);
8000081c:	6a8000ef          	jal	ra,80000ec4 <xprintf>
/home/tututu/qimeng/simulator/baremetal/benchmarks/dhrystone/dry.c:907
    xprintf("        should be:   DHRYSTONE PROGRAM, 1'ST STRING\n");
80000820:	80002537          	lui	a0,0x80002
80000824:	be050513          	addi	a0,a0,-1056 # 80001be0 <_sp+0xf8001be0>
80000828:	69c000ef          	jal	ra,80000ec4 <xprintf>
/home/tututu/qimeng/simulator/baremetal/benchmarks/dhrystone/dry.c:909
  }
  if (!check(strcmp(Str_2_Loc, "DHRYSTONE PROGRAM, 2'ND STRING") == 0)) {
8000082c:	800027b7          	lui	a5,0x80002
80000830:	c1878593          	addi	a1,a5,-1000 # 80001c18 <_sp+0xf8001c18>
80000834:	05010513          	addi	a0,sp,80
80000838:	6a1000ef          	jal	ra,800016d8 <strcmp>
check():
/home/tututu/qimeng/simulator/baremetal/benchmarks/dhrystone/dry.c:716
  if (!cond)
8000083c:	02050263          	beq	a0,zero,80000860 <main+0x838>
main():
/home/tututu/qimeng/simulator/baremetal/benchmarks/dhrystone/dry.c:910
    xprintf("Str_2_Loc:           %s\n", Str_2_Loc);
80000840:	80002537          	lui	a0,0x80002
80000844:	c3850513          	addi	a0,a0,-968 # 80001c38 <_sp+0xf8001c38>
80000848:	05010593          	addi	a1,sp,80
check():
/home/tututu/qimeng/simulator/baremetal/benchmarks/dhrystone/dry.c:717
    pass = false;
8000084c:	9c04a423          	sw	zero,-1592(s1)
main():
/home/tututu/qimeng/simulator/baremetal/benchmarks/dhrystone/dry.c:910
    xprintf("Str_2_Loc:           %s\n", Str_2_Loc);
80000850:	674000ef          	jal	ra,80000ec4 <xprintf>
/home/tututu/qimeng/simulator/baremetal/benchmarks/dhrystone/dry.c:911
    xprintf("        should be:   DHRYSTONE PROGRAM, 2'ND STRING\n");
80000854:	80002537          	lui	a0,0x80002
80000858:	c5450513          	addi	a0,a0,-940 # 80001c54 <_sp+0xf8001c54>
8000085c:	668000ef          	jal	ra,80000ec4 <xprintf>
/home/tututu/qimeng/simulator/baremetal/benchmarks/dhrystone/dry.c:914
  }

  xprintf("Finished in %d ms\n", (int)User_Time);
80000860:	80005937          	lui	s2,0x80005
80000864:	98c92583          	lw	a1,-1652(s2) # 8000498c <_sp+0xf800498c>
80000868:	80002537          	lui	a0,0x80002
8000086c:	c8c50513          	addi	a0,a0,-884 # 80001c8c <_sp+0xf8001c8c>
80000870:	654000ef          	jal	ra,80000ec4 <xprintf>
/home/tututu/qimeng/simulator/baremetal/benchmarks/dhrystone/dry.c:915
  xprintf("==================================================\n");
80000874:	80002537          	lui	a0,0x80002
80000878:	ca050513          	addi	a0,a0,-864 # 80001ca0 <_sp+0xf8001ca0>
8000087c:	648000ef          	jal	ra,80000ec4 <xprintf>
/home/tututu/qimeng/simulator/baremetal/benchmarks/dhrystone/dry.c:916
  xprintf("Dhrystone %s         %d Marks\n", pass ? "PASS" : "FAIL",
80000880:	9c84a783          	lw	a5,-1592(s1)
80000884:	0c079063          	bne	a5,zero,80000944 <main+0x91c>
80000888:	80002437          	lui	s0,0x80002
8000088c:	85c40413          	addi	s0,s0,-1956 # 8000185c <_sp+0xf800185c>
/home/tututu/qimeng/simulator/baremetal/benchmarks/dhrystone/dry.c:917
          880900 / (int)User_Time * NUMBER_OF_RUNS / 500000);
80000890:	98c92583          	lw	a1,-1652(s2)
80000894:	000d7537          	lui	a0,0xd7
80000898:	10450513          	addi	a0,a0,260 # d7104 <__stack_size-0x1f28efc>
8000089c:	461000ef          	jal	ra,800014fc <__divsi3>
/home/tututu/qimeng/simulator/baremetal/benchmarks/dhrystone/dry.c:916
  xprintf("Dhrystone %s         %d Marks\n", pass ? "PASS" : "FAIL",
800008a0:	1f400593          	addi	a1,zero,500
800008a4:	459000ef          	jal	ra,800014fc <__divsi3>
800008a8:	00050613          	addi	a2,a0,0
800008ac:	80002537          	lui	a0,0x80002
800008b0:	00040593          	addi	a1,s0,0
800008b4:	cd450513          	addi	a0,a0,-812 # 80001cd4 <_sp+0xf8001cd4>
800008b8:	60c000ef          	jal	ra,80000ec4 <xprintf>
/home/tututu/qimeng/simulator/baremetal/benchmarks/dhrystone/dry.c:918
  xprintf("                   vs. 100000 Marks (i7-7700K @ 4.20GHz)\n");
800008bc:	80002537          	lui	a0,0x80002
800008c0:	cf450513          	addi	a0,a0,-780 # 80001cf4 <_sp+0xf8001cf4>
800008c4:	600000ef          	jal	ra,80000ec4 <xprintf>
/home/tututu/qimeng/simulator/baremetal/benchmarks/dhrystone/dry.c:920

  return (pass ? 0 : 1);
800008c8:	9c84a503          	lw	a0,-1592(s1)
/home/tututu/qimeng/simulator/baremetal/benchmarks/dhrystone/dry.c:921
}
800008cc:	0ac12083          	lw	ra,172(sp)
800008d0:	0a812403          	lw	s0,168(sp)
800008d4:	0a412483          	lw	s1,164(sp)
800008d8:	0a012903          	lw	s2,160(sp)
800008dc:	09c12983          	lw	s3,156(sp)
800008e0:	09812a03          	lw	s4,152(sp)
800008e4:	09412a83          	lw	s5,148(sp)
800008e8:	09012b03          	lw	s6,144(sp)
800008ec:	08c12b83          	lw	s7,140(sp)
800008f0:	08812c03          	lw	s8,136(sp)
800008f4:	08412c83          	lw	s9,132(sp)
800008f8:	08012d03          	lw	s10,128(sp)
800008fc:	07c12d83          	lw	s11,124(sp)
80000900:	00153513          	sltiu	a0,a0,1
80000904:	0b010113          	addi	sp,sp,176
80000908:	00008067          	jalr	zero,0(ra)
Func_1():
/home/tututu/qimeng/simulator/baremetal/benchmarks/dhrystone/dry.c:657
    return (Ident_2);
8000090c:	00100693          	addi	a3,zero,1
80000910:	00100893          	addi	a7,zero,1
80000914:	9ddff06f          	jal	zero,800002f0 <main+0x2c8>
80000918:	00100693          	addi	a3,zero,1
8000091c:	93dff06f          	jal	zero,80000258 <main+0x230>
Proc_2():
/home/tututu/qimeng/simulator/baremetal/benchmarks/dhrystone/dry.c:503
    if (Ch_1_Glob == 'A')
80000920:	9a1a4603          	lbu	a2,-1631(s4)
80000924:	00d00713          	addi	a4,zero,13
80000928:	00100513          	addi	a0,zero,1
main():
/home/tututu/qimeng/simulator/baremetal/benchmarks/dhrystone/dry.c:777
      Enum_Loc = Ident_2;
8000092c:	00100c93          	addi	s9,zero,1
80000930:	a75ff06f          	jal	zero,800003a4 <main+0x37c>
Proc_2():
/home/tututu/qimeng/simulator/baremetal/benchmarks/dhrystone/dry.c:503
    if (Ch_1_Glob == 'A')
80000934:	9a1a4603          	lbu	a2,-1631(s4)
80000938:	a39ff06f          	jal	zero,80000370 <main+0x348>
8000093c:	800054b7          	lui	s1,0x80005
80000940:	ad9ff06f          	jal	zero,80000418 <main+0x3f0>
main():
/home/tututu/qimeng/simulator/baremetal/benchmarks/dhrystone/dry.c:916
  xprintf("Dhrystone %s         %d Marks\n", pass ? "PASS" : "FAIL",
80000944:	80002437          	lui	s0,0x80002
80000948:	85440413          	addi	s0,s0,-1964 # 80001854 <_sp+0xf8001854>
8000094c:	f45ff06f          	jal	zero,80000890 <main+0x868>

80000950 <Proc_2>:
Proc_2():
/home/tututu/qimeng/simulator/baremetal/benchmarks/dhrystone/dry.c:503
    if (Ch_1_Glob == 'A')
80000950:	800057b7          	lui	a5,0x80005
80000954:	9a17c703          	lbu	a4,-1631(a5) # 800049a1 <_sp+0xf80049a1>
80000958:	04100793          	addi	a5,zero,65
8000095c:	00f70463          	beq	a4,a5,80000964 <Proc_2+0x14>
/home/tututu/qimeng/simulator/baremetal/benchmarks/dhrystone/dry.c:511
} /* Proc_2 */
80000960:	00008067          	jalr	zero,0(ra)
/home/tututu/qimeng/simulator/baremetal/benchmarks/dhrystone/dry.c:506
      Int_Loc -= 1;
80000964:	00052783          	lw	a5,0(a0)
/home/tututu/qimeng/simulator/baremetal/benchmarks/dhrystone/dry.c:507
      *Int_Par_Ref = Int_Loc - Int_Glob;
80000968:	80005737          	lui	a4,0x80005
8000096c:	9a872703          	lw	a4,-1624(a4) # 800049a8 <_sp+0xf80049a8>
/home/tututu/qimeng/simulator/baremetal/benchmarks/dhrystone/dry.c:506
      Int_Loc -= 1;
80000970:	00978793          	addi	a5,a5,9
/home/tututu/qimeng/simulator/baremetal/benchmarks/dhrystone/dry.c:507
      *Int_Par_Ref = Int_Loc - Int_Glob;
80000974:	40e787b3          	sub	a5,a5,a4
80000978:	00f52023          	sw	a5,0(a0)
/home/tututu/qimeng/simulator/baremetal/benchmarks/dhrystone/dry.c:511
} /* Proc_2 */
8000097c:	00008067          	jalr	zero,0(ra)

80000980 <Proc_3>:
Proc_3():
/home/tututu/qimeng/simulator/baremetal/benchmarks/dhrystone/dry.c:521
  if (Ptr_Glob != Null)
80000980:	80005737          	lui	a4,0x80005
80000984:	9b072783          	lw	a5,-1616(a4) # 800049b0 <_sp+0xf80049b0>
80000988:	00078863          	beq	a5,zero,80000998 <Proc_3+0x18>
/home/tututu/qimeng/simulator/baremetal/benchmarks/dhrystone/dry.c:523
    *Ptr_Ref_Par = Ptr_Glob->Ptr_Comp;
8000098c:	0007a783          	lw	a5,0(a5)
80000990:	00f52023          	sw	a5,0(a0)
/home/tututu/qimeng/simulator/baremetal/benchmarks/dhrystone/dry.c:524
  Proc_7(10, Int_Glob, &Ptr_Glob->variant.var_1.Int_Comp);
80000994:	9b072783          	lw	a5,-1616(a4)
80000998:	80005737          	lui	a4,0x80005
Proc_7():
/home/tututu/qimeng/simulator/baremetal/benchmarks/dhrystone/dry.c:609
  *Int_Par_Ref = Int_2_Par_Val + Int_Loc;
8000099c:	9a872703          	lw	a4,-1624(a4) # 800049a8 <_sp+0xf80049a8>
800009a0:	00c70713          	addi	a4,a4,12
800009a4:	00e7a623          	sw	a4,12(a5)
Proc_3():
/home/tututu/qimeng/simulator/baremetal/benchmarks/dhrystone/dry.c:525
} /* Proc_3 */
800009a8:	00008067          	jalr	zero,0(ra)

800009ac <Proc_4>:
Proc_4():
/home/tututu/qimeng/simulator/baremetal/benchmarks/dhrystone/dry.c:533
  Bool_Loc = Ch_1_Glob == 'A';
800009ac:	800057b7          	lui	a5,0x80005
800009b0:	9a17c783          	lbu	a5,-1631(a5) # 800049a1 <_sp+0xf80049a1>
/home/tututu/qimeng/simulator/baremetal/benchmarks/dhrystone/dry.c:534
  Bool_Glob = Bool_Loc | Bool_Glob;
800009b4:	80005737          	lui	a4,0x80005
800009b8:	9a472683          	lw	a3,-1628(a4) # 800049a4 <_sp+0xf80049a4>
/home/tututu/qimeng/simulator/baremetal/benchmarks/dhrystone/dry.c:533
  Bool_Loc = Ch_1_Glob == 'A';
800009bc:	fbf78793          	addi	a5,a5,-65
800009c0:	0017b793          	sltiu	a5,a5,1
/home/tututu/qimeng/simulator/baremetal/benchmarks/dhrystone/dry.c:534
  Bool_Glob = Bool_Loc | Bool_Glob;
800009c4:	00d7e7b3          	or	a5,a5,a3
800009c8:	9af72223          	sw	a5,-1628(a4)
/home/tututu/qimeng/simulator/baremetal/benchmarks/dhrystone/dry.c:535
  Ch_2_Glob = 'B';
800009cc:	800057b7          	lui	a5,0x80005
800009d0:	04200713          	addi	a4,zero,66
800009d4:	9ae78023          	sb	a4,-1632(a5) # 800049a0 <_sp+0xf80049a0>
/home/tututu/qimeng/simulator/baremetal/benchmarks/dhrystone/dry.c:536
} /* Proc_4 */
800009d8:	00008067          	jalr	zero,0(ra)

800009dc <Proc_5>:
Proc_5():
/home/tututu/qimeng/simulator/baremetal/benchmarks/dhrystone/dry.c:542
  Ch_1_Glob = 'A';
800009dc:	800057b7          	lui	a5,0x80005
800009e0:	04100713          	addi	a4,zero,65
800009e4:	9ae780a3          	sb	a4,-1631(a5) # 800049a1 <_sp+0xf80049a1>
/home/tututu/qimeng/simulator/baremetal/benchmarks/dhrystone/dry.c:543
  Bool_Glob = false;
800009e8:	800057b7          	lui	a5,0x80005
800009ec:	9a07a223          	sw	zero,-1628(a5) # 800049a4 <_sp+0xf80049a4>
/home/tututu/qimeng/simulator/baremetal/benchmarks/dhrystone/dry.c:544
} /* Proc_5 */
800009f0:	00008067          	jalr	zero,0(ra)

800009f4 <Proc_6>:
Func_3():
/home/tututu/qimeng/simulator/baremetal/benchmarks/dhrystone/dry.c:707
  if (Enum_Loc == Ident_3)
800009f4:	00200713          	addi	a4,zero,2
800009f8:	04e50263          	beq	a0,a4,80000a3c <Proc_6+0x48>
Proc_6():
/home/tututu/qimeng/simulator/baremetal/benchmarks/dhrystone/dry.c:581
    *Enum_Ref_Par = Ident_4;
800009fc:	00300793          	addi	a5,zero,3
80000a00:	00f5a023          	sw	a5,0(a1)
/home/tututu/qimeng/simulator/baremetal/benchmarks/dhrystone/dry.c:582
  switch (Enum_Val_Par) {
80000a04:	00100793          	addi	a5,zero,1
80000a08:	00f50c63          	beq	a0,a5,80000a20 <Proc_6+0x2c>
80000a0c:	02a7f263          	bgeu	a5,a0,80000a30 <Proc_6+0x3c>
80000a10:	00400793          	addi	a5,zero,4
80000a14:	02f51263          	bne	a0,a5,80000a38 <Proc_6+0x44>
/home/tututu/qimeng/simulator/baremetal/benchmarks/dhrystone/dry.c:599
    *Enum_Ref_Par = Ident_3;
80000a18:	00e5a023          	sw	a4,0(a1)
/home/tututu/qimeng/simulator/baremetal/benchmarks/dhrystone/dry.c:602
} /* Proc_6 */
80000a1c:	00008067          	jalr	zero,0(ra)
/home/tututu/qimeng/simulator/baremetal/benchmarks/dhrystone/dry.c:587
    if (Int_Glob > 100)
80000a20:	800057b7          	lui	a5,0x80005
80000a24:	9a87a703          	lw	a4,-1624(a5) # 800049a8 <_sp+0xf80049a8>
80000a28:	06400793          	addi	a5,zero,100
80000a2c:	fee7d8e3          	bge	a5,a4,80000a1c <Proc_6+0x28>
/home/tututu/qimeng/simulator/baremetal/benchmarks/dhrystone/dry.c:589
      *Enum_Ref_Par = Ident_1;
80000a30:	0005a023          	sw	zero,0(a1)
80000a34:	00008067          	jalr	zero,0(ra)
80000a38:	00008067          	jalr	zero,0(ra)
/home/tututu/qimeng/simulator/baremetal/benchmarks/dhrystone/dry.c:594
    *Enum_Ref_Par = Ident_2;
80000a3c:	00100793          	addi	a5,zero,1
80000a40:	00f5a023          	sw	a5,0(a1)
/home/tututu/qimeng/simulator/baremetal/benchmarks/dhrystone/dry.c:595
    break;
80000a44:	00008067          	jalr	zero,0(ra)

80000a48 <Proc_1>:
Proc_1():
/home/tututu/qimeng/simulator/baremetal/benchmarks/dhrystone/dry.c:471
  structassign(*Ptr_Val_Par->Ptr_Comp, *Ptr_Glob);
80000a48:	800056b7          	lui	a3,0x80005
80000a4c:	9b06a783          	lw	a5,-1616(a3) # 800049b0 <_sp+0xf80049b0>
/home/tututu/qimeng/simulator/baremetal/benchmarks/dhrystone/dry.c:465
{
80000a50:	ff010113          	addi	sp,sp,-16
80000a54:	00812423          	sw	s0,8(sp)
/home/tututu/qimeng/simulator/baremetal/benchmarks/dhrystone/dry.c:471
  structassign(*Ptr_Val_Par->Ptr_Comp, *Ptr_Glob);
80000a58:	0007a603          	lw	a2,0(a5)
/home/tututu/qimeng/simulator/baremetal/benchmarks/dhrystone/dry.c:466
  REG Rec_Pointer Next_Record = Ptr_Val_Par->Ptr_Comp;
80000a5c:	00052403          	lw	s0,0(a0)
/home/tututu/qimeng/simulator/baremetal/benchmarks/dhrystone/dry.c:471
  structassign(*Ptr_Val_Par->Ptr_Comp, *Ptr_Glob);
80000a60:	02c7a703          	lw	a4,44(a5)
80000a64:	0047a283          	lw	t0,4(a5)
80000a68:	0087af83          	lw	t6,8(a5)
80000a6c:	0107af03          	lw	t5,16(a5)
80000a70:	0147ae83          	lw	t4,20(a5)
80000a74:	0187ae03          	lw	t3,24(a5)
80000a78:	01c7a303          	lw	t1,28(a5)
80000a7c:	0207a883          	lw	a7,32(a5)
80000a80:	0247a803          	lw	a6,36(a5)
80000a84:	0287a583          	lw	a1,40(a5)
/home/tututu/qimeng/simulator/baremetal/benchmarks/dhrystone/dry.c:465
{
80000a88:	00912223          	sw	s1,4(sp)
80000a8c:	00112623          	sw	ra,12(sp)
/home/tututu/qimeng/simulator/baremetal/benchmarks/dhrystone/dry.c:471
  structassign(*Ptr_Val_Par->Ptr_Comp, *Ptr_Glob);
80000a90:	00c42023          	sw	a2,0(s0)
/home/tututu/qimeng/simulator/baremetal/benchmarks/dhrystone/dry.c:474
  Next_Record->Ptr_Comp = Ptr_Val_Par->Ptr_Comp;
80000a94:	00052603          	lw	a2,0(a0)
/home/tututu/qimeng/simulator/baremetal/benchmarks/dhrystone/dry.c:471
  structassign(*Ptr_Val_Par->Ptr_Comp, *Ptr_Glob);
80000a98:	02e42623          	sw	a4,44(s0)
80000a9c:	00542223          	sw	t0,4(s0)
80000aa0:	01f42423          	sw	t6,8(s0)
80000aa4:	01e42823          	sw	t5,16(s0)
80000aa8:	01d42a23          	sw	t4,20(s0)
80000aac:	01c42c23          	sw	t3,24(s0)
80000ab0:	00642e23          	sw	t1,28(s0)
80000ab4:	03142023          	sw	a7,32(s0)
80000ab8:	03042223          	sw	a6,36(s0)
80000abc:	02b42423          	sw	a1,40(s0)
/home/tututu/qimeng/simulator/baremetal/benchmarks/dhrystone/dry.c:472
  Ptr_Val_Par->variant.var_1.Int_Comp = 5;
80000ac0:	00500713          	addi	a4,zero,5
80000ac4:	00e52623          	sw	a4,12(a0)
/home/tututu/qimeng/simulator/baremetal/benchmarks/dhrystone/dry.c:474
  Next_Record->Ptr_Comp = Ptr_Val_Par->Ptr_Comp;
80000ac8:	00c42023          	sw	a2,0(s0)
Proc_3():
/home/tututu/qimeng/simulator/baremetal/benchmarks/dhrystone/dry.c:523
    *Ptr_Ref_Par = Ptr_Glob->Ptr_Comp;
80000acc:	0007a483          	lw	s1,0(a5)
/home/tututu/qimeng/simulator/baremetal/benchmarks/dhrystone/dry.c:524
  Proc_7(10, Int_Glob, &Ptr_Glob->variant.var_1.Int_Comp);
80000ad0:	800057b7          	lui	a5,0x80005
Proc_7():
/home/tututu/qimeng/simulator/baremetal/benchmarks/dhrystone/dry.c:609
  *Int_Par_Ref = Int_2_Par_Val + Int_Loc;
80000ad4:	9a87a783          	lw	a5,-1624(a5) # 800049a8 <_sp+0xf80049a8>
Proc_3():
/home/tututu/qimeng/simulator/baremetal/benchmarks/dhrystone/dry.c:523
    *Ptr_Ref_Par = Ptr_Glob->Ptr_Comp;
80000ad8:	00942023          	sw	s1,0(s0)
Proc_7():
/home/tututu/qimeng/simulator/baremetal/benchmarks/dhrystone/dry.c:609
  *Int_Par_Ref = Int_2_Par_Val + Int_Loc;
80000adc:	9b06a683          	lw	a3,-1616(a3)
80000ae0:	00c78793          	addi	a5,a5,12
Proc_1():
/home/tututu/qimeng/simulator/baremetal/benchmarks/dhrystone/dry.c:473
  Next_Record->variant.var_1.Int_Comp = Ptr_Val_Par->variant.var_1.Int_Comp;
80000ae4:	00e42623          	sw	a4,12(s0)
Proc_7():
/home/tututu/qimeng/simulator/baremetal/benchmarks/dhrystone/dry.c:609
  *Int_Par_Ref = Int_2_Par_Val + Int_Loc;
80000ae8:	00f6a623          	sw	a5,12(a3)
Proc_1():
/home/tututu/qimeng/simulator/baremetal/benchmarks/dhrystone/dry.c:478
  if (Next_Record->Discr == Ident_1)
80000aec:	00442783          	lw	a5,4(s0)
80000af0:	06078e63          	beq	a5,zero,80000b6c <Proc_1+0x124>
/home/tututu/qimeng/simulator/baremetal/benchmarks/dhrystone/dry.c:488
    structassign(*Ptr_Val_Par, *Ptr_Val_Par->Ptr_Comp);
80000af4:	00052783          	lw	a5,0(a0)
/home/tututu/qimeng/simulator/baremetal/benchmarks/dhrystone/dry.c:489
} /* Proc_1 */
80000af8:	00c12083          	lw	ra,12(sp)
80000afc:	00812403          	lw	s0,8(sp)
/home/tututu/qimeng/simulator/baremetal/benchmarks/dhrystone/dry.c:488
    structassign(*Ptr_Val_Par, *Ptr_Val_Par->Ptr_Comp);
80000b00:	0007af83          	lw	t6,0(a5)
80000b04:	0047af03          	lw	t5,4(a5)
80000b08:	0087ae83          	lw	t4,8(a5)
80000b0c:	00c7ae03          	lw	t3,12(a5)
80000b10:	0107a303          	lw	t1,16(a5)
80000b14:	0147a883          	lw	a7,20(a5)
80000b18:	0187a803          	lw	a6,24(a5)
80000b1c:	01c7a583          	lw	a1,28(a5)
80000b20:	0207a603          	lw	a2,32(a5)
80000b24:	0247a683          	lw	a3,36(a5)
80000b28:	0287a703          	lw	a4,40(a5)
80000b2c:	02c7a783          	lw	a5,44(a5)
80000b30:	01f52023          	sw	t6,0(a0)
80000b34:	01e52223          	sw	t5,4(a0)
80000b38:	01d52423          	sw	t4,8(a0)
80000b3c:	01c52623          	sw	t3,12(a0)
80000b40:	00652823          	sw	t1,16(a0)
80000b44:	01152a23          	sw	a7,20(a0)
80000b48:	01052c23          	sw	a6,24(a0)
80000b4c:	00b52e23          	sw	a1,28(a0)
80000b50:	02c52023          	sw	a2,32(a0)
80000b54:	02d52223          	sw	a3,36(a0)
80000b58:	02e52423          	sw	a4,40(a0)
80000b5c:	02f52623          	sw	a5,44(a0)
/home/tututu/qimeng/simulator/baremetal/benchmarks/dhrystone/dry.c:489
} /* Proc_1 */
80000b60:	00412483          	lw	s1,4(sp)
80000b64:	01010113          	addi	sp,sp,16
80000b68:	00008067          	jalr	zero,0(ra)
/home/tututu/qimeng/simulator/baremetal/benchmarks/dhrystone/dry.c:482
    Proc_6(Ptr_Val_Par->variant.var_1.Enum_Comp,
80000b6c:	00852503          	lw	a0,8(a0)
/home/tututu/qimeng/simulator/baremetal/benchmarks/dhrystone/dry.c:481
    Next_Record->variant.var_1.Int_Comp = 6;
80000b70:	00600793          	addi	a5,zero,6
80000b74:	00f42623          	sw	a5,12(s0)
/home/tututu/qimeng/simulator/baremetal/benchmarks/dhrystone/dry.c:482
    Proc_6(Ptr_Val_Par->variant.var_1.Enum_Comp,
80000b78:	00840593          	addi	a1,s0,8
80000b7c:	e79ff0ef          	jal	ra,800009f4 <Proc_6>
Proc_7():
/home/tututu/qimeng/simulator/baremetal/benchmarks/dhrystone/dry.c:609
  *Int_Par_Ref = Int_2_Par_Val + Int_Loc;
80000b80:	01200793          	addi	a5,zero,18
Proc_1():
/home/tututu/qimeng/simulator/baremetal/benchmarks/dhrystone/dry.c:484
    Next_Record->Ptr_Comp = Ptr_Glob->Ptr_Comp;
80000b84:	00942023          	sw	s1,0(s0)
/home/tututu/qimeng/simulator/baremetal/benchmarks/dhrystone/dry.c:489
} /* Proc_1 */
80000b88:	00c12083          	lw	ra,12(sp)
Proc_7():
/home/tututu/qimeng/simulator/baremetal/benchmarks/dhrystone/dry.c:609
  *Int_Par_Ref = Int_2_Par_Val + Int_Loc;
80000b8c:	00f42623          	sw	a5,12(s0)
Proc_1():
/home/tututu/qimeng/simulator/baremetal/benchmarks/dhrystone/dry.c:489
} /* Proc_1 */
80000b90:	00812403          	lw	s0,8(sp)
80000b94:	00412483          	lw	s1,4(sp)
80000b98:	01010113          	addi	sp,sp,16
80000b9c:	00008067          	jalr	zero,0(ra)

80000ba0 <Proc_7>:
Proc_7():
/home/tututu/qimeng/simulator/baremetal/benchmarks/dhrystone/dry.c:608
  Int_Loc = Int_1_Par_Val + 2;
80000ba0:	00250513          	addi	a0,a0,2
/home/tututu/qimeng/simulator/baremetal/benchmarks/dhrystone/dry.c:609
  *Int_Par_Ref = Int_2_Par_Val + Int_Loc;
80000ba4:	00b50533          	add	a0,a0,a1
80000ba8:	00a62023          	sw	a0,0(a2)
/home/tututu/qimeng/simulator/baremetal/benchmarks/dhrystone/dry.c:610
} /* Proc_7 */
80000bac:	00008067          	jalr	zero,0(ra)

80000bb0 <Proc_8>:
Proc_8():
/home/tututu/qimeng/simulator/baremetal/benchmarks/dhrystone/dry.c:625
  Int_Loc = Int_1_Par_Val + 5;
80000bb0:	00560713          	addi	a4,a2,5
/home/tututu/qimeng/simulator/baremetal/benchmarks/dhrystone/dry.c:630
    Arr_2_Par_Ref[Int_Loc][Int_Index] = Int_Loc;
80000bb4:	00171793          	slli	a5,a4,0x1
80000bb8:	00e787b3          	add	a5,a5,a4
80000bbc:	00379793          	slli	a5,a5,0x3
80000bc0:	00e787b3          	add	a5,a5,a4
80000bc4:	00379793          	slli	a5,a5,0x3
/home/tututu/qimeng/simulator/baremetal/benchmarks/dhrystone/dry.c:626
  Arr_1_Par_Ref[Int_Loc] = Int_2_Par_Val;
80000bc8:	00271813          	slli	a6,a4,0x2
80000bcc:	00261613          	slli	a2,a2,0x2
80000bd0:	01050533          	add	a0,a0,a6
80000bd4:	00c78833          	add	a6,a5,a2
80000bd8:	00d52023          	sw	a3,0(a0)
/home/tututu/qimeng/simulator/baremetal/benchmarks/dhrystone/dry.c:627
  Arr_1_Par_Ref[Int_Loc + 1] = Arr_1_Par_Ref[Int_Loc];
80000bdc:	00d52223          	sw	a3,4(a0)
/home/tututu/qimeng/simulator/baremetal/benchmarks/dhrystone/dry.c:628
  Arr_1_Par_Ref[Int_Loc + 30] = Int_Loc;
80000be0:	06e52c23          	sw	a4,120(a0)
/home/tututu/qimeng/simulator/baremetal/benchmarks/dhrystone/dry.c:630
    Arr_2_Par_Ref[Int_Loc][Int_Index] = Int_Loc;
80000be4:	010586b3          	add	a3,a1,a6
/home/tututu/qimeng/simulator/baremetal/benchmarks/dhrystone/dry.c:631
  Arr_2_Par_Ref[Int_Loc][Int_Loc - 1] += 1;
80000be8:	0106a803          	lw	a6,16(a3)
/home/tututu/qimeng/simulator/baremetal/benchmarks/dhrystone/dry.c:630
    Arr_2_Par_Ref[Int_Loc][Int_Index] = Int_Loc;
80000bec:	00e6aa23          	sw	a4,20(a3)
80000bf0:	00e6ac23          	sw	a4,24(a3)
/home/tututu/qimeng/simulator/baremetal/benchmarks/dhrystone/dry.c:631
  Arr_2_Par_Ref[Int_Loc][Int_Loc - 1] += 1;
80000bf4:	00180713          	addi	a4,a6,1
80000bf8:	00e6a823          	sw	a4,16(a3)
/home/tututu/qimeng/simulator/baremetal/benchmarks/dhrystone/dry.c:632
  Arr_2_Par_Ref[Int_Loc + 20][Int_Loc] = Arr_1_Par_Ref[Int_Loc];
80000bfc:	00052703          	lw	a4,0(a0)
80000c00:	00f585b3          	add	a1,a1,a5
80000c04:	00c585b3          	add	a1,a1,a2
80000c08:	000017b7          	lui	a5,0x1
80000c0c:	00b787b3          	add	a5,a5,a1
80000c10:	fae7aa23          	sw	a4,-76(a5) # fb4 <__stack_size-0x1fff04c>
/home/tututu/qimeng/simulator/baremetal/benchmarks/dhrystone/dry.c:633
  Int_Glob = 5;
80000c14:	800057b7          	lui	a5,0x80005
80000c18:	00500713          	addi	a4,zero,5
80000c1c:	9ae7a423          	sw	a4,-1624(a5) # 800049a8 <_sp+0xf80049a8>
/home/tututu/qimeng/simulator/baremetal/benchmarks/dhrystone/dry.c:634
} /* Proc_8 */
80000c20:	00008067          	jalr	zero,0(ra)

80000c24 <Func_1>:
Func_1():
/home/tututu/qimeng/simulator/baremetal/benchmarks/dhrystone/dry.c:645
{
80000c24:	0ff57513          	andi	a0,a0,255
80000c28:	0ff5f593          	andi	a1,a1,255
/home/tututu/qimeng/simulator/baremetal/benchmarks/dhrystone/dry.c:651
  if (Ch_2_Loc != Ch_2_Par_Val)
80000c2c:	00b50663          	beq	a0,a1,80000c38 <Func_1+0x14>
/home/tututu/qimeng/simulator/baremetal/benchmarks/dhrystone/dry.c:653
    return (Ident_1);
80000c30:	00000513          	addi	a0,zero,0
/home/tututu/qimeng/simulator/baremetal/benchmarks/dhrystone/dry.c:659
} /* Func_1 */
80000c34:	00008067          	jalr	zero,0(ra)
/home/tututu/qimeng/simulator/baremetal/benchmarks/dhrystone/dry.c:656
    Ch_1_Glob = Ch_1_Loc;
80000c38:	800057b7          	lui	a5,0x80005
80000c3c:	9aa780a3          	sb	a0,-1631(a5) # 800049a1 <_sp+0xf80049a1>
/home/tututu/qimeng/simulator/baremetal/benchmarks/dhrystone/dry.c:657
    return (Ident_2);
80000c40:	00100513          	addi	a0,zero,1
80000c44:	00008067          	jalr	zero,0(ra)

80000c48 <Func_2>:
Func_2():
/home/tututu/qimeng/simulator/baremetal/benchmarks/dhrystone/dry.c:669
{
80000c48:	ff010113          	addi	sp,sp,-16
80000c4c:	00112623          	sw	ra,12(sp)
/home/tututu/qimeng/simulator/baremetal/benchmarks/dhrystone/dry.c:675
    if (Func_1(Str_1_Par_Ref[Int_Loc], Str_2_Par_Ref[Int_Loc + 1]) == Ident_1)
80000c50:	00254783          	lbu	a5,2(a0)
80000c54:	0035c703          	lbu	a4,3(a1)
/home/tututu/qimeng/simulator/baremetal/benchmarks/dhrystone/dry.c:669
{
80000c58:	00000613          	addi	a2,zero,0
/home/tututu/qimeng/simulator/baremetal/benchmarks/dhrystone/dry.c:675
    if (Func_1(Str_1_Par_Ref[Int_Loc], Str_2_Par_Ref[Int_Loc + 1]) == Ident_1)
80000c5c:	00000693          	addi	a3,zero,0
Func_1():
/home/tututu/qimeng/simulator/baremetal/benchmarks/dhrystone/dry.c:651
  if (Ch_2_Loc != Ch_2_Par_Val)
80000c60:	02e78e63          	beq	a5,a4,80000c9c <Func_2+0x54>
80000c64:	00068663          	beq	a3,zero,80000c70 <Func_2+0x28>
80000c68:	800057b7          	lui	a5,0x80005
80000c6c:	9ac780a3          	sb	a2,-1631(a5) # 800049a1 <_sp+0xf80049a1>
Func_2():
/home/tututu/qimeng/simulator/baremetal/benchmarks/dhrystone/dry.c:689
    if (strcmp(Str_1_Par_Ref, Str_2_Par_Ref) > 0) {
80000c70:	269000ef          	jal	ra,800016d8 <strcmp>
/home/tututu/qimeng/simulator/baremetal/benchmarks/dhrystone/dry.c:694
      return (false);
80000c74:	00000793          	addi	a5,zero,0
/home/tututu/qimeng/simulator/baremetal/benchmarks/dhrystone/dry.c:689
    if (strcmp(Str_1_Par_Ref, Str_2_Par_Ref) > 0) {
80000c78:	00a05a63          	bge	zero,a0,80000c8c <Func_2+0x44>
/home/tututu/qimeng/simulator/baremetal/benchmarks/dhrystone/dry.c:691
      Int_Glob = Int_Loc;
80000c7c:	800057b7          	lui	a5,0x80005
80000c80:	00a00713          	addi	a4,zero,10
80000c84:	9ae7a423          	sw	a4,-1624(a5) # 800049a8 <_sp+0xf80049a8>
/home/tututu/qimeng/simulator/baremetal/benchmarks/dhrystone/dry.c:692
      return (true);
80000c88:	00100793          	addi	a5,zero,1
/home/tututu/qimeng/simulator/baremetal/benchmarks/dhrystone/dry.c:696
} /* Func_2 */
80000c8c:	00c12083          	lw	ra,12(sp)
80000c90:	00078513          	addi	a0,a5,0
80000c94:	01010113          	addi	sp,sp,16
80000c98:	00008067          	jalr	zero,0(ra)
Func_1():
/home/tututu/qimeng/simulator/baremetal/benchmarks/dhrystone/dry.c:696
80000c9c:	00100693          	addi	a3,zero,1
80000ca0:	00078613          	addi	a2,a5,0
80000ca4:	fbdff06f          	jal	zero,80000c60 <Func_2+0x18>

80000ca8 <Func_3>:
Func_3():
/home/tututu/qimeng/simulator/baremetal/benchmarks/dhrystone/dry.c:707
  if (Enum_Loc == Ident_3)
80000ca8:	ffe50513          	addi	a0,a0,-2
/home/tututu/qimeng/simulator/baremetal/benchmarks/dhrystone/dry.c:712
} /* Func_3 */
80000cac:	00153513          	sltiu	a0,a0,1
80000cb0:	00008067          	jalr	zero,0(ra)

80000cb4 <check>:
check():
/home/tututu/qimeng/simulator/baremetal/benchmarks/dhrystone/dry.c:716
  if (!cond)
80000cb4:	00051663          	bne	a0,zero,80000cc0 <check+0xc>
/home/tututu/qimeng/simulator/baremetal/benchmarks/dhrystone/dry.c:717
    pass = false;
80000cb8:	800057b7          	lui	a5,0x80005
80000cbc:	9c07a423          	sw	zero,-1592(a5) # 800049c8 <_sp+0xf80049c8>
/home/tututu/qimeng/simulator/baremetal/benchmarks/dhrystone/dry.c:719
}
80000cc0:	00008067          	jalr	zero,0(ra)

80000cc4 <uart_putc>:
set_reg():
/home/tututu/qimeng/simulator/baremetal/benchmarks/dhrystone/../../lib/uart.c:46

static void set_reg(u32 num, u32 val)
{
    u32 offset = num << uart8250_reg_shift;

    writeb(val, uart8250_base + offset);
80000cc4:	0140000f          	fence	w,o
80000cc8:	800057b7          	lui	a5,0x80005
__raw_writeb():
/home/tututu/qimeng/simulator/baremetal/benchmarks/dhrystone/../../lib/../include/uart.h:49
#define u32 uint32_t
#define u16 uint16_t
#define u8 uint16_t

static inline void __raw_writeb(u8 val, volatile void *addr) {
  asm volatile("sb %0, 0(%1)" : : "r"(val), "r"(addr));
80000ccc:	9b87a783          	lw	a5,-1608(a5) # 800049b8 <_sp+0xf80049b8>
80000cd0:	00a78023          	sb	a0,0(a5)
uart_putc():
/home/tututu/qimeng/simulator/baremetal/benchmarks/dhrystone/../../lib/uart.c:55
{
    // while ((get_reg(UART_LSR_OFFSET) & UART_LSR_THRE) == 0)
    // 	;

    set_reg(UART_THR_OFFSET, ch);
}
80000cd4:	00008067          	jalr	zero,0(ra)

80000cd8 <uart_getc>:
get_reg():
/home/tututu/qimeng/simulator/baremetal/benchmarks/dhrystone/../../lib/uart.c:37
    u32 offset = num << uart8250_reg_shift;
80000cd8:	800057b7          	lui	a5,0x80005
80000cdc:	9b47a603          	lw	a2,-1612(a5) # 800049b4 <_sp+0xf80049b4>
/home/tututu/qimeng/simulator/baremetal/benchmarks/dhrystone/../../lib/uart.c:39
    return readb(uart8250_base + offset);
80000ce0:	800056b7          	lui	a3,0x80005
80000ce4:	9b86a783          	lw	a5,-1608(a3) # 800049b8 <_sp+0xf80049b8>
/home/tututu/qimeng/simulator/baremetal/benchmarks/dhrystone/../../lib/uart.c:37
    u32 offset = num << uart8250_reg_shift;
80000ce8:	00500713          	addi	a4,zero,5
80000cec:	00c71733          	sll	a4,a4,a2
/home/tututu/qimeng/simulator/baremetal/benchmarks/dhrystone/../../lib/uart.c:39
    return readb(uart8250_base + offset);
80000cf0:	00e787b3          	add	a5,a5,a4
__raw_readb():
/home/tututu/qimeng/simulator/baremetal/benchmarks/dhrystone/../../lib/../include/uart.h:55
}

static inline u8 __raw_readb(const volatile void *addr) {
  u8 val;

  asm volatile("lb %0, 0(%1)" : "=r"(val) : "r"(addr));
80000cf4:	00078783          	lb	a5,0(a5)
80000cf8:	01079793          	slli	a5,a5,0x10
80000cfc:	0107d793          	srli	a5,a5,0x10
get_reg():
/home/tututu/qimeng/simulator/baremetal/benchmarks/dhrystone/../../lib/uart.c:39
80000d00:	0820000f          	fence	i,r
uart_getc():
/home/tututu/qimeng/simulator/baremetal/benchmarks/dhrystone/../../lib/uart.c:59

int uart_getc(void)
{
    if (get_reg(UART_LSR_OFFSET) & UART_LSR_DR)
80000d04:	0017f793          	andi	a5,a5,1
80000d08:	00078e63          	beq	a5,zero,80000d24 <uart_getc+0x4c>
__raw_readb():
/home/tututu/qimeng/simulator/baremetal/benchmarks/dhrystone/../../lib/../include/uart.h:55
80000d0c:	9b86a503          	lw	a0,-1608(a3)
80000d10:	00050503          	lb	a0,0(a0)
80000d14:	01051513          	slli	a0,a0,0x10
80000d18:	01055513          	srli	a0,a0,0x10
get_reg():
/home/tututu/qimeng/simulator/baremetal/benchmarks/dhrystone/../../lib/uart.c:39
    return readb(uart8250_base + offset);
80000d1c:	0820000f          	fence	i,r
uart_getc():
/home/tututu/qimeng/simulator/baremetal/benchmarks/dhrystone/../../lib/uart.c:60
        return get_reg(UART_RBR_OFFSET);
80000d20:	00008067          	jalr	zero,0(ra)
/home/tututu/qimeng/simulator/baremetal/benchmarks/dhrystone/../../lib/uart.c:61
    return -1;
80000d24:	fff00513          	addi	a0,zero,-1
/home/tututu/qimeng/simulator/baremetal/benchmarks/dhrystone/../../lib/uart.c:62
}
80000d28:	00008067          	jalr	zero,0(ra)

80000d2c <uart_init>:
uart_init():
/home/tututu/qimeng/simulator/baremetal/benchmarks/dhrystone/../../lib/uart.c:68

int uart_init()
{
    u16 bdiv;

    uart8250_base = (volatile void *)0x10000000;
80000d2c:	800057b7          	lui	a5,0x80005
/home/tututu/qimeng/simulator/baremetal/benchmarks/dhrystone/../../lib/uart.c:69
    uart8250_reg_shift = 0;
80000d30:	80005737          	lui	a4,0x80005
/home/tututu/qimeng/simulator/baremetal/benchmarks/dhrystone/../../lib/uart.c:68
    uart8250_base = (volatile void *)0x10000000;
80000d34:	100006b7          	lui	a3,0x10000
80000d38:	9ad7ac23          	sw	a3,-1608(a5) # 800049b8 <_sp+0xf80049b8>
/home/tututu/qimeng/simulator/baremetal/benchmarks/dhrystone/../../lib/uart.c:69
    uart8250_reg_shift = 0;
80000d3c:	9a072a23          	sw	zero,-1612(a4) # 800049b4 <_sp+0xf80049b4>
set_reg():
/home/tututu/qimeng/simulator/baremetal/benchmarks/dhrystone/../../lib/uart.c:46
    writeb(val, uart8250_base + offset);
80000d40:	0140000f          	fence	w,o
80000d44:	9b87a603          	lw	a2,-1608(a5)
__raw_writeb():
/home/tututu/qimeng/simulator/baremetal/benchmarks/dhrystone/../../lib/../include/uart.h:49
  asm volatile("sb %0, 0(%1)" : : "r"(val), "r"(addr));
80000d48:	00000693          	addi	a3,zero,0
set_reg():
/home/tututu/qimeng/simulator/baremetal/benchmarks/dhrystone/../../lib/uart.c:46
80000d4c:	00160613          	addi	a2,a2,1
__raw_writeb():
/home/tututu/qimeng/simulator/baremetal/benchmarks/dhrystone/../../lib/../include/uart.h:49
80000d50:	00d60023          	sb	a3,0(a2)
set_reg():
/home/tututu/qimeng/simulator/baremetal/benchmarks/dhrystone/../../lib/uart.c:44
    u32 offset = num << uart8250_reg_shift;
80000d54:	9b472503          	lw	a0,-1612(a4)
80000d58:	00300613          	addi	a2,zero,3
80000d5c:	00a61533          	sll	a0,a2,a0
/home/tututu/qimeng/simulator/baremetal/benchmarks/dhrystone/../../lib/uart.c:46
    writeb(val, uart8250_base + offset);
80000d60:	0140000f          	fence	w,o
80000d64:	9b87a583          	lw	a1,-1608(a5)
80000d68:	00a585b3          	add	a1,a1,a0
__raw_writeb():
/home/tututu/qimeng/simulator/baremetal/benchmarks/dhrystone/../../lib/../include/uart.h:49
80000d6c:	08000513          	addi	a0,zero,128
80000d70:	00a58023          	sb	a0,0(a1)
set_reg():
/home/tututu/qimeng/simulator/baremetal/benchmarks/dhrystone/../../lib/uart.c:44
    u32 offset = num << uart8250_reg_shift;
80000d74:	9b472583          	lw	a1,-1612(a4)
80000d78:	00100513          	addi	a0,zero,1
80000d7c:	00b51533          	sll	a0,a0,a1
/home/tututu/qimeng/simulator/baremetal/benchmarks/dhrystone/../../lib/uart.c:46
    writeb(val, uart8250_base + offset);
80000d80:	0140000f          	fence	w,o
80000d84:	9b87a583          	lw	a1,-1608(a5)
80000d88:	00a585b3          	add	a1,a1,a0
__raw_writeb():
/home/tututu/qimeng/simulator/baremetal/benchmarks/dhrystone/../../lib/../include/uart.h:49
80000d8c:	00d58023          	sb	a3,0(a1)
set_reg():
/home/tututu/qimeng/simulator/baremetal/benchmarks/dhrystone/../../lib/uart.c:44
    u32 offset = num << uart8250_reg_shift;
80000d90:	9b472583          	lw	a1,-1612(a4)
80000d94:	00b61633          	sll	a2,a2,a1
/home/tututu/qimeng/simulator/baremetal/benchmarks/dhrystone/../../lib/uart.c:46
    writeb(val, uart8250_base + offset);
80000d98:	0140000f          	fence	w,o
80000d9c:	9b87a583          	lw	a1,-1608(a5)
80000da0:	00c58633          	add	a2,a1,a2
__raw_writeb():
/home/tututu/qimeng/simulator/baremetal/benchmarks/dhrystone/../../lib/../include/uart.h:49
80000da4:	00300593          	addi	a1,zero,3
80000da8:	00b60023          	sb	a1,0(a2)
set_reg():
/home/tututu/qimeng/simulator/baremetal/benchmarks/dhrystone/../../lib/uart.c:44
    u32 offset = num << uart8250_reg_shift;
80000dac:	9b472603          	lw	a2,-1612(a4)
80000db0:	00200593          	addi	a1,zero,2
80000db4:	00c595b3          	sll	a1,a1,a2
/home/tututu/qimeng/simulator/baremetal/benchmarks/dhrystone/../../lib/uart.c:46
    writeb(val, uart8250_base + offset);
80000db8:	0140000f          	fence	w,o
80000dbc:	9b87a603          	lw	a2,-1608(a5)
80000dc0:	00b60633          	add	a2,a2,a1
__raw_writeb():
/home/tututu/qimeng/simulator/baremetal/benchmarks/dhrystone/../../lib/../include/uart.h:49
80000dc4:	00100593          	addi	a1,zero,1
80000dc8:	00b60023          	sb	a1,0(a2)
set_reg():
/home/tututu/qimeng/simulator/baremetal/benchmarks/dhrystone/../../lib/uart.c:44
    u32 offset = num << uart8250_reg_shift;
80000dcc:	9b472603          	lw	a2,-1612(a4)
80000dd0:	00400593          	addi	a1,zero,4
80000dd4:	00c595b3          	sll	a1,a1,a2
/home/tututu/qimeng/simulator/baremetal/benchmarks/dhrystone/../../lib/uart.c:46
    writeb(val, uart8250_base + offset);
80000dd8:	0140000f          	fence	w,o
80000ddc:	9b87a603          	lw	a2,-1608(a5)
80000de0:	00b60633          	add	a2,a2,a1
__raw_writeb():
/home/tututu/qimeng/simulator/baremetal/benchmarks/dhrystone/../../lib/../include/uart.h:49
80000de4:	00d60023          	sb	a3,0(a2)
set_reg():
/home/tututu/qimeng/simulator/baremetal/benchmarks/dhrystone/../../lib/uart.c:44
    u32 offset = num << uart8250_reg_shift;
80000de8:	9b472603          	lw	a2,-1612(a4)
80000dec:	00700713          	addi	a4,zero,7
80000df0:	00c71733          	sll	a4,a4,a2
/home/tututu/qimeng/simulator/baremetal/benchmarks/dhrystone/../../lib/uart.c:46
    writeb(val, uart8250_base + offset);
80000df4:	0140000f          	fence	w,o
80000df8:	9b87a783          	lw	a5,-1608(a5)
80000dfc:	00e787b3          	add	a5,a5,a4
__raw_writeb():
/home/tututu/qimeng/simulator/baremetal/benchmarks/dhrystone/../../lib/../include/uart.h:49
80000e00:	00d78023          	sb	a3,0(a5)
uart_init():
/home/tututu/qimeng/simulator/baremetal/benchmarks/dhrystone/../../lib/uart.c:96
    // /* Read receive buffer */
    // get_reg(UART_RBR_OFFSET);
    /* Set scratchpad */
    set_reg(UART_SCR_OFFSET, 0x00);

    xdev_out(uart_putc);
80000e04:	800017b7          	lui	a5,0x80001
80000e08:	80005737          	lui	a4,0x80005
80000e0c:	cc478793          	addi	a5,a5,-828 # 80000cc4 <_sp+0xf8000cc4>
80000e10:	9cf72023          	sw	a5,-1600(a4) # 800049c0 <_sp+0xf80049c0>
/home/tututu/qimeng/simulator/baremetal/benchmarks/dhrystone/../../lib/uart.c:98
    return 0;
80000e14:	00000513          	addi	a0,zero,0
80000e18:	00008067          	jalr	zero,0(ra)

80000e1c <xputc>:
xputc():
/home/tututu/qimeng/simulator/baremetal/benchmarks/dhrystone/../../lib/xprintf.c:30

void xputc (char c)
{
	if (_CR_CRLF && c == '\n') xputc('\r');		/* CR -> CRLF */

	if (outptr) {
80000e1c:	800056b7          	lui	a3,0x80005
80000e20:	9bc6a703          	lw	a4,-1604(a3) # 800049bc <_sp+0xf80049bc>
80000e24:	00070a63          	beq	a4,zero,80000e38 <xputc+0x1c>
/home/tututu/qimeng/simulator/baremetal/benchmarks/dhrystone/../../lib/xprintf.c:31
		*outptr++ = (unsigned char)c;
80000e28:	00170613          	addi	a2,a4,1
80000e2c:	9ac6ae23          	sw	a2,-1604(a3)
80000e30:	00a70023          	sb	a0,0(a4)
/home/tututu/qimeng/simulator/baremetal/benchmarks/dhrystone/../../lib/xprintf.c:32
		return;
80000e34:	00008067          	jalr	zero,0(ra)
/home/tututu/qimeng/simulator/baremetal/benchmarks/dhrystone/../../lib/xprintf.c:35
	}

	if (xfunc_out) xfunc_out((unsigned char)c);
80000e38:	800057b7          	lui	a5,0x80005
80000e3c:	9c07a783          	lw	a5,-1600(a5) # 800049c0 <_sp+0xf80049c0>
80000e40:	00078463          	beq	a5,zero,80000e48 <xputc+0x2c>
80000e44:	00078067          	jalr	zero,0(a5)
/home/tututu/qimeng/simulator/baremetal/benchmarks/dhrystone/../../lib/xprintf.c:36
}
80000e48:	00008067          	jalr	zero,0(ra)

80000e4c <xputs>:
xputs():
/home/tututu/qimeng/simulator/baremetal/benchmarks/dhrystone/../../lib/xprintf.c:46
/*----------------------------------------------*/

void xputs (					/* Put a string to the default device */
	const char* str				/* Pointer to the string */
)
{
80000e4c:	ff010113          	addi	sp,sp,-16
80000e50:	00812423          	sw	s0,8(sp)
80000e54:	00112623          	sw	ra,12(sp)
80000e58:	00912223          	sw	s1,4(sp)
80000e5c:	01212023          	sw	s2,0(sp)
80000e60:	00050413          	addi	s0,a0,0
/home/tututu/qimeng/simulator/baremetal/benchmarks/dhrystone/../../lib/xprintf.c:47
	while (*str)
80000e64:	00054503          	lbu	a0,0(a0)
80000e68:	04050263          	beq	a0,zero,80000eac <xputs+0x60>
80000e6c:	800054b7          	lui	s1,0x80005
xputc():
/home/tututu/qimeng/simulator/baremetal/benchmarks/dhrystone/../../lib/xprintf.c:35
	if (xfunc_out) xfunc_out((unsigned char)c);
80000e70:	80005937          	lui	s2,0x80005
80000e74:	0140006f          	jal	zero,80000e88 <xputs+0x3c>
/home/tututu/qimeng/simulator/baremetal/benchmarks/dhrystone/../../lib/xprintf.c:31
		*outptr++ = (unsigned char)c;
80000e78:	9ae4ae23          	sw	a4,-1604(s1) # 800049bc <_sp+0xf80049bc>
80000e7c:	00a78023          	sb	a0,0(a5)
xputs():
/home/tututu/qimeng/simulator/baremetal/benchmarks/dhrystone/../../lib/xprintf.c:47
	while (*str)
80000e80:	00044503          	lbu	a0,0(s0)
80000e84:	02050463          	beq	a0,zero,80000eac <xputs+0x60>
xputc():
/home/tututu/qimeng/simulator/baremetal/benchmarks/dhrystone/../../lib/xprintf.c:30
	if (outptr) {
80000e88:	9bc4a783          	lw	a5,-1604(s1)
xputs():
/home/tututu/qimeng/simulator/baremetal/benchmarks/dhrystone/../../lib/xprintf.c:48
		xputc(*str++);
80000e8c:	00140413          	addi	s0,s0,1
xputc():
/home/tututu/qimeng/simulator/baremetal/benchmarks/dhrystone/../../lib/xprintf.c:31
		*outptr++ = (unsigned char)c;
80000e90:	00178713          	addi	a4,a5,1
/home/tututu/qimeng/simulator/baremetal/benchmarks/dhrystone/../../lib/xprintf.c:30
	if (outptr) {
80000e94:	fe0792e3          	bne	a5,zero,80000e78 <xputs+0x2c>
/home/tututu/qimeng/simulator/baremetal/benchmarks/dhrystone/../../lib/xprintf.c:35
	if (xfunc_out) xfunc_out((unsigned char)c);
80000e98:	9c092783          	lw	a5,-1600(s2) # 800049c0 <_sp+0xf80049c0>
80000e9c:	fe0782e3          	beq	a5,zero,80000e80 <xputs+0x34>
80000ea0:	000780e7          	jalr	ra,0(a5)
xputs():
/home/tututu/qimeng/simulator/baremetal/benchmarks/dhrystone/../../lib/xprintf.c:47
	while (*str)
80000ea4:	00044503          	lbu	a0,0(s0)
80000ea8:	fe0510e3          	bne	a0,zero,80000e88 <xputs+0x3c>
/home/tututu/qimeng/simulator/baremetal/benchmarks/dhrystone/../../lib/xprintf.c:49
}
80000eac:	00c12083          	lw	ra,12(sp)
80000eb0:	00812403          	lw	s0,8(sp)
80000eb4:	00412483          	lw	s1,4(sp)
80000eb8:	00012903          	lw	s2,0(sp)
80000ebc:	01010113          	addi	sp,sp,16
80000ec0:	00008067          	jalr	zero,0(ra)

80000ec4 <xprintf>:
xprintf():
/home/tututu/qimeng/simulator/baremetal/benchmarks/dhrystone/../../lib/xprintf.c:150

void xprintf (			/* Put a formatted string to the default device */
	const char*	fmt,	/* Pointer to the format string */
	...					/* Optional arguments */
)
{
80000ec4:	f7010113          	addi	sp,sp,-144
80000ec8:	05512a23          	sw	s5,84(sp)
80000ecc:	05812423          	sw	s8,72(sp)
80000ed0:	06112623          	sw	ra,108(sp)
80000ed4:	06812423          	sw	s0,104(sp)
80000ed8:	06912223          	sw	s1,100(sp)
80000edc:	07212023          	sw	s2,96(sp)
80000ee0:	05312e23          	sw	s3,92(sp)
80000ee4:	05412c23          	sw	s4,88(sp)
80000ee8:	05612823          	sw	s6,80(sp)
80000eec:	05712623          	sw	s7,76(sp)
80000ef0:	05912223          	sw	s9,68(sp)
80000ef4:	05a12023          	sw	s10,64(sp)
80000ef8:	03b12e23          	sw	s11,60(sp)
80000efc:	06b12a23          	sw	a1,116(sp)
80000f00:	06c12c23          	sw	a2,120(sp)
80000f04:	06d12e23          	sw	a3,124(sp)
80000f08:	08e12023          	sw	a4,128(sp)
80000f0c:	08f12223          	sw	a5,132(sp)
80000f10:	09012423          	sw	a6,136(sp)
80000f14:	09112623          	sw	a7,140(sp)
80000f18:	00050c13          	addi	s8,a0,0
xvprintf():
/home/tututu/qimeng/simulator/baremetal/benchmarks/dhrystone/../../lib/xprintf.c:81
		c = *fmt++;					/* Get a char */
80000f1c:	00054503          	lbu	a0,0(a0)
xprintf():
/home/tututu/qimeng/simulator/baremetal/benchmarks/dhrystone/../../lib/xprintf.c:154
	va_list arp;


	va_start(arp, fmt);
80000f20:	07410a93          	addi	s5,sp,116
80000f24:	01512e23          	sw	s5,28(sp)
/home/tututu/qimeng/simulator/baremetal/benchmarks/dhrystone/../../lib/xprintf.c:155
	xvprintf(fmt, arp);
80000f28:	01512223          	sw	s5,4(sp)
xvprintf():
/home/tututu/qimeng/simulator/baremetal/benchmarks/dhrystone/../../lib/xprintf.c:82
		if (!c) break;				/* End of format? */
80000f2c:	10050263          	beq	a0,zero,80001030 <xprintf+0x16c>
/home/tututu/qimeng/simulator/baremetal/benchmarks/dhrystone/../../lib/xprintf.c:103
		switch (d) {				/* Type is... */
80000f30:	800027b7          	lui	a5,0x80002
80000f34:	d5078793          	addi	a5,a5,-688 # 80001d50 <_sp+0xf8001d50>
80000f38:	001c0693          	addi	a3,s8,1
xputc():
/home/tututu/qimeng/simulator/baremetal/benchmarks/dhrystone/../../lib/xprintf.c:30
	if (outptr) {
80000f3c:	80005b37          	lui	s6,0x80005
/home/tututu/qimeng/simulator/baremetal/benchmarks/dhrystone/../../lib/xprintf.c:35
	if (xfunc_out) xfunc_out((unsigned char)c);
80000f40:	800059b7          	lui	s3,0x80005
xvprintf():
/home/tututu/qimeng/simulator/baremetal/benchmarks/dhrystone/../../lib/xprintf.c:103
		switch (d) {				/* Type is... */
80000f44:	00f12623          	sw	a5,12(sp)
/home/tututu/qimeng/simulator/baremetal/benchmarks/dhrystone/../../lib/xprintf.c:121
			r = 16; break;
80000f48:	01000a13          	addi	s4,zero,16
80000f4c:	02010913          	addi	s2,sp,32
80000f50:	0280006f          	jal	zero,80000f78 <xprintf+0xb4>
xputc():
/home/tututu/qimeng/simulator/baremetal/benchmarks/dhrystone/../../lib/xprintf.c:30
	if (outptr) {
80000f54:	9bcb2783          	lw	a5,-1604(s6) # 800049bc <_sp+0xf80049bc>
80000f58:	4a078663          	beq	a5,zero,80001404 <xprintf+0x540>
/home/tututu/qimeng/simulator/baremetal/benchmarks/dhrystone/../../lib/xprintf.c:31
		*outptr++ = (unsigned char)c;
80000f5c:	00178613          	addi	a2,a5,1
80000f60:	9acb2e23          	sw	a2,-1604(s6)
80000f64:	00a78023          	sb	a0,0(a5)
/home/tututu/qimeng/simulator/baremetal/benchmarks/dhrystone/../../lib/xprintf.c:32
		return;
80000f68:	00068c13          	addi	s8,a3,0
xvprintf():
/home/tututu/qimeng/simulator/baremetal/benchmarks/dhrystone/../../lib/xprintf.c:81
		c = *fmt++;					/* Get a char */
80000f6c:	000c4503          	lbu	a0,0(s8)
80000f70:	001c0693          	addi	a3,s8,1
/home/tututu/qimeng/simulator/baremetal/benchmarks/dhrystone/../../lib/xprintf.c:82
		if (!c) break;				/* End of format? */
80000f74:	0a050e63          	beq	a0,zero,80001030 <xprintf+0x16c>
/home/tututu/qimeng/simulator/baremetal/benchmarks/dhrystone/../../lib/xprintf.c:83
		if (c != '%') {				/* Pass through it if not a % sequense */
80000f78:	02500793          	addi	a5,zero,37
80000f7c:	fcf51ce3          	bne	a0,a5,80000f54 <xprintf+0x90>
/home/tututu/qimeng/simulator/baremetal/benchmarks/dhrystone/../../lib/xprintf.c:87
		c = *fmt++;					/* Get first char of the sequense */
80000f80:	001c4503          	lbu	a0,1(s8)
/home/tututu/qimeng/simulator/baremetal/benchmarks/dhrystone/../../lib/xprintf.c:88
		if (c == '0') {				/* Flag: '0' padded */
80000f84:	03000793          	addi	a5,zero,48
80000f88:	48f50863          	beq	a0,a5,80001418 <xprintf+0x554>
/home/tututu/qimeng/simulator/baremetal/benchmarks/dhrystone/../../lib/xprintf.c:91
			if (c == '-') {			/* Flag: left justified */
80000f8c:	02d00793          	addi	a5,zero,45
80000f90:	48f50c63          	beq	a0,a5,80001428 <xprintf+0x564>
/home/tututu/qimeng/simulator/baremetal/benchmarks/dhrystone/../../lib/xprintf.c:87
		c = *fmt++;					/* Get first char of the sequense */
80000f94:	002c0c13          	addi	s8,s8,2
/home/tututu/qimeng/simulator/baremetal/benchmarks/dhrystone/../../lib/xprintf.c:86
		f = 0;
80000f98:	00000b93          	addi	s7,zero,0
/home/tututu/qimeng/simulator/baremetal/benchmarks/dhrystone/../../lib/xprintf.c:95
		for (w = 0; c >= '0' && c <= '9'; c = *fmt++)	/* Minimum width */
80000f9c:	fd050793          	addi	a5,a0,-48
80000fa0:	0ff7f793          	andi	a5,a5,255
80000fa4:	00900693          	addi	a3,zero,9
80000fa8:	00000493          	addi	s1,zero,0
80000fac:	02f6e663          	bltu	a3,a5,80000fd8 <xprintf+0x114>
/home/tututu/qimeng/simulator/baremetal/benchmarks/dhrystone/../../lib/xprintf.c:96
			w = w * 10 + c - '0';
80000fb0:	00249793          	slli	a5,s1,0x2
80000fb4:	009787b3          	add	a5,a5,s1
80000fb8:	00179793          	slli	a5,a5,0x1
/home/tututu/qimeng/simulator/baremetal/benchmarks/dhrystone/../../lib/xprintf.c:95
		for (w = 0; c >= '0' && c <= '9'; c = *fmt++)	/* Minimum width */
80000fbc:	001c0c13          	addi	s8,s8,1
/home/tututu/qimeng/simulator/baremetal/benchmarks/dhrystone/../../lib/xprintf.c:96
			w = w * 10 + c - '0';
80000fc0:	00a787b3          	add	a5,a5,a0
/home/tututu/qimeng/simulator/baremetal/benchmarks/dhrystone/../../lib/xprintf.c:95
		for (w = 0; c >= '0' && c <= '9'; c = *fmt++)	/* Minimum width */
80000fc4:	fffc4503          	lbu	a0,-1(s8)
/home/tututu/qimeng/simulator/baremetal/benchmarks/dhrystone/../../lib/xprintf.c:96
			w = w * 10 + c - '0';
80000fc8:	fd078493          	addi	s1,a5,-48
/home/tututu/qimeng/simulator/baremetal/benchmarks/dhrystone/../../lib/xprintf.c:95
		for (w = 0; c >= '0' && c <= '9'; c = *fmt++)	/* Minimum width */
80000fcc:	fd050793          	addi	a5,a0,-48
80000fd0:	0ff7f793          	andi	a5,a5,255
80000fd4:	fcf6fee3          	bgeu	a3,a5,80000fb0 <xprintf+0xec>
/home/tututu/qimeng/simulator/baremetal/benchmarks/dhrystone/../../lib/xprintf.c:97
		if (c == 'l' || c == 'L') {	/* Prefix: Size is long int */
80000fd8:	0df57793          	andi	a5,a0,223
80000fdc:	04c00693          	addi	a3,zero,76
80000fe0:	04d78063          	beq	a5,a3,80001020 <xprintf+0x15c>
/home/tututu/qimeng/simulator/baremetal/benchmarks/dhrystone/../../lib/xprintf.c:100
		if (!c) break;				/* End of format? */
80000fe4:	04050663          	beq	a0,zero,80001030 <xprintf+0x16c>
/home/tututu/qimeng/simulator/baremetal/benchmarks/dhrystone/../../lib/xprintf.c:102
		if (d >= 'a') d -= 0x20;
80000fe8:	06000793          	addi	a5,zero,96
80000fec:	00050613          	addi	a2,a0,0
80000ff0:	00a7f663          	bgeu	a5,a0,80000ffc <xprintf+0x138>
80000ff4:	fe050613          	addi	a2,a0,-32
80000ff8:	0ff67613          	andi	a2,a2,255
/home/tututu/qimeng/simulator/baremetal/benchmarks/dhrystone/../../lib/xprintf.c:103
		switch (d) {				/* Type is... */
80000ffc:	fbe60793          	addi	a5,a2,-66
80001000:	0ff7f793          	andi	a5,a5,255
80001004:	01600693          	addi	a3,zero,22
80001008:	06f6e263          	bltu	a3,a5,8000106c <xprintf+0x1a8>
8000100c:	00c12703          	lw	a4,12(sp)
80001010:	00279793          	slli	a5,a5,0x2
80001014:	00e787b3          	add	a5,a5,a4
80001018:	0007a783          	lw	a5,0(a5)
8000101c:	00078067          	jalr	zero,0(a5)
/home/tututu/qimeng/simulator/baremetal/benchmarks/dhrystone/../../lib/xprintf.c:98
			f |= 4; c = *fmt++;
80001020:	000c4503          	lbu	a0,0(s8)
80001024:	004beb93          	ori	s7,s7,4
80001028:	001c0c13          	addi	s8,s8,1
/home/tututu/qimeng/simulator/baremetal/benchmarks/dhrystone/../../lib/xprintf.c:100
		if (!c) break;				/* End of format? */
8000102c:	fa051ee3          	bne	a0,zero,80000fe8 <xprintf+0x124>
xprintf():
/home/tututu/qimeng/simulator/baremetal/benchmarks/dhrystone/../../lib/xprintf.c:157
	va_end(arp);
}
80001030:	06c12083          	lw	ra,108(sp)
80001034:	06812403          	lw	s0,104(sp)
80001038:	06412483          	lw	s1,100(sp)
8000103c:	06012903          	lw	s2,96(sp)
80001040:	05c12983          	lw	s3,92(sp)
80001044:	05812a03          	lw	s4,88(sp)
80001048:	05412a83          	lw	s5,84(sp)
8000104c:	05012b03          	lw	s6,80(sp)
80001050:	04c12b83          	lw	s7,76(sp)
80001054:	04812c03          	lw	s8,72(sp)
80001058:	04412c83          	lw	s9,68(sp)
8000105c:	04012d03          	lw	s10,64(sp)
80001060:	03c12d83          	lw	s11,60(sp)
80001064:	09010113          	addi	sp,sp,144
80001068:	00008067          	jalr	zero,0(ra)
xputc():
/home/tututu/qimeng/simulator/baremetal/benchmarks/dhrystone/../../lib/xprintf.c:30
	if (outptr) {
8000106c:	9bcb2783          	lw	a5,-1604(s6)
80001070:	3c078c63          	beq	a5,zero,80001448 <xprintf+0x584>
/home/tututu/qimeng/simulator/baremetal/benchmarks/dhrystone/../../lib/xprintf.c:31
		*outptr++ = (unsigned char)c;
80001074:	00178693          	addi	a3,a5,1
80001078:	9adb2e23          	sw	a3,-1604(s6)
8000107c:	00a78023          	sb	a0,0(a5)
/home/tututu/qimeng/simulator/baremetal/benchmarks/dhrystone/../../lib/xprintf.c:32
		return;
80001080:	eedff06f          	jal	zero,80000f6c <xprintf+0xa8>
xvprintf():
/home/tututu/qimeng/simulator/baremetal/benchmarks/dhrystone/../../lib/xprintf.c:127
		v = (f & 4) ? va_arg(arp, long) : ((d == 'D') ? (long)va_arg(arp, int) : (long)va_arg(arp, unsigned int));
80001084:	004bf793          	andi	a5,s7,4
80001088:	3e078463          	beq	a5,zero,80001470 <xprintf+0x5ac>
8000108c:	00412783          	lw	a5,4(sp)
/home/tututu/qimeng/simulator/baremetal/benchmarks/dhrystone/../../lib/xprintf.c:128
		if (d == 'D' && (v & 0x80000000)) {
80001090:	04400593          	addi	a1,zero,68
/home/tututu/qimeng/simulator/baremetal/benchmarks/dhrystone/../../lib/xprintf.c:127
		v = (f & 4) ? va_arg(arp, long) : ((d == 'D') ? (long)va_arg(arp, int) : (long)va_arg(arp, unsigned int));
80001094:	0007aa83          	lw	s5,0(a5)
80001098:	00478793          	addi	a5,a5,4
8000109c:	00f12223          	sw	a5,4(sp)
800010a0:	000a8793          	addi	a5,s5,0
/home/tututu/qimeng/simulator/baremetal/benchmarks/dhrystone/../../lib/xprintf.c:128
		if (d == 'D' && (v & 0x80000000)) {
800010a4:	44b61263          	bne	a2,a1,800014e8 <xprintf+0x624>
800010a8:	00012423          	sw	zero,8(sp)
800010ac:	00a00d13          	addi	s10,zero,10
800010b0:	1607de63          	bge	a5,zero,8000122c <xprintf+0x368>
/home/tututu/qimeng/simulator/baremetal/benchmarks/dhrystone/../../lib/xprintf.c:130
			f |= 8;
800010b4:	00800793          	addi	a5,zero,8
/home/tututu/qimeng/simulator/baremetal/benchmarks/dhrystone/../../lib/xprintf.c:129
			v = 0 - v;
800010b8:	41500ab3          	sub	s5,zero,s5
/home/tututu/qimeng/simulator/baremetal/benchmarks/dhrystone/../../lib/xprintf.c:130
			f |= 8;
800010bc:	008beb93          	ori	s7,s7,8
800010c0:	00f12423          	sw	a5,8(sp)
800010c4:	1680006f          	jal	zero,8000122c <xprintf+0x368>
/home/tututu/qimeng/simulator/baremetal/benchmarks/dhrystone/../../lib/xprintf.c:112
			xputc((char)va_arg(arp, int)); continue;
800010c8:	00412703          	lw	a4,4(sp)
xputc():
/home/tututu/qimeng/simulator/baremetal/benchmarks/dhrystone/../../lib/xprintf.c:30
	if (outptr) {
800010cc:	9bcb2783          	lw	a5,-1604(s6)
xvprintf():
/home/tututu/qimeng/simulator/baremetal/benchmarks/dhrystone/../../lib/xprintf.c:112
			xputc((char)va_arg(arp, int)); continue;
800010d0:	00074503          	lbu	a0,0(a4)
800010d4:	00470a93          	addi	s5,a4,4
xputc():
/home/tututu/qimeng/simulator/baremetal/benchmarks/dhrystone/../../lib/xprintf.c:30
	if (outptr) {
800010d8:	36078063          	beq	a5,zero,80001438 <xprintf+0x574>
/home/tututu/qimeng/simulator/baremetal/benchmarks/dhrystone/../../lib/xprintf.c:31
		*outptr++ = (unsigned char)c;
800010dc:	00178693          	addi	a3,a5,1
800010e0:	9adb2e23          	sw	a3,-1604(s6)
800010e4:	00a78023          	sb	a0,0(a5)
xvprintf():
/home/tututu/qimeng/simulator/baremetal/benchmarks/dhrystone/../../lib/xprintf.c:112
			xputc((char)va_arg(arp, int)); continue;
800010e8:	01512223          	sw	s5,4(sp)
xputc():
/home/tututu/qimeng/simulator/baremetal/benchmarks/dhrystone/../../lib/xprintf.c:32
		return;
800010ec:	e81ff06f          	jal	zero,80000f6c <xprintf+0xa8>
xvprintf():
/home/tututu/qimeng/simulator/baremetal/benchmarks/dhrystone/../../lib/xprintf.c:105
			p = va_arg(arp, char*);
800010f0:	00412783          	lw	a5,4(sp)
/home/tututu/qimeng/simulator/baremetal/benchmarks/dhrystone/../../lib/xprintf.c:107
			while (!(f & 2) && j++ < w) xputc(' ');
800010f4:	002bfb93          	andi	s7,s7,2
/home/tututu/qimeng/simulator/baremetal/benchmarks/dhrystone/../../lib/xprintf.c:105
			p = va_arg(arp, char*);
800010f8:	0007a403          	lw	s0,0(a5)
800010fc:	00478a93          	addi	s5,a5,4
/home/tututu/qimeng/simulator/baremetal/benchmarks/dhrystone/../../lib/xprintf.c:106
			for (j = 0; p[j]; j++) ;
80001100:	00044503          	lbu	a0,0(s0)
80001104:	3a050c63          	beq	a0,zero,800014bc <xprintf+0x5f8>
80001108:	00000693          	addi	a3,zero,0
8000110c:	00068793          	addi	a5,a3,0
80001110:	00168693          	addi	a3,a3,1
80001114:	00d40633          	add	a2,s0,a3
80001118:	00064603          	lbu	a2,0(a2)
8000111c:	fe0618e3          	bne	a2,zero,8000110c <xprintf+0x248>
/home/tututu/qimeng/simulator/baremetal/benchmarks/dhrystone/../../lib/xprintf.c:107
			while (!(f & 2) && j++ < w) xputc(' ');
80001120:	00278c93          	addi	s9,a5,2
80001124:	3a0b9663          	bne	s7,zero,800014d0 <xprintf+0x60c>
80001128:	00378b93          	addi	s7,a5,3
8000112c:	0c96f263          	bgeu	a3,s1,800011f0 <xprintf+0x32c>
80001130:	000c8b93          	addi	s7,s9,0
80001134:	0200006f          	jal	zero,80001154 <xprintf+0x290>
xputc():
/home/tututu/qimeng/simulator/baremetal/benchmarks/dhrystone/../../lib/xprintf.c:31
		*outptr++ = (unsigned char)c;
80001138:	00178693          	addi	a3,a5,1
8000113c:	9adb2e23          	sw	a3,-1604(s6)
80001140:	02000693          	addi	a3,zero,32
80001144:	00d78023          	sb	a3,0(a5)
xvprintf():
/home/tututu/qimeng/simulator/baremetal/benchmarks/dhrystone/../../lib/xprintf.c:107
			while (!(f & 2) && j++ < w) xputc(' ');
80001148:	001b8793          	addi	a5,s7,1
8000114c:	029bf463          	bgeu	s7,s1,80001174 <xprintf+0x2b0>
80001150:	00078b93          	addi	s7,a5,0
xputc():
/home/tututu/qimeng/simulator/baremetal/benchmarks/dhrystone/../../lib/xprintf.c:30
	if (outptr) {
80001154:	9bcb2783          	lw	a5,-1604(s6)
80001158:	fe0790e3          	bne	a5,zero,80001138 <xprintf+0x274>
/home/tututu/qimeng/simulator/baremetal/benchmarks/dhrystone/../../lib/xprintf.c:35
	if (xfunc_out) xfunc_out((unsigned char)c);
8000115c:	9c09a783          	lw	a5,-1600(s3) # 800049c0 <_sp+0xf80049c0>
80001160:	fe0784e3          	beq	a5,zero,80001148 <xprintf+0x284>
80001164:	02000513          	addi	a0,zero,32
80001168:	000780e7          	jalr	ra,0(a5)
xvprintf():
/home/tututu/qimeng/simulator/baremetal/benchmarks/dhrystone/../../lib/xprintf.c:107
			while (!(f & 2) && j++ < w) xputc(' ');
8000116c:	001b8793          	addi	a5,s7,1
80001170:	fe9be0e3          	bltu	s7,s1,80001150 <xprintf+0x28c>
80001174:	00000793          	addi	a5,zero,0
80001178:	2d94fe63          	bgeu	s1,s9,80001454 <xprintf+0x590>
xputs():
/home/tututu/qimeng/simulator/baremetal/benchmarks/dhrystone/../../lib/xprintf.c:47
	while (*str)
8000117c:	00044503          	lbu	a0,0(s0)
xvprintf():
/home/tututu/qimeng/simulator/baremetal/benchmarks/dhrystone/../../lib/xprintf.c:107
			while (!(f & 2) && j++ < w) xputc(' ');
80001180:	001c8c93          	addi	s9,s9,1
80001184:	01978cb3          	add	s9,a5,s9
/home/tututu/qimeng/simulator/baremetal/benchmarks/dhrystone/../../lib/xprintf.c:109
			while (j++ < w) xputc(' ');
80001188:	001c8b93          	addi	s7,s9,1
xputs():
/home/tututu/qimeng/simulator/baremetal/benchmarks/dhrystone/../../lib/xprintf.c:47
	while (*str)
8000118c:	06051263          	bne	a0,zero,800011f0 <xprintf+0x32c>
xvprintf():
/home/tututu/qimeng/simulator/baremetal/benchmarks/dhrystone/../../lib/xprintf.c:109
			while (j++ < w) xputc(' ');
80001190:	029ce263          	bltu	s9,s1,800011b4 <xprintf+0x2f0>
80001194:	0400006f          	jal	zero,800011d4 <xprintf+0x310>
xputc():
/home/tututu/qimeng/simulator/baremetal/benchmarks/dhrystone/../../lib/xprintf.c:31
		*outptr++ = (unsigned char)c;
80001198:	00178693          	addi	a3,a5,1
8000119c:	9adb2e23          	sw	a3,-1604(s6)
800011a0:	02000693          	addi	a3,zero,32
800011a4:	00d78023          	sb	a3,0(a5)
xvprintf():
/home/tututu/qimeng/simulator/baremetal/benchmarks/dhrystone/../../lib/xprintf.c:109
			while (j++ < w) xputc(' ');
800011a8:	001b8793          	addi	a5,s7,1
800011ac:	029bf463          	bgeu	s7,s1,800011d4 <xprintf+0x310>
800011b0:	00078b93          	addi	s7,a5,0
xputc():
/home/tututu/qimeng/simulator/baremetal/benchmarks/dhrystone/../../lib/xprintf.c:30
	if (outptr) {
800011b4:	9bcb2783          	lw	a5,-1604(s6)
800011b8:	fe0790e3          	bne	a5,zero,80001198 <xprintf+0x2d4>
/home/tututu/qimeng/simulator/baremetal/benchmarks/dhrystone/../../lib/xprintf.c:35
	if (xfunc_out) xfunc_out((unsigned char)c);
800011bc:	9c09a783          	lw	a5,-1600(s3)
800011c0:	fe0784e3          	beq	a5,zero,800011a8 <xprintf+0x2e4>
800011c4:	02000513          	addi	a0,zero,32
800011c8:	000780e7          	jalr	ra,0(a5)
xvprintf():
/home/tututu/qimeng/simulator/baremetal/benchmarks/dhrystone/../../lib/xprintf.c:109
			while (j++ < w) xputc(' ');
800011cc:	001b8793          	addi	a5,s7,1
800011d0:	fe9be0e3          	bltu	s7,s1,800011b0 <xprintf+0x2ec>
/home/tututu/qimeng/simulator/baremetal/benchmarks/dhrystone/../../lib/xprintf.c:105
			p = va_arg(arp, char*);
800011d4:	01512223          	sw	s5,4(sp)
800011d8:	d95ff06f          	jal	zero,80000f6c <xprintf+0xa8>
xputc():
/home/tututu/qimeng/simulator/baremetal/benchmarks/dhrystone/../../lib/xprintf.c:31
		*outptr++ = (unsigned char)c;
800011dc:	00178693          	addi	a3,a5,1
800011e0:	9adb2e23          	sw	a3,-1604(s6)
800011e4:	00a78023          	sb	a0,0(a5)
xputs():
/home/tututu/qimeng/simulator/baremetal/benchmarks/dhrystone/../../lib/xprintf.c:47
	while (*str)
800011e8:	00044503          	lbu	a0,0(s0)
800011ec:	fa0502e3          	beq	a0,zero,80001190 <xprintf+0x2cc>
xputc():
/home/tututu/qimeng/simulator/baremetal/benchmarks/dhrystone/../../lib/xprintf.c:30
	if (outptr) {
800011f0:	9bcb2783          	lw	a5,-1604(s6)
xputs():
/home/tututu/qimeng/simulator/baremetal/benchmarks/dhrystone/../../lib/xprintf.c:48
		xputc(*str++);
800011f4:	00140413          	addi	s0,s0,1
xputc():
/home/tututu/qimeng/simulator/baremetal/benchmarks/dhrystone/../../lib/xprintf.c:30
	if (outptr) {
800011f8:	fe0792e3          	bne	a5,zero,800011dc <xprintf+0x318>
/home/tututu/qimeng/simulator/baremetal/benchmarks/dhrystone/../../lib/xprintf.c:35
	if (xfunc_out) xfunc_out((unsigned char)c);
800011fc:	9c09a783          	lw	a5,-1600(s3)
80001200:	fe0784e3          	beq	a5,zero,800011e8 <xprintf+0x324>
80001204:	000780e7          	jalr	ra,0(a5)
80001208:	fe1ff06f          	jal	zero,800011e8 <xprintf+0x324>
xvprintf():
/home/tututu/qimeng/simulator/baremetal/benchmarks/dhrystone/../../lib/xprintf.c:127
		v = (f & 4) ? va_arg(arp, long) : ((d == 'D') ? (long)va_arg(arp, int) : (long)va_arg(arp, unsigned int));
8000120c:	004bf793          	andi	a5,s7,4
/home/tututu/qimeng/simulator/baremetal/benchmarks/dhrystone/../../lib/xprintf.c:116
			r = 8; break;
80001210:	00800d13          	addi	s10,zero,8
/home/tututu/qimeng/simulator/baremetal/benchmarks/dhrystone/../../lib/xprintf.c:127
		v = (f & 4) ? va_arg(arp, long) : ((d == 'D') ? (long)va_arg(arp, int) : (long)va_arg(arp, unsigned int));
80001214:	26079e63          	bne	a5,zero,80001490 <xprintf+0x5cc>
80001218:	00412783          	lw	a5,4(sp)
8000121c:	00012423          	sw	zero,8(sp)
80001220:	0007aa83          	lw	s5,0(a5)
80001224:	00478793          	addi	a5,a5,4
80001228:	00f12223          	sw	a5,4(sp)
/home/tututu/qimeng/simulator/baremetal/benchmarks/dhrystone/../../lib/xprintf.c:132
		i = 0;
8000122c:	07800793          	addi	a5,zero,120
80001230:	00700d93          	addi	s11,zero,7
80001234:	00f51463          	bne	a0,a5,8000123c <xprintf+0x378>
80001238:	02700d93          	addi	s11,zero,39
8000123c:	0ffdf793          	andi	a5,s11,255
80001240:	00f12023          	sw	a5,0(sp)
80001244:	00000d93          	addi	s11,zero,0
/home/tututu/qimeng/simulator/baremetal/benchmarks/dhrystone/../../lib/xprintf.c:135
			if (d > 9) d += (c == 'x') ? 0x27 : 0x07;
80001248:	00900c93          	addi	s9,zero,9
8000124c:	0080006f          	jal	zero,80001254 <xprintf+0x390>
80001250:	00040d93          	addi	s11,s0,0
/home/tututu/qimeng/simulator/baremetal/benchmarks/dhrystone/../../lib/xprintf.c:134
			d = (char)(v % r); v /= r;
80001254:	000d0593          	addi	a1,s10,0
80001258:	000a8513          	addi	a0,s5,0
8000125c:	2f0000ef          	jal	ra,8000154c <__umodsi3>
80001260:	00050413          	addi	s0,a0,0
80001264:	000d0593          	addi	a1,s10,0
80001268:	000a8513          	addi	a0,s5,0
8000126c:	298000ef          	jal	ra,80001504 <__udivsi3>
80001270:	000a8813          	addi	a6,s5,0
80001274:	0ff47793          	andi	a5,s0,255
80001278:	00050a93          	addi	s5,a0,0
/home/tututu/qimeng/simulator/baremetal/benchmarks/dhrystone/../../lib/xprintf.c:135
			if (d > 9) d += (c == 'x') ? 0x27 : 0x07;
8000127c:	008cf863          	bgeu	s9,s0,8000128c <xprintf+0x3c8>
80001280:	00012703          	lw	a4,0(sp)
80001284:	00e787b3          	add	a5,a5,a4
80001288:	0ff7f793          	andi	a5,a5,255
/home/tututu/qimeng/simulator/baremetal/benchmarks/dhrystone/../../lib/xprintf.c:136
			s[i++] = d + '0';
8000128c:	001d8413          	addi	s0,s11,1
80001290:	00890533          	add	a0,s2,s0
80001294:	03078793          	addi	a5,a5,48
80001298:	fef50fa3          	sb	a5,-1(a0)
/home/tututu/qimeng/simulator/baremetal/benchmarks/dhrystone/../../lib/xprintf.c:137
		} while (v && i < sizeof(s));
8000129c:	01a86663          	bltu	a6,s10,800012a8 <xprintf+0x3e4>
800012a0:	fb4418e3          	bne	s0,s4,80001250 <xprintf+0x38c>
800012a4:	00f00d93          	addi	s11,zero,15
/home/tututu/qimeng/simulator/baremetal/benchmarks/dhrystone/../../lib/xprintf.c:138
		if (f & 8) s[i++] = '-';
800012a8:	00812783          	lw	a5,8(sp)
800012ac:	00078e63          	beq	a5,zero,800012c8 <xprintf+0x404>
800012b0:	02040793          	addi	a5,s0,32
800012b4:	01010713          	addi	a4,sp,16
800012b8:	00e78433          	add	s0,a5,a4
800012bc:	02d00793          	addi	a5,zero,45
800012c0:	fef40823          	sb	a5,-16(s0)
800012c4:	002d8413          	addi	s0,s11,2
/home/tututu/qimeng/simulator/baremetal/benchmarks/dhrystone/../../lib/xprintf.c:139
		j = i; d = (f & 1) ? '0' : ' ';
800012c8:	001bfd13          	andi	s10,s7,1
800012cc:	004d1d13          	slli	s10,s10,0x4
/home/tututu/qimeng/simulator/baremetal/benchmarks/dhrystone/../../lib/xprintf.c:140
		while (!(f & 2) && j++ < w) xputc(d);
800012d0:	002bfb93          	andi	s7,s7,2
xputc():
/home/tututu/qimeng/simulator/baremetal/benchmarks/dhrystone/../../lib/xprintf.c:30
	if (outptr) {
800012d4:	9bcb2783          	lw	a5,-1604(s6)
xvprintf():
/home/tututu/qimeng/simulator/baremetal/benchmarks/dhrystone/../../lib/xprintf.c:139
		j = i; d = (f & 1) ? '0' : ' ';
800012d8:	020d0d13          	addi	s10,s10,32
/home/tututu/qimeng/simulator/baremetal/benchmarks/dhrystone/../../lib/xprintf.c:140
		while (!(f & 2) && j++ < w) xputc(d);
800012dc:	00140c93          	addi	s9,s0,1
800012e0:	1c0b9663          	bne	s7,zero,800014ac <xprintf+0x5e8>
800012e4:	1c947863          	bgeu	s0,s1,800014b4 <xprintf+0x5f0>
800012e8:	00148b93          	addi	s7,s1,1
xputc():
/home/tututu/qimeng/simulator/baremetal/benchmarks/dhrystone/../../lib/xprintf.c:30
	if (outptr) {
800012ec:	0a078663          	beq	a5,zero,80001398 <xprintf+0x4d4>
/home/tututu/qimeng/simulator/baremetal/benchmarks/dhrystone/../../lib/xprintf.c:31
		*outptr++ = (unsigned char)c;
800012f0:	00178613          	addi	a2,a5,1
800012f4:	01a78023          	sb	s10,0(a5)
800012f8:	9acb2e23          	sw	a2,-1604(s6)
/home/tututu/qimeng/simulator/baremetal/benchmarks/dhrystone/../../lib/xprintf.c:32
		return;
800012fc:	000c8693          	addi	a3,s9,0
80001300:	00060793          	addi	a5,a2,0
xvprintf():
/home/tututu/qimeng/simulator/baremetal/benchmarks/dhrystone/../../lib/xprintf.c:140
		while (!(f & 2) && j++ < w) xputc(d);
80001304:	001c8c93          	addi	s9,s9,1
80001308:	fe9692e3          	bne	a3,s1,800012ec <xprintf+0x428>
8000130c:	00890433          	add	s0,s2,s0
80001310:	01c0006f          	jal	zero,8000132c <xprintf+0x468>
xputc():
/home/tututu/qimeng/simulator/baremetal/benchmarks/dhrystone/../../lib/xprintf.c:31
		*outptr++ = (unsigned char)c;
80001314:	00178693          	addi	a3,a5,1
80001318:	9adb2e23          	sw	a3,-1604(s6)
8000131c:	00a78023          	sb	a0,0(a5)
xvprintf():
/home/tututu/qimeng/simulator/baremetal/benchmarks/dhrystone/../../lib/xprintf.c:141
		do xputc(s[--i]); while(i);
80001320:	fff40413          	addi	s0,s0,-1
80001324:	02890263          	beq	s2,s0,80001348 <xprintf+0x484>
xputc():
/home/tututu/qimeng/simulator/baremetal/benchmarks/dhrystone/../../lib/xprintf.c:30
	if (outptr) {
80001328:	9bcb2783          	lw	a5,-1604(s6)
xvprintf():
/home/tututu/qimeng/simulator/baremetal/benchmarks/dhrystone/../../lib/xprintf.c:141
		do xputc(s[--i]); while(i);
8000132c:	fff44503          	lbu	a0,-1(s0)
xputc():
/home/tututu/qimeng/simulator/baremetal/benchmarks/dhrystone/../../lib/xprintf.c:30
	if (outptr) {
80001330:	fe0792e3          	bne	a5,zero,80001314 <xprintf+0x450>
/home/tututu/qimeng/simulator/baremetal/benchmarks/dhrystone/../../lib/xprintf.c:35
	if (xfunc_out) xfunc_out((unsigned char)c);
80001334:	9c09a783          	lw	a5,-1600(s3)
80001338:	fe0784e3          	beq	a5,zero,80001320 <xprintf+0x45c>
xvprintf():
/home/tututu/qimeng/simulator/baremetal/benchmarks/dhrystone/../../lib/xprintf.c:141
		do xputc(s[--i]); while(i);
8000133c:	fff40413          	addi	s0,s0,-1
xputc():
/home/tututu/qimeng/simulator/baremetal/benchmarks/dhrystone/../../lib/xprintf.c:35
	if (xfunc_out) xfunc_out((unsigned char)c);
80001340:	000780e7          	jalr	ra,0(a5)
xvprintf():
/home/tututu/qimeng/simulator/baremetal/benchmarks/dhrystone/../../lib/xprintf.c:141
		do xputc(s[--i]); while(i);
80001344:	fe8912e3          	bne	s2,s0,80001328 <xprintf+0x464>
/home/tututu/qimeng/simulator/baremetal/benchmarks/dhrystone/../../lib/xprintf.c:142
		while (j++ < w) xputc(' ');
80001348:	001b8413          	addi	s0,s7,1
8000134c:	029be263          	bltu	s7,s1,80001370 <xprintf+0x4ac>
80001350:	c1dff06f          	jal	zero,80000f6c <xprintf+0xa8>
xputc():
/home/tututu/qimeng/simulator/baremetal/benchmarks/dhrystone/../../lib/xprintf.c:31
		*outptr++ = (unsigned char)c;
80001354:	00178693          	addi	a3,a5,1
80001358:	9adb2e23          	sw	a3,-1604(s6)
8000135c:	02000693          	addi	a3,zero,32
80001360:	00d78023          	sb	a3,0(a5)
xvprintf():
/home/tututu/qimeng/simulator/baremetal/benchmarks/dhrystone/../../lib/xprintf.c:142
		while (j++ < w) xputc(' ');
80001364:	00140793          	addi	a5,s0,1
80001368:	c08482e3          	beq	s1,s0,80000f6c <xprintf+0xa8>
8000136c:	00078413          	addi	s0,a5,0
xputc():
/home/tututu/qimeng/simulator/baremetal/benchmarks/dhrystone/../../lib/xprintf.c:30
	if (outptr) {
80001370:	9bcb2783          	lw	a5,-1604(s6)
80001374:	fe0790e3          	bne	a5,zero,80001354 <xprintf+0x490>
/home/tututu/qimeng/simulator/baremetal/benchmarks/dhrystone/../../lib/xprintf.c:35
	if (xfunc_out) xfunc_out((unsigned char)c);
80001378:	9c09a783          	lw	a5,-1600(s3)
8000137c:	fe0784e3          	beq	a5,zero,80001364 <xprintf+0x4a0>
80001380:	02000513          	addi	a0,zero,32
80001384:	000780e7          	jalr	ra,0(a5)
80001388:	fddff06f          	jal	zero,80001364 <xprintf+0x4a0>
xvprintf():
/home/tututu/qimeng/simulator/baremetal/benchmarks/dhrystone/../../lib/xprintf.c:140
		while (!(f & 2) && j++ < w) xputc(d);
8000138c:	001c8693          	addi	a3,s9,1
80001390:	f69c8ee3          	beq	s9,s1,8000130c <xprintf+0x448>
80001394:	00068c93          	addi	s9,a3,0
xputc():
/home/tututu/qimeng/simulator/baremetal/benchmarks/dhrystone/../../lib/xprintf.c:35
	if (xfunc_out) xfunc_out((unsigned char)c);
80001398:	9c09a683          	lw	a3,-1600(s3)
8000139c:	fe0688e3          	beq	a3,zero,8000138c <xprintf+0x4c8>
800013a0:	000d0513          	addi	a0,s10,0
800013a4:	000680e7          	jalr	ra,0(a3)
/home/tututu/qimeng/simulator/baremetal/benchmarks/dhrystone/../../lib/xprintf.c:30
	if (outptr) {
800013a8:	9bcb2783          	lw	a5,-1604(s6)
800013ac:	000c8693          	addi	a3,s9,0
800013b0:	f55ff06f          	jal	zero,80001304 <xprintf+0x440>
xvprintf():
/home/tututu/qimeng/simulator/baremetal/benchmarks/dhrystone/../../lib/xprintf.c:127
		v = (f & 4) ? va_arg(arp, long) : ((d == 'D') ? (long)va_arg(arp, int) : (long)va_arg(arp, unsigned int));
800013b4:	004bf793          	andi	a5,s7,4
/home/tututu/qimeng/simulator/baremetal/benchmarks/dhrystone/../../lib/xprintf.c:121
			r = 16; break;
800013b8:	01000d13          	addi	s10,zero,16
/home/tututu/qimeng/simulator/baremetal/benchmarks/dhrystone/../../lib/xprintf.c:127
		v = (f & 4) ? va_arg(arp, long) : ((d == 'D') ? (long)va_arg(arp, int) : (long)va_arg(arp, unsigned int));
800013bc:	e4078ee3          	beq	a5,zero,80001218 <xprintf+0x354>
800013c0:	00412783          	lw	a5,4(sp)
800013c4:	00012423          	sw	zero,8(sp)
/home/tututu/qimeng/simulator/baremetal/benchmarks/dhrystone/../../lib/xprintf.c:121
			r = 16; break;
800013c8:	01000d13          	addi	s10,zero,16
/home/tututu/qimeng/simulator/baremetal/benchmarks/dhrystone/../../lib/xprintf.c:127
		v = (f & 4) ? va_arg(arp, long) : ((d == 'D') ? (long)va_arg(arp, int) : (long)va_arg(arp, unsigned int));
800013cc:	0007aa83          	lw	s5,0(a5)
800013d0:	00478793          	addi	a5,a5,4
800013d4:	00f12223          	sw	a5,4(sp)
800013d8:	e55ff06f          	jal	zero,8000122c <xprintf+0x368>
800013dc:	004bf793          	andi	a5,s7,4
/home/tututu/qimeng/simulator/baremetal/benchmarks/dhrystone/../../lib/xprintf.c:114
			r = 2; break;
800013e0:	00200d13          	addi	s10,zero,2
/home/tututu/qimeng/simulator/baremetal/benchmarks/dhrystone/../../lib/xprintf.c:127
		v = (f & 4) ? va_arg(arp, long) : ((d == 'D') ? (long)va_arg(arp, int) : (long)va_arg(arp, unsigned int));
800013e4:	e2078ae3          	beq	a5,zero,80001218 <xprintf+0x354>
800013e8:	00412783          	lw	a5,4(sp)
/home/tututu/qimeng/simulator/baremetal/benchmarks/dhrystone/../../lib/xprintf.c:114
			r = 2; break;
800013ec:	00200d13          	addi	s10,zero,2
/home/tututu/qimeng/simulator/baremetal/benchmarks/dhrystone/../../lib/xprintf.c:127
		v = (f & 4) ? va_arg(arp, long) : ((d == 'D') ? (long)va_arg(arp, int) : (long)va_arg(arp, unsigned int));
800013f0:	00012423          	sw	zero,8(sp)
800013f4:	0007aa83          	lw	s5,0(a5)
800013f8:	00478793          	addi	a5,a5,4
800013fc:	00f12223          	sw	a5,4(sp)
80001400:	e2dff06f          	jal	zero,8000122c <xprintf+0x368>
xputc():
/home/tututu/qimeng/simulator/baremetal/benchmarks/dhrystone/../../lib/xprintf.c:35
	if (xfunc_out) xfunc_out((unsigned char)c);
80001404:	9c09a783          	lw	a5,-1600(s3)
80001408:	00068c13          	addi	s8,a3,0
8000140c:	b60780e3          	beq	a5,zero,80000f6c <xprintf+0xa8>
80001410:	000780e7          	jalr	ra,0(a5)
80001414:	b59ff06f          	jal	zero,80000f6c <xprintf+0xa8>
xvprintf():
/home/tututu/qimeng/simulator/baremetal/benchmarks/dhrystone/../../lib/xprintf.c:89
			f = 1; c = *fmt++;
80001418:	002c4503          	lbu	a0,2(s8)
8000141c:	00100b93          	addi	s7,zero,1
80001420:	003c0c13          	addi	s8,s8,3
80001424:	b79ff06f          	jal	zero,80000f9c <xprintf+0xd8>
/home/tututu/qimeng/simulator/baremetal/benchmarks/dhrystone/../../lib/xprintf.c:92
				f = 2; c = *fmt++;
80001428:	002c4503          	lbu	a0,2(s8)
8000142c:	00200b93          	addi	s7,zero,2
80001430:	003c0c13          	addi	s8,s8,3
80001434:	b69ff06f          	jal	zero,80000f9c <xprintf+0xd8>
xputc():
/home/tututu/qimeng/simulator/baremetal/benchmarks/dhrystone/../../lib/xprintf.c:35
	if (xfunc_out) xfunc_out((unsigned char)c);
80001438:	9c09a783          	lw	a5,-1600(s3)
xvprintf():
/home/tututu/qimeng/simulator/baremetal/benchmarks/dhrystone/../../lib/xprintf.c:112
			xputc((char)va_arg(arp, int)); continue;
8000143c:	01512223          	sw	s5,4(sp)
xputc():
/home/tututu/qimeng/simulator/baremetal/benchmarks/dhrystone/../../lib/xprintf.c:35
	if (xfunc_out) xfunc_out((unsigned char)c);
80001440:	fc0798e3          	bne	a5,zero,80001410 <xprintf+0x54c>
80001444:	b29ff06f          	jal	zero,80000f6c <xprintf+0xa8>
80001448:	9c09a783          	lw	a5,-1600(s3)
8000144c:	fc0792e3          	bne	a5,zero,80001410 <xprintf+0x54c>
80001450:	b1dff06f          	jal	zero,80000f6c <xprintf+0xa8>
xputs():
/home/tututu/qimeng/simulator/baremetal/benchmarks/dhrystone/../../lib/xprintf.c:47
	while (*str)
80001454:	00044503          	lbu	a0,0(s0)
xvprintf():
/home/tututu/qimeng/simulator/baremetal/benchmarks/dhrystone/../../lib/xprintf.c:107
			while (!(f & 2) && j++ < w) xputc(' ');
80001458:	419487b3          	sub	a5,s1,s9
8000145c:	001c8c93          	addi	s9,s9,1
80001460:	01978cb3          	add	s9,a5,s9
/home/tututu/qimeng/simulator/baremetal/benchmarks/dhrystone/../../lib/xprintf.c:109
			while (j++ < w) xputc(' ');
80001464:	001c8b93          	addi	s7,s9,1
xputs():
/home/tututu/qimeng/simulator/baremetal/benchmarks/dhrystone/../../lib/xprintf.c:47
	while (*str)
80001468:	d80514e3          	bne	a0,zero,800011f0 <xprintf+0x32c>
8000146c:	d25ff06f          	jal	zero,80001190 <xprintf+0x2cc>
xvprintf():
/home/tututu/qimeng/simulator/baremetal/benchmarks/dhrystone/../../lib/xprintf.c:127
		v = (f & 4) ? va_arg(arp, long) : ((d == 'D') ? (long)va_arg(arp, int) : (long)va_arg(arp, unsigned int));
80001470:	04400793          	addi	a5,zero,68
80001474:	08f61063          	bne	a2,a5,800014f4 <xprintf+0x630>
/home/tututu/qimeng/simulator/baremetal/benchmarks/dhrystone/../../lib/xprintf.c:105
			p = va_arg(arp, char*);
80001478:	00412703          	lw	a4,4(sp)
8000147c:	00072783          	lw	a5,0(a4)
/home/tututu/qimeng/simulator/baremetal/benchmarks/dhrystone/../../lib/xprintf.c:127
		v = (f & 4) ? va_arg(arp, long) : ((d == 'D') ? (long)va_arg(arp, int) : (long)va_arg(arp, unsigned int));
80001480:	00470713          	addi	a4,a4,4
80001484:	00e12223          	sw	a4,4(sp)
80001488:	00078a93          	addi	s5,a5,0
/home/tututu/qimeng/simulator/baremetal/benchmarks/dhrystone/../../lib/xprintf.c:128
		if (d == 'D' && (v & 0x80000000)) {
8000148c:	c1dff06f          	jal	zero,800010a8 <xprintf+0x1e4>
/home/tututu/qimeng/simulator/baremetal/benchmarks/dhrystone/../../lib/xprintf.c:127
		v = (f & 4) ? va_arg(arp, long) : ((d == 'D') ? (long)va_arg(arp, int) : (long)va_arg(arp, unsigned int));
80001490:	00412783          	lw	a5,4(sp)
/home/tututu/qimeng/simulator/baremetal/benchmarks/dhrystone/../../lib/xprintf.c:116
			r = 8; break;
80001494:	00800d13          	addi	s10,zero,8
/home/tututu/qimeng/simulator/baremetal/benchmarks/dhrystone/../../lib/xprintf.c:127
		v = (f & 4) ? va_arg(arp, long) : ((d == 'D') ? (long)va_arg(arp, int) : (long)va_arg(arp, unsigned int));
80001498:	00012423          	sw	zero,8(sp)
8000149c:	0007aa83          	lw	s5,0(a5)
800014a0:	00478793          	addi	a5,a5,4
800014a4:	00f12223          	sw	a5,4(sp)
800014a8:	d85ff06f          	jal	zero,8000122c <xprintf+0x368>
/home/tututu/qimeng/simulator/baremetal/benchmarks/dhrystone/../../lib/xprintf.c:140
		while (!(f & 2) && j++ < w) xputc(d);
800014ac:	00040b93          	addi	s7,s0,0
800014b0:	e5dff06f          	jal	zero,8000130c <xprintf+0x448>
800014b4:	000c8b93          	addi	s7,s9,0
800014b8:	e55ff06f          	jal	zero,8000130c <xprintf+0x448>
/home/tututu/qimeng/simulator/baremetal/benchmarks/dhrystone/../../lib/xprintf.c:107
			while (!(f & 2) && j++ < w) xputc(' ');
800014bc:	020b9063          	bne	s7,zero,800014dc <xprintf+0x618>
800014c0:	00100c93          	addi	s9,zero,1
800014c4:	c60496e3          	bne	s1,zero,80001130 <xprintf+0x26c>
/home/tututu/qimeng/simulator/baremetal/benchmarks/dhrystone/../../lib/xprintf.c:105
			p = va_arg(arp, char*);
800014c8:	01512223          	sw	s5,4(sp)
800014cc:	aa1ff06f          	jal	zero,80000f6c <xprintf+0xa8>
/home/tututu/qimeng/simulator/baremetal/benchmarks/dhrystone/../../lib/xprintf.c:107
			while (!(f & 2) && j++ < w) xputc(' ');
800014d0:	000c8b93          	addi	s7,s9,0
/home/tututu/qimeng/simulator/baremetal/benchmarks/dhrystone/../../lib/xprintf.c:106
			for (j = 0; p[j]; j++) ;
800014d4:	00068c93          	addi	s9,a3,0
800014d8:	d19ff06f          	jal	zero,800011f0 <xprintf+0x32c>
/home/tututu/qimeng/simulator/baremetal/benchmarks/dhrystone/../../lib/xprintf.c:107
			while (!(f & 2) && j++ < w) xputc(' ');
800014dc:	00100b93          	addi	s7,zero,1
/home/tututu/qimeng/simulator/baremetal/benchmarks/dhrystone/../../lib/xprintf.c:106
			for (j = 0; p[j]; j++) ;
800014e0:	00000c93          	addi	s9,zero,0
800014e4:	cadff06f          	jal	zero,80001190 <xprintf+0x2cc>
800014e8:	00a00d13          	addi	s10,zero,10
/home/tututu/qimeng/simulator/baremetal/benchmarks/dhrystone/../../lib/xprintf.c:127
		v = (f & 4) ? va_arg(arp, long) : ((d == 'D') ? (long)va_arg(arp, int) : (long)va_arg(arp, unsigned int));
800014ec:	00012423          	sw	zero,8(sp)
800014f0:	d3dff06f          	jal	zero,8000122c <xprintf+0x368>
800014f4:	00a00d13          	addi	s10,zero,10
800014f8:	d21ff06f          	jal	zero,80001218 <xprintf+0x354>

800014fc <__divsi3>:
__divsi3():
/home/jinpengwei/riscv-gnu-toolchain/build-gcc-newlib-stage2/riscv32-unknown-elf/libgcc/../../.././riscv-gcc/libgcc/config/riscv/div.S:69
800014fc:	06054063          	blt	a0,zero,8000155c <__umodsi3+0x10>
/home/jinpengwei/riscv-gnu-toolchain/build-gcc-newlib-stage2/riscv32-unknown-elf/libgcc/../../.././riscv-gcc/libgcc/config/riscv/div.S:70
80001500:	0605c663          	blt	a1,zero,8000156c <__umodsi3+0x20>

80001504 <__udivsi3>:
/home/jinpengwei/riscv-gnu-toolchain/build-gcc-newlib-stage2/riscv32-unknown-elf/libgcc/../../.././riscv-gcc/libgcc/config/riscv/div.S:74
80001504:	00058613          	addi	a2,a1,0
/home/jinpengwei/riscv-gnu-toolchain/build-gcc-newlib-stage2/riscv32-unknown-elf/libgcc/../../.././riscv-gcc/libgcc/config/riscv/div.S:75
80001508:	00050593          	addi	a1,a0,0
/home/jinpengwei/riscv-gnu-toolchain/build-gcc-newlib-stage2/riscv32-unknown-elf/libgcc/../../.././riscv-gcc/libgcc/config/riscv/div.S:76
8000150c:	fff00513          	addi	a0,zero,-1
/home/jinpengwei/riscv-gnu-toolchain/build-gcc-newlib-stage2/riscv32-unknown-elf/libgcc/../../.././riscv-gcc/libgcc/config/riscv/div.S:77
80001510:	02060c63          	beq	a2,zero,80001548 <__udivsi3+0x44>
/home/jinpengwei/riscv-gnu-toolchain/build-gcc-newlib-stage2/riscv32-unknown-elf/libgcc/../../.././riscv-gcc/libgcc/config/riscv/div.S:78
80001514:	00100693          	addi	a3,zero,1
/home/jinpengwei/riscv-gnu-toolchain/build-gcc-newlib-stage2/riscv32-unknown-elf/libgcc/../../.././riscv-gcc/libgcc/config/riscv/div.S:79
80001518:	00b67a63          	bgeu	a2,a1,8000152c <__udivsi3+0x28>
/home/jinpengwei/riscv-gnu-toolchain/build-gcc-newlib-stage2/riscv32-unknown-elf/libgcc/../../.././riscv-gcc/libgcc/config/riscv/div.S:81
8000151c:	00c05863          	bge	zero,a2,8000152c <__udivsi3+0x28>
/home/jinpengwei/riscv-gnu-toolchain/build-gcc-newlib-stage2/riscv32-unknown-elf/libgcc/../../.././riscv-gcc/libgcc/config/riscv/div.S:82
80001520:	00161613          	slli	a2,a2,0x1
/home/jinpengwei/riscv-gnu-toolchain/build-gcc-newlib-stage2/riscv32-unknown-elf/libgcc/../../.././riscv-gcc/libgcc/config/riscv/div.S:83
80001524:	00169693          	slli	a3,a3,0x1
/home/jinpengwei/riscv-gnu-toolchain/build-gcc-newlib-stage2/riscv32-unknown-elf/libgcc/../../.././riscv-gcc/libgcc/config/riscv/div.S:84
80001528:	feb66ae3          	bltu	a2,a1,8000151c <__udivsi3+0x18>
/home/jinpengwei/riscv-gnu-toolchain/build-gcc-newlib-stage2/riscv32-unknown-elf/libgcc/../../.././riscv-gcc/libgcc/config/riscv/div.S:86
8000152c:	00000513          	addi	a0,zero,0
/home/jinpengwei/riscv-gnu-toolchain/build-gcc-newlib-stage2/riscv32-unknown-elf/libgcc/../../.././riscv-gcc/libgcc/config/riscv/div.S:88
80001530:	00c5e663          	bltu	a1,a2,8000153c <__udivsi3+0x38>
/home/jinpengwei/riscv-gnu-toolchain/build-gcc-newlib-stage2/riscv32-unknown-elf/libgcc/../../.././riscv-gcc/libgcc/config/riscv/div.S:89
80001534:	40c585b3          	sub	a1,a1,a2
/home/jinpengwei/riscv-gnu-toolchain/build-gcc-newlib-stage2/riscv32-unknown-elf/libgcc/../../.././riscv-gcc/libgcc/config/riscv/div.S:90
80001538:	00d56533          	or	a0,a0,a3
/home/jinpengwei/riscv-gnu-toolchain/build-gcc-newlib-stage2/riscv32-unknown-elf/libgcc/../../.././riscv-gcc/libgcc/config/riscv/div.S:92
8000153c:	0016d693          	srli	a3,a3,0x1
/home/jinpengwei/riscv-gnu-toolchain/build-gcc-newlib-stage2/riscv32-unknown-elf/libgcc/../../.././riscv-gcc/libgcc/config/riscv/div.S:93
80001540:	00165613          	srli	a2,a2,0x1
/home/jinpengwei/riscv-gnu-toolchain/build-gcc-newlib-stage2/riscv32-unknown-elf/libgcc/../../.././riscv-gcc/libgcc/config/riscv/div.S:94
80001544:	fe0696e3          	bne	a3,zero,80001530 <__udivsi3+0x2c>
/home/jinpengwei/riscv-gnu-toolchain/build-gcc-newlib-stage2/riscv32-unknown-elf/libgcc/../../.././riscv-gcc/libgcc/config/riscv/div.S:96
80001548:	00008067          	jalr	zero,0(ra)

8000154c <__umodsi3>:
/home/jinpengwei/riscv-gnu-toolchain/build-gcc-newlib-stage2/riscv32-unknown-elf/libgcc/../../.././riscv-gcc/libgcc/config/riscv/div.S:101
8000154c:	00008293          	addi	t0,ra,0
/home/jinpengwei/riscv-gnu-toolchain/build-gcc-newlib-stage2/riscv32-unknown-elf/libgcc/../../.././riscv-gcc/libgcc/config/riscv/div.S:102
80001550:	fb5ff0ef          	jal	ra,80001504 <__udivsi3>
/home/jinpengwei/riscv-gnu-toolchain/build-gcc-newlib-stage2/riscv32-unknown-elf/libgcc/../../.././riscv-gcc/libgcc/config/riscv/div.S:103
80001554:	00058513          	addi	a0,a1,0
/home/jinpengwei/riscv-gnu-toolchain/build-gcc-newlib-stage2/riscv32-unknown-elf/libgcc/../../.././riscv-gcc/libgcc/config/riscv/div.S:104
80001558:	00028067          	jalr	zero,0(t0)
/home/jinpengwei/riscv-gnu-toolchain/build-gcc-newlib-stage2/riscv32-unknown-elf/libgcc/../../.././riscv-gcc/libgcc/config/riscv/div.S:109
8000155c:	40a00533          	sub	a0,zero,a0
/home/jinpengwei/riscv-gnu-toolchain/build-gcc-newlib-stage2/riscv32-unknown-elf/libgcc/../../.././riscv-gcc/libgcc/config/riscv/div.S:111
80001560:	00b04863          	blt	zero,a1,80001570 <__umodsi3+0x24>
/home/jinpengwei/riscv-gnu-toolchain/build-gcc-newlib-stage2/riscv32-unknown-elf/libgcc/../../.././riscv-gcc/libgcc/config/riscv/div.S:113
80001564:	40b005b3          	sub	a1,zero,a1
/home/jinpengwei/riscv-gnu-toolchain/build-gcc-newlib-stage2/riscv32-unknown-elf/libgcc/../../.././riscv-gcc/libgcc/config/riscv/div.S:114
80001568:	f9dff06f          	jal	zero,80001504 <__udivsi3>
/home/jinpengwei/riscv-gnu-toolchain/build-gcc-newlib-stage2/riscv32-unknown-elf/libgcc/../../.././riscv-gcc/libgcc/config/riscv/div.S:116
8000156c:	40b005b3          	sub	a1,zero,a1
/home/jinpengwei/riscv-gnu-toolchain/build-gcc-newlib-stage2/riscv32-unknown-elf/libgcc/../../.././riscv-gcc/libgcc/config/riscv/div.S:118
80001570:	00008293          	addi	t0,ra,0
/home/jinpengwei/riscv-gnu-toolchain/build-gcc-newlib-stage2/riscv32-unknown-elf/libgcc/../../.././riscv-gcc/libgcc/config/riscv/div.S:119
80001574:	f91ff0ef          	jal	ra,80001504 <__udivsi3>
/home/jinpengwei/riscv-gnu-toolchain/build-gcc-newlib-stage2/riscv32-unknown-elf/libgcc/../../.././riscv-gcc/libgcc/config/riscv/div.S:120
80001578:	40a00533          	sub	a0,zero,a0
/home/jinpengwei/riscv-gnu-toolchain/build-gcc-newlib-stage2/riscv32-unknown-elf/libgcc/../../.././riscv-gcc/libgcc/config/riscv/div.S:121
8000157c:	00028067          	jalr	zero,0(t0)

80001580 <__modsi3>:
__modsi3():
/home/jinpengwei/riscv-gnu-toolchain/build-gcc-newlib-stage2/riscv32-unknown-elf/libgcc/../../.././riscv-gcc/libgcc/config/riscv/div.S:125
80001580:	00008293          	addi	t0,ra,0
/home/jinpengwei/riscv-gnu-toolchain/build-gcc-newlib-stage2/riscv32-unknown-elf/libgcc/../../.././riscv-gcc/libgcc/config/riscv/div.S:126
80001584:	0005ca63          	blt	a1,zero,80001598 <__modsi3+0x18>
/home/jinpengwei/riscv-gnu-toolchain/build-gcc-newlib-stage2/riscv32-unknown-elf/libgcc/../../.././riscv-gcc/libgcc/config/riscv/div.S:127
80001588:	00054c63          	blt	a0,zero,800015a0 <__modsi3+0x20>
/home/jinpengwei/riscv-gnu-toolchain/build-gcc-newlib-stage2/riscv32-unknown-elf/libgcc/../../.././riscv-gcc/libgcc/config/riscv/div.S:129
8000158c:	f79ff0ef          	jal	ra,80001504 <__udivsi3>
/home/jinpengwei/riscv-gnu-toolchain/build-gcc-newlib-stage2/riscv32-unknown-elf/libgcc/../../.././riscv-gcc/libgcc/config/riscv/div.S:130
80001590:	00058513          	addi	a0,a1,0
/home/jinpengwei/riscv-gnu-toolchain/build-gcc-newlib-stage2/riscv32-unknown-elf/libgcc/../../.././riscv-gcc/libgcc/config/riscv/div.S:131
80001594:	00028067          	jalr	zero,0(t0)
/home/jinpengwei/riscv-gnu-toolchain/build-gcc-newlib-stage2/riscv32-unknown-elf/libgcc/../../.././riscv-gcc/libgcc/config/riscv/div.S:133
80001598:	40b005b3          	sub	a1,zero,a1
/home/jinpengwei/riscv-gnu-toolchain/build-gcc-newlib-stage2/riscv32-unknown-elf/libgcc/../../.././riscv-gcc/libgcc/config/riscv/div.S:134
8000159c:	fe0558e3          	bge	a0,zero,8000158c <__modsi3+0xc>
/home/jinpengwei/riscv-gnu-toolchain/build-gcc-newlib-stage2/riscv32-unknown-elf/libgcc/../../.././riscv-gcc/libgcc/config/riscv/div.S:136
800015a0:	40a00533          	sub	a0,zero,a0
/home/jinpengwei/riscv-gnu-toolchain/build-gcc-newlib-stage2/riscv32-unknown-elf/libgcc/../../.././riscv-gcc/libgcc/config/riscv/div.S:137
800015a4:	f61ff0ef          	jal	ra,80001504 <__udivsi3>
/home/jinpengwei/riscv-gnu-toolchain/build-gcc-newlib-stage2/riscv32-unknown-elf/libgcc/../../.././riscv-gcc/libgcc/config/riscv/div.S:138
800015a8:	40b00533          	sub	a0,zero,a1
/home/jinpengwei/riscv-gnu-toolchain/build-gcc-newlib-stage2/riscv32-unknown-elf/libgcc/../../.././riscv-gcc/libgcc/config/riscv/div.S:139
800015ac:	00028067          	jalr	zero,0(t0)

800015b0 <memcpy>:
memcpy():
800015b0:	00b547b3          	xor	a5,a0,a1
800015b4:	0037f793          	andi	a5,a5,3
800015b8:	00c508b3          	add	a7,a0,a2
800015bc:	06079663          	bne	a5,zero,80001628 <memcpy+0x78>
800015c0:	00300793          	addi	a5,zero,3
800015c4:	06c7f263          	bgeu	a5,a2,80001628 <memcpy+0x78>
800015c8:	00357793          	andi	a5,a0,3
800015cc:	00050713          	addi	a4,a0,0
800015d0:	0c079a63          	bne	a5,zero,800016a4 <memcpy+0xf4>
800015d4:	ffc8f613          	andi	a2,a7,-4
800015d8:	40e606b3          	sub	a3,a2,a4
800015dc:	02000793          	addi	a5,zero,32
800015e0:	02000293          	addi	t0,zero,32
800015e4:	06d7c263          	blt	a5,a3,80001648 <memcpy+0x98>
800015e8:	00058693          	addi	a3,a1,0
800015ec:	00070793          	addi	a5,a4,0
800015f0:	02c77863          	bgeu	a4,a2,80001620 <memcpy+0x70>
800015f4:	0006a803          	lw	a6,0(a3)
800015f8:	00478793          	addi	a5,a5,4
800015fc:	00468693          	addi	a3,a3,4
80001600:	ff07ae23          	sw	a6,-4(a5)
80001604:	fec7e8e3          	bltu	a5,a2,800015f4 <memcpy+0x44>
80001608:	fff60793          	addi	a5,a2,-1
8000160c:	40e787b3          	sub	a5,a5,a4
80001610:	ffc7f793          	andi	a5,a5,-4
80001614:	00478793          	addi	a5,a5,4
80001618:	00f70733          	add	a4,a4,a5
8000161c:	00f585b3          	add	a1,a1,a5
80001620:	01176863          	bltu	a4,a7,80001630 <memcpy+0x80>
80001624:	00008067          	jalr	zero,0(ra)
80001628:	00050713          	addi	a4,a0,0
8000162c:	ff157ce3          	bgeu	a0,a7,80001624 <memcpy+0x74>
80001630:	0005c783          	lbu	a5,0(a1)
80001634:	00170713          	addi	a4,a4,1
80001638:	00158593          	addi	a1,a1,1
8000163c:	fef70fa3          	sb	a5,-1(a4)
80001640:	ff1768e3          	bltu	a4,a7,80001630 <memcpy+0x80>
80001644:	00008067          	jalr	zero,0(ra)
80001648:	0045a683          	lw	a3,4(a1)
8000164c:	01c5a783          	lw	a5,28(a1)
80001650:	0005af83          	lw	t6,0(a1)
80001654:	0085af03          	lw	t5,8(a1)
80001658:	00c5ae83          	lw	t4,12(a1)
8000165c:	0105ae03          	lw	t3,16(a1)
80001660:	0145a303          	lw	t1,20(a1)
80001664:	0185a803          	lw	a6,24(a1)
80001668:	00d72223          	sw	a3,4(a4)
8000166c:	0205a683          	lw	a3,32(a1)
80001670:	01f72023          	sw	t6,0(a4)
80001674:	01e72423          	sw	t5,8(a4)
80001678:	01d72623          	sw	t4,12(a4)
8000167c:	01c72823          	sw	t3,16(a4)
80001680:	00672a23          	sw	t1,20(a4)
80001684:	01072c23          	sw	a6,24(a4)
80001688:	00f72e23          	sw	a5,28(a4)
8000168c:	02470713          	addi	a4,a4,36
80001690:	40e607b3          	sub	a5,a2,a4
80001694:	fed72e23          	sw	a3,-4(a4)
80001698:	02458593          	addi	a1,a1,36
8000169c:	faf2c6e3          	blt	t0,a5,80001648 <memcpy+0x98>
800016a0:	f49ff06f          	jal	zero,800015e8 <memcpy+0x38>
800016a4:	0005c683          	lbu	a3,0(a1)
800016a8:	00170713          	addi	a4,a4,1
800016ac:	00377793          	andi	a5,a4,3
800016b0:	fed70fa3          	sb	a3,-1(a4)
800016b4:	00158593          	addi	a1,a1,1
800016b8:	f0078ee3          	beq	a5,zero,800015d4 <memcpy+0x24>
800016bc:	0005c683          	lbu	a3,0(a1)
800016c0:	00170713          	addi	a4,a4,1
800016c4:	00377793          	andi	a5,a4,3
800016c8:	fed70fa3          	sb	a3,-1(a4)
800016cc:	00158593          	addi	a1,a1,1
800016d0:	fc079ae3          	bne	a5,zero,800016a4 <memcpy+0xf4>
800016d4:	f01ff06f          	jal	zero,800015d4 <memcpy+0x24>

800016d8 <strcmp>:
strcmp():
800016d8:	00b56733          	or	a4,a0,a1
800016dc:	fff00393          	addi	t2,zero,-1
800016e0:	00377713          	andi	a4,a4,3
800016e4:	10071063          	bne	a4,zero,800017e4 <strcmp+0x10c>
800016e8:	7f7f87b7          	lui	a5,0x7f7f8
800016ec:	f7f78793          	addi	a5,a5,-129 # 7f7f7f7f <__stack_size+0x7d7f7f7f>
800016f0:	00052603          	lw	a2,0(a0)
800016f4:	0005a683          	lw	a3,0(a1)
800016f8:	00f672b3          	and	t0,a2,a5
800016fc:	00f66333          	or	t1,a2,a5
80001700:	00f282b3          	add	t0,t0,a5
80001704:	0062e2b3          	or	t0,t0,t1
80001708:	10729263          	bne	t0,t2,8000180c <strcmp+0x134>
8000170c:	08d61663          	bne	a2,a3,80001798 <strcmp+0xc0>
80001710:	00452603          	lw	a2,4(a0)
80001714:	0045a683          	lw	a3,4(a1)
80001718:	00f672b3          	and	t0,a2,a5
8000171c:	00f66333          	or	t1,a2,a5
80001720:	00f282b3          	add	t0,t0,a5
80001724:	0062e2b3          	or	t0,t0,t1
80001728:	0c729e63          	bne	t0,t2,80001804 <strcmp+0x12c>
8000172c:	06d61663          	bne	a2,a3,80001798 <strcmp+0xc0>
80001730:	00852603          	lw	a2,8(a0)
80001734:	0085a683          	lw	a3,8(a1)
80001738:	00f672b3          	and	t0,a2,a5
8000173c:	00f66333          	or	t1,a2,a5
80001740:	00f282b3          	add	t0,t0,a5
80001744:	0062e2b3          	or	t0,t0,t1
80001748:	0c729863          	bne	t0,t2,80001818 <strcmp+0x140>
8000174c:	04d61663          	bne	a2,a3,80001798 <strcmp+0xc0>
80001750:	00c52603          	lw	a2,12(a0)
80001754:	00c5a683          	lw	a3,12(a1)
80001758:	00f672b3          	and	t0,a2,a5
8000175c:	00f66333          	or	t1,a2,a5
80001760:	00f282b3          	add	t0,t0,a5
80001764:	0062e2b3          	or	t0,t0,t1
80001768:	0c729263          	bne	t0,t2,8000182c <strcmp+0x154>
8000176c:	02d61663          	bne	a2,a3,80001798 <strcmp+0xc0>
80001770:	01052603          	lw	a2,16(a0)
80001774:	0105a683          	lw	a3,16(a1)
80001778:	00f672b3          	and	t0,a2,a5
8000177c:	00f66333          	or	t1,a2,a5
80001780:	00f282b3          	add	t0,t0,a5
80001784:	0062e2b3          	or	t0,t0,t1
80001788:	0a729c63          	bne	t0,t2,80001840 <strcmp+0x168>
8000178c:	01450513          	addi	a0,a0,20
80001790:	01458593          	addi	a1,a1,20
80001794:	f4d60ee3          	beq	a2,a3,800016f0 <strcmp+0x18>
80001798:	01061713          	slli	a4,a2,0x10
8000179c:	01069793          	slli	a5,a3,0x10
800017a0:	00f71e63          	bne	a4,a5,800017bc <strcmp+0xe4>
800017a4:	01065713          	srli	a4,a2,0x10
800017a8:	0106d793          	srli	a5,a3,0x10
800017ac:	40f70533          	sub	a0,a4,a5
800017b0:	0ff57593          	andi	a1,a0,255
800017b4:	02059063          	bne	a1,zero,800017d4 <strcmp+0xfc>
800017b8:	00008067          	jalr	zero,0(ra)
800017bc:	01075713          	srli	a4,a4,0x10
800017c0:	0107d793          	srli	a5,a5,0x10
800017c4:	40f70533          	sub	a0,a4,a5
800017c8:	0ff57593          	andi	a1,a0,255
800017cc:	00059463          	bne	a1,zero,800017d4 <strcmp+0xfc>
800017d0:	00008067          	jalr	zero,0(ra)
800017d4:	0ff77713          	andi	a4,a4,255
800017d8:	0ff7f793          	andi	a5,a5,255
800017dc:	40f70533          	sub	a0,a4,a5
800017e0:	00008067          	jalr	zero,0(ra)
800017e4:	00054603          	lbu	a2,0(a0)
800017e8:	0005c683          	lbu	a3,0(a1)
800017ec:	00150513          	addi	a0,a0,1
800017f0:	00158593          	addi	a1,a1,1
800017f4:	00d61463          	bne	a2,a3,800017fc <strcmp+0x124>
800017f8:	fe0616e3          	bne	a2,zero,800017e4 <strcmp+0x10c>
800017fc:	40d60533          	sub	a0,a2,a3
80001800:	00008067          	jalr	zero,0(ra)
80001804:	00450513          	addi	a0,a0,4
80001808:	00458593          	addi	a1,a1,4
8000180c:	fcd61ce3          	bne	a2,a3,800017e4 <strcmp+0x10c>
80001810:	00000513          	addi	a0,zero,0
80001814:	00008067          	jalr	zero,0(ra)
80001818:	00850513          	addi	a0,a0,8
8000181c:	00858593          	addi	a1,a1,8
80001820:	fcd612e3          	bne	a2,a3,800017e4 <strcmp+0x10c>
80001824:	00000513          	addi	a0,zero,0
80001828:	00008067          	jalr	zero,0(ra)
8000182c:	00c50513          	addi	a0,a0,12
80001830:	00c58593          	addi	a1,a1,12
80001834:	fad618e3          	bne	a2,a3,800017e4 <strcmp+0x10c>
80001838:	00000513          	addi	a0,zero,0
8000183c:	00008067          	jalr	zero,0(ra)
80001840:	01050513          	addi	a0,a0,16
80001844:	01058593          	addi	a1,a1,16
80001848:	f8d61ee3          	bne	a2,a3,800017e4 <strcmp+0x10c>
8000184c:	00000513          	addi	a0,zero,0
80001850:	00008067          	jalr	zero,0(ra)

Disassembly of section .rodata.str1.4:

80001854 <.rodata.str1.4>:
80001854:	4150                	c.lw	a2,4(a0)
80001856:	00005353          	fadd.s	ft6,ft0,ft0,unknown
8000185a:	0000                	c.unimp
8000185c:	4146                	c.lwsp	sp,80(sp)
8000185e:	4c49                	c.li	s8,18
80001860:	0000                	c.unimp
80001862:	0000                	c.unimp
80001864:	4844                	c.lw	s1,20(s0)
80001866:	5952                	c.lwsp	s2,52(sp)
80001868:	4e4f5453          	0x4e4f5453
8000186c:	2045                	c.jal	8000190c <strcmp+0x234>
8000186e:	5250                	c.lw	a2,36(a2)
80001870:	4152474f          	fnmadd.s	fa4,ft4,fs5,fs0,rmm
80001874:	2c4d                	c.jal	80001b26 <strcmp+0x44e>
80001876:	5320                	c.lw	s0,96(a4)
80001878:	20454d4f          	fnmadd.s	fs10,fa0,ft4,ft4,rmm
8000187c:	49525453          	0x49525453
80001880:	474e                	c.lwsp	a4,208(sp)
80001882:	0000                	c.unimp
80001884:	56202c43          	fmadd.q	fs8,ft0,ft2,fa0,rdn
80001888:	7265                	c.lui	tp,0xffff9
8000188a:	6e6f6973          	csrrsi	s2,0x6e6,30
8000188e:	3220                	c.fld	fs0,96(a2)
80001890:	322e                	c.fldsp	ft4,232(sp)
80001892:	0000                	c.unimp
80001894:	6844                	c.flw	fs1,20(s0)
80001896:	7972                	c.flwsp	fs2,60(sp)
80001898:	6e6f7473          	csrrci	s0,0x6e6,30
8000189c:	2065                	c.jal	80001944 <strcmp+0x26c>
8000189e:	6542                	c.flwsp	fa0,16(sp)
800018a0:	636e                	c.flwsp	ft6,216(sp)
800018a2:	6d68                	c.flw	fa0,92(a0)
800018a4:	7261                	c.lui	tp,0xffff8
800018a6:	56202c6b          	0x56202c6b
800018aa:	7265                	c.lui	tp,0xffff9
800018ac:	6e6f6973          	csrrsi	s2,0x6e6,30
800018b0:	2520                	c.fld	fs0,72(a0)
800018b2:	00000a73          	0xa73
800018b6:	0000                	c.unimp
800018b8:	7254                	c.flw	fa3,36(a2)
800018ba:	6979                	c.lui	s2,0x1e
800018bc:	676e                	c.flwsp	fa4,216(sp)
800018be:	2520                	c.fld	fs0,72(a0)
800018c0:	2064                	c.fld	fs1,192(s0)
800018c2:	7572                	c.flwsp	fa0,60(sp)
800018c4:	736e                	c.flwsp	ft6,248(sp)
800018c6:	7420                	c.flw	fs0,104(s0)
800018c8:	7268                	c.flw	fa0,100(a2)
800018ca:	6867756f          	jal	a0,80078f50 <__global_pointer+0x73d88>
800018ce:	4420                	c.lw	s0,72(s0)
800018d0:	7268                	c.flw	fa0,100(a2)
800018d2:	7379                	c.lui	t1,0xffffe
800018d4:	6f74                	c.flw	fa3,92(a4)
800018d6:	656e                	c.flwsp	fa0,216(sp)
800018d8:	0a2e                	c.slli	s4,0xb
800018da:	0000                	c.unimp
800018dc:	6e49                	c.lui	t3,0x12
800018de:	5f74                	c.lw	a3,124(a4)
800018e0:	626f6c47          	fmsub.d	fs8,ft10,ft6,fa2,unknown
800018e4:	203a                	c.fldsp	ft0,392(sp)
800018e6:	2020                	c.fld	fs0,64(s0)
800018e8:	2020                	c.fld	fs0,64(s0)
800018ea:	2020                	c.fld	fs0,64(s0)
800018ec:	2020                	c.fld	fs0,64(s0)
800018ee:	2020                	c.fld	fs0,64(s0)
800018f0:	2520                	c.fld	fs0,72(a0)
800018f2:	0a64                	c.addi4spn	s1,sp,284
800018f4:	0000                	c.unimp
800018f6:	0000                	c.unimp
800018f8:	2020                	c.fld	fs0,64(s0)
800018fa:	2020                	c.fld	fs0,64(s0)
800018fc:	2020                	c.fld	fs0,64(s0)
800018fe:	2020                	c.fld	fs0,64(s0)
80001900:	756f6873          	csrrsi	a6,0x756,30
80001904:	646c                	c.flw	fa1,76(s0)
80001906:	6220                	c.flw	fs0,64(a2)
80001908:	3a65                	c.jal	800012c0 <xprintf+0x3fc>
8000190a:	2020                	c.fld	fs0,64(s0)
8000190c:	2520                	c.fld	fs0,72(a0)
8000190e:	0a64                	c.addi4spn	s1,sp,284
80001910:	0000                	c.unimp
80001912:	0000                	c.unimp
80001914:	6f42                	c.flwsp	ft10,16(sp)
80001916:	475f6c6f          	jal	s8,800f858a <__global_pointer+0xf33c2>
8000191a:	6f6c                	c.flw	fa1,92(a4)
8000191c:	3a62                	c.fldsp	fs4,56(sp)
8000191e:	2020                	c.fld	fs0,64(s0)
80001920:	2020                	c.fld	fs0,64(s0)
80001922:	2020                	c.fld	fs0,64(s0)
80001924:	2020                	c.fld	fs0,64(s0)
80001926:	2020                	c.fld	fs0,64(s0)
80001928:	2520                	c.fld	fs0,72(a0)
8000192a:	0a64                	c.addi4spn	s1,sp,284
8000192c:	0000                	c.unimp
8000192e:	0000                	c.unimp
80001930:	315f6843          	fmadd.s	fa6,ft10,fs5,ft6,unknown
80001934:	475f 6f6c 3a62      	0x3a626f6c475f
8000193a:	2020                	c.fld	fs0,64(s0)
8000193c:	2020                	c.fld	fs0,64(s0)
8000193e:	2020                	c.fld	fs0,64(s0)
80001940:	2020                	c.fld	fs0,64(s0)
80001942:	2020                	c.fld	fs0,64(s0)
80001944:	2520                	c.fld	fs0,72(a0)
80001946:	00000a63          	beq	zero,zero,8000195a <strcmp+0x282>
8000194a:	0000                	c.unimp
8000194c:	2020                	c.fld	fs0,64(s0)
8000194e:	2020                	c.fld	fs0,64(s0)
80001950:	2020                	c.fld	fs0,64(s0)
80001952:	2020                	c.fld	fs0,64(s0)
80001954:	756f6873          	csrrsi	a6,0x756,30
80001958:	646c                	c.flw	fa1,76(s0)
8000195a:	6220                	c.flw	fs0,64(a2)
8000195c:	3a65                	c.jal	80001314 <xprintf+0x450>
8000195e:	2020                	c.fld	fs0,64(s0)
80001960:	2520                	c.fld	fs0,72(a0)
80001962:	00000a63          	beq	zero,zero,80001976 <strcmp+0x29e>
80001966:	0000                	c.unimp
80001968:	325f6843          	fmadd.d	fa6,ft10,ft5,ft6,unknown
8000196c:	475f 6f6c 3a62      	0x3a626f6c475f
80001972:	2020                	c.fld	fs0,64(s0)
80001974:	2020                	c.fld	fs0,64(s0)
80001976:	2020                	c.fld	fs0,64(s0)
80001978:	2020                	c.fld	fs0,64(s0)
8000197a:	2020                	c.fld	fs0,64(s0)
8000197c:	2520                	c.fld	fs0,72(a0)
8000197e:	00000a63          	beq	zero,zero,80001992 <strcmp+0x2ba>
80001982:	0000                	c.unimp
80001984:	7241                	c.lui	tp,0xffff0
80001986:	5f72                	c.lwsp	t5,60(sp)
80001988:	5f31                	c.li	t5,-20
8000198a:	626f6c47          	fmsub.d	fs8,ft10,ft6,fa2,unknown
8000198e:	3a5d385b          	0x3a5d385b
80001992:	2020                	c.fld	fs0,64(s0)
80001994:	2020                	c.fld	fs0,64(s0)
80001996:	2020                	c.fld	fs0,64(s0)
80001998:	2520                	c.fld	fs0,72(a0)
8000199a:	0a64                	c.addi4spn	s1,sp,284
8000199c:	0000                	c.unimp
8000199e:	0000                	c.unimp
800019a0:	7241                	c.lui	tp,0xffff0
800019a2:	5f72                	c.lwsp	t5,60(sp)
800019a4:	5f32                	c.lwsp	t5,44(sp)
800019a6:	626f6c47          	fmsub.d	fs8,ft10,ft6,fa2,unknown
800019aa:	5b5d385b          	0x5b5d385b
800019ae:	203a5d37          	lui	s10,0x203a5
800019b2:	2020                	c.fld	fs0,64(s0)
800019b4:	2520                	c.fld	fs0,72(a0)
800019b6:	0a64                	c.addi4spn	s1,sp,284
800019b8:	0000                	c.unimp
800019ba:	0000                	c.unimp
800019bc:	2020                	c.fld	fs0,64(s0)
800019be:	2020                	c.fld	fs0,64(s0)
800019c0:	2020                	c.fld	fs0,64(s0)
800019c2:	2020                	c.fld	fs0,64(s0)
800019c4:	756f6873          	csrrsi	a6,0x756,30
800019c8:	646c                	c.flw	fa1,76(s0)
800019ca:	6220                	c.flw	fs0,64(a2)
800019cc:	3a65                	c.jal	80001384 <xprintf+0x4c0>
800019ce:	2020                	c.fld	fs0,64(s0)
800019d0:	4e20                	c.lw	s0,88(a2)
800019d2:	6d75                	c.lui	s10,0x1d
800019d4:	6562                	c.flwsp	fa0,24(sp)
800019d6:	5f72                	c.lwsp	t5,60(sp)
800019d8:	525f664f          	fnmadd.d	fa2,ft10,ft5,fa0,unknown
800019dc:	6e75                	c.lui	t3,0x1d
800019de:	202b2073          	csrrs	zero,0x202,s6
800019e2:	3031                	c.jal	800011ee <xprintf+0x32a>
800019e4:	000a                	c.slli	zero,0x2
800019e6:	0000                	c.unimp
800019e8:	7450                	c.flw	fa2,44(s0)
800019ea:	5f72                	c.lwsp	t5,60(sp)
800019ec:	626f6c47          	fmsub.d	fs8,ft10,ft6,fa2,unknown
800019f0:	3e2d                	c.jal	8000152a <__udivsi3+0x26>
800019f2:	6944                	c.flw	fs1,20(a0)
800019f4:	3a726373          	csrrsi	t1,0x3a7,4
800019f8:	2020                	c.fld	fs0,64(s0)
800019fa:	2020                	c.fld	fs0,64(s0)
800019fc:	2020                	c.fld	fs0,64(s0)
800019fe:	2020                	c.fld	fs0,64(s0)
80001a00:	2020                	c.fld	fs0,64(s0)
80001a02:	2020                	c.fld	fs0,64(s0)
80001a04:	2520                	c.fld	fs0,72(a0)
80001a06:	0a64                	c.addi4spn	s1,sp,284
80001a08:	0000                	c.unimp
80001a0a:	0000                	c.unimp
80001a0c:	7450                	c.flw	fa2,44(s0)
80001a0e:	5f72                	c.lwsp	t5,60(sp)
80001a10:	626f6c47          	fmsub.d	fs8,ft10,ft6,fa2,unknown
80001a14:	3e2d                	c.jal	8000154e <__umodsi3+0x2>
80001a16:	6e45                	c.lui	t3,0x11
80001a18:	6d75                	c.lui	s10,0x1d
80001a1a:	435f 6d6f 3a70      	0x3a706d6f435f
80001a20:	2020                	c.fld	fs0,64(s0)
80001a22:	2020                	c.fld	fs0,64(s0)
80001a24:	2020                	c.fld	fs0,64(s0)
80001a26:	2020                	c.fld	fs0,64(s0)
80001a28:	2520                	c.fld	fs0,72(a0)
80001a2a:	0a64                	c.addi4spn	s1,sp,284
80001a2c:	0000                	c.unimp
80001a2e:	0000                	c.unimp
80001a30:	7450                	c.flw	fa2,44(s0)
80001a32:	5f72                	c.lwsp	t5,60(sp)
80001a34:	626f6c47          	fmsub.d	fs8,ft10,ft6,fa2,unknown
80001a38:	3e2d                	c.jal	80001572 <__umodsi3+0x26>
80001a3a:	6e49                	c.lui	t3,0x12
80001a3c:	5f74                	c.lw	a3,124(a4)
80001a3e:	706d6f43          	fmadd.s	ft10,fs10,ft6,fa4,unknown
80001a42:	203a                	c.fldsp	ft0,392(sp)
80001a44:	2020                	c.fld	fs0,64(s0)
80001a46:	2020                	c.fld	fs0,64(s0)
80001a48:	2020                	c.fld	fs0,64(s0)
80001a4a:	2020                	c.fld	fs0,64(s0)
80001a4c:	2520                	c.fld	fs0,72(a0)
80001a4e:	0a64                	c.addi4spn	s1,sp,284
80001a50:	0000                	c.unimp
80001a52:	0000                	c.unimp
80001a54:	7450                	c.flw	fa2,44(s0)
80001a56:	5f72                	c.lwsp	t5,60(sp)
80001a58:	626f6c47          	fmsub.d	fs8,ft10,ft6,fa2,unknown
80001a5c:	3e2d                	c.jal	80001596 <__modsi3+0x16>
80001a5e:	5f727453          	0x5f727453
80001a62:	706d6f43          	fmadd.s	ft10,fs10,ft6,fa4,unknown
80001a66:	203a                	c.fldsp	ft0,392(sp)
80001a68:	2020                	c.fld	fs0,64(s0)
80001a6a:	2020                	c.fld	fs0,64(s0)
80001a6c:	2020                	c.fld	fs0,64(s0)
80001a6e:	2020                	c.fld	fs0,64(s0)
80001a70:	2520                	c.fld	fs0,72(a0)
80001a72:	00000a73          	0xa73
80001a76:	0000                	c.unimp
80001a78:	2020                	c.fld	fs0,64(s0)
80001a7a:	2020                	c.fld	fs0,64(s0)
80001a7c:	2020                	c.fld	fs0,64(s0)
80001a7e:	2020                	c.fld	fs0,64(s0)
80001a80:	756f6873          	csrrsi	a6,0x756,30
80001a84:	646c                	c.flw	fa1,76(s0)
80001a86:	6220                	c.flw	fs0,64(a2)
80001a88:	3a65                	c.jal	80001440 <xprintf+0x57c>
80001a8a:	2020                	c.fld	fs0,64(s0)
80001a8c:	4420                	c.lw	s0,72(s0)
80001a8e:	5248                	c.lw	a0,36(a2)
80001a90:	5359                	c.li	t1,-10
80001a92:	4f54                	c.lw	a3,28(a4)
80001a94:	454e                	c.lwsp	a0,208(sp)
80001a96:	5020                	c.lw	s0,96(s0)
80001a98:	4f52                	c.lwsp	t5,20(sp)
80001a9a:	4d415247          	0x4d415247
80001a9e:	202c                	c.fld	fa1,64(s0)
80001aa0:	454d4f53          	0x454d4f53
80001aa4:	5320                	c.lw	s0,96(a4)
80001aa6:	5254                	c.lw	a3,36(a2)
80001aa8:	4e49                	c.li	t3,18
80001aaa:	00000a47          	fmsub.s	fs4,ft0,ft0,ft0,rne
80001aae:	0000                	c.unimp
80001ab0:	654e                	c.flwsp	fa0,208(sp)
80001ab2:	7478                	c.flw	fa4,108(s0)
80001ab4:	505f 7274 475f      	0x475f7274505f
80001aba:	6f6c                	c.flw	fa1,92(a4)
80001abc:	2d62                	c.fldsp	fs10,24(sp)
80001abe:	443e                	c.lwsp	s0,204(sp)
80001ac0:	7369                	c.lui	t1,0xffffa
80001ac2:	203a7263          	bgeu	s4,gp,80001cc6 <strcmp+0x5ee>
80001ac6:	2020                	c.fld	fs0,64(s0)
80001ac8:	2020                	c.fld	fs0,64(s0)
80001aca:	2020                	c.fld	fs0,64(s0)
80001acc:	2020                	c.fld	fs0,64(s0)
80001ace:	2020                	c.fld	fs0,64(s0)
80001ad0:	2020                	c.fld	fs0,64(s0)
80001ad2:	6425                	c.lui	s0,0x9
80001ad4:	000a                	c.slli	zero,0x2
80001ad6:	0000                	c.unimp
80001ad8:	654e                	c.flwsp	fa0,208(sp)
80001ada:	7478                	c.flw	fa4,108(s0)
80001adc:	505f 7274 475f      	0x475f7274505f
80001ae2:	6f6c                	c.flw	fa1,92(a4)
80001ae4:	2d62                	c.fldsp	fs10,24(sp)
80001ae6:	453e                	c.lwsp	a0,204(sp)
80001ae8:	756e                	c.flwsp	fa0,248(sp)
80001aea:	5f6d                	c.li	t5,-5
80001aec:	706d6f43          	fmadd.s	ft10,fs10,ft6,fa4,unknown
80001af0:	203a                	c.fldsp	ft0,392(sp)
80001af2:	2020                	c.fld	fs0,64(s0)
80001af4:	2020                	c.fld	fs0,64(s0)
80001af6:	2020                	c.fld	fs0,64(s0)
80001af8:	2020                	c.fld	fs0,64(s0)
80001afa:	6425                	c.lui	s0,0x9
80001afc:	000a                	c.slli	zero,0x2
80001afe:	0000                	c.unimp
80001b00:	654e                	c.flwsp	fa0,208(sp)
80001b02:	7478                	c.flw	fa4,108(s0)
80001b04:	505f 7274 475f      	0x475f7274505f
80001b0a:	6f6c                	c.flw	fa1,92(a4)
80001b0c:	2d62                	c.fldsp	fs10,24(sp)
80001b0e:	493e                	c.lwsp	s2,204(sp)
80001b10:	746e                	c.flwsp	fs0,248(sp)
80001b12:	435f 6d6f 3a70      	0x3a706d6f435f
80001b18:	2020                	c.fld	fs0,64(s0)
80001b1a:	2020                	c.fld	fs0,64(s0)
80001b1c:	2020                	c.fld	fs0,64(s0)
80001b1e:	2020                	c.fld	fs0,64(s0)
80001b20:	2020                	c.fld	fs0,64(s0)
80001b22:	6425                	c.lui	s0,0x9
80001b24:	000a                	c.slli	zero,0x2
80001b26:	0000                	c.unimp
80001b28:	654e                	c.flwsp	fa0,208(sp)
80001b2a:	7478                	c.flw	fa4,108(s0)
80001b2c:	505f 7274 475f      	0x475f7274505f
80001b32:	6f6c                	c.flw	fa1,92(a4)
80001b34:	2d62                	c.fldsp	fs10,24(sp)
80001b36:	533e                	c.lwsp	t1,236(sp)
80001b38:	7274                	c.flw	fa3,100(a2)
80001b3a:	435f 6d6f 3a70      	0x3a706d6f435f
80001b40:	2020                	c.fld	fs0,64(s0)
80001b42:	2020                	c.fld	fs0,64(s0)
80001b44:	2020                	c.fld	fs0,64(s0)
80001b46:	2020                	c.fld	fs0,64(s0)
80001b48:	2020                	c.fld	fs0,64(s0)
80001b4a:	7325                	c.lui	t1,0xfffe9
80001b4c:	000a                	c.slli	zero,0x2
80001b4e:	0000                	c.unimp
80001b50:	6e49                	c.lui	t3,0x12
80001b52:	5f74                	c.lw	a3,124(a4)
80001b54:	5f31                	c.li	t5,-20
80001b56:	6f4c                	c.flw	fa1,28(a4)
80001b58:	20203a63          	0x20203a63
80001b5c:	2020                	c.fld	fs0,64(s0)
80001b5e:	2020                	c.fld	fs0,64(s0)
80001b60:	2020                	c.fld	fs0,64(s0)
80001b62:	2020                	c.fld	fs0,64(s0)
80001b64:	2520                	c.fld	fs0,72(a0)
80001b66:	0a64                	c.addi4spn	s1,sp,284
80001b68:	0000                	c.unimp
80001b6a:	0000                	c.unimp
80001b6c:	6e49                	c.lui	t3,0x12
80001b6e:	5f74                	c.lw	a3,124(a4)
80001b70:	5f32                	c.lwsp	t5,44(sp)
80001b72:	6f4c                	c.flw	fa1,28(a4)
80001b74:	20203a63          	0x20203a63
80001b78:	2020                	c.fld	fs0,64(s0)
80001b7a:	2020                	c.fld	fs0,64(s0)
80001b7c:	2020                	c.fld	fs0,64(s0)
80001b7e:	2020                	c.fld	fs0,64(s0)
80001b80:	2520                	c.fld	fs0,72(a0)
80001b82:	0a64                	c.addi4spn	s1,sp,284
80001b84:	0000                	c.unimp
80001b86:	0000                	c.unimp
80001b88:	6e45                	c.lui	t3,0x11
80001b8a:	6d75                	c.lui	s10,0x1d
80001b8c:	4c5f 636f 203a      	0x203a636f4c5f
80001b92:	2020                	c.fld	fs0,64(s0)
80001b94:	2020                	c.fld	fs0,64(s0)
80001b96:	2020                	c.fld	fs0,64(s0)
80001b98:	2020                	c.fld	fs0,64(s0)
80001b9a:	2020                	c.fld	fs0,64(s0)
80001b9c:	2520                	c.fld	fs0,72(a0)
80001b9e:	0a64                	c.addi4spn	s1,sp,284
80001ba0:	0000                	c.unimp
80001ba2:	0000                	c.unimp
80001ba4:	4844                	c.lw	s1,20(s0)
80001ba6:	5952                	c.lwsp	s2,52(sp)
80001ba8:	4e4f5453          	0x4e4f5453
80001bac:	2045                	c.jal	80001c4c <strcmp+0x574>
80001bae:	5250                	c.lw	a2,36(a2)
80001bb0:	4152474f          	fnmadd.s	fa4,ft4,fs5,fs0,rmm
80001bb4:	2c4d                	c.jal	80001e66 <Arr_1_Glob+0xba>
80001bb6:	3120                	c.fld	fs0,96(a0)
80001bb8:	20545327          	0x20545327
80001bbc:	49525453          	0x49525453
80001bc0:	474e                	c.lwsp	a4,208(sp)
80001bc2:	0000                	c.unimp
80001bc4:	5f727453          	0x5f727453
80001bc8:	5f31                	c.li	t5,-20
80001bca:	6f4c                	c.flw	fa1,28(a4)
80001bcc:	20203a63          	0x20203a63
80001bd0:	2020                	c.fld	fs0,64(s0)
80001bd2:	2020                	c.fld	fs0,64(s0)
80001bd4:	2020                	c.fld	fs0,64(s0)
80001bd6:	2020                	c.fld	fs0,64(s0)
80001bd8:	2520                	c.fld	fs0,72(a0)
80001bda:	00000a73          	0xa73
80001bde:	0000                	c.unimp
80001be0:	2020                	c.fld	fs0,64(s0)
80001be2:	2020                	c.fld	fs0,64(s0)
80001be4:	2020                	c.fld	fs0,64(s0)
80001be6:	2020                	c.fld	fs0,64(s0)
80001be8:	756f6873          	csrrsi	a6,0x756,30
80001bec:	646c                	c.flw	fa1,76(s0)
80001bee:	6220                	c.flw	fs0,64(a2)
80001bf0:	3a65                	c.jal	800015a8 <__modsi3+0x28>
80001bf2:	2020                	c.fld	fs0,64(s0)
80001bf4:	4420                	c.lw	s0,72(s0)
80001bf6:	5248                	c.lw	a0,36(a2)
80001bf8:	5359                	c.li	t1,-10
80001bfa:	4f54                	c.lw	a3,28(a4)
80001bfc:	454e                	c.lwsp	a0,208(sp)
80001bfe:	5020                	c.lw	s0,96(s0)
80001c00:	4f52                	c.lwsp	t5,20(sp)
80001c02:	4d415247          	0x4d415247
80001c06:	202c                	c.fld	fa1,64(s0)
80001c08:	2731                	c.jal	80002314 <Arr_2_Glob+0xa0>
80001c0a:	53205453          	0x53205453
80001c0e:	5254                	c.lw	a3,36(a2)
80001c10:	4e49                	c.li	t3,18
80001c12:	00000a47          	fmsub.s	fs4,ft0,ft0,ft0,rne
80001c16:	0000                	c.unimp
80001c18:	4844                	c.lw	s1,20(s0)
80001c1a:	5952                	c.lwsp	s2,52(sp)
80001c1c:	4e4f5453          	0x4e4f5453
80001c20:	2045                	c.jal	80001cc0 <strcmp+0x5e8>
80001c22:	5250                	c.lw	a2,36(a2)
80001c24:	4152474f          	fnmadd.s	fa4,ft4,fs5,fs0,rmm
80001c28:	2c4d                	c.jal	80001eda <memory+0x66>
80001c2a:	3220                	c.fld	fs0,96(a2)
80001c2c:	20444e27          	fsq	ft4,540(s0) # 921c <__stack_size-0x1ff6de4>
80001c30:	49525453          	0x49525453
80001c34:	474e                	c.lwsp	a4,208(sp)
80001c36:	0000                	c.unimp
80001c38:	5f727453          	0x5f727453
80001c3c:	5f32                	c.lwsp	t5,44(sp)
80001c3e:	6f4c                	c.flw	fa1,28(a4)
80001c40:	20203a63          	0x20203a63
80001c44:	2020                	c.fld	fs0,64(s0)
80001c46:	2020                	c.fld	fs0,64(s0)
80001c48:	2020                	c.fld	fs0,64(s0)
80001c4a:	2020                	c.fld	fs0,64(s0)
80001c4c:	2520                	c.fld	fs0,72(a0)
80001c4e:	00000a73          	0xa73
80001c52:	0000                	c.unimp
80001c54:	2020                	c.fld	fs0,64(s0)
80001c56:	2020                	c.fld	fs0,64(s0)
80001c58:	2020                	c.fld	fs0,64(s0)
80001c5a:	2020                	c.fld	fs0,64(s0)
80001c5c:	756f6873          	csrrsi	a6,0x756,30
80001c60:	646c                	c.flw	fa1,76(s0)
80001c62:	6220                	c.flw	fs0,64(a2)
80001c64:	3a65                	c.jal	8000161c <memcpy+0x6c>
80001c66:	2020                	c.fld	fs0,64(s0)
80001c68:	4420                	c.lw	s0,72(s0)
80001c6a:	5248                	c.lw	a0,36(a2)
80001c6c:	5359                	c.li	t1,-10
80001c6e:	4f54                	c.lw	a3,28(a4)
80001c70:	454e                	c.lwsp	a0,208(sp)
80001c72:	5020                	c.lw	s0,96(s0)
80001c74:	4f52                	c.lwsp	t5,20(sp)
80001c76:	4d415247          	0x4d415247
80001c7a:	202c                	c.fld	fa1,64(s0)
80001c7c:	2732                	c.fldsp	fa4,264(sp)
80001c7e:	444e                	c.lwsp	s0,208(sp)
80001c80:	5320                	c.lw	s0,96(a4)
80001c82:	5254                	c.lw	a3,36(a2)
80001c84:	4e49                	c.li	t3,18
80001c86:	00000a47          	fmsub.s	fs4,ft0,ft0,ft0,rne
80001c8a:	0000                	c.unimp
80001c8c:	6946                	c.flwsp	fs2,80(sp)
80001c8e:	696e                	c.flwsp	fs2,216(sp)
80001c90:	64656873          	csrrsi	a6,0x646,10
80001c94:	6920                	c.flw	fs0,80(a0)
80001c96:	206e                	c.fldsp	ft0,216(sp)
80001c98:	6425                	c.lui	s0,0x9
80001c9a:	6d20                	c.flw	fs0,88(a0)
80001c9c:	00000a73          	0xa73
80001ca0:	3d3d                	c.jal	80001ade <strcmp+0x406>
80001ca2:	3d3d                	c.jal	80001ae0 <strcmp+0x408>
80001ca4:	3d3d                	c.jal	80001ae2 <strcmp+0x40a>
80001ca6:	3d3d                	c.jal	80001ae4 <strcmp+0x40c>
80001ca8:	3d3d                	c.jal	80001ae6 <strcmp+0x40e>
80001caa:	3d3d                	c.jal	80001ae8 <strcmp+0x410>
80001cac:	3d3d                	c.jal	80001aea <strcmp+0x412>
80001cae:	3d3d                	c.jal	80001aec <strcmp+0x414>
80001cb0:	3d3d                	c.jal	80001aee <strcmp+0x416>
80001cb2:	3d3d                	c.jal	80001af0 <strcmp+0x418>
80001cb4:	3d3d                	c.jal	80001af2 <strcmp+0x41a>
80001cb6:	3d3d                	c.jal	80001af4 <strcmp+0x41c>
80001cb8:	3d3d                	c.jal	80001af6 <strcmp+0x41e>
80001cba:	3d3d                	c.jal	80001af8 <strcmp+0x420>
80001cbc:	3d3d                	c.jal	80001afa <strcmp+0x422>
80001cbe:	3d3d                	c.jal	80001afc <strcmp+0x424>
80001cc0:	3d3d                	c.jal	80001afe <strcmp+0x426>
80001cc2:	3d3d                	c.jal	80001b00 <strcmp+0x428>
80001cc4:	3d3d                	c.jal	80001b02 <strcmp+0x42a>
80001cc6:	3d3d                	c.jal	80001b04 <strcmp+0x42c>
80001cc8:	3d3d                	c.jal	80001b06 <strcmp+0x42e>
80001cca:	3d3d                	c.jal	80001b08 <strcmp+0x430>
80001ccc:	3d3d                	c.jal	80001b0a <strcmp+0x432>
80001cce:	3d3d                	c.jal	80001b0c <strcmp+0x434>
80001cd0:	3d3d                	c.jal	80001b0e <strcmp+0x436>
80001cd2:	000a                	c.slli	zero,0x2
80001cd4:	6844                	c.flw	fs1,20(s0)
80001cd6:	7972                	c.flwsp	fs2,60(sp)
80001cd8:	6e6f7473          	csrrci	s0,0x6e6,30
80001cdc:	2065                	c.jal	80001d84 <strcmp+0x6ac>
80001cde:	7325                	c.lui	t1,0xfffe9
80001ce0:	2020                	c.fld	fs0,64(s0)
80001ce2:	2020                	c.fld	fs0,64(s0)
80001ce4:	2020                	c.fld	fs0,64(s0)
80001ce6:	2020                	c.fld	fs0,64(s0)
80001ce8:	2520                	c.fld	fs0,72(a0)
80001cea:	2064                	c.fld	fs1,192(s0)
80001cec:	614d                	c.addi16sp	sp,176
80001cee:	6b72                	c.flwsp	fs6,28(sp)
80001cf0:	00000a73          	0xa73
80001cf4:	2020                	c.fld	fs0,64(s0)
80001cf6:	2020                	c.fld	fs0,64(s0)
80001cf8:	2020                	c.fld	fs0,64(s0)
80001cfa:	2020                	c.fld	fs0,64(s0)
80001cfc:	2020                	c.fld	fs0,64(s0)
80001cfe:	2020                	c.fld	fs0,64(s0)
80001d00:	2020                	c.fld	fs0,64(s0)
80001d02:	2020                	c.fld	fs0,64(s0)
80001d04:	2020                	c.fld	fs0,64(s0)
80001d06:	7620                	c.flw	fs0,104(a2)
80001d08:	31202e73          	csrrs	t3,0x312,zero
80001d0c:	3030                	c.fld	fa2,96(s0)
80001d0e:	3030                	c.fld	fa2,96(s0)
80001d10:	2030                	c.fld	fa2,64(s0)
80001d12:	614d                	c.addi16sp	sp,176
80001d14:	6b72                	c.flwsp	fs6,28(sp)
80001d16:	69282073          	csrrs	zero,0x692,a6
80001d1a:	37372d37          	lui	s10,0x37372
80001d1e:	3030                	c.fld	fa2,96(s0)
80001d20:	2040204b          	fnmsub.s	ft0,ft0,ft4,ft4,rdn
80001d24:	2e34                	c.fld	fa3,88(a2)
80001d26:	3032                	c.fldsp	ft0,296(sp)
80001d28:	297a4847          	fmsub.s	fa6,fs4,fs7,ft5,rmm
80001d2c:	000a                	c.slli	zero,0x2
80001d2e:	0000                	c.unimp
80001d30:	4844                	c.lw	s1,20(s0)
80001d32:	5952                	c.lwsp	s2,52(sp)
80001d34:	4e4f5453          	0x4e4f5453
80001d38:	2045                	c.jal	80001dd8 <Arr_1_Glob+0x2c>
80001d3a:	5250                	c.lw	a2,36(a2)
80001d3c:	4152474f          	fnmadd.s	fa4,ft4,fs5,fs0,rmm
80001d40:	2c4d                	c.jal	80001ff2 <memory+0x17e>
80001d42:	3320                	c.fld	fs0,96(a4)
80001d44:	20445227          	0x20445227
80001d48:	49525453          	0x49525453
80001d4c:	474e                	c.lwsp	a4,208(sp)
	...

Disassembly of section .rodata:

80001d50 <.rodata>:
80001d50:	13dc                	c.addi4spn	a5,sp,484
80001d52:	8000                	0x8000
80001d54:	10c8                	c.addi4spn	a0,sp,100
80001d56:	8000                	0x8000
80001d58:	1084                	c.addi4spn	s1,sp,96
80001d5a:	8000                	0x8000
80001d5c:	106c                	c.addi4spn	a1,sp,44
80001d5e:	8000                	0x8000
80001d60:	106c                	c.addi4spn	a1,sp,44
80001d62:	8000                	0x8000
80001d64:	106c                	c.addi4spn	a1,sp,44
80001d66:	8000                	0x8000
80001d68:	106c                	c.addi4spn	a1,sp,44
80001d6a:	8000                	0x8000
80001d6c:	106c                	c.addi4spn	a1,sp,44
80001d6e:	8000                	0x8000
80001d70:	106c                	c.addi4spn	a1,sp,44
80001d72:	8000                	0x8000
80001d74:	106c                	c.addi4spn	a1,sp,44
80001d76:	8000                	0x8000
80001d78:	106c                	c.addi4spn	a1,sp,44
80001d7a:	8000                	0x8000
80001d7c:	106c                	c.addi4spn	a1,sp,44
80001d7e:	8000                	0x8000
80001d80:	106c                	c.addi4spn	a1,sp,44
80001d82:	8000                	0x8000
80001d84:	120c                	c.addi4spn	a1,sp,288
80001d86:	8000                	0x8000
80001d88:	106c                	c.addi4spn	a1,sp,44
80001d8a:	8000                	0x8000
80001d8c:	106c                	c.addi4spn	a1,sp,44
80001d8e:	8000                	0x8000
80001d90:	106c                	c.addi4spn	a1,sp,44
80001d92:	8000                	0x8000
80001d94:	10f0                	c.addi4spn	a2,sp,108
80001d96:	8000                	0x8000
80001d98:	106c                	c.addi4spn	a1,sp,44
80001d9a:	8000                	0x8000
80001d9c:	1084                	c.addi4spn	s1,sp,96
80001d9e:	8000                	0x8000
80001da0:	106c                	c.addi4spn	a1,sp,44
80001da2:	8000                	0x8000
80001da4:	106c                	c.addi4spn	a1,sp,44
80001da6:	8000                	0x8000
80001da8:	13b4                	c.addi4spn	a3,sp,488
80001daa:	8000                	0x8000

Disassembly of section .bss:

80001dac <Arr_1_Glob>:
	...

80001e74 <memory>:
	...

80002274 <Arr_2_Glob>:
	...

Disassembly of section .sbss:

80004984 <Dhrystones_Per_Second>:
/home/tututu/qimeng/simulator/baremetal/benchmarks/dhrystone/dry.c:438
float Microseconds, Dhrystones_Per_Second;
80004984:	0000                	c.unimp
	...

80004988 <Microseconds>:
80004988:	0000                	c.unimp
	...

8000498c <User_Time>:
/home/tututu/qimeng/simulator/baremetal/benchmarks/dhrystone/dry.c:437
long Begin_Time, End_Time, User_Time;
8000498c:	0000                	c.unimp
	...

80004990 <End_Time>:
80004990:	0000                	c.unimp
	...

80004994 <Begin_Time>:
80004994:	0000                	c.unimp
	...

80004998 <Done>:
/home/tututu/qimeng/simulator/baremetal/benchmarks/dhrystone/dry.c:435
Boolean Done;
80004998:	0000                	c.unimp
	...

8000499c <Reg>:
/home/tututu/qimeng/simulator/baremetal/benchmarks/dhrystone/dry.c:425
Boolean Reg = false;
8000499c:	0000                	c.unimp
	...

800049a0 <Ch_2_Glob>:
	...

800049a1 <Ch_1_Glob>:
/home/tututu/qimeng/simulator/baremetal/benchmarks/dhrystone/dry.c:417
char Ch_1_Glob, Ch_2_Glob;
800049a1:	0000                	c.unimp
	...

800049a4 <Bool_Glob>:
/home/tututu/qimeng/simulator/baremetal/benchmarks/dhrystone/dry.c:416
Boolean Bool_Glob;
800049a4:	0000                	c.unimp
	...

800049a8 <Int_Glob>:
/home/tututu/qimeng/simulator/baremetal/benchmarks/dhrystone/dry.c:415
int Int_Glob;
800049a8:	0000                	c.unimp
	...

800049ac <Next_Ptr_Glob>:
/home/tututu/qimeng/simulator/baremetal/benchmarks/dhrystone/dry.c:414
Rec_Pointer Ptr_Glob, Next_Ptr_Glob;
800049ac:	0000                	c.unimp
	...

800049b0 <Ptr_Glob>:
800049b0:	0000                	c.unimp
	...

800049b4 <uart8250_reg_shift>:
/home/tututu/qimeng/simulator/baremetal/benchmarks/dhrystone/../../lib/uart.c:33
static u32 uart8250_reg_shift;
800049b4:	0000                	c.unimp
	...

800049b8 <uart8250_base>:
/home/tututu/qimeng/simulator/baremetal/benchmarks/dhrystone/../../lib/uart.c:30
static volatile void *uart8250_base;
800049b8:	0000                	c.unimp
	...

800049bc <outptr>:
/home/tututu/qimeng/simulator/baremetal/benchmarks/dhrystone/../../lib/xprintf.c:20
static char *outptr;
800049bc:	0000                	c.unimp
	...

800049c0 <xfunc_out>:
/home/tututu/qimeng/simulator/baremetal/benchmarks/dhrystone/../../lib/xprintf.c:19
void (*xfunc_out)(unsigned char);	/* Pointer to the output stream */
800049c0:	0000                	c.unimp
	...

Disassembly of section .data:

800049c4 <__global_pointer-0x804>:
800049c4:	0000                	c.unimp
	...

Disassembly of section .sdata:

800049c8 <pass>:
/home/tututu/qimeng/simulator/baremetal/benchmarks/dhrystone/dry.c:714
Boolean pass = true;
800049c8:	0001                	c.addi	zero,0
	...

800049cc <free_mem>:
/home/tututu/qimeng/simulator/baremetal/benchmarks/dhrystone/dry.c:443
static char *free_mem = &memory[0];
800049cc:	1e74                	c.addi4spn	a3,sp,828
800049ce:	8000                	0x8000

Disassembly of section .stack:

86000000 <_sp-0x2000000>:
	...

Disassembly of section .riscv.attributes:

00000000 <.riscv.attributes>:
   0:	2441                	c.jal	280 <__stack_size-0x1fffd80>
   2:	0000                	c.unimp
   4:	7200                	c.flw	fs0,32(a2)
   6:	7369                	c.lui	t1,0xffffa
   8:	01007663          	bgeu	zero,a6,14 <__stack_size-0x1ffffec>
   c:	001a                	c.slli	zero,0x6
   e:	0000                	c.unimp
  10:	1004                	c.addi4spn	s1,sp,32
  12:	7205                	c.lui	tp,0xfffe1
  14:	3376                	c.fldsp	ft6,376(sp)
  16:	6932                	c.flwsp	fs2,12(sp)
  18:	7032                	c.flwsp	ft0,44(sp)
  1a:	5f30                	c.lw	a2,120(a4)
  1c:	3261                	c.jal	fffff9a4 <_sp+0x77fff9a4>
  1e:	3070                	c.fld	fa2,224(s0)
  20:	0800                	c.addi4spn	s0,sp,16
  22:	0a01                	c.addi	s4,0
  24:	0b              	Address 0x0000000000000024 is out of bounds.


Disassembly of section .comment:

00000000 <.comment>:
   0:	3a434347          	fmsub.d	ft6,ft6,ft4,ft7,rmm
   4:	2820                	c.fld	fs0,80(s0)
   6:	29554e47          	fmsub.s	ft8,fa0,fs5,ft5,rmm
   a:	3120                	c.fld	fs0,96(a0)
   c:	2e31                	c.jal	328 <__stack_size-0x1fffcd8>
   e:	2e31                	c.jal	32a <__stack_size-0x1fffcd6>
  10:	0030                	c.addi4spn	a2,sp,8

Disassembly of section .debug_line:

00000000 <.debug_line>:
       0:	006e                	c.slli	zero,0x1b
       2:	0000                	c.unimp
       4:	0005                	c.addi	zero,1
       6:	0004                	0x4
       8:	002e                	c.slli	zero,0xb
       a:	0000                	c.unimp
       c:	0101                	c.addi	sp,0
       e:	fb01                	c.bnez	a4,ffffff1e <_sp+0x77ffff1e>
      10:	0d0e                	c.slli	s10,0x3
      12:	0100                	c.addi4spn	s0,sp,128
      14:	0101                	c.addi	sp,0
      16:	0001                	c.addi	zero,0
      18:	0000                	c.unimp
      1a:	0001                	c.addi	zero,0
      1c:	0100                	c.addi4spn	s0,sp,128
      1e:	0101                	c.addi	sp,0
      20:	021f 0000 0000      	0x21f
      26:	0000                	c.unimp
      28:	0000                	c.unimp
      2a:	0102                	c.slli64	sp
      2c:	021f 020f 0006      	0x6020f021f
      32:	0000                	c.unimp
      34:	0600                	c.addi4spn	s0,sp,768
      36:	0000                	c.unimp
      38:	0100                	c.addi4spn	s0,sp,128
      3a:	0500                	c.addi4spn	s0,sp,640
      3c:	0002                	c.slli64	zero
      3e:	0000                	c.unimp
      40:	1a80                	c.addi4spn	s0,sp,368
      42:	08090103          	lb	sp,128(s2) # 1e080 <__stack_size-0x1fe1f80>
      46:	0100                	c.addi4spn	s0,sp,128
      48:	08090203          	lb	tp,128(s2)
      4c:	0100                	c.addi4spn	s0,sp,128
      4e:	04090103          	lb	sp,64(s2)
      52:	0100                	c.addi4spn	s0,sp,128
      54:	04090103          	lb	sp,64(s2)
      58:	0100                	c.addi4spn	s0,sp,128
      5a:	04090103          	lb	sp,64(s2)
      5e:	0100                	c.addi4spn	s0,sp,128
      60:	04090103          	lb	sp,64(s2)
      64:	0100                	c.addi4spn	s0,sp,128
      66:	04090303          	lb	t1,64(s2)
      6a:	0100                	c.addi4spn	s0,sp,128
      6c:	0409                	c.addi	s0,2
      6e:	0000                	c.unimp
      70:	0101                	c.addi	sp,0
      72:	15e9                	c.addi	a1,-6
      74:	0000                	c.unimp
      76:	0005                	c.addi	zero,1
      78:	0004                	0x4
      7a:	0038                	c.addi4spn	a4,sp,8
      7c:	0000                	c.unimp
      7e:	0101                	c.addi	sp,0
      80:	fb01                	c.bnez	a4,ffffff90 <_sp+0x77ffff90>
      82:	0d0e                	c.slli	s10,0x3
      84:	0100                	c.addi4spn	s0,sp,128
      86:	0101                	c.addi	sp,0
      88:	0001                	c.addi	zero,0
      8a:	0000                	c.unimp
      8c:	0001                	c.addi	zero,0
      8e:	0100                	c.addi4spn	s0,sp,128
      90:	0101                	c.addi	sp,0
      92:	021f 0014 0000      	0x14021f
      98:	0051                	c.addi	zero,20
      9a:	0000                	c.unimp
      9c:	0102                	c.slli64	sp
      9e:	021f 040f 000e      	0xe040f021f
      a4:	0000                	c.unimp
      a6:	0e00                	c.addi4spn	s0,sp,784
      a8:	0000                	c.unimp
      aa:	0000                	c.unimp
      ac:	005f 0000 6901      	0x69010000005f
      b2:	0000                	c.unimp
      b4:	0000                	c.unimp
      b6:	0105                	c.addi	sp,1
      b8:	0500                	c.addi4spn	s0,sp,640
      ba:	5002                	0x5002
      bc:	0009                	c.addi	zero,2
      be:	0380                	c.addi4spn	s0,sp,448
      c0:	03f0                	c.addi4spn	a2,sp,460
      c2:	0501                	c.addi	a0,0
      c4:	09010303          	lb	t1,144(sp)
      c8:	0000                	c.unimp
      ca:	0301                	c.addi	t1,0
      cc:	0901                	c.addi	s2,0
      ce:	0000                	c.unimp
      d0:	0301                	c.addi	t1,0
      d2:	0902                	c.slli64	s2
      d4:	0000                	c.unimp
      d6:	0501                	c.addi	a0,0
      d8:	02030613          	addi	a2,t1,32 # ffffa020 <_sp+0x77ffa020>
      dc:	0009                	c.addi	zero,2
      de:	0100                	c.addi4spn	s0,sp,128
      e0:	0805                	c.addi	a6,1
      e2:	04090003          	lb	zero,64(s2)
      e6:	0100                	c.addi4spn	s0,sp,128
      e8:	0305                	c.addi	t1,1
      ea:	0306                	c.slli	t1,0x1
      ec:	097f                	0x97f
      ee:	0008                	0x8
      f0:	0501                	c.addi	a0,0
      f2:	0305                	c.addi	t1,1
      f4:	0901                	c.addi	s2,0
      f6:	0000                	c.unimp
      f8:	0501                	c.addi	a0,0
      fa:	0608                	c.addi4spn	a0,sp,768
      fc:	00090003          	lb	zero,0(s2)
     100:	0100                	c.addi4spn	s0,sp,128
     102:	0105                	c.addi	sp,1
     104:	04090803          	lb	a6,64(s2)
     108:	0100                	c.addi4spn	s0,sp,128
     10a:	0705                	c.addi	a4,1
     10c:	0306                	c.slli	t1,0x1
     10e:	0004097b          	0x4097b
     112:	0301                	c.addi	t1,0
     114:	0901                	c.addi	s2,0
     116:	0000                	c.unimp
     118:	0501                	c.addi	a0,0
     11a:	7f03060f          	0x7f03060f
     11e:	0009                	c.addi	zero,2
     120:	0100                	c.addi4spn	s0,sp,128
     122:	1e05                	c.addi	t3,-31
     124:	04090103          	lb	sp,64(s2)
     128:	0100                	c.addi4spn	s0,sp,128
     12a:	0f05                	c.addi	t5,1
     12c:	08097f03          	0x8097f03
     130:	0100                	c.addi4spn	s0,sp,128
     132:	1e05                	c.addi	t3,-31
     134:	04090103          	lb	sp,64(s2)
     138:	0100                	c.addi4spn	s0,sp,128
     13a:	1405                	c.addi	s0,-31
     13c:	04090003          	lb	zero,64(s2)
     140:	0100                	c.addi4spn	s0,sp,128
     142:	0705                	c.addi	a4,1
     144:	0306                	c.slli	t1,0x1
     146:	0901                	c.addi	s2,0
     148:	0004                	0x4
     14a:	0501                	c.addi	a0,0
     14c:	09020313          	addi	t1,tp,144 # fffe1090 <_sp+0x77fe1090>
     150:	0000                	c.unimp
     152:	0501                	c.addi	a0,0
     154:	0601                	c.addi	a2,0
     156:	00090103          	lb	sp,0(s2)
     15a:	0100                	c.addi4spn	s0,sp,128
     15c:	0306                	c.slli	t1,0x1
     15e:	0909                	c.addi	s2,2
     160:	0004                	0x4
     162:	0501                	c.addi	a0,0
     164:	09010303          	lb	t1,144(sp)
     168:	0000                	c.unimp
     16a:	0501                	c.addi	a0,0
     16c:	0610                	c.addi4spn	a2,sp,768
     16e:	00090003          	lb	zero,0(s2)
     172:	0100                	c.addi4spn	s0,sp,128
     174:	0605                	c.addi	a2,1
     176:	08090003          	lb	zero,128(s2)
     17a:	0100                	c.addi4spn	s0,sp,128
     17c:	0505                	c.addi	a0,1
     17e:	0306                	c.slli	t1,0x1
     180:	0902                	c.slli64	s2
     182:	0004                	0x4
     184:	0501                	c.addi	a0,0
     186:	061c                	c.addi4spn	a5,sp,768
     188:	00090003          	lb	zero,0(s2)
     18c:	0100                	c.addi4spn	s0,sp,128
     18e:	1205                	c.addi	tp,-31
     190:	04090003          	lb	zero,64(s2)
     194:	0100                	c.addi4spn	s0,sp,128
     196:	2105                	c.jal	5b6 <__stack_size-0x1fffa4a>
     198:	04090103          	lb	sp,64(s2)
     19c:	0100                	c.addi4spn	s0,sp,128
     19e:	0305                	c.addi	t1,1
     1a0:	0306                	c.slli	t1,0x1
     1a2:	0900                	c.addi4spn	s0,sp,144
     1a4:	0004                	0x4
     1a6:	0301                	c.addi	t1,0
     1a8:	00d2                	c.slli	ra,0x14
     1aa:	0009                	c.addi	zero,2
     1ac:	0100                	c.addi4spn	s0,sp,128
     1ae:	00090203          	lb	tp,0(s2)
     1b2:	0100                	c.addi4spn	s0,sp,128
     1b4:	00090103          	lb	sp,0(s2)
     1b8:	0100                	c.addi4spn	s0,sp,128
     1ba:	0306                	c.slli	t1,0x1
     1bc:	00097fab          	0x97fab
     1c0:	0100                	c.addi4spn	s0,sp,128
     1c2:	2005                	c.jal	1e2 <__stack_size-0x1fffe1e>
     1c4:	0900d503          	lhu	a0,144(ra)
     1c8:	0004                	0x4
     1ca:	0501                	c.addi	a0,0
     1cc:	0310                	c.addi4spn	a2,sp,384
     1ce:	0900                	c.addi4spn	s0,sp,144
     1d0:	0008                	0x8
     1d2:	0501                	c.addi	a0,0
     1d4:	0301                	c.addi	t1,0
     1d6:	7fac                	c.flw	fa1,120(a5)
     1d8:	0409                	c.addi	s0,2
     1da:	0100                	c.addi4spn	s0,sp,128
     1dc:	0306                	c.slli	t1,0x1
     1de:	0905                	c.addi	s2,1
     1e0:	0004                	0x4
     1e2:	0501                	c.addi	a0,0
     1e4:	09010303          	lb	t1,144(sp)
     1e8:	0000                	c.unimp
     1ea:	0301                	c.addi	t1,0
     1ec:	0902                	c.slli64	s2
     1ee:	0000                	c.unimp
     1f0:	0301                	c.addi	t1,0
     1f2:	0901                	c.addi	s2,0
     1f4:	0000                	c.unimp
     1f6:	0501                	c.addi	a0,0
     1f8:	0618                	c.addi4spn	a4,sp,768
     1fa:	00097f03          	0x97f03
     1fe:	0100                	c.addi4spn	s0,sp,128
     200:	0d05                	c.addi	s10,1
     202:	08090103          	lb	sp,128(s2)
     206:	0100                	c.addi4spn	s0,sp,128
     208:	1805                	c.addi	a6,-31
     20a:	04090003          	lb	zero,64(s2)
     20e:	0100                	c.addi4spn	s0,sp,128
     210:	04097f03          	0x4097f03
     214:	0100                	c.addi4spn	s0,sp,128
     216:	08090103          	lb	sp,128(s2)
     21a:	0100                	c.addi4spn	s0,sp,128
     21c:	0d05                	c.addi	s10,1
     21e:	04090003          	lb	zero,64(s2)
     222:	0100                	c.addi4spn	s0,sp,128
     224:	0305                	c.addi	t1,1
     226:	0306                	c.slli	t1,0x1
     228:	0901                	c.addi	s2,0
     22a:	0004                	0x4
     22c:	0501                	c.addi	a0,0
     22e:	060d                	c.addi	a2,3
     230:	00090003          	lb	zero,0(s2)
     234:	0100                	c.addi4spn	s0,sp,128
     236:	0105                	c.addi	sp,1
     238:	0c090103          	lb	sp,192(s2)
     23c:	0100                	c.addi4spn	s0,sp,128
     23e:	0306                	c.slli	t1,0x1
     240:	0905                	c.addi	s2,1
     242:	0004                	0x4
     244:	0501                	c.addi	a0,0
     246:	09010303          	lb	t1,144(sp)
     24a:	0000                	c.unimp
     24c:	0501                	c.addi	a0,0
     24e:	060d                	c.addi	a2,3
     250:	00090003          	lb	zero,0(s2)
     254:	0100                	c.addi4spn	s0,sp,128
     256:	0305                	c.addi	t1,1
     258:	0306                	c.slli	t1,0x1
     25a:	0901                	c.addi	s2,0
     25c:	000c                	0xc
     25e:	0501                	c.addi	a0,0
     260:	060d                	c.addi	a2,3
     262:	00090003          	lb	zero,0(s2)
     266:	0100                	c.addi4spn	s0,sp,128
     268:	0105                	c.addi	sp,1
     26a:	08090103          	lb	sp,128(s2)
     26e:	0100                	c.addi4spn	s0,sp,128
     270:	0306                	c.slli	t1,0x1
     272:	0921                	c.addi	s2,8
     274:	0004                	0x4
     276:	0501                	c.addi	a0,0
     278:	09010303          	lb	t1,144(sp)
     27c:	0000                	c.unimp
     27e:	0301                	c.addi	t1,0
     280:	0901                	c.addi	s2,0
     282:	0000                	c.unimp
     284:	0301                	c.addi	t1,0
     286:	00fd                	c.addi	ra,31
     288:	0009                	c.addi	zero,2
     28a:	0100                	c.addi4spn	s0,sp,128
     28c:	00090203          	lb	tp,0(s2)
     290:	0100                	c.addi4spn	s0,sp,128
     292:	00090103          	lb	sp,0(s2)
     296:	0100                	c.addi4spn	s0,sp,128
     298:	0605                	c.addi	a2,1
     29a:	0306                	c.slli	t1,0x1
     29c:	0900                	c.addi4spn	s0,sp,144
     29e:	0000                	c.unimp
     2a0:	0501                	c.addi	a0,0
     2a2:	0605                	c.addi	a2,1
     2a4:	08090403          	lb	s0,128(s2)
     2a8:	0100                	c.addi4spn	s0,sp,128
     2aa:	097efe03          	0x97efe03
     2ae:	0000                	c.unimp
     2b0:	0501                	c.addi	a0,0
     2b2:	00030613          	addi	a2,t1,0
     2b6:	0009                	c.addi	zero,2
     2b8:	0100                	c.addi4spn	s0,sp,128
     2ba:	0305                	c.addi	t1,1
     2bc:	0306                	c.slli	t1,0x1
     2be:	0901                	c.addi	s2,0
     2c0:	0008                	0x8
     2c2:	0501                	c.addi	a0,0
     2c4:	0305                	c.addi	t1,1
     2c6:	0911                	c.addi	s2,4
     2c8:	0014                	0x14
     2ca:	0501                	c.addi	a0,0
     2cc:	00030613          	addi	a2,t1,0
     2d0:	0009                	c.addi	zero,2
     2d2:	0100                	c.addi4spn	s0,sp,128
     2d4:	0505                	c.addi	a0,1
     2d6:	0306                	c.slli	t1,0x1
     2d8:	0901                	c.addi	s2,0
     2da:	0004                	0x4
     2dc:	0501                	c.addi	a0,0
     2de:	0601                	c.addi	a2,0
     2e0:	00090203          	lb	tp,0(s2)
     2e4:	0100                	c.addi4spn	s0,sp,128
     2e6:	0505                	c.addi	a0,1
     2e8:	0306                	c.slli	t1,0x1
     2ea:	0971                	c.addi	s2,28
     2ec:	0004                	0x4
     2ee:	0501                	c.addi	a0,0
     2f0:	0612                	c.slli	a2,0x4
     2f2:	00090003          	lb	zero,0(s2)
     2f6:	0100                	c.addi4spn	s0,sp,128
     2f8:	0805                	c.addi	a6,1
     2fa:	04090003          	lb	zero,64(s2)
     2fe:	0100                	c.addi4spn	s0,sp,128
     300:	0705                	c.addi	a4,1
     302:	0306                	c.slli	t1,0x1
     304:	0902                	c.slli64	s2
     306:	000c                	0xc
     308:	0501                	c.addi	a0,0
     30a:	0615                	c.addi	a2,5
     30c:	00090003          	lb	zero,0(s2)
     310:	0100                	c.addi4spn	s0,sp,128
     312:	0505                	c.addi	a0,1
     314:	0306                	c.slli	t1,0x1
     316:	0905                	c.addi	s2,1
     318:	000c                	0xc
     31a:	0501                	c.addi	a0,0
     31c:	00030613          	addi	a2,t1,0
     320:	0009                	c.addi	zero,2
     322:	0100                	c.addi4spn	s0,sp,128
     324:	0505                	c.addi	a0,1
     326:	0306                	c.slli	t1,0x1
     328:	0901                	c.addi	s2,0
     32a:	0008                	0x8
     32c:	0501                	c.addi	a0,0
     32e:	0301                	c.addi	t1,0
     330:	7efe                	c.flwsp	ft9,252(sp)
     332:	0409                	c.addi	s0,2
     334:	0100                	c.addi4spn	s0,sp,128
     336:	0705                	c.addi	a4,1
     338:	00090103          	lb	sp,0(s2)
     33c:	0100                	c.addi4spn	s0,sp,128
     33e:	0305                	c.addi	t1,1
     340:	0306                	c.slli	t1,0x1
     342:	0905                	c.addi	s2,1
     344:	0000                	c.unimp
     346:	0501                	c.addi	a0,0
     348:	0301                	c.addi	t1,0
     34a:	097a                	c.slli	s2,0x1e
     34c:	0008                	0x8
     34e:	0501                	c.addi	a0,0
     350:	09060303          	lb	t1,144(a2)
     354:	0008                	0x8
     356:	0501                	c.addi	a0,0
     358:	097b0313          	addi	t1,s6,151
     35c:	0004                	0x4
     35e:	0501                	c.addi	a0,0
     360:	05030603          	lb	a2,80(t1)
     364:	0409                	c.addi	s0,2
     366:	0100                	c.addi4spn	s0,sp,128
     368:	0105                	c.addi	sp,1
     36a:	0306                	c.slli	t1,0x1
     36c:	097a                	c.slli	s2,0x1e
     36e:	0028                	c.addi4spn	a0,sp,8
     370:	0501                	c.addi	a0,0
     372:	09060303          	lb	t1,144(a2)
     376:	0008                	0x8
     378:	0501                	c.addi	a0,0
     37a:	0326                	c.slli	t1,0x9
     37c:	00040903          	lb	s2,0(s0) # 9000 <__stack_size-0x1ff7000>
     380:	0501                	c.addi	a0,0
     382:	097d0303          	lb	t1,151(s10) # 37372097 <__stack_size+0x35372097>
     386:	0004                	0x4
     388:	0601                	c.addi	a2,0
     38a:	04090103          	lb	sp,64(s2)
     38e:	0100                	c.addi4spn	s0,sp,128
     390:	0306                	c.slli	t1,0x1
     392:	097f                	0x97f
     394:	0000                	c.unimp
     396:	0501                	c.addi	a0,0
     398:	09010327          	0x9010327
     39c:	0024                	c.addi4spn	s1,sp,8
     39e:	0501                	c.addi	a0,0
     3a0:	01030603          	lb	a2,16(t1)
     3a4:	0809                	c.addi	a6,2
     3a6:	0100                	c.addi4spn	s0,sp,128
     3a8:	1905                	c.addi	s2,-31
     3aa:	0306                	c.slli	t1,0x1
     3ac:	0901                	c.addi	s2,0
     3ae:	0000                	c.unimp
     3b0:	0501                	c.addi	a0,0
     3b2:	031c                	c.addi4spn	a5,sp,384
     3b4:	0931                	c.addi	s2,12
     3b6:	0004                	0x4
     3b8:	0501                	c.addi	a0,0
     3ba:	09010303          	lb	t1,144(sp)
     3be:	0004                	0x4
     3c0:	0501                	c.addi	a0,0
     3c2:	0320                	c.addi4spn	s0,sp,392
     3c4:	00d5                	c.addi	ra,21
     3c6:	0409                	c.addi	s0,2
     3c8:	0100                	c.addi4spn	s0,sp,128
     3ca:	1205                	c.addi	tp,-31
     3cc:	097faa03          	lw	s4,151(t6)
     3d0:	0004                	0x4
     3d2:	0501                	c.addi	a0,0
     3d4:	0310                	c.addi4spn	a2,sp,384
     3d6:	00d6                	c.slli	ra,0x15
     3d8:	0409                	c.addi	s0,2
     3da:	0100                	c.addi4spn	s0,sp,128
     3dc:	2005                	c.jal	3fc <__stack_size-0x1fffc04>
     3de:	04090003          	lb	zero,64(s2)
     3e2:	0100                	c.addi4spn	s0,sp,128
     3e4:	2705                	c.jal	b04 <__stack_size-0x1fff4fc>
     3e6:	097ef803          	0x97ef803
     3ea:	0004                	0x4
     3ec:	0501                	c.addi	a0,0
     3ee:	01030603          	lb	a2,16(t1)
     3f2:	0409                	c.addi	s0,2
     3f4:	0100                	c.addi4spn	s0,sp,128
     3f6:	00090103          	lb	sp,0(s2)
     3fa:	0100                	c.addi4spn	s0,sp,128
     3fc:	00092e03          	lw	t3,0(s2)
     400:	0100                	c.addi4spn	s0,sp,128
     402:	0505                	c.addi	a0,1
     404:	00090203          	lb	tp,0(s2)
     408:	0100                	c.addi4spn	s0,sp,128
     40a:	0305                	c.addi	t1,1
     40c:	00090103          	lb	sp,0(s2)
     410:	0100                	c.addi4spn	s0,sp,128
     412:	0900d203          	lhu	tp,144(ra)
     416:	0000                	c.unimp
     418:	0301                	c.addi	t1,0
     41a:	0902                	c.slli64	s2
     41c:	0000                	c.unimp
     41e:	0301                	c.addi	t1,0
     420:	0901                	c.addi	s2,0
     422:	0000                	c.unimp
     424:	0501                	c.addi	a0,0
     426:	0610                	c.addi4spn	a2,sp,768
     428:	00090003          	lb	zero,0(s2)
     42c:	0100                	c.addi4spn	s0,sp,128
     42e:	0305                	c.addi	t1,1
     430:	0306                	c.slli	t1,0x1
     432:	7efd                	c.lui	t4,0xfffff
     434:	0409                	c.addi	s0,2
     436:	0100                	c.addi4spn	s0,sp,128
     438:	0605                	c.addi	a2,1
     43a:	0306                	c.slli	t1,0x1
     43c:	0900                	c.addi4spn	s0,sp,144
     43e:	0000                	c.unimp
     440:	0501                	c.addi	a0,0
     442:	0605                	c.addi	a2,1
     444:	08090a03          	lb	s4,128(s2)
     448:	0100                	c.addi4spn	s0,sp,128
     44a:	0105                	c.addi	sp,1
     44c:	0306                	c.slli	t1,0x1
     44e:	0901                	c.addi	s2,0
     450:	0004                	0x4
     452:	0501                	c.addi	a0,0
     454:	0305                	c.addi	t1,1
     456:	097f                	0x97f
     458:	0008                	0x8
     45a:	0501                	c.addi	a0,0
     45c:	0301                	c.addi	t1,0
     45e:	0901                	c.addi	s2,0
     460:	0060                	c.addi4spn	s0,sp,12
     462:	0501                	c.addi	a0,0
     464:	0605                	c.addi	a2,1
     466:	0c097803          	0xc097803
     46a:	0100                	c.addi4spn	s0,sp,128
     46c:	0306                	c.slli	t1,0x1
     46e:	0901                	c.addi	s2,0
     470:	0000                	c.unimp
     472:	0501                	c.addi	a0,0
     474:	0329                	c.addi	t1,10
     476:	097f                	0x97f
     478:	0004                	0x4
     47a:	0501                	c.addi	a0,0
     47c:	0605                	c.addi	a2,1
     47e:	08090103          	lb	sp,128(s2)
     482:	0100                	c.addi4spn	s0,sp,128
     484:	08090203          	lb	tp,128(s2)
     488:	0100                	c.addi4spn	s0,sp,128
     48a:	1005                	c.addi	zero,-31
     48c:	0306                	c.slli	t1,0x1
     48e:	00fd                	c.addi	ra,31
     490:	0009                	c.addi	zero,2
     492:	0100                	c.addi4spn	s0,sp,128
     494:	1b05                	c.addi	s6,-31
     496:	097f8303          	lb	t1,151(t6)
     49a:	0004                	0x4
     49c:	0501                	c.addi	a0,0
     49e:	0605                	c.addi	a2,1
     4a0:	04090103          	lb	sp,64(s2)
     4a4:	0100                	c.addi4spn	s0,sp,128
     4a6:	0305                	c.addi	t1,1
     4a8:	0900f903          	0x900f903
     4ac:	0000                	c.unimp
     4ae:	0301                	c.addi	t1,0
     4b0:	0902                	c.slli64	s2
     4b2:	0000                	c.unimp
     4b4:	0301                	c.addi	t1,0
     4b6:	0901                	c.addi	s2,0
     4b8:	0000                	c.unimp
     4ba:	0501                	c.addi	a0,0
     4bc:	0601                	c.addi	a2,0
     4be:	097f8803          	lb	a6,151(t6)
     4c2:	0000                	c.unimp
     4c4:	0501                	c.addi	a0,0
     4c6:	0310                	c.addi4spn	a2,sp,384
     4c8:	00f8                	c.addi4spn	a4,sp,76
     4ca:	0409                	c.addi	s0,2
     4cc:	0100                	c.addi4spn	s0,sp,128
     4ce:	0105                	c.addi	sp,1
     4d0:	097f8803          	lb	a6,151(t6)
     4d4:	0004                	0x4
     4d6:	0501                	c.addi	a0,0
     4d8:	0625                	c.addi	a2,9
     4da:	0900f403          	0x900f403
     4de:	0010                	0x10
     4e0:	0501                	c.addi	a0,0
     4e2:	09010303          	lb	t1,144(sp)
     4e6:	0000                	c.unimp
     4e8:	0301                	c.addi	t1,0
     4ea:	0902                	c.slli64	s2
     4ec:	0000                	c.unimp
     4ee:	0301                	c.addi	t1,0
     4f0:	0901                	c.addi	s2,0
     4f2:	0000                	c.unimp
     4f4:	0501                	c.addi	a0,0
     4f6:	7f03060b          	0x7f03060b
     4fa:	0009                	c.addi	zero,2
     4fc:	0100                	c.addi4spn	s0,sp,128
     4fe:	2005                	c.jal	51e <__stack_size-0x1fffae2>
     500:	04090103          	lb	sp,64(s2)
     504:	0100                	c.addi4spn	s0,sp,128
     506:	1005                	c.addi	zero,-31
     508:	04090003          	lb	zero,64(s2)
     50c:	0100                	c.addi4spn	s0,sp,128
     50e:	0105                	c.addi	sp,1
     510:	04090103          	lb	sp,64(s2)
     514:	0100                	c.addi4spn	s0,sp,128
     516:	0306                	c.slli	t1,0x1
     518:	0004090b          	0x4090b
     51c:	0501                	c.addi	a0,0
     51e:	09010303          	lb	t1,144(sp)
     522:	0000                	c.unimp
     524:	0301                	c.addi	t1,0
     526:	0901                	c.addi	s2,0
     528:	0000                	c.unimp
     52a:	0301                	c.addi	t1,0
     52c:	0902                	c.slli64	s2
     52e:	0000                	c.unimp
     530:	0501                	c.addi	a0,0
     532:	0003060b          	0x3060b
     536:	0009                	c.addi	zero,2
     538:	0100                	c.addi4spn	s0,sp,128
     53a:	0305                	c.addi	t1,1
     53c:	0306                	c.slli	t1,0x1
     53e:	0901                	c.addi	s2,0
     540:	0004                	0x4
     542:	0501                	c.addi	a0,0
     544:	0612                	c.slli	a2,0x4
     546:	00090403          	lb	s0,0(s2)
     54a:	0100                	c.addi4spn	s0,sp,128
     54c:	1005                	c.addi	zero,-31
     54e:	14097c03          	0x14097c03
     552:	0100                	c.addi4spn	s0,sp,128
     554:	1a05                	c.addi	s4,-31
     556:	10090003          	lb	zero,256(s2)
     55a:	0100                	c.addi4spn	s0,sp,128
     55c:	0305                	c.addi	t1,1
     55e:	0306                	c.slli	t1,0x1
     560:	0901                	c.addi	s2,0
     562:	0004                	0x4
     564:	0501                	c.addi	a0,0
     566:	061e                	c.slli	a2,0x7
     568:	00090003          	lb	zero,0(s2)
     56c:	0100                	c.addi4spn	s0,sp,128
     56e:	0305                	c.addi	t1,1
     570:	0306                	c.slli	t1,0x1
     572:	0901                	c.addi	s2,0
     574:	0004                	0x4
     576:	0501                	c.addi	a0,0
     578:	061f 0003 0009      	0x90003061f
     57e:	0100                	c.addi4spn	s0,sp,128
     580:	0305                	c.addi	t1,1
     582:	0306                	c.slli	t1,0x1
     584:	0901                	c.addi	s2,0
     586:	0004                	0x4
     588:	0501                	c.addi	a0,0
     58a:	09000327          	0x9000327
     58e:	0000                	c.unimp
     590:	0501                	c.addi	a0,0
     592:	0305                	c.addi	t1,1
     594:	0901                	c.addi	s2,0
     596:	0000                	c.unimp
     598:	0501                	c.addi	a0,0
     59a:	01030627          	0x1030627
     59e:	0409                	c.addi	s0,2
     5a0:	0100                	c.addi4spn	s0,sp,128
     5a2:	04097f03          	0x4097f03
     5a6:	0100                	c.addi4spn	s0,sp,128
     5a8:	3705                	c.jal	4c8 <__stack_size-0x1fffb38>
     5aa:	0306                	c.slli	t1,0x1
     5ac:	097f                	0x97f
     5ae:	0004                	0x4
     5b0:	0501                	c.addi	a0,0
     5b2:	09000327          	0x9000327
     5b6:	0000                	c.unimp
     5b8:	0501                	c.addi	a0,0
     5ba:	0305                	c.addi	t1,1
     5bc:	0901                	c.addi	s2,0
     5be:	0000                	c.unimp
     5c0:	0501                	c.addi	a0,0
     5c2:	00030627          	0x30627
     5c6:	0009                	c.addi	zero,2
     5c8:	0100                	c.addi4spn	s0,sp,128
     5ca:	3705                	c.jal	4ea <__stack_size-0x1fffb16>
     5cc:	0306                	c.slli	t1,0x1
     5ce:	097f                	0x97f
     5d0:	0004                	0x4
     5d2:	0501                	c.addi	a0,0
     5d4:	09000327          	0x9000327
     5d8:	0000                	c.unimp
     5da:	0501                	c.addi	a0,0
     5dc:	09020303          	lb	t1,144(tp) # 90 <__stack_size-0x1ffff70>
     5e0:	0000                	c.unimp
     5e2:	0501                	c.addi	a0,0
     5e4:	00030627          	0x30627
     5e8:	0009                	c.addi	zero,2
     5ea:	0100                	c.addi4spn	s0,sp,128
     5ec:	0305                	c.addi	t1,1
     5ee:	0306                	c.slli	t1,0x1
     5f0:	0901                	c.addi	s2,0
     5f2:	0008                	0x8
     5f4:	0501                	c.addi	a0,0
     5f6:	00030637          	lui	a2,0x30
     5fa:	0009                	c.addi	zero,2
     5fc:	0100                	c.addi4spn	s0,sp,128
     5fe:	2805                	c.jal	62e <__stack_size-0x1fff9d2>
     600:	04090003          	lb	zero,64(s2)
     604:	0100                	c.addi4spn	s0,sp,128
     606:	0305                	c.addi	t1,1
     608:	0306                	c.slli	t1,0x1
     60a:	0901                	c.addi	s2,0
     60c:	0014                	0x14
     60e:	0501                	c.addi	a0,0
     610:	060c                	c.addi4spn	a1,sp,768
     612:	00090003          	lb	zero,0(s2)
     616:	0100                	c.addi4spn	s0,sp,128
     618:	0105                	c.addi	sp,1
     61a:	0c090103          	lb	sp,192(s2)
     61e:	0100                	c.addi4spn	s0,sp,128
     620:	0306                	c.slli	t1,0x1
     622:	0004090b          	0x4090b
     626:	0501                	c.addi	a0,0
     628:	09010303          	lb	t1,144(sp)
     62c:	0000                	c.unimp
     62e:	0301                	c.addi	t1,0
     630:	0901                	c.addi	s2,0
     632:	0000                	c.unimp
     634:	0301                	c.addi	t1,0
     636:	0902                	c.slli64	s2
     638:	0000                	c.unimp
     63a:	0501                	c.addi	a0,0
     63c:	0601                	c.addi	a2,0
     63e:	00097c03          	0x97c03
     642:	0100                	c.addi4spn	s0,sp,128
     644:	0305                	c.addi	t1,1
     646:	0306                	c.slli	t1,0x1
     648:	0905                	c.addi	s2,1
     64a:	0004                	0x4
     64c:	0301                	c.addi	t1,0
     64e:	0901                	c.addi	s2,0
     650:	0000                	c.unimp
     652:	0501                	c.addi	a0,0
     654:	0601                	c.addi	a2,0
     656:	00097a03          	0x97a03
     65a:	0100                	c.addi4spn	s0,sp,128
     65c:	0605                	c.addi	a2,1
     65e:	04090603          	lb	a2,64(s2)
     662:	0100                	c.addi4spn	s0,sp,128
     664:	0c05                	c.addi	s8,1
     666:	04090203          	lb	tp,64(s2)
     66a:	0100                	c.addi4spn	s0,sp,128
     66c:	0105                	c.addi	sp,1
     66e:	04090603          	lb	a2,64(s2)
     672:	0100                	c.addi4spn	s0,sp,128
     674:	0505                	c.addi	a0,1
     676:	0306                	c.slli	t1,0x1
     678:	097d                	c.addi	s2,31
     67a:	0004                	0x4
     67c:	0501                	c.addi	a0,0
     67e:	0003060f          	0x3060f
     682:	0009                	c.addi	zero,2
     684:	0100                	c.addi4spn	s0,sp,128
     686:	0505                	c.addi	a0,1
     688:	0306                	c.slli	t1,0x1
     68a:	0901                	c.addi	s2,0
     68c:	0008                	0x8
     68e:	0501                	c.addi	a0,0
     690:	060c                	c.addi4spn	a1,sp,768
     692:	00090003          	lb	zero,0(s2)
     696:	0100                	c.addi4spn	s0,sp,128
     698:	0105                	c.addi	sp,1
     69a:	0306                	c.slli	t1,0x1
     69c:	090c                	c.addi4spn	a1,sp,144
     69e:	0008                	0x8
     6a0:	0501                	c.addi	a0,0
     6a2:	09010303          	lb	t1,144(sp)
     6a6:	0000                	c.unimp
     6a8:	0301                	c.addi	t1,0
     6aa:	0901                	c.addi	s2,0
     6ac:	0000                	c.unimp
     6ae:	0301                	c.addi	t1,0
     6b0:	0902                	c.slli64	s2
     6b2:	0000                	c.unimp
     6b4:	0301                	c.addi	t1,0
     6b6:	0901                	c.addi	s2,0
     6b8:	0000                	c.unimp
     6ba:	0501                	c.addi	a0,0
     6bc:	0312                	c.slli	t1,0x4
     6be:	0900                	c.addi4spn	s0,sp,144
     6c0:	0000                	c.unimp
     6c2:	0501                	c.addi	a0,0
     6c4:	0601                	c.addi	a2,0
     6c6:	00097b03          	0x97b03
     6ca:	0100                	c.addi4spn	s0,sp,128
     6cc:	1d05                	c.addi	s10,-31
     6ce:	08090603          	lb	a2,128(s2)
     6d2:	0100                	c.addi4spn	s0,sp,128
     6d4:	3505                	c.jal	4f4 <__stack_size-0x1fffb0c>
     6d6:	04090003          	lb	zero,64(s2)
     6da:	0100                	c.addi4spn	s0,sp,128
     6dc:	0105                	c.addi	sp,1
     6de:	04097a03          	0x4097a03
     6e2:	0100                	c.addi4spn	s0,sp,128
     6e4:	3505                	c.jal	504 <__stack_size-0x1fffafc>
     6e6:	04090603          	lb	a2,64(s2)
     6ea:	0100                	c.addi4spn	s0,sp,128
     6ec:	0505                	c.addi	a0,1
     6ee:	0306                	c.slli	t1,0x1
     6f0:	0900                	c.addi4spn	s0,sp,144
     6f2:	0004                	0x4
     6f4:	0501                	c.addi	a0,0
     6f6:	09630303          	lb	t1,150(t1)
     6fa:	0000                	c.unimp
     6fc:	0301                	c.addi	t1,0
     6fe:	0901                	c.addi	s2,0
     700:	0000                	c.unimp
     702:	0301                	c.addi	t1,0
     704:	0902                	c.slli64	s2
     706:	0000                	c.unimp
     708:	0301                	c.addi	t1,0
     70a:	0901                	c.addi	s2,0
     70c:	0000                	c.unimp
     70e:	0301                	c.addi	t1,0
     710:	0901                	c.addi	s2,0
     712:	0000                	c.unimp
     714:	0501                	c.addi	a0,0
     716:	0606                	c.slli	a2,0x1
     718:	00090003          	lb	zero,0(s2)
     71c:	0100                	c.addi4spn	s0,sp,128
     71e:	1205                	c.addi	tp,-31
     720:	0306                	c.slli	t1,0x1
     722:	00100917          	auipc	s2,0x100
     726:	0501                	c.addi	a0,0
     728:	09070303          	lb	t1,144(a4)
     72c:	0000                	c.unimp
     72e:	0301                	c.addi	t1,0
     730:	00000903          	lb	s2,0(zero) # 0 <__stack_size-0x2000000>
     734:	0501                	c.addi	a0,0
     736:	0305                	c.addi	t1,1
     738:	0905                	c.addi	s2,1
     73a:	0000                	c.unimp
     73c:	0501                	c.addi	a0,0
     73e:	0609                	c.addi	a2,2
     740:	00090003          	lb	zero,0(s2) # 100722 <__stack_size-0x1eff8de>
     744:	0100                	c.addi4spn	s0,sp,128
     746:	0e05                	c.addi	t3,1
     748:	04090503          	lb	a0,64(s2)
     74c:	0100                	c.addi4spn	s0,sp,128
     74e:	0805                	c.addi	a6,1
     750:	04097b03          	0x4097b03
     754:	0100                	c.addi4spn	s0,sp,128
     756:	0705                	c.addi	a4,1
     758:	0306                	c.slli	t1,0x1
     75a:	0901                	c.addi	s2,0
     75c:	0004                	0x4
     75e:	0301                	c.addi	t1,0
     760:	0901                	c.addi	s2,0
     762:	0000                	c.unimp
     764:	0501                	c.addi	a0,0
     766:	0610                	c.addi4spn	a2,sp,768
     768:	00090003          	lb	zero,0(s2)
     76c:	0100                	c.addi4spn	s0,sp,128
     76e:	0705                	c.addi	a4,1
     770:	0306                	c.slli	t1,0x1
     772:	0901                	c.addi	s2,0
     774:	000c                	0xc
     776:	0501                	c.addi	a0,0
     778:	060e                	c.slli	a2,0x3
     77a:	00090003          	lb	zero,0(s2)
     77e:	0100                	c.addi4spn	s0,sp,128
     780:	0105                	c.addi	sp,1
     782:	04090403          	lb	s0,64(s2)
     786:	0100                	c.addi4spn	s0,sp,128
     788:	0306                	c.slli	t1,0x1
     78a:	001c0907          	0x1c0907
     78e:	0501                	c.addi	a0,0
     790:	09010303          	lb	t1,144(sp)
     794:	0000                	c.unimp
     796:	0301                	c.addi	t1,0
     798:	0902                	c.slli64	s2
     79a:	0000                	c.unimp
     79c:	0301                	c.addi	t1,0
     79e:	0901                	c.addi	s2,0
     7a0:	0000                	c.unimp
     7a2:	0501                	c.addi	a0,0
     7a4:	0606                	c.slli	a2,0x1
     7a6:	00090003          	lb	zero,0(s2)
     7aa:	0100                	c.addi4spn	s0,sp,128
     7ac:	0105                	c.addi	sp,1
     7ae:	04090503          	lb	a0,64(s2)
     7b2:	0100                	c.addi4spn	s0,sp,128
     7b4:	1905                	c.addi	s2,-31
     7b6:	0306                	c.slli	t1,0x1
     7b8:	00080903          	lb	s2,0(a6)
     7bc:	0501                	c.addi	a0,0
     7be:	09010303          	lb	t1,144(sp)
     7c2:	0000                	c.unimp
     7c4:	0501                	c.addi	a0,0
     7c6:	0606                	c.slli	a2,0x1
     7c8:	00090003          	lb	zero,0(s2)
     7cc:	0100                	c.addi4spn	s0,sp,128
     7ce:	0505                	c.addi	a0,1
     7d0:	0306                	c.slli	t1,0x1
     7d2:	0901                	c.addi	s2,0
     7d4:	0004                	0x4
     7d6:	0501                	c.addi	a0,0
     7d8:	060a                	c.slli	a2,0x2
     7da:	00090003          	lb	zero,0(s2)
     7de:	0100                	c.addi4spn	s0,sp,128
     7e0:	0305                	c.addi	t1,1
     7e2:	0306                	c.slli	t1,0x1
     7e4:	0901                	c.addi	s2,0
     7e6:	0008                	0x8
     7e8:	0501                	c.addi	a0,0
     7ea:	0601                	c.addi	a2,0
     7ec:	00090103          	lb	sp,0(s2)
     7f0:	0100                	c.addi4spn	s0,sp,128
     7f2:	0409                	c.addi	s0,2
     7f4:	0000                	c.unimp
     7f6:	0101                	c.addi	sp,0
     7f8:	0105                	c.addi	sp,1
     7fa:	0500                	c.addi4spn	s0,sp,640
     7fc:	2802                	c.fldsp	fa6,0(sp)
     7fe:	0000                	c.unimp
     800:	0380                	c.addi4spn	s0,sp,448
     802:	05d4                	c.addi4spn	a3,sp,708
     804:	0501                	c.addi	a0,0
     806:	09020303          	lb	t1,144(tp) # 90 <__stack_size-0x1ffff70>
     80a:	0000                	c.unimp
     80c:	0501                	c.addi	a0,0
     80e:	0601                	c.addi	a2,0
     810:	00097e03          	0x97e03
     814:	0100                	c.addi4spn	s0,sp,128
     816:	0305                	c.addi	t1,1
     818:	38090203          	lb	tp,896(s2)
     81c:	0100                	c.addi4spn	s0,sp,128
     81e:	0306                	c.slli	t1,0x1
     820:	0901                	c.addi	s2,0
     822:	0004                	0x4
     824:	0301                	c.addi	t1,0
     826:	0901                	c.addi	s2,0
     828:	0000                	c.unimp
     82a:	0301                	c.addi	t1,0
     82c:	0901                	c.addi	s2,0
     82e:	0000                	c.unimp
     830:	0301                	c.addi	t1,0
     832:	0901                	c.addi	s2,0
     834:	0000                	c.unimp
     836:	0301                	c.addi	t1,0
     838:	0901                	c.addi	s2,0
     83a:	0000                	c.unimp
     83c:	0301                	c.addi	t1,0
     83e:	0901                	c.addi	s2,0
     840:	0000                	c.unimp
     842:	0301                	c.addi	t1,0
     844:	0901                	c.addi	s2,0
     846:	0000                	c.unimp
     848:	0301                	c.addi	t1,0
     84a:	0901                	c.addi	s2,0
     84c:	0000                	c.unimp
     84e:	0301                	c.addi	t1,0
     850:	0901                	c.addi	s2,0
     852:	0000                	c.unimp
     854:	0301                	c.addi	t1,0
     856:	0902                	c.slli64	s2
     858:	0000                	c.unimp
     85a:	0301                	c.addi	t1,0
     85c:	0904                	c.addi4spn	s1,sp,144
     85e:	0000                	c.unimp
     860:	0301                	c.addi	t1,0
     862:	7dd8                	c.flw	fa4,60(a1)
     864:	0009                	c.addi	zero,2
     866:	0100                	c.addi4spn	s0,sp,128
     868:	2605                	c.jal	b88 <__stack_size-0x1fff478>
     86a:	00090003          	lb	zero,0(s2)
     86e:	0100                	c.addi4spn	s0,sp,128
     870:	0a05                	c.addi	s4,1
     872:	0306                	c.slli	t1,0x1
     874:	0900                	c.addi4spn	s0,sp,144
     876:	0000                	c.unimp
     878:	0501                	c.addi	a0,0
     87a:	0322                	c.slli	t1,0x8
     87c:	0900                	c.addi4spn	s0,sp,144
     87e:	0008                	0x8
     880:	0501                	c.addi	a0,0
     882:	0326                	c.slli	t1,0x9
     884:	0900                	c.addi4spn	s0,sp,144
     886:	0004                	0x4
     888:	0501                	c.addi	a0,0
     88a:	0605                	c.addi	a2,1
     88c:	08090103          	lb	sp,128(s2)
     890:	0100                	c.addi4spn	s0,sp,128
     892:	2205                	c.jal	9b2 <__stack_size-0x1fff64e>
     894:	0306                	c.slli	t1,0x1
     896:	097f                	0x97f
     898:	0000                	c.unimp
     89a:	0501                	c.addi	a0,0
     89c:	030d                	c.addi	t1,3
     89e:	0901                	c.addi	s2,0
     8a0:	0004                	0x4
     8a2:	0501                	c.addi	a0,0
     8a4:	0626                	c.slli	a2,0x9
     8a6:	04097f03          	0x4097f03
     8aa:	0100                	c.addi4spn	s0,sp,128
     8ac:	0305                	c.addi	t1,1
     8ae:	08090203          	lb	tp,128(s2)
     8b2:	0100                	c.addi4spn	s0,sp,128
     8b4:	00090103          	lb	sp,0(s2)
     8b8:	0100                	c.addi4spn	s0,sp,128
     8ba:	1105                	c.addi	sp,-31
     8bc:	0306                	c.slli	t1,0x1
     8be:	02a5                	c.addi	t0,9
     8c0:	0009                	c.addi	zero,2
     8c2:	0100                	c.addi4spn	s0,sp,128
     8c4:	2205                	c.jal	9e4 <__stack_size-0x1fff61c>
     8c6:	097dd803          	lhu	a6,151(s11)
     8ca:	0008                	0x8
     8cc:	0501                	c.addi	a0,0
     8ce:	030c                	c.addi4spn	a1,sp,384
     8d0:	00040903          	lb	s2,0(s0)
     8d4:	0501                	c.addi	a0,0
     8d6:	01030603          	lb	a2,16(t1)
     8da:	0409                	c.addi	s0,2
     8dc:	0100                	c.addi4spn	s0,sp,128
     8de:	0902a503          	lw	a0,144(t0)
     8e2:	0000                	c.unimp
     8e4:	0501                	c.addi	a0,0
     8e6:	0326                	c.slli	t1,0x9
     8e8:	00097dd7          	0x97dd7
     8ec:	0100                	c.addi4spn	s0,sp,128
     8ee:	0505                	c.addi	a0,1
     8f0:	08090103          	lb	sp,128(s2)
     8f4:	0100                	c.addi4spn	s0,sp,128
     8f6:	2205                	c.jal	a16 <__stack_size-0x1fff5ea>
     8f8:	0306                	c.slli	t1,0x1
     8fa:	097f                	0x97f
     8fc:	0000                	c.unimp
     8fe:	0501                	c.addi	a0,0
     900:	030d                	c.addi	t1,3
     902:	0901                	c.addi	s2,0
     904:	0004                	0x4
     906:	0501                	c.addi	a0,0
     908:	0626                	c.slli	a2,0x9
     90a:	04097f03          	0x4097f03
     90e:	0100                	c.addi4spn	s0,sp,128
     910:	0305                	c.addi	t1,1
     912:	08090203          	lb	tp,128(s2)
     916:	0100                	c.addi4spn	s0,sp,128
     918:	00090103          	lb	sp,0(s2)
     91c:	0100                	c.addi4spn	s0,sp,128
     91e:	0c05                	c.addi	s8,1
     920:	0306                	c.slli	t1,0x1
     922:	02a6                	c.slli	t0,0x9
     924:	0009                	c.addi	zero,2
     926:	0100                	c.addi4spn	s0,sp,128
     928:	1605                	c.addi	a2,-31
     92a:	08090203          	lb	tp,128(s2)
     92e:	0100                	c.addi4spn	s0,sp,128
     930:	2505                	c.jal	f50 <__stack_size-0x1fff0b0>
     932:	04090203          	lb	tp,64(s2)
     936:	0100                	c.addi4spn	s0,sp,128
     938:	0305                	c.addi	t1,1
     93a:	08090203          	lb	tp,128(s2)
     93e:	0100                	c.addi4spn	s0,sp,128
     940:	2405                	c.jal	b60 <__stack_size-0x1fff4a0>
     942:	04097f03          	0x4097f03
     946:	0100                	c.addi4spn	s0,sp,128
     948:	0c05                	c.addi	s8,1
     94a:	097dd503          	lhu	a0,151(s11)
     94e:	0004                	0x4
     950:	0501                	c.addi	a0,0
     952:	0324                	c.addi4spn	s1,sp,392
     954:	040902ab          	0x40902ab
     958:	0100                	c.addi4spn	s0,sp,128
     95a:	0305                	c.addi	t1,1
     95c:	04090103          	lb	sp,64(s2)
     960:	0100                	c.addi4spn	s0,sp,128
     962:	1305                	c.addi	t1,-31
     964:	08097d03          	0x8097d03
     968:	0100                	c.addi4spn	s0,sp,128
     96a:	0305                	c.addi	t1,1
     96c:	04090303          	lb	t1,64(s2)
     970:	0100                	c.addi4spn	s0,sp,128
     972:	0c05                	c.addi	s8,1
     974:	097dd403          	lhu	s0,151(s11)
     978:	0004                	0x4
     97a:	0501                	c.addi	a0,0
     97c:	01030603          	lb	a2,16(t1)
     980:	0409                	c.addi	s0,2
     982:	0100                	c.addi4spn	s0,sp,128
     984:	0902a703          	lw	a4,144(t0)
     988:	0000                	c.unimp
     98a:	0301                	c.addi	t1,0
     98c:	0901                	c.addi	s2,0
     98e:	0000                	c.unimp
     990:	0301                	c.addi	t1,0
     992:	0901                	c.addi	s2,0
     994:	0000                	c.unimp
     996:	0301                	c.addi	t1,0
     998:	0901                	c.addi	s2,0
     99a:	0000                	c.unimp
     99c:	0301                	c.addi	t1,0
     99e:	0901                	c.addi	s2,0
     9a0:	0000                	c.unimp
     9a2:	0301                	c.addi	t1,0
     9a4:	0901                	c.addi	s2,0
     9a6:	0004                	0x4
     9a8:	0501                	c.addi	a0,0
     9aa:	0614                	c.addi4spn	a3,sp,768
     9ac:	2c090203          	lb	tp,704(s2)
     9b0:	0100                	c.addi4spn	s0,sp,128
     9b2:	0305                	c.addi	t1,1
     9b4:	04090603          	lb	a2,64(s2)
     9b8:	0100                	c.addi4spn	s0,sp,128
     9ba:	1405                	c.addi	s0,-31
     9bc:	08097a03          	0x8097a03
     9c0:	0100                	c.addi4spn	s0,sp,128
     9c2:	0305                	c.addi	t1,1
     9c4:	04090603          	lb	a2,64(s2)
     9c8:	0100                	c.addi4spn	s0,sp,128
     9ca:	08097803          	0x8097803
     9ce:	0100                	c.addi4spn	s0,sp,128
     9d0:	0306                	c.slli	t1,0x1
     9d2:	0902                	c.slli64	s2
     9d4:	0004                	0x4
     9d6:	0501                	c.addi	a0,0
     9d8:	0614                	c.addi4spn	a3,sp,768
     9da:	00090003          	lb	zero,0(s2)
     9de:	0100                	c.addi4spn	s0,sp,128
     9e0:	0305                	c.addi	t1,1
     9e2:	04097e03          	0x4097e03
     9e6:	0100                	c.addi4spn	s0,sp,128
     9e8:	1405                	c.addi	s0,-31
     9ea:	20090203          	lb	tp,512(s2)
     9ee:	0100                	c.addi4spn	s0,sp,128
     9f0:	0305                	c.addi	t1,1
     9f2:	0306                	c.slli	t1,0x1
     9f4:	0906                	c.slli	s2,0x1
     9f6:	0004                	0x4
     9f8:	0301                	c.addi	t1,0
     9fa:	0902                	c.slli64	s2
     9fc:	0004                	0x4
     9fe:	0501                	c.addi	a0,0
     a00:	0605                	c.addi	a2,1
     a02:	00090303          	lb	t1,0(s2)
     a06:	0100                	c.addi4spn	s0,sp,128
     a08:	0805                	c.addi	a6,1
     a0a:	04097d03          	0x4097d03
     a0e:	0100                	c.addi4spn	s0,sp,128
     a10:	0505                	c.addi	a0,1
     a12:	04090303          	lb	t1,64(s2)
     a16:	0100                	c.addi4spn	s0,sp,128
     a18:	0805                	c.addi	a6,1
     a1a:	08097d03          	0x8097d03
     a1e:	0100                	c.addi4spn	s0,sp,128
     a20:	0305                	c.addi	t1,1
     a22:	0306                	c.slli	t1,0x1
     a24:	0901                	c.addi	s2,0
     a26:	0004                	0x4
     a28:	0501                	c.addi	a0,0
     a2a:	030a                	c.slli	t1,0x2
     a2c:	0900                	c.addi4spn	s0,sp,144
     a2e:	0000                	c.unimp
     a30:	0501                	c.addi	a0,0
     a32:	0305                	c.addi	t1,1
     a34:	0902                	c.slli64	s2
     a36:	0000                	c.unimp
     a38:	0301                	c.addi	t1,0
     a3a:	0906                	c.slli	s2,0x1
     a3c:	0004                	0x4
     a3e:	0501                	c.addi	a0,0
     a40:	09000323          	sb	a6,134(zero) # 86 <__stack_size-0x1ffff7a>
     a44:	0000                	c.unimp
     a46:	0501                	c.addi	a0,0
     a48:	07030607          	0x7030607
     a4c:	0809                	c.addi	a6,2
     a4e:	0100                	c.addi4spn	s0,sp,128
     a50:	0b05                	c.addi	s6,1
     a52:	14091703          	lh	a4,320(s2)
     a56:	0100                	c.addi4spn	s0,sp,128
     a58:	1405                	c.addi	s0,-31
     a5a:	04096203          	0x4096203
     a5e:	0100                	c.addi4spn	s0,sp,128
     a60:	0705                	c.addi	a4,1
     a62:	04090703          	lb	a4,64(s2)
     a66:	0100                	c.addi4spn	s0,sp,128
     a68:	0b05                	c.addi	s6,1
     a6a:	38091703          	lh	a4,896(s2)
     a6e:	0100                	c.addi4spn	s0,sp,128
     a70:	0705                	c.addi	a4,1
     a72:	04096903          	0x4096903
     a76:	0100                	c.addi4spn	s0,sp,128
     a78:	0306                	c.slli	t1,0x1
     a7a:	001c097b          	0x1c097b
     a7e:	0501                	c.addi	a0,0
     a80:	7e9b0303          	lb	t1,2025(s6)
     a84:	0009                	c.addi	zero,2
     a86:	0100                	c.addi4spn	s0,sp,128
     a88:	0d05                	c.addi	s10,1
     a8a:	0306                	c.slli	t1,0x1
     a8c:	0900                	c.addi4spn	s0,sp,144
     a8e:	0000                	c.unimp
     a90:	0501                	c.addi	a0,0
     a92:	01030603          	lb	a2,16(t1)
     a96:	0809                	c.addi	a6,2
     a98:	0100                	c.addi4spn	s0,sp,128
     a9a:	0705                	c.addi	a4,1
     a9c:	0901e503          	0x901e503
     aa0:	0000                	c.unimp
     aa2:	0501                	c.addi	a0,0
     aa4:	7e8f0303          	lb	t1,2024(t5)
     aa8:	0009                	c.addi	zero,2
     aaa:	0100                	c.addi4spn	s0,sp,128
     aac:	00090203          	lb	tp,0(s2)
     ab0:	0100                	c.addi4spn	s0,sp,128
     ab2:	00090103          	lb	sp,0(s2)
     ab6:	0100                	c.addi4spn	s0,sp,128
     ab8:	00090103          	lb	sp,0(s2)
     abc:	0100                	c.addi4spn	s0,sp,128
     abe:	0d05                	c.addi	s10,1
     ac0:	0306                	c.slli	t1,0x1
     ac2:	0900                	c.addi4spn	s0,sp,144
     ac4:	0000                	c.unimp
     ac6:	0501                	c.addi	a0,0
     ac8:	ef030607          	0xef030607
     acc:	0901                	c.addi	s2,0
     ace:	0008                	0x8
     ad0:	0301                	c.addi	t1,0
     ad2:	0901                	c.addi	s2,0
     ad4:	0000                	c.unimp
     ad6:	0301                	c.addi	t1,0
     ad8:	0901                	c.addi	s2,0
     ada:	0000                	c.unimp
     adc:	0501                	c.addi	a0,0
     ade:	061d                	c.addi	a2,7
     ae0:	097f9b03          	lh	s6,151(t6)
     ae4:	0004                	0x4
     ae6:	0501                	c.addi	a0,0
     ae8:	00e50307          	0xe50307
     aec:	0809                	c.addi	a6,2
     aee:	0100                	c.addi4spn	s0,sp,128
     af0:	0306                	c.slli	t1,0x1
     af2:	0901                	c.addi	s2,0
     af4:	0044                	c.addi4spn	s1,sp,4
     af6:	0301                	c.addi	t1,0
     af8:	0901                	c.addi	s2,0
     afa:	0000                	c.unimp
     afc:	0501                	c.addi	a0,0
     afe:	0312                	c.slli	t1,0x4
     b00:	7f98                	c.flw	fa4,56(a5)
     b02:	0009                	c.addi	zero,2
     b04:	0100                	c.addi4spn	s0,sp,128
     b06:	0605                	c.addi	a2,1
     b08:	0306                	c.slli	t1,0x1
     b0a:	0969                	c.addi	s2,26
     b0c:	0000                	c.unimp
     b0e:	0501                	c.addi	a0,0
     b10:	0605                	c.addi	a2,1
     b12:	04091803          	lh	a6,64(s2)
     b16:	0100                	c.addi4spn	s0,sp,128
     b18:	0305                	c.addi	t1,1
     b1a:	00096303          	0x96303
     b1e:	0100                	c.addi4spn	s0,sp,128
     b20:	00090103          	lb	sp,0(s2)
     b24:	0100                	c.addi4spn	s0,sp,128
     b26:	00090203          	lb	tp,0(s2)
     b2a:	0100                	c.addi4spn	s0,sp,128
     b2c:	00090103          	lb	sp,0(s2)
     b30:	0100                	c.addi4spn	s0,sp,128
     b32:	00090103          	lb	sp,0(s2)
     b36:	0100                	c.addi4spn	s0,sp,128
     b38:	0605                	c.addi	a2,1
     b3a:	0306                	c.slli	t1,0x1
     b3c:	0900                	c.addi4spn	s0,sp,144
     b3e:	0000                	c.unimp
     b40:	0501                	c.addi	a0,0
     b42:	0612                	c.slli	a2,0x4
     b44:	0c091703          	lh	a4,192(s2)
     b48:	0100                	c.addi4spn	s0,sp,128
     b4a:	0305                	c.addi	t1,1
     b4c:	00090703          	lb	a4,0(s2)
     b50:	0100                	c.addi4spn	s0,sp,128
     b52:	00090303          	lb	t1,0(s2)
     b56:	0100                	c.addi4spn	s0,sp,128
     b58:	0505                	c.addi	a0,1
     b5a:	00090503          	lb	a0,0(s2)
     b5e:	0100                	c.addi4spn	s0,sp,128
     b60:	0905                	c.addi	s2,1
     b62:	0306                	c.slli	t1,0x1
     b64:	0900                	c.addi4spn	s0,sp,144
     b66:	0000                	c.unimp
     b68:	0501                	c.addi	a0,0
     b6a:	09460327          	0x9460327
     b6e:	000c                	0xc
     b70:	0501                	c.addi	a0,0
     b72:	0309                	c.addi	t1,2
     b74:	093a                	c.slli	s2,0xe
     b76:	0004                	0x4
     b78:	0501                	c.addi	a0,0
     b7a:	00e60307          	0xe60307
     b7e:	0409                	c.addi	s0,2
     b80:	0100                	c.addi4spn	s0,sp,128
     b82:	1a05                	c.addi	s4,-31
     b84:	097edb03          	lhu	s6,151(t4) # fffff097 <_sp+0x77fff097>
     b88:	0004                	0x4
     b8a:	0501                	c.addi	a0,0
     b8c:	031f 0902 0004      	0x40902031f
     b92:	0501                	c.addi	a0,0
     b94:	09030327          	0x9030327
     b98:	0004                	0x4
     b9a:	0501                	c.addi	a0,0
     b9c:	0311                	c.addi	t1,4
     b9e:	04090193          	addi	gp,s2,64
     ba2:	0100                	c.addi4spn	s0,sp,128
     ba4:	1a05                	c.addi	s4,-31
     ba6:	097ee803          	0x97ee803
     baa:	0004                	0x4
     bac:	0501                	c.addi	a0,0
     bae:	031e                	c.slli	t1,0x7
     bb0:	0901                	c.addi	s2,0
     bb2:	0004                	0x4
     bb4:	0501                	c.addi	a0,0
     bb6:	0328                	c.addi4spn	a0,sp,392
     bb8:	0905                	c.addi	s2,1
     bba:	0004                	0x4
     bbc:	0501                	c.addi	a0,0
     bbe:	031f 097c 0004      	0x4097c031f
     bc4:	0501                	c.addi	a0,0
     bc6:	030c                	c.addi4spn	a1,sp,384
     bc8:	0905                	c.addi	s2,1
     bca:	0004                	0x4
     bcc:	0501                	c.addi	a0,0
     bce:	097e0327          	0x97e0327
     bd2:	0004                	0x4
     bd4:	0501                	c.addi	a0,0
     bd6:	030c                	c.addi4spn	a1,sp,384
     bd8:	0902                	c.slli64	s2
     bda:	0004                	0x4
     bdc:	0501                	c.addi	a0,0
     bde:	0311                	c.addi	t1,4
     be0:	0191                	c.addi	gp,4
     be2:	0409                	c.addi	s0,2
     be4:	0100                	c.addi4spn	s0,sp,128
     be6:	0705                	c.addi	a4,1
     be8:	0306                	c.slli	t1,0x1
     bea:	0902                	c.slli64	s2
     bec:	0004                	0x4
     bee:	0501                	c.addi	a0,0
     bf0:	0318                	c.addi4spn	a4,sp,384
     bf2:	0900                	c.addi4spn	s0,sp,144
     bf4:	0000                	c.unimp
     bf6:	0301                	c.addi	t1,0
     bf8:	0900                	c.addi4spn	s0,sp,144
     bfa:	0000                	c.unimp
     bfc:	0501                	c.addi	a0,0
     bfe:	09090307          	0x9090307
     c02:	0000                	c.unimp
     c04:	0501                	c.addi	a0,0
     c06:	7ed90303          	lb	t1,2029(s2)
     c0a:	0009                	c.addi	zero,2
     c0c:	0100                	c.addi4spn	s0,sp,128
     c0e:	00090103          	lb	sp,0(s2)
     c12:	0100                	c.addi4spn	s0,sp,128
     c14:	00090203          	lb	tp,0(s2)
     c18:	0100                	c.addi4spn	s0,sp,128
     c1a:	00090103          	lb	sp,0(s2)
     c1e:	0100                	c.addi4spn	s0,sp,128
     c20:	00090103          	lb	sp,0(s2)
     c24:	0100                	c.addi4spn	s0,sp,128
     c26:	00090103          	lb	sp,0(s2)
     c2a:	0100                	c.addi4spn	s0,sp,128
     c2c:	00090103          	lb	sp,0(s2)
     c30:	0100                	c.addi4spn	s0,sp,128
     c32:	2705                	c.jal	1352 <__stack_size-0x1ffecae>
     c34:	00090003          	lb	zero,0(s2)
     c38:	0100                	c.addi4spn	s0,sp,128
     c3a:	0505                	c.addi	a0,1
     c3c:	00090103          	lb	sp,0(s2)
     c40:	0100                	c.addi4spn	s0,sp,128
     c42:	2705                	c.jal	1362 <__stack_size-0x1ffec9e>
     c44:	0306                	c.slli	t1,0x1
     c46:	0900                	c.addi4spn	s0,sp,144
     c48:	0000                	c.unimp
     c4a:	0501                	c.addi	a0,0
     c4c:	7f030637          	lui	a2,0x7f030
     c50:	0409                	c.addi	s0,2
     c52:	0100                	c.addi4spn	s0,sp,128
     c54:	2705                	c.jal	1374 <__stack_size-0x1ffec8c>
     c56:	00090003          	lb	zero,0(s2)
     c5a:	0100                	c.addi4spn	s0,sp,128
     c5c:	0505                	c.addi	a0,1
     c5e:	00090103          	lb	sp,0(s2)
     c62:	0100                	c.addi4spn	s0,sp,128
     c64:	2705                	c.jal	1384 <__stack_size-0x1ffec7c>
     c66:	0306                	c.slli	t1,0x1
     c68:	0900                	c.addi4spn	s0,sp,144
     c6a:	0000                	c.unimp
     c6c:	0501                	c.addi	a0,0
     c6e:	7f030637          	lui	a2,0x7f030
     c72:	0409                	c.addi	s0,2
     c74:	0100                	c.addi4spn	s0,sp,128
     c76:	2705                	c.jal	1396 <__stack_size-0x1ffec6a>
     c78:	00090003          	lb	zero,0(s2)
     c7c:	0100                	c.addi4spn	s0,sp,128
     c7e:	0305                	c.addi	t1,1
     c80:	00090203          	lb	tp,0(s2)
     c84:	0100                	c.addi4spn	s0,sp,128
     c86:	00090103          	lb	sp,0(s2)
     c8a:	0100                	c.addi4spn	s0,sp,128
     c8c:	00090103          	lb	sp,0(s2)
     c90:	0100                	c.addi4spn	s0,sp,128
     c92:	0705                	c.addi	a4,1
     c94:	09019e03          	lh	t3,144(gp)
     c98:	0000                	c.unimp
     c9a:	0301                	c.addi	t1,0
     c9c:	0901                	c.addi	s2,0
     c9e:	0004                	0x4
     ca0:	0501                	c.addi	a0,0
     ca2:	0325                	c.addi	t1,9
     ca4:	0900                	c.addi4spn	s0,sp,144
     ca6:	0000                	c.unimp
     ca8:	0501                	c.addi	a0,0
     caa:	0615                	c.addi	a2,5
     cac:	10090003          	lb	zero,256(s2)
     cb0:	0100                	c.addi4spn	s0,sp,128
     cb2:	2505                	c.jal	12d2 <__stack_size-0x1ffed2e>
     cb4:	04090003          	lb	zero,64(s2)
     cb8:	0100                	c.addi4spn	s0,sp,128
     cba:	1005                	c.addi	zero,-31
     cbc:	04097103          	0x4097103
     cc0:	0100                	c.addi4spn	s0,sp,128
     cc2:	1105                	c.addi	sp,-31
     cc4:	04097e03          	0x4097e03
     cc8:	0100                	c.addi4spn	s0,sp,128
     cca:	0605                	c.addi	a2,1
     ccc:	097f8403          	lb	s0,151(t6)
     cd0:	0004                	0x4
     cd2:	0501                	c.addi	a0,0
     cd4:	04020033          	0x4020033
     cd8:	0602                	c.slli64	a2
     cda:	09018d03          	lb	s10,144(gp)
     cde:	0004                	0x4
     ce0:	0501                	c.addi	a0,0
     ce2:	0009                	c.addi	zero,2
     ce4:	0402                	c.slli64	s0
     ce6:	0302                	c.slli64	t1
     ce8:	00080903          	lb	s2,0(a6)
     cec:	0501                	c.addi	a0,0
     cee:	04020003          	lb	zero,64(tp) # 40 <__stack_size-0x1ffffc0>
     cf2:	0302                	c.slli64	t1
     cf4:	00097eeb          	0x97eeb
     cf8:	0100                	c.addi4spn	s0,sp,128
     cfa:	0200                	c.addi4spn	s0,sp,256
     cfc:	0204                	c.addi4spn	s1,sp,256
     cfe:	00090103          	lb	sp,0(s2)
     d02:	0100                	c.addi4spn	s0,sp,128
     d04:	0200                	c.addi4spn	s0,sp,256
     d06:	0204                	c.addi4spn	s1,sp,256
     d08:	00090203          	lb	tp,0(s2)
     d0c:	0100                	c.addi4spn	s0,sp,128
     d0e:	0200                	c.addi4spn	s0,sp,256
     d10:	0204                	c.addi4spn	s1,sp,256
     d12:	00090103          	lb	sp,0(s2)
     d16:	0100                	c.addi4spn	s0,sp,128
     d18:	0200                	c.addi4spn	s0,sp,256
     d1a:	0204                	c.addi4spn	s1,sp,256
     d1c:	00090103          	lb	sp,0(s2)
     d20:	0100                	c.addi4spn	s0,sp,128
     d22:	2505                	c.jal	1342 <__stack_size-0x1ffecbe>
     d24:	0200                	c.addi4spn	s0,sp,256
     d26:	0204                	c.addi4spn	s1,sp,256
     d28:	09018d03          	lb	s10,144(gp)
     d2c:	0000                	c.unimp
     d2e:	0501                	c.addi	a0,0
     d30:	060c                	c.addi4spn	a1,sp,768
     d32:	097ef503          	0x97ef503
     d36:	0004                	0x4
     d38:	0501                	c.addi	a0,0
     d3a:	0306                	c.slli	t1,0x1
     d3c:	097e                	c.slli	s2,0x1f
     d3e:	0004                	0x4
     d40:	0501                	c.addi	a0,0
     d42:	9303060b          	0x9303060b
     d46:	0901                	c.addi	s2,0
     d48:	0004                	0x4
     d4a:	0501                	c.addi	a0,0
     d4c:	7ea40303          	lb	t1,2026(s0)
     d50:	0009                	c.addi	zero,2
     d52:	0100                	c.addi4spn	s0,sp,128
     d54:	00090103          	lb	sp,0(s2)
     d58:	0100                	c.addi4spn	s0,sp,128
     d5a:	0505                	c.addi	a0,1
     d5c:	00090203          	lb	tp,0(s2)
     d60:	0100                	c.addi4spn	s0,sp,128
     d62:	0305                	c.addi	t1,1
     d64:	00090103          	lb	sp,0(s2)
     d68:	0100                	c.addi4spn	s0,sp,128
     d6a:	0505                	c.addi	a0,1
     d6c:	00090203          	lb	tp,0(s2)
     d70:	0100                	c.addi4spn	s0,sp,128
     d72:	00090103          	lb	sp,0(s2)
     d76:	0100                	c.addi4spn	s0,sp,128
     d78:	0b05                	c.addi	s6,1
     d7a:	0901d603          	lhu	a2,144(gp)
     d7e:	0000                	c.unimp
     d80:	0501                	c.addi	a0,0
     d82:	060c                	c.addi4spn	a1,sp,768
     d84:	00097c03          	0x97c03
     d88:	0100                	c.addi4spn	s0,sp,128
     d8a:	0b05                	c.addi	s6,1
     d8c:	04090403          	lb	s0,64(s2)
     d90:	0100                	c.addi4spn	s0,sp,128
     d92:	3305                	c.jal	ab2 <__stack_size-0x1fff54e>
     d94:	24097903          	0x24097903
     d98:	0100                	c.addi4spn	s0,sp,128
     d9a:	0b05                	c.addi	s6,1
     d9c:	04090703          	lb	a4,64(s2)
     da0:	0100                	c.addi4spn	s0,sp,128
     da2:	0306                	c.slli	t1,0x1
     da4:	0901                	c.addi	s2,0
     da6:	0024                	c.addi4spn	s1,sp,8
     da8:	0301                	c.addi	t1,0
     daa:	0901                	c.addi	s2,0
     dac:	0000                	c.unimp
     dae:	0501                	c.addi	a0,0
     db0:	77030633          	0x77030633
     db4:	0009                	c.addi	zero,2
     db6:	0100                	c.addi4spn	s0,sp,128
     db8:	1405                	c.addi	s0,-31
     dba:	04090903          	lb	s2,64(s2)
     dbe:	0100                	c.addi4spn	s0,sp,128
     dc0:	0b05                	c.addi	s6,1
     dc2:	04097e03          	0x4097e03
     dc6:	0100                	c.addi4spn	s0,sp,128
     dc8:	1305                	c.addi	t1,-31
     dca:	097ea903          	lw	s2,151(t4)
     dce:	0008                	0x8
     dd0:	0501                	c.addi	a0,0
     dd2:	d0030633          	0xd0030633
     dd6:	0901                	c.addi	s2,0
     dd8:	0004                	0x4
     dda:	0501                	c.addi	a0,0
     ddc:	0309                	c.addi	t1,2
     dde:	00000903          	lb	s2,0(zero) # 0 <__stack_size-0x2000000>
     de2:	0501                	c.addi	a0,0
     de4:	7eeb0303          	lb	t1,2030(s6)
     de8:	0009                	c.addi	zero,2
     dea:	0100                	c.addi4spn	s0,sp,128
     dec:	00090103          	lb	sp,0(s2)
     df0:	0100                	c.addi4spn	s0,sp,128
     df2:	00090203          	lb	tp,0(s2)
     df6:	0100                	c.addi4spn	s0,sp,128
     df8:	00090103          	lb	sp,0(s2)
     dfc:	0100                	c.addi4spn	s0,sp,128
     dfe:	00090103          	lb	sp,0(s2)
     e02:	0100                	c.addi4spn	s0,sp,128
     e04:	2505                	c.jal	1424 <__stack_size-0x1ffebdc>
     e06:	09018d03          	lb	s10,144(gp)
     e0a:	0000                	c.unimp
     e0c:	0501                	c.addi	a0,0
     e0e:	0611                	c.addi	a2,4
     e10:	18096f03          	0x18096f03
     e14:	0100                	c.addi4spn	s0,sp,128
     e16:	04091e03          	lh	t3,64(s2)
     e1a:	0100                	c.addi4spn	s0,sp,128
     e1c:	1d05                	c.addi	s10,-31
     e1e:	08090103          	lb	sp,128(s2)
     e22:	0100                	c.addi4spn	s0,sp,128
     e24:	2205                	c.jal	f44 <__stack_size-0x1fff0bc>
     e26:	14090103          	lb	sp,320(s2)
     e2a:	0100                	c.addi4spn	s0,sp,128
     e2c:	1105                	c.addi	sp,-31
     e2e:	04090003          	lb	zero,64(s2)
     e32:	0100                	c.addi4spn	s0,sp,128
     e34:	2205                	c.jal	f54 <__stack_size-0x1fff0ac>
     e36:	04090003          	lb	zero,64(s2)
     e3a:	0100                	c.addi4spn	s0,sp,128
     e3c:	1505                	c.addi	a0,-31
     e3e:	04090003          	lb	zero,64(s2)
     e42:	0100                	c.addi4spn	s0,sp,128
     e44:	1105                	c.addi	sp,-31
     e46:	08090003          	lb	zero,128(s2)
     e4a:	0100                	c.addi4spn	s0,sp,128
     e4c:	0705                	c.addi	a4,1
     e4e:	0200                	c.addi4spn	s0,sp,256
     e50:	0204                	c.addi4spn	s1,sp,256
     e52:	0306                	c.slli	t1,0x1
     e54:	097e                	c.slli	s2,0x1f
     e56:	0004                	0x4
     e58:	0001                	c.addi	zero,0
     e5a:	0402                	c.slli64	s0
     e5c:	0302                	c.slli64	t1
     e5e:	0901                	c.addi	s2,0
     e60:	0000                	c.unimp
     e62:	0001                	c.addi	zero,0
     e64:	0402                	c.slli64	s0
     e66:	0302                	c.slli64	t1
     e68:	0901                	c.addi	s2,0
     e6a:	0000                	c.unimp
     e6c:	0001                	c.addi	zero,0
     e6e:	0402                	c.slli64	s0
     e70:	0302                	c.slli64	t1
     e72:	0902                	c.slli64	s2
     e74:	0000                	c.unimp
     e76:	0501                	c.addi	a0,0
     e78:	04020003          	lb	zero,64(tp) # 40 <__stack_size-0x1ffffc0>
     e7c:	0302                	c.slli64	t1
     e7e:	7dc9                	c.lui	s11,0xffff2
     e80:	0009                	c.addi	zero,2
     e82:	0100                	c.addi4spn	s0,sp,128
     e84:	0200                	c.addi4spn	s0,sp,256
     e86:	0204                	c.addi4spn	s1,sp,256
     e88:	00090103          	lb	sp,0(s2)
     e8c:	0100                	c.addi4spn	s0,sp,128
     e8e:	0200                	c.addi4spn	s0,sp,256
     e90:	0204                	c.addi4spn	s1,sp,256
     e92:	00090203          	lb	tp,0(s2)
     e96:	0100                	c.addi4spn	s0,sp,128
     e98:	0200                	c.addi4spn	s0,sp,256
     e9a:	0204                	c.addi4spn	s1,sp,256
     e9c:	00090103          	lb	sp,0(s2)
     ea0:	0100                	c.addi4spn	s0,sp,128
     ea2:	0505                	c.addi	a0,1
     ea4:	0200                	c.addi4spn	s0,sp,256
     ea6:	0204                	c.addi4spn	s1,sp,256
     ea8:	00090103          	lb	sp,0(s2)
     eac:	0100                	c.addi4spn	s0,sp,128
     eae:	0805                	c.addi	a6,1
     eb0:	0200                	c.addi4spn	s0,sp,256
     eb2:	0204                	c.addi4spn	s1,sp,256
     eb4:	0306                	c.slli	t1,0x1
     eb6:	0900                	c.addi4spn	s0,sp,144
     eb8:	0000                	c.unimp
     eba:	0501                	c.addi	a0,0
     ebc:	03030607          	0x3030607
     ec0:	0809                	c.addi	a6,2
     ec2:	0100                	c.addi4spn	s0,sp,128
     ec4:	00090103          	lb	sp,0(s2)
     ec8:	0100                	c.addi4spn	s0,sp,128
     eca:	1e05                	c.addi	t3,-31
     ecc:	0306                	c.slli	t1,0x1
     ece:	0900                	c.addi4spn	s0,sp,144
     ed0:	0000                	c.unimp
     ed2:	0501                	c.addi	a0,0
     ed4:	097f030f          	0x97f030f
     ed8:	0004                	0x4
     eda:	0501                	c.addi	a0,0
     edc:	031e                	c.slli	t1,0x7
     ede:	0901                	c.addi	s2,0
     ee0:	0004                	0x4
     ee2:	0501                	c.addi	a0,0
     ee4:	01030607          	0x1030607
     ee8:	0409                	c.addi	s0,2
     eea:	0100                	c.addi4spn	s0,sp,128
     eec:	1305                	c.addi	t1,-31
     eee:	00090203          	lb	tp,0(s2)
     ef2:	0100                	c.addi4spn	s0,sp,128
     ef4:	3605                	c.jal	a14 <__stack_size-0x1fff5ec>
     ef6:	09028303          	lb	t1,144(t0)
     efa:	0000                	c.unimp
     efc:	0501                	c.addi	a0,0
     efe:	09000323          	sb	a6,134(zero) # 86 <__stack_size-0x1ffff7a>
     f02:	0004                	0x4
     f04:	0501                	c.addi	a0,0
     f06:	0608                	c.addi4spn	a0,sp,768
     f08:	08093403          	0x8093403
     f0c:	0100                	c.addi4spn	s0,sp,128
     f0e:	0a05                	c.addi	s4,1
     f10:	04097d03          	0x4097d03
     f14:	0100                	c.addi4spn	s0,sp,128
     f16:	0605                	c.addi	a2,1
     f18:	097f9a03          	lh	s4,151(t6)
     f1c:	000c                	0xc
     f1e:	0501                	c.addi	a0,0
     f20:	0308                	c.addi4spn	a0,sp,384
     f22:	00e9                	c.addi	ra,26
     f24:	0409                	c.addi	s0,2
     f26:	0100                	c.addi4spn	s0,sp,128
     f28:	0505                	c.addi	a0,1
     f2a:	0306                	c.slli	t1,0x1
     f2c:	097d                	c.addi	s2,31
     f2e:	0008                	0x8
     f30:	0501                	c.addi	a0,0
     f32:	030a                	c.slli	t1,0x2
     f34:	00000947          	fmsub.s	fs2,ft0,ft0,ft0,rne
     f38:	0501                	c.addi	a0,0
     f3a:	093c0303          	lb	t1,147(s8)
     f3e:	0000                	c.unimp
     f40:	0301                	c.addi	t1,0
     f42:	00097f97          	auipc	t6,0x97
     f46:	0100                	c.addi4spn	s0,sp,128
     f48:	0605                	c.addi	a2,1
     f4a:	0306                	c.slli	t1,0x1
     f4c:	0900                	c.addi4spn	s0,sp,144
     f4e:	0000                	c.unimp
     f50:	0501                	c.addi	a0,0
     f52:	0605                	c.addi	a2,1
     f54:	08090103          	lb	sp,128(s2)
     f58:	0100                	c.addi4spn	s0,sp,128
     f5a:	0306                	c.slli	t1,0x1
     f5c:	00e9                	c.addi	ra,26
     f5e:	0009                	c.addi	zero,2
     f60:	0100                	c.addi4spn	s0,sp,128
     f62:	0a05                	c.addi	s4,1
     f64:	097f9703          	lh	a4,151(t6) # 97fd9 <__stack_size-0x1f68027>
     f68:	0008                	0x8
     f6a:	0501                	c.addi	a0,0
     f6c:	01030603          	lb	a2,16(t1)
     f70:	0c09                	c.addi	s8,2
     f72:	0100                	c.addi4spn	s0,sp,128
     f74:	0505                	c.addi	a0,1
     f76:	0900e803          	0x900e803
     f7a:	0000                	c.unimp
     f7c:	0301                	c.addi	t1,0
     f7e:	0901                	c.addi	s2,0
     f80:	0004                	0x4
     f82:	0501                	c.addi	a0,0
     f84:	09020303          	lb	t1,144(tp) # 90 <__stack_size-0x1ffff70>
     f88:	0018                	0x18
     f8a:	0501                	c.addi	a0,0
     f8c:	0608                	c.addi4spn	a0,sp,768
     f8e:	00090003          	lb	zero,0(s2)
     f92:	0100                	c.addi4spn	s0,sp,128
     f94:	0305                	c.addi	t1,1
     f96:	0306                	c.slli	t1,0x1
     f98:	04097f93          	andi	t6,s2,64
     f9c:	0100                	c.addi4spn	s0,sp,128
     f9e:	0605                	c.addi	a2,1
     fa0:	0306                	c.slli	t1,0x1
     fa2:	0900                	c.addi4spn	s0,sp,144
     fa4:	0000                	c.unimp
     fa6:	0501                	c.addi	a0,0
     fa8:	0305                	c.addi	t1,1
     faa:	00ee                	c.slli	ra,0x1b
     fac:	0809                	c.addi	a6,2
     fae:	0100                	c.addi4spn	s0,sp,128
     fb0:	0306                	c.slli	t1,0x1
     fb2:	10097f93          	andi	t6,s2,256
     fb6:	0100                	c.addi4spn	s0,sp,128
     fb8:	0a05                	c.addi	s4,1
     fba:	0306                	c.slli	t1,0x1
     fbc:	0900                	c.addi4spn	s0,sp,144
     fbe:	0000                	c.unimp
     fc0:	0501                	c.addi	a0,0
     fc2:	01030603          	lb	a2,16(t1)
     fc6:	0409                	c.addi	s0,2
     fc8:	0100                	c.addi4spn	s0,sp,128
     fca:	0505                	c.addi	a0,1
     fcc:	0900ec03          	0x900ec03
     fd0:	0000                	c.unimp
     fd2:	0301                	c.addi	t1,0
     fd4:	0901                	c.addi	s2,0
     fd6:	0004                	0x4
     fd8:	0501                	c.addi	a0,0
     fda:	09020303          	lb	t1,144(tp) # 90 <__stack_size-0x1ffff70>
     fde:	0018                	0x18
     fe0:	0501                	c.addi	a0,0
     fe2:	0608                	c.addi4spn	a0,sp,768
     fe4:	00090003          	lb	zero,0(s2)
     fe8:	0100                	c.addi4spn	s0,sp,128
     fea:	0305                	c.addi	t1,1
     fec:	0306                	c.slli	t1,0x1
     fee:	04097f8f          	0x4097f8f
     ff2:	0100                	c.addi4spn	s0,sp,128
     ff4:	0605                	c.addi	a2,1
     ff6:	0306                	c.slli	t1,0x1
     ff8:	0900                	c.addi4spn	s0,sp,144
     ffa:	0000                	c.unimp
     ffc:	0501                	c.addi	a0,0
     ffe:	0305                	c.addi	t1,1
    1000:	00f2                	c.slli	ra,0x1c
    1002:	0809                	c.addi	a6,2
    1004:	0100                	c.addi4spn	s0,sp,128
    1006:	0306                	c.slli	t1,0x1
    1008:	10097f8f          	0x10097f8f
    100c:	0100                	c.addi4spn	s0,sp,128
    100e:	0a05                	c.addi	s4,1
    1010:	0306                	c.slli	t1,0x1
    1012:	0900                	c.addi4spn	s0,sp,144
    1014:	0000                	c.unimp
    1016:	0501                	c.addi	a0,0
    1018:	01030603          	lb	a2,16(t1)
    101c:	0409                	c.addi	s0,2
    101e:	0100                	c.addi4spn	s0,sp,128
    1020:	0505                	c.addi	a0,1
    1022:	0900f003          	0x900f003
    1026:	0000                	c.unimp
    1028:	0301                	c.addi	t1,0
    102a:	0901                	c.addi	s2,0
    102c:	0004                	0x4
    102e:	0501                	c.addi	a0,0
    1030:	09020303          	lb	t1,144(tp) # 90 <__stack_size-0x1ffff70>
    1034:	0018                	0x18
    1036:	0501                	c.addi	a0,0
    1038:	0608                	c.addi4spn	a0,sp,768
    103a:	00090003          	lb	zero,0(s2)
    103e:	0100                	c.addi4spn	s0,sp,128
    1040:	0305                	c.addi	t1,1
    1042:	0306                	c.slli	t1,0x1
    1044:	04097f8b          	0x4097f8b
    1048:	0100                	c.addi4spn	s0,sp,128
    104a:	0605                	c.addi	a2,1
    104c:	0306                	c.slli	t1,0x1
    104e:	0900                	c.addi4spn	s0,sp,144
    1050:	0000                	c.unimp
    1052:	0501                	c.addi	a0,0
    1054:	0305                	c.addi	t1,1
    1056:	00f6                	c.slli	ra,0x1d
    1058:	0809                	c.addi	a6,2
    105a:	0100                	c.addi4spn	s0,sp,128
    105c:	0306                	c.slli	t1,0x1
    105e:	10097f8b          	0x10097f8b
    1062:	0100                	c.addi4spn	s0,sp,128
    1064:	0a05                	c.addi	s4,1
    1066:	0306                	c.slli	t1,0x1
    1068:	0900                	c.addi4spn	s0,sp,144
    106a:	0000                	c.unimp
    106c:	0501                	c.addi	a0,0
    106e:	01030603          	lb	a2,16(t1)
    1072:	0409                	c.addi	s0,2
    1074:	0100                	c.addi4spn	s0,sp,128
    1076:	0505                	c.addi	a0,1
    1078:	0900f403          	0x900f403
    107c:	0000                	c.unimp
    107e:	0301                	c.addi	t1,0
    1080:	0901                	c.addi	s2,0
    1082:	0004                	0x4
    1084:	0501                	c.addi	a0,0
    1086:	09020303          	lb	t1,144(tp) # 90 <__stack_size-0x1ffff70>
    108a:	0018                	0x18
    108c:	0501                	c.addi	a0,0
    108e:	0618                	c.addi4spn	a4,sp,768
    1090:	00090003          	lb	zero,0(s2)
    1094:	0100                	c.addi4spn	s0,sp,128
    1096:	0305                	c.addi	t1,1
    1098:	0306                	c.slli	t1,0x1
    109a:	04097f87          	0x4097f87
    109e:	0100                	c.addi4spn	s0,sp,128
    10a0:	0605                	c.addi	a2,1
    10a2:	0306                	c.slli	t1,0x1
    10a4:	0900                	c.addi4spn	s0,sp,144
    10a6:	0000                	c.unimp
    10a8:	0501                	c.addi	a0,0
    10aa:	0305                	c.addi	t1,1
    10ac:	00fa                	c.slli	ra,0x1e
    10ae:	0809                	c.addi	a6,2
    10b0:	0100                	c.addi4spn	s0,sp,128
    10b2:	0306                	c.slli	t1,0x1
    10b4:	10097f87          	0x10097f87
    10b8:	0100                	c.addi4spn	s0,sp,128
    10ba:	0a05                	c.addi	s4,1
    10bc:	0306                	c.slli	t1,0x1
    10be:	0900                	c.addi4spn	s0,sp,144
    10c0:	0000                	c.unimp
    10c2:	0501                	c.addi	a0,0
    10c4:	01030603          	lb	a2,16(t1)
    10c8:	0409                	c.addi	s0,2
    10ca:	0100                	c.addi4spn	s0,sp,128
    10cc:	0505                	c.addi	a0,1
    10ce:	0900f803          	0x900f803
    10d2:	0000                	c.unimp
    10d4:	0301                	c.addi	t1,0
    10d6:	0901                	c.addi	s2,0
    10d8:	0004                	0x4
    10da:	0501                	c.addi	a0,0
    10dc:	09020303          	lb	t1,144(tp) # 90 <__stack_size-0x1ffff70>
    10e0:	0018                	0x18
    10e2:	0501                	c.addi	a0,0
    10e4:	0003061b          	0x3061b
    10e8:	0009                	c.addi	zero,2
    10ea:	0100                	c.addi4spn	s0,sp,128
    10ec:	0305                	c.addi	t1,1
    10ee:	0306                	c.slli	t1,0x1
    10f0:	04097f83          	0x4097f83
    10f4:	0100                	c.addi4spn	s0,sp,128
    10f6:	0605                	c.addi	a2,1
    10f8:	0306                	c.slli	t1,0x1
    10fa:	0900                	c.addi4spn	s0,sp,144
    10fc:	0000                	c.unimp
    10fe:	0501                	c.addi	a0,0
    1100:	0305                	c.addi	t1,1
    1102:	00fe                	c.slli	ra,0x1f
    1104:	0809                	c.addi	a6,2
    1106:	0100                	c.addi4spn	s0,sp,128
    1108:	0306                	c.slli	t1,0x1
    110a:	10097f83          	0x10097f83
    110e:	0100                	c.addi4spn	s0,sp,128
    1110:	0a05                	c.addi	s4,1
    1112:	0306                	c.slli	t1,0x1
    1114:	0900                	c.addi4spn	s0,sp,144
    1116:	0000                	c.unimp
    1118:	0501                	c.addi	a0,0
    111a:	01030603          	lb	a2,16(t1)
    111e:	0409                	c.addi	s0,2
    1120:	0100                	c.addi4spn	s0,sp,128
    1122:	0505                	c.addi	a0,1
    1124:	0900fc03          	0x900fc03
    1128:	0000                	c.unimp
    112a:	0301                	c.addi	t1,0
    112c:	0901                	c.addi	s2,0
    112e:	0004                	0x4
    1130:	0501                	c.addi	a0,0
    1132:	09030303          	lb	t1,144(t1)
    1136:	0014                	0x14
    1138:	0501                	c.addi	a0,0
    113a:	0003061b          	0x3061b
    113e:	0009                	c.addi	zero,2
    1140:	0100                	c.addi4spn	s0,sp,128
    1142:	0305                	c.addi	t1,1
    1144:	0306                	c.slli	t1,0x1
    1146:	7efe                	c.flwsp	ft9,252(sp)
    1148:	0809                	c.addi	a6,2
    114a:	0100                	c.addi4spn	s0,sp,128
    114c:	0605                	c.addi	a2,1
    114e:	0306                	c.slli	t1,0x1
    1150:	0900                	c.addi4spn	s0,sp,144
    1152:	0000                	c.unimp
    1154:	0501                	c.addi	a0,0
    1156:	0305                	c.addi	t1,1
    1158:	04090183          	lb	gp,64(s2)
    115c:	0100                	c.addi4spn	s0,sp,128
    115e:	0306                	c.slli	t1,0x1
    1160:	7efe                	c.flwsp	ft9,252(sp)
    1162:	1009                	c.addi	zero,-30
    1164:	0100                	c.addi4spn	s0,sp,128
    1166:	0a05                	c.addi	s4,1
    1168:	0306                	c.slli	t1,0x1
    116a:	0900                	c.addi4spn	s0,sp,144
    116c:	0000                	c.unimp
    116e:	0501                	c.addi	a0,0
    1170:	01030603          	lb	a2,16(t1)
    1174:	0409                	c.addi	s0,2
    1176:	0100                	c.addi4spn	s0,sp,128
    1178:	0505                	c.addi	a0,1
    117a:	09018103          	lb	sp,144(gp)
    117e:	0000                	c.unimp
    1180:	0301                	c.addi	t1,0
    1182:	0901                	c.addi	s2,0
    1184:	0004                	0x4
    1186:	0501                	c.addi	a0,0
    1188:	09020303          	lb	t1,144(tp) # 90 <__stack_size-0x1ffff70>
    118c:	0018                	0x18
    118e:	0501                	c.addi	a0,0
    1190:	0625                	c.addi	a2,9
    1192:	00090003          	lb	zero,0(s2)
    1196:	0100                	c.addi4spn	s0,sp,128
    1198:	0605                	c.addi	a2,1
    119a:	097efa03          	0x97efa03
    119e:	0004                	0x4
    11a0:	0501                	c.addi	a0,0
    11a2:	0325                	c.addi	t1,9
    11a4:	0186                	c.slli	gp,0x1
    11a6:	0409                	c.addi	s0,2
    11a8:	0100                	c.addi4spn	s0,sp,128
    11aa:	0305                	c.addi	t1,1
    11ac:	0306                	c.slli	t1,0x1
    11ae:	7efa                	c.flwsp	ft9,188(sp)
    11b0:	0409                	c.addi	s0,2
    11b2:	0100                	c.addi4spn	s0,sp,128
    11b4:	0605                	c.addi	a2,1
    11b6:	0306                	c.slli	t1,0x1
    11b8:	0900                	c.addi4spn	s0,sp,144
    11ba:	0000                	c.unimp
    11bc:	0501                	c.addi	a0,0
    11be:	0305                	c.addi	t1,1
    11c0:	04090187          	0x4090187
    11c4:	0100                	c.addi4spn	s0,sp,128
    11c6:	0306                	c.slli	t1,0x1
    11c8:	7efa                	c.flwsp	ft9,188(sp)
    11ca:	1009                	c.addi	zero,-30
    11cc:	0100                	c.addi4spn	s0,sp,128
    11ce:	0a05                	c.addi	s4,1
    11d0:	0306                	c.slli	t1,0x1
    11d2:	0900                	c.addi4spn	s0,sp,144
    11d4:	0000                	c.unimp
    11d6:	0501                	c.addi	a0,0
    11d8:	01030603          	lb	a2,16(t1)
    11dc:	0409                	c.addi	s0,2
    11de:	0100                	c.addi4spn	s0,sp,128
    11e0:	0505                	c.addi	a0,1
    11e2:	09018503          	lb	a0,144(gp)
    11e6:	0000                	c.unimp
    11e8:	0301                	c.addi	t1,0
    11ea:	0902                	c.slli64	s2
    11ec:	0004                	0x4
    11ee:	0501                	c.addi	a0,0
    11f0:	09020303          	lb	t1,144(tp) # 90 <__stack_size-0x1ffff70>
    11f4:	0018                	0x18
    11f6:	0501                	c.addi	a0,0
    11f8:	0625                	c.addi	a2,9
    11fa:	00090003          	lb	zero,0(s2)
    11fe:	0100                	c.addi4spn	s0,sp,128
    1200:	0605                	c.addi	a2,1
    1202:	097ef503          	0x97ef503
    1206:	0004                	0x4
    1208:	0501                	c.addi	a0,0
    120a:	0325                	c.addi	t1,9
    120c:	0409018b          	0x409018b
    1210:	0100                	c.addi4spn	s0,sp,128
    1212:	0305                	c.addi	t1,1
    1214:	0306                	c.slli	t1,0x1
    1216:	7ef5                	c.lui	t4,0xffffd
    1218:	0409                	c.addi	s0,2
    121a:	0100                	c.addi4spn	s0,sp,128
    121c:	0605                	c.addi	a2,1
    121e:	0306                	c.slli	t1,0x1
    1220:	0900                	c.addi4spn	s0,sp,144
    1222:	0000                	c.unimp
    1224:	0501                	c.addi	a0,0
    1226:	0305                	c.addi	t1,1
    1228:	018c                	c.addi4spn	a1,sp,192
    122a:	0409                	c.addi	s0,2
    122c:	0100                	c.addi4spn	s0,sp,128
    122e:	0306                	c.slli	t1,0x1
    1230:	7ef5                	c.lui	t4,0xffffd
    1232:	1009                	c.addi	zero,-30
    1234:	0100                	c.addi4spn	s0,sp,128
    1236:	0a05                	c.addi	s4,1
    1238:	0306                	c.slli	t1,0x1
    123a:	0900                	c.addi4spn	s0,sp,144
    123c:	0000                	c.unimp
    123e:	0501                	c.addi	a0,0
    1240:	01030603          	lb	a2,16(t1)
    1244:	0409                	c.addi	s0,2
    1246:	0100                	c.addi4spn	s0,sp,128
    1248:	0505                	c.addi	a0,1
    124a:	09018a03          	lb	s4,144(gp)
    124e:	0000                	c.unimp
    1250:	0301                	c.addi	t1,0
    1252:	0902                	c.slli64	s2
    1254:	0004                	0x4
    1256:	0501                	c.addi	a0,0
    1258:	09020303          	lb	t1,144(tp) # 90 <__stack_size-0x1ffff70>
    125c:	0018                	0x18
    125e:	0501                	c.addi	a0,0
    1260:	062c                	c.addi4spn	a1,sp,776
    1262:	00090003          	lb	zero,0(s2)
    1266:	0100                	c.addi4spn	s0,sp,128
    1268:	0e05                	c.addi	t3,1
    126a:	04090003          	lb	zero,64(s2)
    126e:	0100                	c.addi4spn	s0,sp,128
    1270:	2c05                	c.jal	14a0 <__stack_size-0x1ffeb60>
    1272:	08090003          	lb	zero,128(s2)
    1276:	0100                	c.addi4spn	s0,sp,128
    1278:	0e05                	c.addi	t3,1
    127a:	04090003          	lb	zero,64(s2)
    127e:	0100                	c.addi4spn	s0,sp,128
    1280:	0305                	c.addi	t1,1
    1282:	0306                	c.slli	t1,0x1
    1284:	7ef0                	c.flw	fa2,124(a3)
    1286:	1009                	c.addi	zero,-30
    1288:	0100                	c.addi4spn	s0,sp,128
    128a:	0605                	c.addi	a2,1
    128c:	0306                	c.slli	t1,0x1
    128e:	0900                	c.addi4spn	s0,sp,144
    1290:	0000                	c.unimp
    1292:	0501                	c.addi	a0,0
    1294:	0605                	c.addi	a2,1
    1296:	0c090103          	lb	sp,192(s2)
    129a:	0100                	c.addi4spn	s0,sp,128
    129c:	0306                	c.slli	t1,0x1
    129e:	0191                	c.addi	gp,4
    12a0:	0009                	c.addi	zero,2
    12a2:	0100                	c.addi4spn	s0,sp,128
    12a4:	0a05                	c.addi	s4,1
    12a6:	097eef03          	0x97eef03
    12aa:	000c                	0xc
    12ac:	0501                	c.addi	a0,0
    12ae:	01030603          	lb	a2,16(t1)
    12b2:	0409                	c.addi	s0,2
    12b4:	0100                	c.addi4spn	s0,sp,128
    12b6:	0505                	c.addi	a0,1
    12b8:	09019003          	lh	zero,144(gp)
    12bc:	0000                	c.unimp
    12be:	0301                	c.addi	t1,0
    12c0:	0902                	c.slli64	s2
    12c2:	0004                	0x4
    12c4:	0501                	c.addi	a0,0
    12c6:	09030303          	lb	t1,144(t1)
    12ca:	0014                	0x14
    12cc:	0501                	c.addi	a0,0
    12ce:	0620                	c.addi4spn	s0,sp,776
    12d0:	00090003          	lb	zero,0(s2)
    12d4:	0100                	c.addi4spn	s0,sp,128
    12d6:	0305                	c.addi	t1,1
    12d8:	0306                	c.slli	t1,0x1
    12da:	7ee9                	c.lui	t4,0xffffa
    12dc:	0c09                	c.addi	s8,2
    12de:	0100                	c.addi4spn	s0,sp,128
    12e0:	0605                	c.addi	a2,1
    12e2:	0306                	c.slli	t1,0x1
    12e4:	0900                	c.addi4spn	s0,sp,144
    12e6:	0000                	c.unimp
    12e8:	0501                	c.addi	a0,0
    12ea:	0305                	c.addi	t1,1
    12ec:	0198                	c.addi4spn	a4,sp,192
    12ee:	0409                	c.addi	s0,2
    12f0:	0100                	c.addi4spn	s0,sp,128
    12f2:	0306                	c.slli	t1,0x1
    12f4:	7ee9                	c.lui	t4,0xffffa
    12f6:	1009                	c.addi	zero,-30
    12f8:	0100                	c.addi4spn	s0,sp,128
    12fa:	0a05                	c.addi	s4,1
    12fc:	0306                	c.slli	t1,0x1
    12fe:	0900                	c.addi4spn	s0,sp,144
    1300:	0000                	c.unimp
    1302:	0501                	c.addi	a0,0
    1304:	01030603          	lb	a2,16(t1)
    1308:	0409                	c.addi	s0,2
    130a:	0100                	c.addi4spn	s0,sp,128
    130c:	0505                	c.addi	a0,1
    130e:	09019603          	lh	a2,144(gp)
    1312:	0000                	c.unimp
    1314:	0301                	c.addi	t1,0
    1316:	0901                	c.addi	s2,0
    1318:	0004                	0x4
    131a:	0501                	c.addi	a0,0
    131c:	09020303          	lb	t1,144(tp) # 90 <__stack_size-0x1ffff70>
    1320:	0018                	0x18
    1322:	0501                	c.addi	a0,0
    1324:	062a                	c.slli	a2,0xa
    1326:	00090003          	lb	zero,0(s2)
    132a:	0100                	c.addi4spn	s0,sp,128
    132c:	0605                	c.addi	a2,1
    132e:	097ee503          	0x97ee503
    1332:	0008                	0x8
    1334:	0501                	c.addi	a0,0
    1336:	032a                	c.slli	t1,0xa
    1338:	0409019b          	0x409019b
    133c:	0100                	c.addi4spn	s0,sp,128
    133e:	0305                	c.addi	t1,1
    1340:	0306                	c.slli	t1,0x1
    1342:	7ee5                	c.lui	t4,0xffff9
    1344:	0409                	c.addi	s0,2
    1346:	0100                	c.addi4spn	s0,sp,128
    1348:	0605                	c.addi	a2,1
    134a:	0306                	c.slli	t1,0x1
    134c:	0900                	c.addi4spn	s0,sp,144
    134e:	0000                	c.unimp
    1350:	0501                	c.addi	a0,0
    1352:	0305                	c.addi	t1,1
    1354:	019c                	c.addi4spn	a5,sp,192
    1356:	0409                	c.addi	s0,2
    1358:	0100                	c.addi4spn	s0,sp,128
    135a:	0306                	c.slli	t1,0x1
    135c:	7ee5                	c.lui	t4,0xffff9
    135e:	1009                	c.addi	zero,-30
    1360:	0100                	c.addi4spn	s0,sp,128
    1362:	0a05                	c.addi	s4,1
    1364:	0306                	c.slli	t1,0x1
    1366:	0900                	c.addi4spn	s0,sp,144
    1368:	0000                	c.unimp
    136a:	0501                	c.addi	a0,0
    136c:	01030603          	lb	a2,16(t1)
    1370:	0409                	c.addi	s0,2
    1372:	0100                	c.addi4spn	s0,sp,128
    1374:	0505                	c.addi	a0,1
    1376:	09019a03          	lh	s4,144(gp)
    137a:	0000                	c.unimp
    137c:	0301                	c.addi	t1,0
    137e:	0902                	c.slli64	s2
    1380:	0004                	0x4
    1382:	0501                	c.addi	a0,0
    1384:	09020303          	lb	t1,144(tp) # 90 <__stack_size-0x1ffff70>
    1388:	0018                	0x18
    138a:	0501                	c.addi	a0,0
    138c:	062a                	c.slli	a2,0xa
    138e:	00090003          	lb	zero,0(s2)
    1392:	0100                	c.addi4spn	s0,sp,128
    1394:	0605                	c.addi	a2,1
    1396:	097ee003          	0x97ee003
    139a:	0008                	0x8
    139c:	0501                	c.addi	a0,0
    139e:	032a                	c.slli	t1,0xa
    13a0:	01a0                	c.addi4spn	s0,sp,200
    13a2:	0409                	c.addi	s0,2
    13a4:	0100                	c.addi4spn	s0,sp,128
    13a6:	0305                	c.addi	t1,1
    13a8:	0306                	c.slli	t1,0x1
    13aa:	7ee0                	c.flw	fs0,124(a3)
    13ac:	0409                	c.addi	s0,2
    13ae:	0100                	c.addi4spn	s0,sp,128
    13b0:	0605                	c.addi	a2,1
    13b2:	0306                	c.slli	t1,0x1
    13b4:	0900                	c.addi4spn	s0,sp,144
    13b6:	0000                	c.unimp
    13b8:	0501                	c.addi	a0,0
    13ba:	0305                	c.addi	t1,1
    13bc:	01a1                	c.addi	gp,8
    13be:	0409                	c.addi	s0,2
    13c0:	0100                	c.addi4spn	s0,sp,128
    13c2:	0306                	c.slli	t1,0x1
    13c4:	7ee0                	c.flw	fs0,124(a3)
    13c6:	1009                	c.addi	zero,-30
    13c8:	0100                	c.addi4spn	s0,sp,128
    13ca:	0a05                	c.addi	s4,1
    13cc:	0306                	c.slli	t1,0x1
    13ce:	0900                	c.addi4spn	s0,sp,144
    13d0:	0000                	c.unimp
    13d2:	0501                	c.addi	a0,0
    13d4:	01030603          	lb	a2,16(t1)
    13d8:	0409                	c.addi	s0,2
    13da:	0100                	c.addi4spn	s0,sp,128
    13dc:	0505                	c.addi	a0,1
    13de:	09019f03          	lh	t5,144(gp)
    13e2:	0000                	c.unimp
    13e4:	0301                	c.addi	t1,0
    13e6:	0902                	c.slli64	s2
    13e8:	0004                	0x4
    13ea:	0501                	c.addi	a0,0
    13ec:	09020303          	lb	t1,144(tp) # 90 <__stack_size-0x1ffff70>
    13f0:	0018                	0x18
    13f2:	0501                	c.addi	a0,0
    13f4:	0631                	c.addi	a2,12
    13f6:	00090003          	lb	zero,0(s2)
    13fa:	0100                	c.addi4spn	s0,sp,128
    13fc:	0e05                	c.addi	t3,1
    13fe:	08090003          	lb	zero,128(s2)
    1402:	0100                	c.addi4spn	s0,sp,128
    1404:	3105                	c.jal	1024 <__stack_size-0x1ffefdc>
    1406:	08090003          	lb	zero,128(s2)
    140a:	0100                	c.addi4spn	s0,sp,128
    140c:	0e05                	c.addi	t3,1
    140e:	04090003          	lb	zero,64(s2)
    1412:	0100                	c.addi4spn	s0,sp,128
    1414:	0305                	c.addi	t1,1
    1416:	0306                	c.slli	t1,0x1
    1418:	10097edb          	0x10097edb
    141c:	0100                	c.addi4spn	s0,sp,128
    141e:	0605                	c.addi	a2,1
    1420:	0306                	c.slli	t1,0x1
    1422:	0900                	c.addi4spn	s0,sp,144
    1424:	0000                	c.unimp
    1426:	0501                	c.addi	a0,0
    1428:	0605                	c.addi	a2,1
    142a:	0c090103          	lb	sp,192(s2)
    142e:	0100                	c.addi4spn	s0,sp,128
    1430:	0306                	c.slli	t1,0x1
    1432:	01a6                	c.slli	gp,0x9
    1434:	0009                	c.addi	zero,2
    1436:	0100                	c.addi4spn	s0,sp,128
    1438:	0a05                	c.addi	s4,1
    143a:	097eda03          	lhu	s4,151(t4) # ffff9097 <_sp+0x77ff9097>
    143e:	000c                	0xc
    1440:	0501                	c.addi	a0,0
    1442:	01030603          	lb	a2,16(t1)
    1446:	0409                	c.addi	s0,2
    1448:	0100                	c.addi4spn	s0,sp,128
    144a:	0505                	c.addi	a0,1
    144c:	0901a503          	lw	a0,144(gp)
    1450:	0000                	c.unimp
    1452:	0301                	c.addi	t1,0
    1454:	0902                	c.slli64	s2
    1456:	0004                	0x4
    1458:	0501                	c.addi	a0,0
    145a:	09030303          	lb	t1,144(t1)
    145e:	0014                	0x14
    1460:	0301                	c.addi	t1,0
    1462:	7ed4                	c.flw	fa3,60(a3)
    1464:	0009                	c.addi	zero,2
    1466:	0100                	c.addi4spn	s0,sp,128
    1468:	0605                	c.addi	a2,1
    146a:	0306                	c.slli	t1,0x1
    146c:	0900                	c.addi4spn	s0,sp,144
    146e:	0000                	c.unimp
    1470:	0501                	c.addi	a0,0
    1472:	0305                	c.addi	t1,1
    1474:	01ad                	c.addi	gp,11
    1476:	0809                	c.addi	a6,2
    1478:	0100                	c.addi4spn	s0,sp,128
    147a:	0306                	c.slli	t1,0x1
    147c:	7ed4                	c.flw	fa3,60(a3)
    147e:	1009                	c.addi	zero,-30
    1480:	0100                	c.addi4spn	s0,sp,128
    1482:	0a05                	c.addi	s4,1
    1484:	0306                	c.slli	t1,0x1
    1486:	0900                	c.addi4spn	s0,sp,144
    1488:	0000                	c.unimp
    148a:	0501                	c.addi	a0,0
    148c:	01030603          	lb	a2,16(t1)
    1490:	0409                	c.addi	s0,2
    1492:	0100                	c.addi4spn	s0,sp,128
    1494:	0505                	c.addi	a0,1
    1496:	0901ab03          	lw	s6,144(gp)
    149a:	0000                	c.unimp
    149c:	0301                	c.addi	t1,0
    149e:	0901                	c.addi	s2,0
    14a0:	0004                	0x4
    14a2:	0501                	c.addi	a0,0
    14a4:	09020303          	lb	t1,144(tp) # 90 <__stack_size-0x1ffff70>
    14a8:	0014                	0x14
    14aa:	0301                	c.addi	t1,0
    14ac:	7ed0                	c.flw	fa2,60(a3)
    14ae:	0009                	c.addi	zero,2
    14b0:	0100                	c.addi4spn	s0,sp,128
    14b2:	0605                	c.addi	a2,1
    14b4:	0306                	c.slli	t1,0x1
    14b6:	0900                	c.addi4spn	s0,sp,144
    14b8:	0000                	c.unimp
    14ba:	0501                	c.addi	a0,0
    14bc:	0605                	c.addi	a2,1
    14be:	08090103          	lb	sp,128(s2)
    14c2:	0100                	c.addi4spn	s0,sp,128
    14c4:	0306                	c.slli	t1,0x1
    14c6:	01b0                	c.addi4spn	a2,sp,200
    14c8:	0009                	c.addi	zero,2
    14ca:	0100                	c.addi4spn	s0,sp,128
    14cc:	0a05                	c.addi	s4,1
    14ce:	097ed003          	lhu	zero,151(t4)
    14d2:	000c                	0xc
    14d4:	0501                	c.addi	a0,0
    14d6:	01030603          	lb	a2,16(t1)
    14da:	0409                	c.addi	s0,2
    14dc:	0100                	c.addi4spn	s0,sp,128
    14de:	0505                	c.addi	a0,1
    14e0:	0901af03          	lw	t5,144(gp)
    14e4:	0000                	c.unimp
    14e6:	0301                	c.addi	t1,0
    14e8:	0901                	c.addi	s2,0
    14ea:	0004                	0x4
    14ec:	0501                	c.addi	a0,0
    14ee:	09020303          	lb	t1,144(tp) # 90 <__stack_size-0x1ffff70>
    14f2:	0010                	0x10
    14f4:	0301                	c.addi	t1,0
    14f6:	0904                	c.addi4spn	s1,sp,144
    14f8:	0000                	c.unimp
    14fa:	0301                	c.addi	t1,0
    14fc:	7ec8                	c.flw	fa0,60(a3)
    14fe:	0009                	c.addi	zero,2
    1500:	0100                	c.addi4spn	s0,sp,128
    1502:	0605                	c.addi	a2,1
    1504:	0306                	c.slli	t1,0x1
    1506:	0900                	c.addi4spn	s0,sp,144
    1508:	0000                	c.unimp
    150a:	0501                	c.addi	a0,0
    150c:	0605                	c.addi	a2,1
    150e:	04090103          	lb	sp,64(s2)
    1512:	0100                	c.addi4spn	s0,sp,128
    1514:	0306                	c.slli	t1,0x1
    1516:	01b8                	c.addi4spn	a4,sp,200
    1518:	0009                	c.addi	zero,2
    151a:	0100                	c.addi4spn	s0,sp,128
    151c:	0a05                	c.addi	s4,1
    151e:	097ec803          	lbu	a6,151(t4)
    1522:	000c                	0xc
    1524:	0501                	c.addi	a0,0
    1526:	01030603          	lb	a2,16(t1)
    152a:	0409                	c.addi	s0,2
    152c:	0100                	c.addi4spn	s0,sp,128
    152e:	0505                	c.addi	a0,1
    1530:	0901b703          	0x901b703
    1534:	0000                	c.unimp
    1536:	0301                	c.addi	t1,0
    1538:	0901                	c.addi	s2,0
    153a:	0004                	0x4
    153c:	0501                	c.addi	a0,0
    153e:	09030303          	lb	t1,144(t1)
    1542:	0010                	0x10
    1544:	0501                	c.addi	a0,0
    1546:	060e                	c.slli	a2,0x3
    1548:	00090003          	lb	zero,0(s2)
    154c:	0100                	c.addi4spn	s0,sp,128
    154e:	0305                	c.addi	t1,1
    1550:	0306                	c.slli	t1,0x1
    1552:	10097ec3          	fmadd.s	ft9,fs2,ft0,ft2
    1556:	0100                	c.addi4spn	s0,sp,128
    1558:	0605                	c.addi	a2,1
    155a:	0306                	c.slli	t1,0x1
    155c:	0900                	c.addi4spn	s0,sp,144
    155e:	0000                	c.unimp
    1560:	0501                	c.addi	a0,0
    1562:	0605                	c.addi	a2,1
    1564:	04090103          	lb	sp,64(s2)
    1568:	0100                	c.addi4spn	s0,sp,128
    156a:	0306                	c.slli	t1,0x1
    156c:	01bd                	c.addi	gp,15
    156e:	0009                	c.addi	zero,2
    1570:	0100                	c.addi4spn	s0,sp,128
    1572:	0a05                	c.addi	s4,1
    1574:	097ec303          	lbu	t1,151(t4)
    1578:	000c                	0xc
    157a:	0501                	c.addi	a0,0
    157c:	01030603          	lb	a2,16(t1)
    1580:	0409                	c.addi	s0,2
    1582:	0100                	c.addi4spn	s0,sp,128
    1584:	0505                	c.addi	a0,1
    1586:	0901bc03          	0x901bc03
    158a:	0000                	c.unimp
    158c:	0301                	c.addi	t1,0
    158e:	0901                	c.addi	s2,0
    1590:	0004                	0x4
    1592:	0501                	c.addi	a0,0
    1594:	09020303          	lb	t1,144(tp) # 90 <__stack_size-0x1ffff70>
    1598:	000c                	0xc
    159a:	0501                	c.addi	a0,0
    159c:	060e                	c.slli	a2,0x3
    159e:	00090003          	lb	zero,0(s2)
    15a2:	0100                	c.addi4spn	s0,sp,128
    15a4:	0305                	c.addi	t1,1
    15a6:	0306                	c.slli	t1,0x1
    15a8:	10097ebf 06050100 	0x605010010097ebf
    15b0:	0306                	c.slli	t1,0x1
    15b2:	0900                	c.addi4spn	s0,sp,144
    15b4:	0000                	c.unimp
    15b6:	0501                	c.addi	a0,0
    15b8:	0605                	c.addi	a2,1
    15ba:	04090103          	lb	sp,64(s2)
    15be:	0100                	c.addi4spn	s0,sp,128
    15c0:	0306                	c.slli	t1,0x1
    15c2:	01c1                	c.addi	gp,16
    15c4:	0009                	c.addi	zero,2
    15c6:	0100                	c.addi4spn	s0,sp,128
    15c8:	0a05                	c.addi	s4,1
    15ca:	097ebf03          	0x97ebf03
    15ce:	000c                	0xc
    15d0:	0501                	c.addi	a0,0
    15d2:	01030603          	lb	a2,16(t1)
    15d6:	0409                	c.addi	s0,2
    15d8:	0100                	c.addi4spn	s0,sp,128
    15da:	0505                	c.addi	a0,1
    15dc:	0901c003          	lbu	zero,144(gp)
    15e0:	0000                	c.unimp
    15e2:	0301                	c.addi	t1,0
    15e4:	0901                	c.addi	s2,0
    15e6:	0004                	0x4
    15e8:	0501                	c.addi	a0,0
    15ea:	09030303          	lb	t1,144(t1)
    15ee:	000c                	0xc
    15f0:	0301                	c.addi	t1,0
    15f2:	0901                	c.addi	s2,0
    15f4:	0014                	0x14
    15f6:	0301                	c.addi	t1,0
    15f8:	0901                	c.addi	s2,0
    15fa:	000c                	0xc
    15fc:	0501                	c.addi	a0,0
    15fe:	0612                	c.slli	a2,0x4
    1600:	10090103          	lb	sp,256(s2)
    1604:	0100                	c.addi4spn	s0,sp,128
    1606:	0305                	c.addi	t1,1
    1608:	10097f03          	0x10097f03
    160c:	0100                	c.addi4spn	s0,sp,128
    160e:	0306                	c.slli	t1,0x1
    1610:	0902                	c.slli64	s2
    1612:	001c                	0x1c
    1614:	0301                	c.addi	t1,0
    1616:	0902                	c.slli64	s2
    1618:	000c                	0xc
    161a:	0501                	c.addi	a0,0
    161c:	0614                	c.addi4spn	a3,sp,768
    161e:	00090003          	lb	zero,0(s2)
    1622:	0100                	c.addi4spn	s0,sp,128
    1624:	0105                	c.addi	sp,1
    1626:	04090103          	lb	sp,64(s2)
    162a:	0100                	c.addi4spn	s0,sp,128
    162c:	0c05                	c.addi	s8,1
    162e:	097df803          	0x97df803
    1632:	0040                	c.addi4spn	s0,sp,4
    1634:	0501                	c.addi	a0,0
    1636:	7ee60313          	addi	t1,a2,2030 # 7f0307ee <__stack_size+0x7d0307ee>
    163a:	1409                	c.addi	s0,-30
    163c:	0100                	c.addi4spn	s0,sp,128
    163e:	1005                	c.addi	zero,-31
    1640:	09029203          	lh	tp,144(t0)
    1644:	000c                	0xc
    1646:	0501                	c.addi	a0,0
    1648:	7dee0313          	addi	t1,t3,2014 # 117de <__stack_size-0x1fee822>
    164c:	0809                	c.addi	a6,2
    164e:	0100                	c.addi4spn	s0,sp,128
    1650:	0305                	c.addi	t1,1
    1652:	09039d03          	lh	s10,144(t2)
    1656:	0010                	0x10
    1658:	0901                	c.addi	s2,0
    165a:	000c                	0xc
    165c:	0100                	c.addi4spn	s0,sp,128
    165e:	2b01                	c.jal	1b6e <__stack_size-0x1ffe492>
    1660:	0005                	c.addi	zero,1
    1662:	0500                	c.addi4spn	s0,sp,640
    1664:	0400                	c.addi4spn	s0,sp,512
    1666:	4e00                	c.lw	s0,24(a2)
    1668:	0000                	c.unimp
    166a:	0100                	c.addi4spn	s0,sp,128
    166c:	0101                	c.addi	sp,0
    166e:	000d0efb          	0xd0efb
    1672:	0101                	c.addi	sp,0
    1674:	0101                	c.addi	sp,0
    1676:	0000                	c.unimp
    1678:	0100                	c.addi4spn	s0,sp,128
    167a:	0000                	c.unimp
    167c:	0101                	c.addi	sp,0
    167e:	1f01                	c.addi	t5,-32
    1680:	1405                	c.addi	s0,-31
    1682:	0000                	c.unimp
    1684:	8500                	0x8500
    1686:	0000                	c.unimp
    1688:	8f00                	0x8f00
    168a:	0000                	c.unimp
    168c:	a400                	c.fsd	fs0,8(s0)
    168e:	0000                	c.unimp
    1690:	0500                	c.addi4spn	s0,sp,640
    1692:	0001                	c.addi	zero,0
    1694:	0200                	c.addi4spn	s0,sp,256
    1696:	1f01                	c.addi	t5,-32
    1698:	0f02                	c.slli64	t5
    169a:	7406                	c.flwsp	fs0,96(sp)
    169c:	0000                	c.unimp
    169e:	0000                	c.unimp
    16a0:	007e                	c.slli	zero,0x1f
    16a2:	0000                	c.unimp
    16a4:	6201                	0x6201
    16a6:	0001                	c.addi	zero,0
    16a8:	0200                	c.addi4spn	s0,sp,256
    16aa:	0169                	c.addi	sp,26
    16ac:	0000                	c.unimp
    16ae:	00017a03          	0x17a03
    16b2:	0400                	c.addi4spn	s0,sp,512
    16b4:	005f 0000 0502      	0x5020000005f
    16ba:	0001                	c.addi	zero,0
    16bc:	0205                	c.addi	tp,1
    16be:	0cc4                	c.addi4spn	s1,sp,596
    16c0:	8000                	0x8000
    16c2:	05013103          	0x5013103
    16c6:	0305                	c.addi	t1,1
    16c8:	0904                	c.addi4spn	s1,sp,144
    16ca:	0000                	c.unimp
    16cc:	0301                	c.addi	t1,0
    16ce:	0976                	c.slli	s2,0x1d
    16d0:	0000                	c.unimp
    16d2:	0301                	c.addi	t1,0
    16d4:	0902                	c.slli64	s2
    16d6:	0000                	c.unimp
    16d8:	0301                	c.addi	t1,0
    16da:	0900                	c.addi4spn	s0,sp,144
    16dc:	0000                	c.unimp
    16de:	0301                	c.addi	t1,0
    16e0:	0900                	c.addi4spn	s0,sp,144
    16e2:	0004                	0x4
    16e4:	0301                	c.addi	t1,0
    16e6:	0900                	c.addi4spn	s0,sp,144
    16e8:	0000                	c.unimp
    16ea:	0401                	c.addi	s0,0
    16ec:	0502                	c.slli64	a0
    16ee:	09030303          	lb	t1,144(t1)
    16f2:	0000                	c.unimp
    16f4:	0401                	c.addi	s0,0
    16f6:	0501                	c.addi	a0,0
    16f8:	0605                	c.addi	a2,1
    16fa:	00097d03          	0x97d03
    16fe:	0100                	c.addi4spn	s0,sp,128
    1700:	0204                	c.addi4spn	s1,sp,256
    1702:	0305                	c.addi	t1,1
    1704:	04090303          	lb	t1,64(s2)
    1708:	0100                	c.addi4spn	s0,sp,128
    170a:	0104                	c.addi4spn	s1,sp,128
    170c:	0505                	c.addi	a0,1
    170e:	0306                	c.slli	t1,0x1
    1710:	097d                	c.addi	s2,31
    1712:	0008                	0x8
    1714:	0301                	c.addi	t1,0
    1716:	0900                	c.addi4spn	s0,sp,144
    1718:	0000                	c.unimp
    171a:	0301                	c.addi	t1,0
    171c:	0900                	c.addi4spn	s0,sp,144
    171e:	0000                	c.unimp
    1720:	0501                	c.addi	a0,0
    1722:	0601                	c.addi	a2,0
    1724:	00090903          	lb	s2,0(s2)
    1728:	0100                	c.addi4spn	s0,sp,128
    172a:	0306                	c.slli	t1,0x1
    172c:	00040903          	lb	s2,0(s0)
    1730:	0501                	c.addi	a0,0
    1732:	0305                	c.addi	t1,1
    1734:	0901                	c.addi	s2,0
    1736:	0000                	c.unimp
    1738:	0301                	c.addi	t1,0
    173a:	096a                	c.slli	s2,0x1a
    173c:	0000                	c.unimp
    173e:	0301                	c.addi	t1,0
    1740:	0902                	c.slli64	s2
    1742:	0000                	c.unimp
    1744:	0501                	c.addi	a0,0
    1746:	030c                	c.addi4spn	a1,sp,384
    1748:	0900                	c.addi4spn	s0,sp,144
    174a:	0000                	c.unimp
    174c:	0301                	c.addi	t1,0
    174e:	0900                	c.addi4spn	s0,sp,144
    1750:	0000                	c.unimp
    1752:	0301                	c.addi	t1,0
    1754:	0900                	c.addi4spn	s0,sp,144
    1756:	0000                	c.unimp
    1758:	0301                	c.addi	t1,0
    175a:	0900                	c.addi4spn	s0,sp,144
    175c:	0000                	c.unimp
    175e:	0301                	c.addi	t1,0
    1760:	0900                	c.addi4spn	s0,sp,144
    1762:	0000                	c.unimp
    1764:	0401                	c.addi	s0,0
    1766:	0502                	c.slli64	a0
    1768:	090e0303          	lb	t1,144(t3)
    176c:	0000                	c.unimp
    176e:	0301                	c.addi	t1,0
    1770:	0902                	c.slli64	s2
    1772:	0000                	c.unimp
    1774:	0401                	c.addi	s0,0
    1776:	0501                	c.addi	a0,0
    1778:	0616                	c.slli	a2,0x5
    177a:	00096e03          	0x96e03
    177e:	0100                	c.addi4spn	s0,sp,128
    1780:	0905                	c.addi	s2,1
    1782:	04090003          	lb	zero,64(s2)
    1786:	0100                	c.addi4spn	s0,sp,128
    1788:	0c05                	c.addi	s8,1
    178a:	04090203          	lb	tp,64(s2)
    178e:	0100                	c.addi4spn	s0,sp,128
    1790:	0905                	c.addi	s2,1
    1792:	08097e03          	0x8097e03
    1796:	0100                	c.addi4spn	s0,sp,128
    1798:	0c05                	c.addi	s8,1
    179a:	08090203          	lb	tp,128(s2)
    179e:	0100                	c.addi4spn	s0,sp,128
    17a0:	0204                	c.addi4spn	s1,sp,256
    17a2:	0305                	c.addi	t1,1
    17a4:	04091003          	lh	zero,64(s2)
    17a8:	0100                	c.addi4spn	s0,sp,128
    17aa:	0306                	c.slli	t1,0x1
    17ac:	0901                	c.addi	s2,0
    17ae:	000c                	0xc
    17b0:	0401                	c.addi	s0,0
    17b2:	0501                	c.addi	a0,0
    17b4:	030c                	c.addi4spn	a1,sp,384
    17b6:	0000096f          	jal	s2,17b6 <__stack_size-0x1ffe84a>
    17ba:	0301                	c.addi	t1,0
    17bc:	0900                	c.addi4spn	s0,sp,144
    17be:	0004                	0x4
    17c0:	0301                	c.addi	t1,0
    17c2:	0900                	c.addi4spn	s0,sp,144
    17c4:	0000                	c.unimp
    17c6:	0501                	c.addi	a0,0
    17c8:	0608                	c.addi4spn	a0,sp,768
    17ca:	00091403          	lh	s0,0(s2)
    17ce:	0100                	c.addi4spn	s0,sp,128
    17d0:	0905                	c.addi	s2,1
    17d2:	0306                	c.slli	t1,0x1
    17d4:	0901                	c.addi	s2,0
    17d6:	0008                	0x8
    17d8:	0501                	c.addi	a0,0
    17da:	0305                	c.addi	t1,1
    17dc:	0969                	c.addi	s2,26
    17de:	0000                	c.unimp
    17e0:	0301                	c.addi	t1,0
    17e2:	0902                	c.slli64	s2
    17e4:	0000                	c.unimp
    17e6:	0501                	c.addi	a0,0
    17e8:	030c                	c.addi4spn	a1,sp,384
    17ea:	0900                	c.addi4spn	s0,sp,144
    17ec:	0000                	c.unimp
    17ee:	0301                	c.addi	t1,0
    17f0:	0900                	c.addi4spn	s0,sp,144
    17f2:	0000                	c.unimp
    17f4:	0301                	c.addi	t1,0
    17f6:	0900                	c.addi4spn	s0,sp,144
    17f8:	0000                	c.unimp
    17fa:	0301                	c.addi	t1,0
    17fc:	0900                	c.addi4spn	s0,sp,144
    17fe:	0000                	c.unimp
    1800:	0301                	c.addi	t1,0
    1802:	0900                	c.addi4spn	s0,sp,144
    1804:	0000                	c.unimp
    1806:	0401                	c.addi	s0,0
    1808:	0502                	c.slli64	a0
    180a:	090e0303          	lb	t1,144(t3)
    180e:	0000                	c.unimp
    1810:	0301                	c.addi	t1,0
    1812:	0902                	c.slli64	s2
    1814:	0000                	c.unimp
    1816:	0301                	c.addi	t1,0
    1818:	0901                	c.addi	s2,0
    181a:	0010                	0x10
    181c:	0401                	c.addi	s0,0
    181e:	0501                	c.addi	a0,0
    1820:	030c                	c.addi4spn	a1,sp,384
    1822:	0000096f          	jal	s2,1822 <__stack_size-0x1ffe7de>
    1826:	0301                	c.addi	t1,0
    1828:	0900                	c.addi4spn	s0,sp,144
    182a:	0004                	0x4
    182c:	0301                	c.addi	t1,0
    182e:	0900                	c.addi4spn	s0,sp,144
    1830:	0000                	c.unimp
    1832:	0501                	c.addi	a0,0
    1834:	0610                	c.addi4spn	a2,sp,768
    1836:	00091503          	lh	a0,0(s2)
    183a:	0100                	c.addi4spn	s0,sp,128
    183c:	0c05                	c.addi	s8,1
    183e:	04090103          	lb	sp,64(s2)
    1842:	0100                	c.addi4spn	s0,sp,128
    1844:	0105                	c.addi	sp,1
    1846:	04090103          	lb	sp,64(s2)
    184a:	0100                	c.addi4spn	s0,sp,128
    184c:	0306                	c.slli	t1,0x1
    184e:	00040903          	lb	s2,0(s0)
    1852:	0501                	c.addi	a0,0
    1854:	0305                	c.addi	t1,1
    1856:	0901                	c.addi	s2,0
    1858:	0000                	c.unimp
    185a:	0301                	c.addi	t1,0
    185c:	0902                	c.slli64	s2
    185e:	0000                	c.unimp
    1860:	0501                	c.addi	a0,0
    1862:	00030613          	addi	a2,t1,0
    1866:	0009                	c.addi	zero,2
    1868:	0100                	c.addi4spn	s0,sp,128
    186a:	1805                	c.addi	a6,-31
    186c:	04090103          	lb	sp,64(s2)
    1870:	0100                	c.addi4spn	s0,sp,128
    1872:	1305                	c.addi	t1,-31
    1874:	04097f03          	0x4097f03
    1878:	0100                	c.addi4spn	s0,sp,128
    187a:	0505                	c.addi	a0,1
    187c:	0306                	c.slli	t1,0x1
    187e:	0901                	c.addi	s2,0
    1880:	0008                	0x8
    1882:	0501                	c.addi	a0,0
    1884:	0618                	c.addi4spn	a4,sp,768
    1886:	00090003          	lb	zero,0(s2)
    188a:	0100                	c.addi4spn	s0,sp,128
    188c:	0505                	c.addi	a0,1
    188e:	0306                	c.slli	t1,0x1
    1890:	0901                	c.addi	s2,0
    1892:	0004                	0x4
    1894:	0301                	c.addi	t1,0
    1896:	0901                	c.addi	s2,0
    1898:	0000                	c.unimp
    189a:	0301                	c.addi	t1,0
    189c:	0902                	c.slli64	s2
    189e:	0000                	c.unimp
    18a0:	0301                	c.addi	t1,0
    18a2:	00000903          	lb	s2,0(zero) # 0 <__stack_size-0x2000000>
    18a6:	0301                	c.addi	t1,0
    18a8:	0960                	c.addi4spn	s0,sp,156
    18aa:	0000                	c.unimp
    18ac:	0301                	c.addi	t1,0
    18ae:	0902                	c.slli64	s2
    18b0:	0000                	c.unimp
    18b2:	0301                	c.addi	t1,0
    18b4:	0900                	c.addi4spn	s0,sp,144
    18b6:	0000                	c.unimp
    18b8:	0301                	c.addi	t1,0
    18ba:	0900                	c.addi4spn	s0,sp,144
    18bc:	0004                	0x4
    18be:	0301                	c.addi	t1,0
    18c0:	0900                	c.addi4spn	s0,sp,144
    18c2:	0000                	c.unimp
    18c4:	0401                	c.addi	s0,0
    18c6:	0502                	c.slli64	a0
    18c8:	09030303          	lb	t1,144(t1)
    18cc:	0000                	c.unimp
    18ce:	0401                	c.addi	s0,0
    18d0:	0501                	c.addi	a0,0
    18d2:	0605                	c.addi	a2,1
    18d4:	00097d03          	0x97d03
    18d8:	0100                	c.addi4spn	s0,sp,128
    18da:	0204                	c.addi4spn	s1,sp,256
    18dc:	0305                	c.addi	t1,1
    18de:	04090303          	lb	t1,64(s2)
    18e2:	0100                	c.addi4spn	s0,sp,128
    18e4:	0104                	c.addi4spn	s1,sp,128
    18e6:	0505                	c.addi	a0,1
    18e8:	04097d03          	0x4097d03
    18ec:	0100                	c.addi4spn	s0,sp,128
    18ee:	0204                	c.addi4spn	s1,sp,256
    18f0:	0305                	c.addi	t1,1
    18f2:	04090303          	lb	t1,64(s2)
    18f6:	0100                	c.addi4spn	s0,sp,128
    18f8:	0104                	c.addi4spn	s1,sp,128
    18fa:	0505                	c.addi	a0,1
    18fc:	0306                	c.slli	t1,0x1
    18fe:	097d                	c.addi	s2,31
    1900:	0004                	0x4
    1902:	0301                	c.addi	t1,0
    1904:	0900                	c.addi4spn	s0,sp,144
    1906:	0000                	c.unimp
    1908:	0301                	c.addi	t1,0
    190a:	0900                	c.addi4spn	s0,sp,144
    190c:	0000                	c.unimp
    190e:	0301                	c.addi	t1,0
    1910:	0920                	c.addi4spn	s0,sp,152
    1912:	0000                	c.unimp
    1914:	0301                	c.addi	t1,0
    1916:	095e                	c.slli	s2,0x17
    1918:	0000                	c.unimp
    191a:	0501                	c.addi	a0,0
    191c:	0609                	c.addi	a2,2
    191e:	00090003          	lb	zero,0(s2)
    1922:	0100                	c.addi4spn	s0,sp,128
    1924:	0505                	c.addi	a0,1
    1926:	0306                	c.slli	t1,0x1
    1928:	0902                	c.slli64	s2
    192a:	000c                	0xc
    192c:	0301                	c.addi	t1,0
    192e:	0900                	c.addi4spn	s0,sp,144
    1930:	0000                	c.unimp
    1932:	0301                	c.addi	t1,0
    1934:	0900                	c.addi4spn	s0,sp,144
    1936:	0004                	0x4
    1938:	0301                	c.addi	t1,0
    193a:	0900                	c.addi4spn	s0,sp,144
    193c:	0000                	c.unimp
    193e:	0401                	c.addi	s0,0
    1940:	0502                	c.slli64	a0
    1942:	09030303          	lb	t1,144(t1)
    1946:	0000                	c.unimp
    1948:	0401                	c.addi	s0,0
    194a:	0501                	c.addi	a0,0
    194c:	0605                	c.addi	a2,1
    194e:	00097d03          	0x97d03
    1952:	0100                	c.addi4spn	s0,sp,128
    1954:	0204                	c.addi4spn	s1,sp,256
    1956:	0305                	c.addi	t1,1
    1958:	08090303          	lb	t1,128(s2)
    195c:	0100                	c.addi4spn	s0,sp,128
    195e:	0104                	c.addi4spn	s1,sp,128
    1960:	0505                	c.addi	a0,1
    1962:	0306                	c.slli	t1,0x1
    1964:	097d                	c.addi	s2,31
    1966:	0008                	0x8
    1968:	0301                	c.addi	t1,0
    196a:	0900                	c.addi4spn	s0,sp,144
    196c:	0000                	c.unimp
    196e:	0301                	c.addi	t1,0
    1970:	0900                	c.addi4spn	s0,sp,144
    1972:	0000                	c.unimp
    1974:	0301                	c.addi	t1,0
    1976:	0924                	c.addi4spn	s1,sp,152
    1978:	0000                	c.unimp
    197a:	0301                	c.addi	t1,0
    197c:	095a                	c.slli	s2,0x16
    197e:	0000                	c.unimp
    1980:	0501                	c.addi	a0,0
    1982:	0609                	c.addi	a2,2
    1984:	00090003          	lb	zero,0(s2)
    1988:	0100                	c.addi4spn	s0,sp,128
    198a:	0505                	c.addi	a0,1
    198c:	0306                	c.slli	t1,0x1
    198e:	0902                	c.slli64	s2
    1990:	000c                	0xc
    1992:	0301                	c.addi	t1,0
    1994:	0900                	c.addi4spn	s0,sp,144
    1996:	0000                	c.unimp
    1998:	0301                	c.addi	t1,0
    199a:	0900                	c.addi4spn	s0,sp,144
    199c:	0004                	0x4
    199e:	0301                	c.addi	t1,0
    19a0:	0900                	c.addi4spn	s0,sp,144
    19a2:	0000                	c.unimp
    19a4:	0401                	c.addi	s0,0
    19a6:	0502                	c.slli64	a0
    19a8:	09030303          	lb	t1,144(t1)
    19ac:	0000                	c.unimp
    19ae:	0401                	c.addi	s0,0
    19b0:	0501                	c.addi	a0,0
    19b2:	0605                	c.addi	a2,1
    19b4:	00097d03          	0x97d03
    19b8:	0100                	c.addi4spn	s0,sp,128
    19ba:	0204                	c.addi4spn	s1,sp,256
    19bc:	0305                	c.addi	t1,1
    19be:	08090303          	lb	t1,128(s2)
    19c2:	0100                	c.addi4spn	s0,sp,128
    19c4:	0104                	c.addi4spn	s1,sp,128
    19c6:	0505                	c.addi	a0,1
    19c8:	0306                	c.slli	t1,0x1
    19ca:	097d                	c.addi	s2,31
    19cc:	0004                	0x4
    19ce:	0301                	c.addi	t1,0
    19d0:	0900                	c.addi4spn	s0,sp,144
    19d2:	0000                	c.unimp
    19d4:	0301                	c.addi	t1,0
    19d6:	0900                	c.addi4spn	s0,sp,144
    19d8:	0000                	c.unimp
    19da:	0301                	c.addi	t1,0
    19dc:	0926                	c.slli	s2,0x9
    19de:	0000                	c.unimp
    19e0:	0301                	c.addi	t1,0
    19e2:	0958                	c.addi4spn	a4,sp,148
    19e4:	0000                	c.unimp
    19e6:	0501                	c.addi	a0,0
    19e8:	0609                	c.addi	a2,2
    19ea:	00090003          	lb	zero,0(s2)
    19ee:	0100                	c.addi4spn	s0,sp,128
    19f0:	0505                	c.addi	a0,1
    19f2:	0306                	c.slli	t1,0x1
    19f4:	0902                	c.slli64	s2
    19f6:	0008                	0x8
    19f8:	0301                	c.addi	t1,0
    19fa:	0900                	c.addi4spn	s0,sp,144
    19fc:	0000                	c.unimp
    19fe:	0301                	c.addi	t1,0
    1a00:	0900                	c.addi4spn	s0,sp,144
    1a02:	0004                	0x4
    1a04:	0301                	c.addi	t1,0
    1a06:	0900                	c.addi4spn	s0,sp,144
    1a08:	0000                	c.unimp
    1a0a:	0401                	c.addi	s0,0
    1a0c:	0502                	c.slli64	a0
    1a0e:	09030303          	lb	t1,144(t1)
    1a12:	0000                	c.unimp
    1a14:	0401                	c.addi	s0,0
    1a16:	0501                	c.addi	a0,0
    1a18:	0605                	c.addi	a2,1
    1a1a:	00097d03          	0x97d03
    1a1e:	0100                	c.addi4spn	s0,sp,128
    1a20:	0204                	c.addi4spn	s1,sp,256
    1a22:	0305                	c.addi	t1,1
    1a24:	08090303          	lb	t1,128(s2)
    1a28:	0100                	c.addi4spn	s0,sp,128
    1a2a:	0104                	c.addi4spn	s1,sp,128
    1a2c:	0505                	c.addi	a0,1
    1a2e:	0306                	c.slli	t1,0x1
    1a30:	097d                	c.addi	s2,31
    1a32:	0008                	0x8
    1a34:	0301                	c.addi	t1,0
    1a36:	0900                	c.addi4spn	s0,sp,144
    1a38:	0000                	c.unimp
    1a3a:	0301                	c.addi	t1,0
    1a3c:	0900                	c.addi4spn	s0,sp,144
    1a3e:	0000                	c.unimp
    1a40:	0301                	c.addi	t1,0
    1a42:	0928                	c.addi4spn	a0,sp,152
    1a44:	0000                	c.unimp
    1a46:	0301                	c.addi	t1,0
    1a48:	0956                	c.slli	s2,0x15
    1a4a:	0000                	c.unimp
    1a4c:	0501                	c.addi	a0,0
    1a4e:	0609                	c.addi	a2,2
    1a50:	00090003          	lb	zero,0(s2)
    1a54:	0100                	c.addi4spn	s0,sp,128
    1a56:	0505                	c.addi	a0,1
    1a58:	0306                	c.slli	t1,0x1
    1a5a:	0902                	c.slli64	s2
    1a5c:	000c                	0xc
    1a5e:	0301                	c.addi	t1,0
    1a60:	0900                	c.addi4spn	s0,sp,144
    1a62:	0000                	c.unimp
    1a64:	0301                	c.addi	t1,0
    1a66:	0900                	c.addi4spn	s0,sp,144
    1a68:	0004                	0x4
    1a6a:	0301                	c.addi	t1,0
    1a6c:	0900                	c.addi4spn	s0,sp,144
    1a6e:	0000                	c.unimp
    1a70:	0401                	c.addi	s0,0
    1a72:	0502                	c.slli64	a0
    1a74:	09030303          	lb	t1,144(t1)
    1a78:	0000                	c.unimp
    1a7a:	0401                	c.addi	s0,0
    1a7c:	0501                	c.addi	a0,0
    1a7e:	0605                	c.addi	a2,1
    1a80:	00097d03          	0x97d03
    1a84:	0100                	c.addi4spn	s0,sp,128
    1a86:	0204                	c.addi4spn	s1,sp,256
    1a88:	0305                	c.addi	t1,1
    1a8a:	08090303          	lb	t1,128(s2)
    1a8e:	0100                	c.addi4spn	s0,sp,128
    1a90:	0104                	c.addi4spn	s1,sp,128
    1a92:	0505                	c.addi	a0,1
    1a94:	0306                	c.slli	t1,0x1
    1a96:	097d                	c.addi	s2,31
    1a98:	0008                	0x8
    1a9a:	0301                	c.addi	t1,0
    1a9c:	0900                	c.addi4spn	s0,sp,144
    1a9e:	0000                	c.unimp
    1aa0:	0301                	c.addi	t1,0
    1aa2:	0900                	c.addi4spn	s0,sp,144
    1aa4:	0000                	c.unimp
    1aa6:	0301                	c.addi	t1,0
    1aa8:	092a                	c.slli	s2,0xa
    1aaa:	0000                	c.unimp
    1aac:	0301                	c.addi	t1,0
    1aae:	0954                	c.addi4spn	a3,sp,148
    1ab0:	0000                	c.unimp
    1ab2:	0501                	c.addi	a0,0
    1ab4:	0609                	c.addi	a2,2
    1ab6:	00090003          	lb	zero,0(s2)
    1aba:	0100                	c.addi4spn	s0,sp,128
    1abc:	0505                	c.addi	a0,1
    1abe:	0306                	c.slli	t1,0x1
    1ac0:	0902                	c.slli64	s2
    1ac2:	000c                	0xc
    1ac4:	0301                	c.addi	t1,0
    1ac6:	0900                	c.addi4spn	s0,sp,144
    1ac8:	0000                	c.unimp
    1aca:	0301                	c.addi	t1,0
    1acc:	0900                	c.addi4spn	s0,sp,144
    1ace:	0004                	0x4
    1ad0:	0301                	c.addi	t1,0
    1ad2:	0900                	c.addi4spn	s0,sp,144
    1ad4:	0000                	c.unimp
    1ad6:	0401                	c.addi	s0,0
    1ad8:	0502                	c.slli64	a0
    1ada:	09030303          	lb	t1,144(t1)
    1ade:	0000                	c.unimp
    1ae0:	0401                	c.addi	s0,0
    1ae2:	0501                	c.addi	a0,0
    1ae4:	0605                	c.addi	a2,1
    1ae6:	00097d03          	0x97d03
    1aea:	0100                	c.addi4spn	s0,sp,128
    1aec:	0204                	c.addi4spn	s1,sp,256
    1aee:	0305                	c.addi	t1,1
    1af0:	08090303          	lb	t1,128(s2)
    1af4:	0100                	c.addi4spn	s0,sp,128
    1af6:	0104                	c.addi4spn	s1,sp,128
    1af8:	0505                	c.addi	a0,1
    1afa:	0306                	c.slli	t1,0x1
    1afc:	097d                	c.addi	s2,31
    1afe:	0004                	0x4
    1b00:	0301                	c.addi	t1,0
    1b02:	0900                	c.addi4spn	s0,sp,144
    1b04:	0000                	c.unimp
    1b06:	0301                	c.addi	t1,0
    1b08:	0900                	c.addi4spn	s0,sp,144
    1b0a:	0000                	c.unimp
    1b0c:	0301                	c.addi	t1,0
    1b0e:	0930                	c.addi4spn	a2,sp,152
    1b10:	0000                	c.unimp
    1b12:	0301                	c.addi	t1,0
    1b14:	094e                	c.slli	s2,0x13
    1b16:	0000                	c.unimp
    1b18:	0501                	c.addi	a0,0
    1b1a:	0609                	c.addi	a2,2
    1b1c:	00090003          	lb	zero,0(s2)
    1b20:	0100                	c.addi4spn	s0,sp,128
    1b22:	0505                	c.addi	a0,1
    1b24:	0306                	c.slli	t1,0x1
    1b26:	0902                	c.slli64	s2
    1b28:	000c                	0xc
    1b2a:	0301                	c.addi	t1,0
    1b2c:	0900                	c.addi4spn	s0,sp,144
    1b2e:	0000                	c.unimp
    1b30:	0301                	c.addi	t1,0
    1b32:	0900                	c.addi4spn	s0,sp,144
    1b34:	0004                	0x4
    1b36:	0301                	c.addi	t1,0
    1b38:	0900                	c.addi4spn	s0,sp,144
    1b3a:	0000                	c.unimp
    1b3c:	0401                	c.addi	s0,0
    1b3e:	0502                	c.slli64	a0
    1b40:	09030303          	lb	t1,144(t1)
    1b44:	0000                	c.unimp
    1b46:	0401                	c.addi	s0,0
    1b48:	0501                	c.addi	a0,0
    1b4a:	0605                	c.addi	a2,1
    1b4c:	00097d03          	0x97d03
    1b50:	0100                	c.addi4spn	s0,sp,128
    1b52:	0204                	c.addi4spn	s1,sp,256
    1b54:	0305                	c.addi	t1,1
    1b56:	08090303          	lb	t1,128(s2)
    1b5a:	0100                	c.addi4spn	s0,sp,128
    1b5c:	0104                	c.addi4spn	s1,sp,128
    1b5e:	0505                	c.addi	a0,1
    1b60:	0306                	c.slli	t1,0x1
    1b62:	097d                	c.addi	s2,31
    1b64:	0004                	0x4
    1b66:	0301                	c.addi	t1,0
    1b68:	0900                	c.addi4spn	s0,sp,144
    1b6a:	0000                	c.unimp
    1b6c:	0301                	c.addi	t1,0
    1b6e:	0900                	c.addi4spn	s0,sp,144
    1b70:	0000                	c.unimp
    1b72:	0301                	c.addi	t1,0
    1b74:	0932                	c.slli	s2,0xc
    1b76:	0000                	c.unimp
    1b78:	0301                	c.addi	t1,0
    1b7a:	0901                	c.addi	s2,0
    1b7c:	0010                	0x10
    1b7e:	0501                	c.addi	a0,0
    1b80:	0601                	c.addi	a2,0
    1b82:	00090103          	lb	sp,0(s2)
    1b86:	0100                	c.addi4spn	s0,sp,128
    1b88:	0809                	c.addi	a6,2
    1b8a:	0000                	c.unimp
    1b8c:	0101                	c.addi	sp,0
    1b8e:	00000d97          	auipc	s11,0x0
    1b92:	0005                	c.addi	zero,1
    1b94:	0004                	0x4
    1b96:	0040                	c.addi4spn	s0,sp,4
    1b98:	0000                	c.unimp
    1b9a:	0101                	c.addi	sp,0
    1b9c:	fb01                	c.bnez	a4,1aac <__stack_size-0x1ffe554>
    1b9e:	0d0e                	c.slli	s10,0x3
    1ba0:	0100                	c.addi4spn	s0,sp,128
    1ba2:	0101                	c.addi	sp,0
    1ba4:	0001                	c.addi	zero,0
    1ba6:	0000                	c.unimp
    1ba8:	0001                	c.addi	zero,0
    1baa:	0100                	c.addi4spn	s0,sp,128
    1bac:	0101                	c.addi	sp,0
    1bae:	041f 0014 0000      	0x14041f
    1bb4:	0085                	c.addi	ra,1
    1bb6:	0000                	c.unimp
    1bb8:	0198                	c.addi4spn	a4,sp,192
    1bba:	0000                	c.unimp
    1bbc:	0000008f          	0x8f
    1bc0:	0102                	c.slli64	sp
    1bc2:	021f 040f 0184      	0x184040f021f
    1bc8:	0000                	c.unimp
    1bca:	8e00                	0x8e00
    1bcc:	0001                	c.addi	zero,0
    1bce:	0100                	c.addi4spn	s0,sp,128
    1bd0:	0200                	c.addi4spn	s0,sp,256
    1bd2:	0000                	c.unimp
    1bd4:	5f02                	c.lwsp	t5,32(sp)
    1bd6:	0000                	c.unimp
    1bd8:	0300                	c.addi4spn	s0,sp,384
    1bda:	0105                	c.addi	sp,1
    1bdc:	0500                	c.addi4spn	s0,sp,640
    1bde:	1c02                	c.slli	s8,0x20
    1be0:	000e                	c.slli	zero,0x3
    1be2:	0380                	c.addi4spn	s0,sp,448
    1be4:	011a                	c.slli	sp,0x6
    1be6:	0205                	c.addi	tp,1
    1be8:	00090103          	lb	sp,0(s2)
    1bec:	0100                	c.addi4spn	s0,sp,128
    1bee:	00090203          	lb	tp,0(s2)
    1bf2:	0100                	c.addi4spn	s0,sp,128
    1bf4:	0605                	c.addi	a2,1
    1bf6:	0306                	c.slli	t1,0x1
    1bf8:	0900                	c.addi4spn	s0,sp,144
    1bfa:	0000                	c.unimp
    1bfc:	0501                	c.addi	a0,0
    1bfe:	0305                	c.addi	t1,1
    1c00:	0900                	c.addi4spn	s0,sp,144
    1c02:	0008                	0x8
    1c04:	0501                	c.addi	a0,0
    1c06:	01030603          	lb	a2,16(t1)
    1c0a:	0409                	c.addi	s0,2
    1c0c:	0100                	c.addi4spn	s0,sp,128
    1c0e:	0a05                	c.addi	s4,1
    1c10:	0306                	c.slli	t1,0x1
    1c12:	0900                	c.addi4spn	s0,sp,144
    1c14:	0000                	c.unimp
    1c16:	0501                	c.addi	a0,0
    1c18:	030d                	c.addi	t1,3
    1c1a:	0900                	c.addi4spn	s0,sp,144
    1c1c:	0008                	0x8
    1c1e:	0501                	c.addi	a0,0
    1c20:	01030603          	lb	a2,16(t1)
    1c24:	0409                	c.addi	s0,2
    1c26:	0100                	c.addi4spn	s0,sp,128
    1c28:	0205                	c.addi	tp,1
    1c2a:	04090303          	lb	t1,64(s2)
    1c2e:	0100                	c.addi4spn	s0,sp,128
    1c30:	0605                	c.addi	a2,1
    1c32:	0306                	c.slli	t1,0x1
    1c34:	0900                	c.addi4spn	s0,sp,144
    1c36:	0000                	c.unimp
    1c38:	0501                	c.addi	a0,0
    1c3a:	0305                	c.addi	t1,1
    1c3c:	0900                	c.addi4spn	s0,sp,144
    1c3e:	0008                	0x8
    1c40:	0501                	c.addi	a0,0
    1c42:	0611                	c.addi	a2,4
    1c44:	04090003          	lb	zero,64(s2)
    1c48:	0100                	c.addi4spn	s0,sp,128
    1c4a:	0105                	c.addi	sp,1
    1c4c:	0306                	c.slli	t1,0x1
    1c4e:	0901                	c.addi	s2,0
    1c50:	0004                	0x4
    1c52:	0601                	c.addi	a2,0
    1c54:	04090a03          	lb	s4,64(s2)
    1c58:	0100                	c.addi4spn	s0,sp,128
    1c5a:	0205                	c.addi	tp,1
    1c5c:	00090103          	lb	sp,0(s2)
    1c60:	0100                	c.addi4spn	s0,sp,128
    1c62:	0105                	c.addi	sp,1
    1c64:	0306                	c.slli	t1,0x1
    1c66:	097f                	0x97f
    1c68:	0000                	c.unimp
    1c6a:	0301                	c.addi	t1,0
    1c6c:	0900                	c.addi4spn	s0,sp,144
    1c6e:	0014                	0x14
    1c70:	0501                	c.addi	a0,0
    1c72:	0609                	c.addi	a2,2
    1c74:	04090103          	lb	sp,64(s2)
    1c78:	0100                	c.addi4spn	s0,sp,128
    1c7a:	0605                	c.addi	a2,1
    1c7c:	0306                	c.slli	t1,0x1
    1c7e:	0974                	c.addi4spn	a3,sp,156
    1c80:	000c                	0xc
    1c82:	0501                	c.addi	a0,0
    1c84:	030a                	c.slli	t1,0x2
    1c86:	097c                	c.addi4spn	a5,sp,156
    1c88:	0008                	0x8
    1c8a:	0501                	c.addi	a0,0
    1c8c:	030d                	c.addi	t1,3
    1c8e:	0900                	c.addi4spn	s0,sp,144
    1c90:	0004                	0x4
    1c92:	0501                	c.addi	a0,0
    1c94:	01030603          	lb	a2,16(t1)
    1c98:	0409                	c.addi	s0,2
    1c9a:	0100                	c.addi4spn	s0,sp,128
    1c9c:	0905                	c.addi	s2,1
    1c9e:	00090f03          	lb	t5,0(s2)
    1ca2:	0100                	c.addi4spn	s0,sp,128
    1ca4:	0305                	c.addi	t1,1
    1ca6:	08090103          	lb	sp,128(s2)
    1caa:	0100                	c.addi4spn	s0,sp,128
    1cac:	00096f03          	0x96f03
    1cb0:	0100                	c.addi4spn	s0,sp,128
    1cb2:	0205                	c.addi	tp,1
    1cb4:	00090403          	lb	s0,0(s2)
    1cb8:	0100                	c.addi4spn	s0,sp,128
    1cba:	0605                	c.addi	a2,1
    1cbc:	0306                	c.slli	t1,0x1
    1cbe:	0000097b          	0x97b
    1cc2:	0501                	c.addi	a0,0
    1cc4:	030d                	c.addi	t1,3
    1cc6:	0912                	c.slli	s2,0x4
    1cc8:	0004                	0x4
    1cca:	0501                	c.addi	a0,0
    1ccc:	0602                	c.slli64	a2
    1cce:	04096c03          	0x4096c03
    1cd2:	0100                	c.addi4spn	s0,sp,128
    1cd4:	00090203          	lb	tp,0(s2)
    1cd8:	0100                	c.addi4spn	s0,sp,128
    1cda:	0a05                	c.addi	s4,1
    1cdc:	0306                	c.slli	t1,0x1
    1cde:	0901                	c.addi	s2,0
    1ce0:	0000                	c.unimp
    1ce2:	0501                	c.addi	a0,0
    1ce4:	0305                	c.addi	t1,1
    1ce6:	097f                	0x97f
    1ce8:	0004                	0x4
    1cea:	0501                	c.addi	a0,0
    1cec:	0611                	c.addi	a2,4
    1cee:	04090503          	lb	a0,64(s2)
    1cf2:	0100                	c.addi4spn	s0,sp,128
    1cf4:	0605                	c.addi	a2,1
    1cf6:	0306                	c.slli	t1,0x1
    1cf8:	0900                	c.addi4spn	s0,sp,144
    1cfa:	0000                	c.unimp
    1cfc:	0501                	c.addi	a0,0
    1cfe:	0305                	c.addi	t1,1
    1d00:	0900                	c.addi4spn	s0,sp,144
    1d02:	0004                	0x4
    1d04:	0501                	c.addi	a0,0
    1d06:	0311                	c.addi	t1,4
    1d08:	0900                	c.addi4spn	s0,sp,144
    1d0a:	0004                	0x4
    1d0c:	0501                	c.addi	a0,0
    1d0e:	0609                	c.addi	a2,2
    1d10:	04090c03          	lb	s8,64(s2)
    1d14:	0100                	c.addi4spn	s0,sp,128
    1d16:	0105                	c.addi	sp,1
    1d18:	0306                	c.slli	t1,0x1
    1d1a:	0902                	c.slli64	s2
    1d1c:	0008                	0x8
    1d1e:	0601                	c.addi	a2,0
    1d20:	0900e503          	0x900e503
    1d24:	0018                	0x18
    1d26:	0501                	c.addi	a0,0
    1d28:	0302                	c.slli64	t1
    1d2a:	0901                	c.addi	s2,0
    1d2c:	0000                	c.unimp
    1d2e:	0301                	c.addi	t1,0
    1d30:	00000903          	lb	s2,0(zero) # 0 <__stack_size-0x2000000>
    1d34:	0501                	c.addi	a0,0
    1d36:	0601                	c.addi	a2,0
    1d38:	00097c03          	0x97c03
    1d3c:	0100                	c.addi4spn	s0,sp,128
    1d3e:	38090003          	lb	zero,896(s2)
    1d42:	0100                	c.addi4spn	s0,sp,128
    1d44:	0505                	c.addi	a0,1
    1d46:	097fbb03          	0x97fbb03
    1d4a:	0020                	c.addi4spn	s0,sp,8
    1d4c:	0501                	c.addi	a0,0
    1d4e:	0302                	c.slli64	t1
    1d50:	00c9                	c.addi	ra,18
    1d52:	0409                	c.addi	s0,2
    1d54:	0100                	c.addi4spn	s0,sp,128
    1d56:	0306                	c.slli	t1,0x1
    1d58:	0901                	c.addi	s2,0
    1d5a:	0008                	0x8
    1d5c:	0301                	c.addi	t1,0
    1d5e:	7fb0                	c.flw	fa2,120(a5)
    1d60:	0409                	c.addi	s0,2
    1d62:	0100                	c.addi4spn	s0,sp,128
    1d64:	00090103          	lb	sp,0(s2)
    1d68:	0100                	c.addi4spn	s0,sp,128
    1d6a:	00090103          	lb	sp,0(s2)
    1d6e:	0100                	c.addi4spn	s0,sp,128
    1d70:	00090303          	lb	t1,0(s2)
    1d74:	0100                	c.addi4spn	s0,sp,128
    1d76:	0305                	c.addi	t1,1
    1d78:	00090103          	lb	sp,0(s2)
    1d7c:	0100                	c.addi4spn	s0,sp,128
    1d7e:	00090103          	lb	sp,0(s2)
    1d82:	0100                	c.addi4spn	s0,sp,128
    1d84:	0605                	c.addi	a2,1
    1d86:	0306                	c.slli	t1,0x1
    1d88:	0900                	c.addi4spn	s0,sp,144
    1d8a:	0000                	c.unimp
    1d8c:	0501                	c.addi	a0,0
    1d8e:	09150303          	lb	t1,145(a0)
    1d92:	0004                	0x4
    1d94:	0501                	c.addi	a0,0
    1d96:	0306                	c.slli	t1,0x1
    1d98:	0c097fb7          	lui	t6,0xc097
    1d9c:	0100                	c.addi4spn	s0,sp,128
    1d9e:	04090503          	lb	a0,64(s2)
    1da2:	0100                	c.addi4spn	s0,sp,128
    1da4:	0305                	c.addi	t1,1
    1da6:	0900c403          	lbu	s0,144(ra)
    1daa:	0004                	0x4
    1dac:	0501                	c.addi	a0,0
    1dae:	0306                	c.slli	t1,0x1
    1db0:	0912                	c.slli	s2,0x4
    1db2:	0004                	0x4
    1db4:	0501                	c.addi	a0,0
    1db6:	0604                	c.addi4spn	s1,sp,768
    1db8:	0c095b03          	lhu	s6,192(s2)
    1dbc:	0100                	c.addi4spn	s0,sp,128
    1dbe:	0205                	c.addi	tp,1
    1dc0:	00094803          	lbu	a6,0(s2)
    1dc4:	0100                	c.addi4spn	s0,sp,128
    1dc6:	00090203          	lb	tp,0(s2)
    1dca:	0100                	c.addi4spn	s0,sp,128
    1dcc:	0605                	c.addi	a2,1
    1dce:	0306                	c.slli	t1,0x1
    1dd0:	0900                	c.addi4spn	s0,sp,144
    1dd2:	0000                	c.unimp
    1dd4:	0501                	c.addi	a0,0
    1dd6:	0305                	c.addi	t1,1
    1dd8:	0900                	c.addi4spn	s0,sp,144
    1dda:	0004                	0x4
    1ddc:	0501                	c.addi	a0,0
    1dde:	01030603          	lb	a2,16(t1)
    1de2:	0409                	c.addi	s0,2
    1de4:	0100                	c.addi4spn	s0,sp,128
    1de6:	0a05                	c.addi	s4,1
    1de8:	0306                	c.slli	t1,0x1
    1dea:	0900                	c.addi4spn	s0,sp,144
    1dec:	0000                	c.unimp
    1dee:	0501                	c.addi	a0,0
    1df0:	030d                	c.addi	t1,3
    1df2:	0900                	c.addi4spn	s0,sp,144
    1df4:	0008                	0x8
    1df6:	0501                	c.addi	a0,0
    1df8:	01030603          	lb	a2,16(t1)
    1dfc:	0409                	c.addi	s0,2
    1dfe:	0100                	c.addi4spn	s0,sp,128
    1e00:	0205                	c.addi	tp,1
    1e02:	04092b03          	lw	s6,64(s2)
    1e06:	0100                	c.addi4spn	s0,sp,128
    1e08:	00090103          	lb	sp,0(s2)
    1e0c:	0100                	c.addi4spn	s0,sp,128
    1e0e:	00090103          	lb	sp,0(s2)
    1e12:	0100                	c.addi4spn	s0,sp,128
    1e14:	00090303          	lb	t1,0(s2)
    1e18:	0100                	c.addi4spn	s0,sp,128
    1e1a:	0305                	c.addi	t1,1
    1e1c:	00090103          	lb	sp,0(s2)
    1e20:	0100                	c.addi4spn	s0,sp,128
    1e22:	0505                	c.addi	a0,1
    1e24:	0306                	c.slli	t1,0x1
    1e26:	0900                	c.addi4spn	s0,sp,144
    1e28:	0000                	c.unimp
    1e2a:	0501                	c.addi	a0,0
    1e2c:	0900030b          	0x900030b
    1e30:	0004                	0x4
    1e32:	0501                	c.addi	a0,0
    1e34:	01030603          	lb	a2,16(t1)
    1e38:	0409                	c.addi	s0,2
    1e3a:	0100                	c.addi4spn	s0,sp,128
    1e3c:	0605                	c.addi	a2,1
    1e3e:	0306                	c.slli	t1,0x1
    1e40:	0900                	c.addi4spn	s0,sp,144
    1e42:	0000                	c.unimp
    1e44:	0501                	c.addi	a0,0
    1e46:	01030603          	lb	a2,16(t1)
    1e4a:	0409                	c.addi	s0,2
    1e4c:	0100                	c.addi4spn	s0,sp,128
    1e4e:	0605                	c.addi	a2,1
    1e50:	0306                	c.slli	t1,0x1
    1e52:	0900                	c.addi4spn	s0,sp,144
    1e54:	0000                	c.unimp
    1e56:	0501                	c.addi	a0,0
    1e58:	03030603          	lb	a2,48(t1)
    1e5c:	0809                	c.addi	a6,2
    1e5e:	0100                	c.addi4spn	s0,sp,128
    1e60:	00090103          	lb	sp,0(s2)
    1e64:	0100                	c.addi4spn	s0,sp,128
    1e66:	0505                	c.addi	a0,1
    1e68:	0306                	c.slli	t1,0x1
    1e6a:	0900                	c.addi4spn	s0,sp,144
    1e6c:	0000                	c.unimp
    1e6e:	0501                	c.addi	a0,0
    1e70:	01030603          	lb	a2,16(t1)
    1e74:	0409                	c.addi	s0,2
    1e76:	0100                	c.addi4spn	s0,sp,128
    1e78:	0605                	c.addi	a2,1
    1e7a:	0306                	c.slli	t1,0x1
    1e7c:	0900                	c.addi4spn	s0,sp,144
    1e7e:	0000                	c.unimp
    1e80:	0501                	c.addi	a0,0
    1e82:	0604                	c.addi4spn	s1,sp,768
    1e84:	08090303          	lb	t1,128(s2)
    1e88:	0100                	c.addi4spn	s0,sp,128
    1e8a:	0705                	c.addi	a4,1
    1e8c:	0306                	c.slli	t1,0x1
    1e8e:	0900                	c.addi4spn	s0,sp,144
    1e90:	0000                	c.unimp
    1e92:	0501                	c.addi	a0,0
    1e94:	097c030b          	0x97c030b
    1e98:	0008                	0x8
    1e9a:	0501                	c.addi	a0,0
    1e9c:	0305                	c.addi	t1,1
    1e9e:	097f                	0x97f
    1ea0:	0004                	0x4
    1ea2:	0501                	c.addi	a0,0
    1ea4:	09030603          	lb	a2,144(t1)
    1ea8:	0409                	c.addi	s0,2
    1eaa:	0100                	c.addi4spn	s0,sp,128
    1eac:	1805                	c.addi	a6,-31
    1eae:	00090003          	lb	zero,0(s2)
    1eb2:	0100                	c.addi4spn	s0,sp,128
    1eb4:	0a05                	c.addi	s4,1
    1eb6:	0306                	c.slli	t1,0x1
    1eb8:	0900                	c.addi4spn	s0,sp,144
    1eba:	000c                	0xc
    1ebc:	0501                	c.addi	a0,0
    1ebe:	0318                	c.addi4spn	a4,sp,384
    1ec0:	0900                	c.addi4spn	s0,sp,144
    1ec2:	0004                	0x4
    1ec4:	0501                	c.addi	a0,0
    1ec6:	0604                	c.addi4spn	s1,sp,768
    1ec8:	04090103          	lb	sp,64(s2)
    1ecc:	0100                	c.addi4spn	s0,sp,128
    1ece:	0a05                	c.addi	s4,1
    1ed0:	0306                	c.slli	t1,0x1
    1ed2:	0900                	c.addi4spn	s0,sp,144
    1ed4:	0000                	c.unimp
    1ed6:	0501                	c.addi	a0,0
    1ed8:	032d                	c.addi	t1,11
    1eda:	097f                	0x97f
    1edc:	000c                	0xc
    1ede:	0501                	c.addi	a0,0
    1ee0:	0901030f          	0x901030f
    1ee4:	0004                	0x4
    1ee6:	0501                	c.addi	a0,0
    1ee8:	097f0327          	0x97f0327
    1eec:	0004                	0x4
    1eee:	0501                	c.addi	a0,0
    1ef0:	0306                	c.slli	t1,0x1
    1ef2:	0901                	c.addi	s2,0
    1ef4:	0004                	0x4
    1ef6:	0501                	c.addi	a0,0
    1ef8:	7f030627          	0x7f030627
    1efc:	0409                	c.addi	s0,2
    1efe:	0100                	c.addi4spn	s0,sp,128
    1f00:	1805                	c.addi	a6,-31
    1f02:	00090003          	lb	zero,0(s2)
    1f06:	0100                	c.addi4spn	s0,sp,128
    1f08:	0305                	c.addi	t1,1
    1f0a:	0c090203          	lb	tp,192(s2)
    1f0e:	0100                	c.addi4spn	s0,sp,128
    1f10:	1005                	c.addi	zero,-31
    1f12:	0306                	c.slli	t1,0x1
    1f14:	0900                	c.addi4spn	s0,sp,144
    1f16:	0000                	c.unimp
    1f18:	0501                	c.addi	a0,0
    1f1a:	03030603          	lb	a2,48(t1)
    1f1e:	0c09                	c.addi	s8,2
    1f20:	0100                	c.addi4spn	s0,sp,128
    1f22:	0605                	c.addi	a2,1
    1f24:	0306                	c.slli	t1,0x1
    1f26:	0900                	c.addi4spn	s0,sp,144
    1f28:	0000                	c.unimp
    1f2a:	0501                	c.addi	a0,0
    1f2c:	01030603          	lb	a2,16(t1)
    1f30:	0409                	c.addi	s0,2
    1f32:	0100                	c.addi4spn	s0,sp,128
    1f34:	00090103          	lb	sp,0(s2)
    1f38:	0100                	c.addi4spn	s0,sp,128
    1f3a:	0605                	c.addi	a2,1
    1f3c:	0306                	c.slli	t1,0x1
    1f3e:	0900                	c.addi4spn	s0,sp,144
    1f40:	0000                	c.unimp
    1f42:	0501                	c.addi	a0,0
    1f44:	0611                	c.addi	a2,4
    1f46:	0c090003          	lb	zero,192(s2)
    1f4a:	0100                	c.addi4spn	s0,sp,128
    1f4c:	1305                	c.addi	t1,-31
    1f4e:	0306                	c.slli	t1,0x1
    1f50:	0900                	c.addi4spn	s0,sp,144
    1f52:	0000                	c.unimp
    1f54:	0501                	c.addi	a0,0
    1f56:	01030603          	lb	a2,16(t1)
    1f5a:	0809                	c.addi	a6,2
    1f5c:	0100                	c.addi4spn	s0,sp,128
    1f5e:	0405                	c.addi	s0,1
    1f60:	24097b03          	0x24097b03
    1f64:	0100                	c.addi4spn	s0,sp,128
    1f66:	0e05                	c.addi	t3,1
    1f68:	0306                	c.slli	t1,0x1
    1f6a:	0900                	c.addi4spn	s0,sp,144
    1f6c:	0000                	c.unimp
    1f6e:	0501                	c.addi	a0,0
    1f70:	0306                	c.slli	t1,0x1
    1f72:	0900                	c.addi4spn	s0,sp,144
    1f74:	0004                	0x4
    1f76:	0501                	c.addi	a0,0
    1f78:	060c                	c.addi4spn	a1,sp,768
    1f7a:	04090003          	lb	zero,64(s2)
    1f7e:	0100                	c.addi4spn	s0,sp,128
    1f80:	1405                	c.addi	s0,-31
    1f82:	0306                	c.slli	t1,0x1
    1f84:	0900                	c.addi4spn	s0,sp,144
    1f86:	0000                	c.unimp
    1f88:	0501                	c.addi	a0,0
    1f8a:	02030603          	lb	a2,32(t1)
    1f8e:	0409                	c.addi	s0,2
    1f90:	0100                	c.addi4spn	s0,sp,128
    1f92:	0605                	c.addi	a2,1
    1f94:	0306                	c.slli	t1,0x1
    1f96:	0900                	c.addi4spn	s0,sp,144
    1f98:	0000                	c.unimp
    1f9a:	0501                	c.addi	a0,0
    1f9c:	0301                	c.addi	t1,0
    1f9e:	0939                	c.addi	s2,14
    1fa0:	0004                	0x4
    1fa2:	0501                	c.addi	a0,0
    1fa4:	0604                	c.addi4spn	s1,sp,768
    1fa6:	3c095e03          	lhu	t3,960(s2)
    1faa:	0100                	c.addi4spn	s0,sp,128
    1fac:	0205                	c.addi	tp,1
    1fae:	097fa103          	lw	sp,151(t6) # c097097 <__stack_size+0xa097097>
    1fb2:	0000                	c.unimp
    1fb4:	0301                	c.addi	t1,0
    1fb6:	0902                	c.slli64	s2
    1fb8:	0000                	c.unimp
    1fba:	0501                	c.addi	a0,0
    1fbc:	0606                	c.slli	a2,0x1
    1fbe:	00090003          	lb	zero,0(s2)
    1fc2:	0100                	c.addi4spn	s0,sp,128
    1fc4:	0505                	c.addi	a0,1
    1fc6:	04090003          	lb	zero,64(s2)
    1fca:	0100                	c.addi4spn	s0,sp,128
    1fcc:	0305                	c.addi	t1,1
    1fce:	0306                	c.slli	t1,0x1
    1fd0:	0901                	c.addi	s2,0
    1fd2:	0004                	0x4
    1fd4:	0501                	c.addi	a0,0
    1fd6:	060a                	c.slli	a2,0x2
    1fd8:	00090003          	lb	zero,0(s2)
    1fdc:	0100                	c.addi4spn	s0,sp,128
    1fde:	0d05                	c.addi	s10,1
    1fe0:	08090003          	lb	zero,128(s2)
    1fe4:	0100                	c.addi4spn	s0,sp,128
    1fe6:	0305                	c.addi	t1,1
    1fe8:	0306                	c.slli	t1,0x1
    1fea:	0901                	c.addi	s2,0
    1fec:	0004                	0x4
    1fee:	0301                	c.addi	t1,0
    1ff0:	00df 0409 0100      	0x100040900df
    1ff6:	0a05                	c.addi	s4,1
    1ff8:	0306                	c.slli	t1,0x1
    1ffa:	0900                	c.addi4spn	s0,sp,144
    1ffc:	0000                	c.unimp
    1ffe:	0501                	c.addi	a0,0
    2000:	09000323          	sb	a6,134(zero) # 86 <__stack_size-0x1ffff7a>
    2004:	0004                	0x4
    2006:	0501                	c.addi	a0,0
    2008:	0311                	c.addi	t1,4
    200a:	0900                	c.addi4spn	s0,sp,144
    200c:	0004                	0x4
    200e:	0501                	c.addi	a0,0
    2010:	0306                	c.slli	t1,0x1
    2012:	0901                	c.addi	s2,0
    2014:	0004                	0x4
    2016:	0501                	c.addi	a0,0
    2018:	0311                	c.addi	t1,4
    201a:	097f                	0x97f
    201c:	0004                	0x4
    201e:	0501                	c.addi	a0,0
    2020:	09000323          	sb	a6,134(zero) # 86 <__stack_size-0x1ffff7a>
    2024:	000c                	0xc
    2026:	0501                	c.addi	a0,0
    2028:	01030603          	lb	a2,16(t1)
    202c:	0409                	c.addi	s0,2
    202e:	0100                	c.addi4spn	s0,sp,128
    2030:	0605                	c.addi	a2,1
    2032:	0306                	c.slli	t1,0x1
    2034:	0900                	c.addi4spn	s0,sp,144
    2036:	0000                	c.unimp
    2038:	0501                	c.addi	a0,0
    203a:	0310                	c.addi4spn	a2,sp,384
    203c:	0900                	c.addi4spn	s0,sp,144
    203e:	000c                	0xc
    2040:	0501                	c.addi	a0,0
    2042:	0604                	c.addi4spn	s1,sp,768
    2044:	04090103          	lb	sp,64(s2)
    2048:	0100                	c.addi4spn	s0,sp,128
    204a:	0605                	c.addi	a2,1
    204c:	0306                	c.slli	t1,0x1
    204e:	0901                	c.addi	s2,0
    2050:	0000                	c.unimp
    2052:	0301                	c.addi	t1,0
    2054:	097f                	0x97f
    2056:	0004                	0x4
    2058:	0501                	c.addi	a0,0
    205a:	0604                	c.addi4spn	s1,sp,768
    205c:	04090103          	lb	sp,64(s2)
    2060:	0100                	c.addi4spn	s0,sp,128
    2062:	0605                	c.addi	a2,1
    2064:	0306                	c.slli	t1,0x1
    2066:	0900                	c.addi4spn	s0,sp,144
    2068:	0000                	c.unimp
    206a:	0501                	c.addi	a0,0
    206c:	0604                	c.addi4spn	s1,sp,768
    206e:	0c096e03          	0xc096e03
    2072:	0100                	c.addi4spn	s0,sp,128
    2074:	0605                	c.addi	a2,1
    2076:	0306                	c.slli	t1,0x1
    2078:	7fae                	c.flwsp	ft11,232(sp)
    207a:	0409                	c.addi	s0,2
    207c:	0100                	c.addi4spn	s0,sp,128
    207e:	0405                	c.addi	s0,1
    2080:	0900d203          	lhu	tp,144(ra)
    2084:	0004                	0x4
    2086:	0501                	c.addi	a0,0
    2088:	0310                	c.addi4spn	a2,sp,384
    208a:	0900                	c.addi4spn	s0,sp,144
    208c:	0004                	0x4
    208e:	0501                	c.addi	a0,0
    2090:	0602                	c.slli64	a2
    2092:	097fac03          	lw	s8,151(t6)
    2096:	0004                	0x4
    2098:	0301                	c.addi	t1,0
    209a:	0902                	c.slli64	s2
    209c:	0000                	c.unimp
    209e:	0501                	c.addi	a0,0
    20a0:	0605                	c.addi	a2,1
    20a2:	00090003          	lb	zero,0(s2)
    20a6:	0100                	c.addi4spn	s0,sp,128
    20a8:	0305                	c.addi	t1,1
    20aa:	0306                	c.slli	t1,0x1
    20ac:	0901                	c.addi	s2,0
    20ae:	0004                	0x4
    20b0:	0501                	c.addi	a0,0
    20b2:	060a                	c.slli	a2,0x2
    20b4:	00090003          	lb	zero,0(s2)
    20b8:	0100                	c.addi4spn	s0,sp,128
    20ba:	0d05                	c.addi	s10,1
    20bc:	08090003          	lb	zero,128(s2)
    20c0:	0100                	c.addi4spn	s0,sp,128
    20c2:	0305                	c.addi	t1,1
    20c4:	0306                	c.slli	t1,0x1
    20c6:	0901                	c.addi	s2,0
    20c8:	0004                	0x4
    20ca:	0501                	c.addi	a0,0
    20cc:	0610                	c.addi4spn	a2,sp,768
    20ce:	0900d003          	lhu	zero,144(ra)
    20d2:	0000                	c.unimp
    20d4:	0501                	c.addi	a0,0
    20d6:	7fb00303          	lb	t1,2043(zero) # 7fb <__stack_size-0x1fff805>
    20da:	0409                	c.addi	s0,2
    20dc:	0100                	c.addi4spn	s0,sp,128
    20de:	0405                	c.addi	s0,1
    20e0:	0306                	c.slli	t1,0x1
    20e2:	00c9                	c.addi	ra,18
    20e4:	0409                	c.addi	s0,2
    20e6:	0100                	c.addi4spn	s0,sp,128
    20e8:	0605                	c.addi	a2,1
    20ea:	0306                	c.slli	t1,0x1
    20ec:	0900                	c.addi4spn	s0,sp,144
    20ee:	0000                	c.unimp
    20f0:	0501                	c.addi	a0,0
    20f2:	0902030f          	0x902030f
    20f6:	0004                	0x4
    20f8:	0501                	c.addi	a0,0
    20fa:	0306                	c.slli	t1,0x1
    20fc:	097e                	c.slli	s2,0x1f
    20fe:	0004                	0x4
    2100:	0501                	c.addi	a0,0
    2102:	0604                	c.addi4spn	s1,sp,768
    2104:	08090103          	lb	sp,128(s2)
    2108:	0100                	c.addi4spn	s0,sp,128
    210a:	1005                	c.addi	zero,-31
    210c:	00090003          	lb	zero,0(s2)
    2110:	0100                	c.addi4spn	s0,sp,128
    2112:	1105                	c.addi	sp,-31
    2114:	0306                	c.slli	t1,0x1
    2116:	0900                	c.addi4spn	s0,sp,144
    2118:	0000                	c.unimp
    211a:	0501                	c.addi	a0,0
    211c:	0310                	c.addi4spn	a2,sp,384
    211e:	0900                	c.addi4spn	s0,sp,144
    2120:	0004                	0x4
    2122:	0501                	c.addi	a0,0
    2124:	0900030b          	0x900030b
    2128:	0004                	0x4
    212a:	0501                	c.addi	a0,0
    212c:	00030617          	auipc	a2,0x30
    2130:	0409                	c.addi	s0,2
    2132:	0100                	c.addi4spn	s0,sp,128
    2134:	1005                	c.addi	zero,-31
    2136:	08090003          	lb	zero,128(s2)
    213a:	0100                	c.addi4spn	s0,sp,128
    213c:	1105                	c.addi	sp,-31
    213e:	0306                	c.slli	t1,0x1
    2140:	0900                	c.addi4spn	s0,sp,144
    2142:	0000                	c.unimp
    2144:	0501                	c.addi	a0,0
    2146:	0310                	c.addi4spn	a2,sp,384
    2148:	0900                	c.addi4spn	s0,sp,144
    214a:	0004                	0x4
    214c:	0501                	c.addi	a0,0
    214e:	0614                	c.addi4spn	a3,sp,768
    2150:	08090103          	lb	sp,128(s2)
    2154:	0100                	c.addi4spn	s0,sp,128
    2156:	1805                	c.addi	a6,-31
    2158:	0306                	c.slli	t1,0x1
    215a:	0900                	c.addi4spn	s0,sp,144
    215c:	0000                	c.unimp
    215e:	0501                	c.addi	a0,0
    2160:	0314                	c.addi4spn	a3,sp,384
    2162:	0900                	c.addi4spn	s0,sp,144
    2164:	0004                	0x4
    2166:	0501                	c.addi	a0,0
    2168:	0318                	c.addi4spn	a4,sp,384
    216a:	0900                	c.addi4spn	s0,sp,144
    216c:	0004                	0x4
    216e:	0501                	c.addi	a0,0
    2170:	0314                	c.addi4spn	a3,sp,384
    2172:	0900                	c.addi4spn	s0,sp,144
    2174:	0004                	0x4
    2176:	0501                	c.addi	a0,0
    2178:	0318                	c.addi4spn	a4,sp,384
    217a:	0900                	c.addi4spn	s0,sp,144
    217c:	0004                	0x4
    217e:	0501                	c.addi	a0,0
    2180:	b4030603          	lb	a2,-1216(t1)
    2184:	097f                	0x97f
    2186:	0008                	0x8
    2188:	0501                	c.addi	a0,0
    218a:	060a                	c.slli	a2,0x2
    218c:	00090003          	lb	zero,0(s2)
    2190:	0100                	c.addi4spn	s0,sp,128
    2192:	0d05                	c.addi	s10,1
    2194:	08090003          	lb	zero,128(s2)
    2198:	0100                	c.addi4spn	s0,sp,128
    219a:	0305                	c.addi	t1,1
    219c:	0306                	c.slli	t1,0x1
    219e:	0901                	c.addi	s2,0
    21a0:	0008                	0x8
    21a2:	0501                	c.addi	a0,0
    21a4:	0314                	c.addi4spn	a3,sp,384
    21a6:	000900cb          	fnmsub.s	ft1,fs2,ft0,ft0,rne
    21aa:	0100                	c.addi4spn	s0,sp,128
    21ac:	1805                	c.addi	a6,-31
    21ae:	0306                	c.slli	t1,0x1
    21b0:	0900                	c.addi4spn	s0,sp,144
    21b2:	0000                	c.unimp
    21b4:	0501                	c.addi	a0,0
    21b6:	0314                	c.addi4spn	a3,sp,384
    21b8:	0900                	c.addi4spn	s0,sp,144
    21ba:	0004                	0x4
    21bc:	0501                	c.addi	a0,0
    21be:	0318                	c.addi4spn	a4,sp,384
    21c0:	0900                	c.addi4spn	s0,sp,144
    21c2:	0004                	0x4
    21c4:	0501                	c.addi	a0,0
    21c6:	0620                	c.addi4spn	s0,sp,776
    21c8:	04090003          	lb	zero,64(s2)
    21cc:	0100                	c.addi4spn	s0,sp,128
    21ce:	0205                	c.addi	tp,1
    21d0:	097fb103          	0x97fb103
    21d4:	0000                	c.unimp
    21d6:	0301                	c.addi	t1,0
    21d8:	0902                	c.slli64	s2
    21da:	0000                	c.unimp
    21dc:	0501                	c.addi	a0,0
    21de:	0606                	c.slli	a2,0x1
    21e0:	00090003          	lb	zero,0(s2)
    21e4:	0100                	c.addi4spn	s0,sp,128
    21e6:	0505                	c.addi	a0,1
    21e8:	04090003          	lb	zero,64(s2)
    21ec:	0100                	c.addi4spn	s0,sp,128
    21ee:	0205                	c.addi	tp,1
    21f0:	0306                	c.slli	t1,0x1
    21f2:	0905                	c.addi	s2,1
    21f4:	0004                	0x4
    21f6:	0501                	c.addi	a0,0
    21f8:	0606                	c.slli	a2,0x1
    21fa:	00090003          	lb	zero,0(s2)
    21fe:	0100                	c.addi4spn	s0,sp,128
    2200:	0505                	c.addi	a0,1
    2202:	04090003          	lb	zero,64(s2)
    2206:	0100                	c.addi4spn	s0,sp,128
    2208:	1105                	c.addi	sp,-31
    220a:	0306                	c.slli	t1,0x1
    220c:	0900                	c.addi4spn	s0,sp,144
    220e:	0004                	0x4
    2210:	0501                	c.addi	a0,0
    2212:	0314                	c.addi4spn	a3,sp,384
    2214:	00c8                	c.addi4spn	a0,sp,68
    2216:	0809                	c.addi	a6,2
    2218:	0100                	c.addi4spn	s0,sp,128
    221a:	1805                	c.addi	a6,-31
    221c:	0306                	c.slli	t1,0x1
    221e:	0900                	c.addi4spn	s0,sp,144
    2220:	0000                	c.unimp
    2222:	0501                	c.addi	a0,0
    2224:	0314                	c.addi4spn	a3,sp,384
    2226:	0900                	c.addi4spn	s0,sp,144
    2228:	0004                	0x4
    222a:	0501                	c.addi	a0,0
    222c:	0318                	c.addi4spn	a4,sp,384
    222e:	0900                	c.addi4spn	s0,sp,144
    2230:	0004                	0x4
    2232:	0501                	c.addi	a0,0
    2234:	0309                	c.addi	t1,2
    2236:	0944                	c.addi4spn	s1,sp,148
    2238:	0008                	0x8
    223a:	0501                	c.addi	a0,0
    223c:	0318                	c.addi4spn	a4,sp,384
    223e:	093c                	c.addi4spn	a5,sp,152
    2240:	0004                	0x4
    2242:	0501                	c.addi	a0,0
    2244:	030c                	c.addi4spn	a1,sp,384
    2246:	0902                	c.slli64	s2
    2248:	0008                	0x8
    224a:	0501                	c.addi	a0,0
    224c:	0604                	c.addi4spn	s1,sp,768
    224e:	04097f03          	0x4097f03
    2252:	0100                	c.addi4spn	s0,sp,128
    2254:	0905                	c.addi	s2,1
    2256:	00094303          	lbu	t1,0(s2)
    225a:	0100                	c.addi4spn	s0,sp,128
    225c:	0f05                	c.addi	t5,1
    225e:	04093e03          	0x4093e03
    2262:	0100                	c.addi4spn	s0,sp,128
    2264:	0305                	c.addi	t1,1
    2266:	097fb203          	0x97fb203
    226a:	0008                	0x8
    226c:	0501                	c.addi	a0,0
    226e:	060a                	c.slli	a2,0x2
    2270:	00090003          	lb	zero,0(s2)
    2274:	0100                	c.addi4spn	s0,sp,128
    2276:	0d05                	c.addi	s10,1
    2278:	08090003          	lb	zero,128(s2)
    227c:	0100                	c.addi4spn	s0,sp,128
    227e:	0305                	c.addi	t1,1
    2280:	0306                	c.slli	t1,0x1
    2282:	0901                	c.addi	s2,0
    2284:	0008                	0x8
    2286:	0501                	c.addi	a0,0
    2288:	00cd030f          	0xcd030f
    228c:	0009                	c.addi	zero,2
    228e:	0100                	c.addi4spn	s0,sp,128
    2290:	0c05                	c.addi	s8,1
    2292:	0306                	c.slli	t1,0x1
    2294:	0900                	c.addi4spn	s0,sp,144
    2296:	0000                	c.unimp
    2298:	0501                	c.addi	a0,0
    229a:	0900030f          	0x900030f
    229e:	0004                	0x4
    22a0:	0501                	c.addi	a0,0
    22a2:	030c                	c.addi4spn	a1,sp,384
    22a4:	0900                	c.addi4spn	s0,sp,144
    22a6:	0004                	0x4
    22a8:	0501                	c.addi	a0,0
    22aa:	0614                	c.addi4spn	a3,sp,768
    22ac:	04090003          	lb	zero,64(s2)
    22b0:	0100                	c.addi4spn	s0,sp,128
    22b2:	0205                	c.addi	tp,1
    22b4:	097faf03          	lw	t5,151(t6)
    22b8:	0000                	c.unimp
    22ba:	0301                	c.addi	t1,0
    22bc:	0902                	c.slli64	s2
    22be:	0000                	c.unimp
    22c0:	0501                	c.addi	a0,0
    22c2:	0606                	c.slli	a2,0x1
    22c4:	00090003          	lb	zero,0(s2)
    22c8:	0100                	c.addi4spn	s0,sp,128
    22ca:	0505                	c.addi	a0,1
    22cc:	04090003          	lb	zero,64(s2)
    22d0:	0100                	c.addi4spn	s0,sp,128
    22d2:	0205                	c.addi	tp,1
    22d4:	0306                	c.slli	t1,0x1
    22d6:	0905                	c.addi	s2,1
    22d8:	0004                	0x4
    22da:	0501                	c.addi	a0,0
    22dc:	0606                	c.slli	a2,0x1
    22de:	00090003          	lb	zero,0(s2)
    22e2:	0100                	c.addi4spn	s0,sp,128
    22e4:	0505                	c.addi	a0,1
    22e6:	04090003          	lb	zero,64(s2)
    22ea:	0100                	c.addi4spn	s0,sp,128
    22ec:	1105                	c.addi	sp,-31
    22ee:	0306                	c.slli	t1,0x1
    22f0:	0900                	c.addi4spn	s0,sp,144
    22f2:	0004                	0x4
    22f4:	0501                	c.addi	a0,0
    22f6:	00ca030f          	0xca030f
    22fa:	0809                	c.addi	a6,2
    22fc:	0100                	c.addi4spn	s0,sp,128
    22fe:	0c05                	c.addi	s8,1
    2300:	0306                	c.slli	t1,0x1
    2302:	0900                	c.addi4spn	s0,sp,144
    2304:	0000                	c.unimp
    2306:	0501                	c.addi	a0,0
    2308:	0900030f          	0x900030f
    230c:	0004                	0x4
    230e:	0501                	c.addi	a0,0
    2310:	0306                	c.slli	t1,0x1
    2312:	097c                	c.addi4spn	a5,sp,156
    2314:	0004                	0x4
    2316:	0501                	c.addi	a0,0
    2318:	b6030603          	lb	a2,-1184(t1)
    231c:	097f                	0x97f
    231e:	0008                	0x8
    2320:	0501                	c.addi	a0,0
    2322:	060a                	c.slli	a2,0x2
    2324:	00090003          	lb	zero,0(s2)
    2328:	0100                	c.addi4spn	s0,sp,128
    232a:	0d05                	c.addi	s10,1
    232c:	08090003          	lb	zero,128(s2)
    2330:	0100                	c.addi4spn	s0,sp,128
    2332:	0305                	c.addi	t1,1
    2334:	0306                	c.slli	t1,0x1
    2336:	0901                	c.addi	s2,0
    2338:	0004                	0x4
    233a:	0501                	c.addi	a0,0
    233c:	0309                	c.addi	t1,2
    233e:	0000090f          	0x90f
    2342:	0501                	c.addi	a0,0
    2344:	09010303          	lb	t1,144(sp)
    2348:	0008                	0x8
    234a:	0501                	c.addi	a0,0
    234c:	0606                	c.slli	a2,0x1
    234e:	00096e03          	0x96e03
    2352:	0100                	c.addi4spn	s0,sp,128
    2354:	0d05                	c.addi	s10,1
    2356:	04091203          	lh	tp,64(s2)
    235a:	0100                	c.addi4spn	s0,sp,128
    235c:	0205                	c.addi	tp,1
    235e:	0306                	c.slli	t1,0x1
    2360:	096c                	c.addi4spn	a1,sp,156
    2362:	0004                	0x4
    2364:	0301                	c.addi	t1,0
    2366:	0902                	c.slli64	s2
    2368:	0000                	c.unimp
    236a:	0501                	c.addi	a0,0
    236c:	0605                	c.addi	a2,1
    236e:	00090003          	lb	zero,0(s2)
    2372:	0100                	c.addi4spn	s0,sp,128
    2374:	0205                	c.addi	tp,1
    2376:	0306                	c.slli	t1,0x1
    2378:	0905                	c.addi	s2,1
    237a:	0004                	0x4
    237c:	0501                	c.addi	a0,0
    237e:	0606                	c.slli	a2,0x1
    2380:	00090003          	lb	zero,0(s2)
    2384:	0100                	c.addi4spn	s0,sp,128
    2386:	0505                	c.addi	a0,1
    2388:	04090003          	lb	zero,64(s2)
    238c:	0100                	c.addi4spn	s0,sp,128
    238e:	1105                	c.addi	sp,-31
    2390:	0306                	c.slli	t1,0x1
    2392:	0900                	c.addi4spn	s0,sp,144
    2394:	0004                	0x4
    2396:	0501                	c.addi	a0,0
    2398:	00dc0303          	lb	t1,13(s8)
    239c:	0809                	c.addi	a6,2
    239e:	0100                	c.addi4spn	s0,sp,128
    23a0:	0a05                	c.addi	s4,1
    23a2:	0306                	c.slli	t1,0x1
    23a4:	0900                	c.addi4spn	s0,sp,144
    23a6:	0000                	c.unimp
    23a8:	0501                	c.addi	a0,0
    23aa:	0306                	c.slli	t1,0x1
    23ac:	0975                	c.addi	s2,29
    23ae:	0004                	0x4
    23b0:	0501                	c.addi	a0,0
    23b2:	090b0323          	sb	a6,134(s6)
    23b6:	0004                	0x4
    23b8:	0501                	c.addi	a0,0
    23ba:	01030603          	lb	a2,16(t1)
    23be:	1009                	c.addi	zero,-30
    23c0:	0100                	c.addi4spn	s0,sp,128
    23c2:	2305                	c.jal	28e2 <__stack_size-0x1ffd71e>
    23c4:	0306                	c.slli	t1,0x1
    23c6:	097f                	0x97f
    23c8:	0000                	c.unimp
    23ca:	0501                	c.addi	a0,0
    23cc:	05030603          	lb	a2,80(t1)
    23d0:	0809                	c.addi	a6,2
    23d2:	0100                	c.addi4spn	s0,sp,128
    23d4:	0505                	c.addi	a0,1
    23d6:	0306                	c.slli	t1,0x1
    23d8:	0900                	c.addi4spn	s0,sp,144
    23da:	0018                	0x18
    23dc:	0501                	c.addi	a0,0
    23de:	09030307          	0x9030307
    23e2:	0004                	0x4
    23e4:	0501                	c.addi	a0,0
    23e6:	7e030603          	lb	a2,2016(t1)
    23ea:	0c09                	c.addi	s8,2
    23ec:	0100                	c.addi4spn	s0,sp,128
    23ee:	0405                	c.addi	s0,1
    23f0:	00090103          	lb	sp,0(s2)
    23f4:	0100                	c.addi4spn	s0,sp,128
    23f6:	1105                	c.addi	sp,-31
    23f8:	0306                	c.slli	t1,0x1
    23fa:	0900                	c.addi4spn	s0,sp,144
    23fc:	0000                	c.unimp
    23fe:	0501                	c.addi	a0,0
    2400:	0319                	c.addi	t1,6
    2402:	0900                	c.addi4spn	s0,sp,144
    2404:	0010                	0x10
    2406:	0501                	c.addi	a0,0
    2408:	0306                	c.slli	t1,0x1
    240a:	0900                	c.addi4spn	s0,sp,144
    240c:	0010                	0x10
    240e:	0501                	c.addi	a0,0
    2410:	00030617          	auipc	a2,0x30
    2414:	0409                	c.addi	s0,2
    2416:	0100                	c.addi4spn	s0,sp,128
    2418:	1905                	c.addi	s2,-31
    241a:	0306                	c.slli	t1,0x1
    241c:	0900                	c.addi4spn	s0,sp,144
    241e:	0000                	c.unimp
    2420:	0501                	c.addi	a0,0
    2422:	0604                	c.addi4spn	s1,sp,768
    2424:	04090103          	lb	sp,64(s2)
    2428:	0100                	c.addi4spn	s0,sp,128
    242a:	0705                	c.addi	a4,1
    242c:	0306                	c.slli	t1,0x1
    242e:	0900                	c.addi4spn	s0,sp,144
    2430:	0000                	c.unimp
    2432:	0501                	c.addi	a0,0
    2434:	0003060f          	0x3060f
    2438:	0409                	c.addi	s0,2
    243a:	0100                	c.addi4spn	s0,sp,128
    243c:	1105                	c.addi	sp,-31
    243e:	0306                	c.slli	t1,0x1
    2440:	0900                	c.addi4spn	s0,sp,144
    2442:	0000                	c.unimp
    2444:	0501                	c.addi	a0,0
    2446:	0604                	c.addi4spn	s1,sp,768
    2448:	0c090103          	lb	sp,192(s2)
    244c:	0100                	c.addi4spn	s0,sp,128
    244e:	0705                	c.addi	a4,1
    2450:	0306                	c.slli	t1,0x1
    2452:	0900                	c.addi4spn	s0,sp,144
    2454:	0000                	c.unimp
    2456:	0501                	c.addi	a0,0
    2458:	0900030b          	0x900030b
    245c:	0004                	0x4
    245e:	0501                	c.addi	a0,0
    2460:	0900030f          	0x900030f
    2464:	0004                	0x4
    2466:	0501                	c.addi	a0,0
    2468:	0900030b          	0x900030b
    246c:	0004                	0x4
    246e:	0501                	c.addi	a0,0
    2470:	060e                	c.slli	a2,0x3
    2472:	04090103          	lb	sp,64(s2)
    2476:	0100                	c.addi4spn	s0,sp,128
    2478:	0305                	c.addi	t1,1
    247a:	0c090103          	lb	sp,192(s2)
    247e:	0100                	c.addi4spn	s0,sp,128
    2480:	0605                	c.addi	a2,1
    2482:	0306                	c.slli	t1,0x1
    2484:	0900                	c.addi4spn	s0,sp,144
    2486:	0000                	c.unimp
    2488:	0501                	c.addi	a0,0
    248a:	060e                	c.slli	a2,0x3
    248c:	08090003          	lb	zero,128(s2)
    2490:	0100                	c.addi4spn	s0,sp,128
    2492:	1505                	c.addi	a0,-31
    2494:	0306                	c.slli	t1,0x1
    2496:	0900                	c.addi4spn	s0,sp,144
    2498:	0000                	c.unimp
    249a:	0501                	c.addi	a0,0
    249c:	0311                	c.addi	t1,4
    249e:	0900                	c.addi4spn	s0,sp,144
    24a0:	0014                	0x14
    24a2:	0501                	c.addi	a0,0
    24a4:	01030603          	lb	a2,16(t1)
    24a8:	0409                	c.addi	s0,2
    24aa:	0100                	c.addi4spn	s0,sp,128
    24ac:	0a05                	c.addi	s4,1
    24ae:	00090003          	lb	zero,0(s2)
    24b2:	0100                	c.addi4spn	s0,sp,128
    24b4:	0c05                	c.addi	s8,1
    24b6:	0306                	c.slli	t1,0x1
    24b8:	0900                	c.addi4spn	s0,sp,144
    24ba:	0000                	c.unimp
    24bc:	0501                	c.addi	a0,0
    24be:	030e                	c.slli	t1,0x3
    24c0:	0901                	c.addi	s2,0
    24c2:	0008                	0x8
    24c4:	0501                	c.addi	a0,0
    24c6:	0306                	c.slli	t1,0x1
    24c8:	7f92                	c.flwsp	ft11,36(sp)
    24ca:	0409                	c.addi	s0,2
    24cc:	0100                	c.addi4spn	s0,sp,128
    24ce:	0c05                	c.addi	s8,1
    24d0:	0900ed03          	0x900ed03
    24d4:	0004                	0x4
    24d6:	0501                	c.addi	a0,0
    24d8:	01030603          	lb	a2,16(t1)
    24dc:	0409                	c.addi	s0,2
    24de:	0100                	c.addi4spn	s0,sp,128
    24e0:	1305                	c.addi	t1,-31
    24e2:	00090003          	lb	zero,0(s2)
    24e6:	0100                	c.addi4spn	s0,sp,128
    24e8:	1705                	c.addi	a4,-31
    24ea:	0306                	c.slli	t1,0x1
    24ec:	0900                	c.addi4spn	s0,sp,144
    24ee:	0000                	c.unimp
    24f0:	0501                	c.addi	a0,0
    24f2:	09000313          	addi	t1,zero,144
    24f6:	0004                	0x4
    24f8:	0501                	c.addi	a0,0
    24fa:	061f 0003 0c09      	0xc090003061f
    2500:	0100                	c.addi4spn	s0,sp,128
    2502:	0205                	c.addi	tp,1
    2504:	097f9003          	lh	zero,151(t6)
    2508:	0000                	c.unimp
    250a:	0301                	c.addi	t1,0
    250c:	0902                	c.slli64	s2
    250e:	0000                	c.unimp
    2510:	0501                	c.addi	a0,0
    2512:	0605                	c.addi	a2,1
    2514:	00090003          	lb	zero,0(s2)
    2518:	0100                	c.addi4spn	s0,sp,128
    251a:	0305                	c.addi	t1,1
    251c:	0306                	c.slli	t1,0x1
    251e:	0901                	c.addi	s2,0
    2520:	0004                	0x4
    2522:	0501                	c.addi	a0,0
    2524:	060a                	c.slli	a2,0x2
    2526:	00090003          	lb	zero,0(s2)
    252a:	0100                	c.addi4spn	s0,sp,128
    252c:	0d05                	c.addi	s10,1
    252e:	04090003          	lb	zero,64(s2)
    2532:	0100                	c.addi4spn	s0,sp,128
    2534:	0305                	c.addi	t1,1
    2536:	0306                	c.slli	t1,0x1
    2538:	0901                	c.addi	s2,0
    253a:	0004                	0x4
    253c:	0501                	c.addi	a0,0
    253e:	060a                	c.slli	a2,0x2
    2540:	00097f03          	0x97f03
    2544:	0100                	c.addi4spn	s0,sp,128
    2546:	0305                	c.addi	t1,1
    2548:	04090103          	lb	sp,64(s2)
    254c:	0100                	c.addi4spn	s0,sp,128
    254e:	1305                	c.addi	t1,-31
    2550:	0306                	c.slli	t1,0x1
    2552:	00ec                	c.addi4spn	a1,sp,76
    2554:	0809                	c.addi	a6,2
    2556:	0100                	c.addi4spn	s0,sp,128
    2558:	1705                	c.addi	a4,-31
    255a:	0306                	c.slli	t1,0x1
    255c:	0900                	c.addi4spn	s0,sp,144
    255e:	0000                	c.unimp
    2560:	0501                	c.addi	a0,0
    2562:	09000313          	addi	t1,zero,144
    2566:	0004                	0x4
    2568:	0501                	c.addi	a0,0
    256a:	93030603          	lb	a2,-1744(t1)
    256e:	097f                	0x97f
    2570:	000c                	0xc
    2572:	0501                	c.addi	a0,0
    2574:	060a                	c.slli	a2,0x2
    2576:	00090003          	lb	zero,0(s2)
    257a:	0100                	c.addi4spn	s0,sp,128
    257c:	0d05                	c.addi	s10,1
    257e:	08090003          	lb	zero,128(s2)
    2582:	0100                	c.addi4spn	s0,sp,128
    2584:	0305                	c.addi	t1,1
    2586:	0306                	c.slli	t1,0x1
    2588:	0901                	c.addi	s2,0
    258a:	0004                	0x4
    258c:	0501                	c.addi	a0,0
    258e:	00ed031b          	0xed031b
    2592:	0009                	c.addi	zero,2
    2594:	0100                	c.addi4spn	s0,sp,128
    2596:	0605                	c.addi	a2,1
    2598:	0306                	c.slli	t1,0x1
    259a:	7f91                	c.lui	t6,0xfffe4
    259c:	0809                	c.addi	a6,2
    259e:	0100                	c.addi4spn	s0,sp,128
    25a0:	0305                	c.addi	t1,1
    25a2:	0306                	c.slli	t1,0x1
    25a4:	040900ef          	jal	ra,925e4 <__stack_size-0x1f6da1c>
    25a8:	0100                	c.addi4spn	s0,sp,128
    25aa:	0605                	c.addi	a2,1
    25ac:	00090003          	lb	zero,0(s2)
    25b0:	0100                	c.addi4spn	s0,sp,128
    25b2:	0205                	c.addi	tp,1
    25b4:	097f8f03          	lb	t5,151(t6) # fffe4097 <_sp+0x77fe4097>
    25b8:	0004                	0x4
    25ba:	0301                	c.addi	t1,0
    25bc:	0902                	c.slli64	s2
    25be:	0000                	c.unimp
    25c0:	0501                	c.addi	a0,0
    25c2:	0605                	c.addi	a2,1
    25c4:	00090003          	lb	zero,0(s2)
    25c8:	0100                	c.addi4spn	s0,sp,128
    25ca:	0205                	c.addi	tp,1
    25cc:	0306                	c.slli	t1,0x1
    25ce:	0905                	c.addi	s2,1
    25d0:	0004                	0x4
    25d2:	0501                	c.addi	a0,0
    25d4:	0606                	c.slli	a2,0x1
    25d6:	00090003          	lb	zero,0(s2)
    25da:	0100                	c.addi4spn	s0,sp,128
    25dc:	0505                	c.addi	a0,1
    25de:	04090003          	lb	zero,64(s2)
    25e2:	0100                	c.addi4spn	s0,sp,128
    25e4:	1105                	c.addi	sp,-31
    25e6:	0306                	c.slli	t1,0x1
    25e8:	0900                	c.addi4spn	s0,sp,144
    25ea:	0004                	0x4
    25ec:	0501                	c.addi	a0,0
    25ee:	ea03061b          	0xea03061b
    25f2:	0900                	c.addi4spn	s0,sp,144
    25f4:	0000                	c.unimp
    25f6:	0501                	c.addi	a0,0
    25f8:	0311                	c.addi	t1,4
    25fa:	7f96                	c.flwsp	ft11,100(sp)
    25fc:	0409                	c.addi	s0,2
    25fe:	0100                	c.addi4spn	s0,sp,128
    2600:	1b05                	c.addi	s6,-31
    2602:	0306                	c.slli	t1,0x1
    2604:	00ea                	c.slli	ra,0x1a
    2606:	0409                	c.addi	s0,2
    2608:	0100                	c.addi4spn	s0,sp,128
    260a:	0e05                	c.addi	t3,1
    260c:	04090103          	lb	sp,64(s2)
    2610:	0100                	c.addi4spn	s0,sp,128
    2612:	0b05                	c.addi	s6,1
    2614:	0306                	c.slli	t1,0x1
    2616:	0900                	c.addi4spn	s0,sp,144
    2618:	0000                	c.unimp
    261a:	0501                	c.addi	a0,0
    261c:	030e                	c.slli	t1,0x3
    261e:	0900                	c.addi4spn	s0,sp,144
    2620:	0004                	0x4
    2622:	0501                	c.addi	a0,0
    2624:	91030603          	lb	a2,-1776(t1)
    2628:	097f                	0x97f
    262a:	0008                	0x8
    262c:	0501                	c.addi	a0,0
    262e:	060a                	c.slli	a2,0x2
    2630:	00090003          	lb	zero,0(s2)
    2634:	0100                	c.addi4spn	s0,sp,128
    2636:	0d05                	c.addi	s10,1
    2638:	08090003          	lb	zero,128(s2)
    263c:	0100                	c.addi4spn	s0,sp,128
    263e:	0305                	c.addi	t1,1
    2640:	0306                	c.slli	t1,0x1
    2642:	0901                	c.addi	s2,0
    2644:	0008                	0x8
    2646:	0501                	c.addi	a0,0
    2648:	030e                	c.slli	t1,0x3
    264a:	00ee                	c.slli	ra,0x1b
    264c:	0009                	c.addi	zero,2
    264e:	0100                	c.addi4spn	s0,sp,128
    2650:	0b05                	c.addi	s6,1
    2652:	0306                	c.slli	t1,0x1
    2654:	0900                	c.addi4spn	s0,sp,144
    2656:	0000                	c.unimp
    2658:	0501                	c.addi	a0,0
    265a:	030e                	c.slli	t1,0x3
    265c:	0900                	c.addi4spn	s0,sp,144
    265e:	0004                	0x4
    2660:	0501                	c.addi	a0,0
    2662:	00030613          	addi	a2,t1,0
    2666:	0809                	c.addi	a6,2
    2668:	0100                	c.addi4spn	s0,sp,128
    266a:	0205                	c.addi	tp,1
    266c:	097f8e03          	lb	t3,151(t6)
    2670:	0000                	c.unimp
    2672:	0301                	c.addi	t1,0
    2674:	0902                	c.slli64	s2
    2676:	0000                	c.unimp
    2678:	0501                	c.addi	a0,0
    267a:	0606                	c.slli	a2,0x1
    267c:	00090003          	lb	zero,0(s2)
    2680:	0100                	c.addi4spn	s0,sp,128
    2682:	0505                	c.addi	a0,1
    2684:	04090003          	lb	zero,64(s2)
    2688:	0100                	c.addi4spn	s0,sp,128
    268a:	0205                	c.addi	tp,1
    268c:	0306                	c.slli	t1,0x1
    268e:	0905                	c.addi	s2,1
    2690:	0004                	0x4
    2692:	0501                	c.addi	a0,0
    2694:	0606                	c.slli	a2,0x1
    2696:	00090003          	lb	zero,0(s2)
    269a:	0100                	c.addi4spn	s0,sp,128
    269c:	0505                	c.addi	a0,1
    269e:	04090003          	lb	zero,64(s2)
    26a2:	0100                	c.addi4spn	s0,sp,128
    26a4:	1105                	c.addi	sp,-31
    26a6:	0306                	c.slli	t1,0x1
    26a8:	0900                	c.addi4spn	s0,sp,144
    26aa:	0004                	0x4
    26ac:	0501                	c.addi	a0,0
    26ae:	00e90313          	addi	t1,s2,14
    26b2:	0c09                	c.addi	s8,2
    26b4:	0100                	c.addi4spn	s0,sp,128
    26b6:	1705                	c.addi	a4,-31
    26b8:	0306                	c.slli	t1,0x1
    26ba:	0900                	c.addi4spn	s0,sp,144
    26bc:	0000                	c.unimp
    26be:	0501                	c.addi	a0,0
    26c0:	09000313          	addi	t1,zero,144
    26c4:	0004                	0x4
    26c6:	0501                	c.addi	a0,0
    26c8:	09000317          	auipc	t1,0x9000
    26cc:	0004                	0x4
    26ce:	0501                	c.addi	a0,0
    26d0:	0602                	c.slli64	a2
    26d2:	097f9703          	lh	a4,151(t6)
    26d6:	0004                	0x4
    26d8:	0501                	c.addi	a0,0
    26da:	0606                	c.slli	a2,0x1
    26dc:	00090003          	lb	zero,0(s2)
    26e0:	0100                	c.addi4spn	s0,sp,128
    26e2:	0505                	c.addi	a0,1
    26e4:	04090003          	lb	zero,64(s2)
    26e8:	0100                	c.addi4spn	s0,sp,128
    26ea:	1105                	c.addi	sp,-31
    26ec:	0306                	c.slli	t1,0x1
    26ee:	0900                	c.addi4spn	s0,sp,144
    26f0:	0004                	0x4
    26f2:	0501                	c.addi	a0,0
    26f4:	0606                	c.slli	a2,0x1
    26f6:	08097b03          	0x8097b03
    26fa:	0100                	c.addi4spn	s0,sp,128
    26fc:	0405                	c.addi	s0,1
    26fe:	0306                	c.slli	t1,0x1
    2700:	0c0900db          	0xc0900db
    2704:	0100                	c.addi4spn	s0,sp,128
    2706:	0c05                	c.addi	s8,1
    2708:	00090003          	lb	zero,0(s2)
    270c:	0100                	c.addi4spn	s0,sp,128
    270e:	0305                	c.addi	t1,1
    2710:	00090603          	lb	a2,0(s2)
    2714:	0100                	c.addi4spn	s0,sp,128
    2716:	0a05                	c.addi	s4,1
    2718:	0306                	c.slli	t1,0x1
    271a:	0900                	c.addi4spn	s0,sp,144
    271c:	0000                	c.unimp
    271e:	0501                	c.addi	a0,0
    2720:	0306                	c.slli	t1,0x1
    2722:	097a                	c.slli	s2,0x1e
    2724:	0004                	0x4
    2726:	0501                	c.addi	a0,0
    2728:	09060323          	sb	a6,134(a2) # 32496 <__stack_size-0x1fcdb6a>
    272c:	0004                	0x4
    272e:	0501                	c.addi	a0,0
    2730:	0306                	c.slli	t1,0x1
    2732:	097a                	c.slli	s2,0x1e
    2734:	000c                	0xc
    2736:	0501                	c.addi	a0,0
    2738:	09060323          	sb	a6,134(a2)
    273c:	0004                	0x4
    273e:	0501                	c.addi	a0,0
    2740:	01030603          	lb	a2,16(t1) # 90026d8 <__stack_size+0x70026d8>
    2744:	0409                	c.addi	s0,2
    2746:	0100                	c.addi4spn	s0,sp,128
    2748:	1105                	c.addi	sp,-31
    274a:	0306                	c.slli	t1,0x1
    274c:	097f                	0x97f
    274e:	0000                	c.unimp
    2750:	0501                	c.addi	a0,0
    2752:	00030603          	lb	a2,0(t1)
    2756:	0c09                	c.addi	s8,2
    2758:	0100                	c.addi4spn	s0,sp,128
    275a:	0a05                	c.addi	s4,1
    275c:	0306                	c.slli	t1,0x1
    275e:	0900                	c.addi4spn	s0,sp,144
    2760:	0000                	c.unimp
    2762:	0501                	c.addi	a0,0
    2764:	0306                	c.slli	t1,0x1
    2766:	00040973          	0x40973
    276a:	0501                	c.addi	a0,0
    276c:	090d0323          	sb	a6,134(s10)
    2770:	0004                	0x4
    2772:	0501                	c.addi	a0,0
    2774:	0306                	c.slli	t1,0x1
    2776:	00080973          	0x80973
    277a:	0501                	c.addi	a0,0
    277c:	0339                	c.addi	t1,14
    277e:	090d                	c.addi	s2,3
    2780:	0004                	0x4
    2782:	0501                	c.addi	a0,0
    2784:	09000323          	sb	a6,134(zero) # 86 <__stack_size-0x1ffff7a>
    2788:	0004                	0x4
    278a:	0501                	c.addi	a0,0
    278c:	01030603          	lb	a2,16(t1)
    2790:	0409                	c.addi	s0,2
    2792:	0100                	c.addi4spn	s0,sp,128
    2794:	1105                	c.addi	sp,-31
    2796:	0306                	c.slli	t1,0x1
    2798:	097f                	0x97f
    279a:	0000                	c.unimp
    279c:	0501                	c.addi	a0,0
    279e:	0602                	c.slli64	a2
    27a0:	097fa403          	lw	s0,151(t6)
    27a4:	000c                	0xc
    27a6:	0501                	c.addi	a0,0
    27a8:	0606                	c.slli	a2,0x1
    27aa:	00090003          	lb	zero,0(s2)
    27ae:	0100                	c.addi4spn	s0,sp,128
    27b0:	0505                	c.addi	a0,1
    27b2:	08090003          	lb	zero,128(s2)
    27b6:	0100                	c.addi4spn	s0,sp,128
    27b8:	1105                	c.addi	sp,-31
    27ba:	0306                	c.slli	t1,0x1
    27bc:	0900                	c.addi4spn	s0,sp,144
    27be:	0004                	0x4
    27c0:	0501                	c.addi	a0,0
    27c2:	0304                	c.addi4spn	s1,sp,384
    27c4:	0936                	c.slli	s2,0xd
    27c6:	0008                	0x8
    27c8:	0501                	c.addi	a0,0
    27ca:	0900030b          	0x900030b
    27ce:	0000                	c.unimp
    27d0:	0501                	c.addi	a0,0
    27d2:	060d                	c.addi	a2,3
    27d4:	00090003          	lb	zero,0(s2)
    27d8:	0100                	c.addi4spn	s0,sp,128
    27da:	0605                	c.addi	a2,1
    27dc:	04090003          	lb	zero,64(s2)
    27e0:	0100                	c.addi4spn	s0,sp,128
    27e2:	1305                	c.addi	t1,-31
    27e4:	04090003          	lb	zero,64(s2)
    27e8:	0100                	c.addi4spn	s0,sp,128
    27ea:	0505                	c.addi	a0,1
    27ec:	0306                	c.slli	t1,0x1
    27ee:	00080903          	lb	s2,0(a6)
    27f2:	0501                	c.addi	a0,0
    27f4:	030c                	c.addi4spn	a1,sp,384
    27f6:	0900                	c.addi4spn	s0,sp,144
    27f8:	0000                	c.unimp
    27fa:	0501                	c.addi	a0,0
    27fc:	060e                	c.slli	a2,0x3
    27fe:	00090003          	lb	zero,0(s2)
    2802:	0100                	c.addi4spn	s0,sp,128
    2804:	0705                	c.addi	a4,1
    2806:	04090003          	lb	zero,64(s2)
    280a:	0100                	c.addi4spn	s0,sp,128
    280c:	1405                	c.addi	s0,-31
    280e:	04090003          	lb	zero,64(s2)
    2812:	0100                	c.addi4spn	s0,sp,128
    2814:	0205                	c.addi	tp,1
    2816:	0306                	c.slli	t1,0x1
    2818:	00080947          	fmsub.s	fs2,fa6,ft0,ft0,rne
    281c:	0501                	c.addi	a0,0
    281e:	0606                	c.slli	a2,0x1
    2820:	00090003          	lb	zero,0(s2)
    2824:	0100                	c.addi4spn	s0,sp,128
    2826:	1005                	c.addi	zero,-31
    2828:	0900cd03          	lbu	s10,144(ra)
    282c:	0004                	0x4
    282e:	0501                	c.addi	a0,0
    2830:	0305                	c.addi	t1,1
    2832:	04097fb3          	0x4097fb3
    2836:	0100                	c.addi4spn	s0,sp,128
    2838:	0205                	c.addi	tp,1
    283a:	0306                	c.slli	t1,0x1
    283c:	0900                	c.addi4spn	s0,sp,144
    283e:	0008                	0x8
    2840:	0501                	c.addi	a0,0
    2842:	0606                	c.slli	a2,0x1
    2844:	00090003          	lb	zero,0(s2)
    2848:	0100                	c.addi4spn	s0,sp,128
    284a:	0505                	c.addi	a0,1
    284c:	04090003          	lb	zero,64(s2)
    2850:	0100                	c.addi4spn	s0,sp,128
    2852:	0905                	c.addi	s2,1
    2854:	08090c03          	lb	s8,128(s2)
    2858:	0100                	c.addi4spn	s0,sp,128
    285a:	1805                	c.addi	a6,-31
    285c:	04093c03          	0x4093c03
    2860:	0100                	c.addi4spn	s0,sp,128
    2862:	0c05                	c.addi	s8,1
    2864:	0c090203          	lb	tp,192(s2)
    2868:	0100                	c.addi4spn	s0,sp,128
    286a:	0405                	c.addi	s0,1
    286c:	0306                	c.slli	t1,0x1
    286e:	097f                	0x97f
    2870:	0004                	0x4
    2872:	0501                	c.addi	a0,0
    2874:	0309                	c.addi	t1,2
    2876:	00000943          	fmadd.s	fs2,ft0,ft0,ft0,rne
    287a:	0501                	c.addi	a0,0
    287c:	d0030623          	sb	zero,-756(t1)
    2880:	0900                	c.addi4spn	s0,sp,144
    2882:	0008                	0x8
    2884:	0501                	c.addi	a0,0
    2886:	0306                	c.slli	t1,0x1
    2888:	096a                	c.slli	s2,0x1a
    288a:	0008                	0x8
    288c:	0501                	c.addi	a0,0
    288e:	0339                	c.addi	t1,14
    2890:	0916                	c.slli	s2,0x5
    2892:	0008                	0x8
    2894:	0501                	c.addi	a0,0
    2896:	09000323          	sb	a6,134(zero) # 86 <__stack_size-0x1ffff7a>
    289a:	0008                	0x8
    289c:	0501                	c.addi	a0,0
    289e:	01030603          	lb	a2,16(t1)
    28a2:	0409                	c.addi	s0,2
    28a4:	0100                	c.addi4spn	s0,sp,128
    28a6:	2305                	c.jal	2dc6 <__stack_size-0x1ffd23a>
    28a8:	0306                	c.slli	t1,0x1
    28aa:	097f                	0x97f
    28ac:	0004                	0x4
    28ae:	0501                	c.addi	a0,0
    28b0:	0306                	c.slli	t1,0x1
    28b2:	0975                	c.addi	s2,29
    28b4:	0004                	0x4
    28b6:	0501                	c.addi	a0,0
    28b8:	0339                	c.addi	t1,14
    28ba:	0004090b          	0x4090b
    28be:	0501                	c.addi	a0,0
    28c0:	09000323          	sb	a6,134(zero) # 86 <__stack_size-0x1ffff7a>
    28c4:	0004                	0x4
    28c6:	0501                	c.addi	a0,0
    28c8:	01030603          	lb	a2,16(t1)
    28cc:	0409                	c.addi	s0,2
    28ce:	0100                	c.addi4spn	s0,sp,128
    28d0:	1105                	c.addi	sp,-31
    28d2:	0306                	c.slli	t1,0x1
    28d4:	097f                	0x97f
    28d6:	0000                	c.unimp
    28d8:	0501                	c.addi	a0,0
    28da:	090d0313          	addi	t1,s10,144
    28de:	000c                	0xc
    28e0:	0501                	c.addi	a0,0
    28e2:	09000317          	auipc	t1,0x9000
    28e6:	0008                	0x8
    28e8:	0501                	c.addi	a0,0
    28ea:	0614                	c.addi4spn	a3,sp,768
    28ec:	08095f03          	lhu	t5,128(s2)
    28f0:	0100                	c.addi4spn	s0,sp,128
    28f2:	0605                	c.addi	a2,1
    28f4:	0306                	c.slli	t1,0x1
    28f6:	097e                	c.slli	s2,0x1f
    28f8:	000c                	0xc
    28fa:	0501                	c.addi	a0,0
    28fc:	0314                	c.addi4spn	a3,sp,384
    28fe:	0902                	c.slli64	s2
    2900:	0008                	0x8
    2902:	0501                	c.addi	a0,0
    2904:	097f0317          	auipc	t1,0x97f0
    2908:	0004                	0x4
    290a:	0501                	c.addi	a0,0
    290c:	0314                	c.addi4spn	a3,sp,384
    290e:	0901                	c.addi	s2,0
    2910:	0008                	0x8
    2912:	0501                	c.addi	a0,0
    2914:	097f030b          	0x97f030b
    2918:	0004                	0x4
    291a:	0501                	c.addi	a0,0
    291c:	0339                	c.addi	t1,14
    291e:	0915                	c.addi	s2,5
    2920:	000c                	0xc
    2922:	0901                	c.addi	s2,0
    2924:	0010                	0x10
    2926:	0100                	c.addi4spn	s0,sp,128
    2928:	4f01                	c.li	t5,0
    292a:	0001                	c.addi	zero,0
    292c:	0500                	c.addi4spn	s0,sp,640
    292e:	0400                	c.addi4spn	s0,sp,512
    2930:	2e00                	c.fld	fs0,24(a2)
    2932:	0000                	c.unimp
    2934:	0100                	c.addi4spn	s0,sp,128
    2936:	0101                	c.addi	sp,0
    2938:	000d0efb          	0xd0efb
    293c:	0101                	c.addi	sp,0
    293e:	0101                	c.addi	sp,0
    2940:	0000                	c.unimp
    2942:	0100                	c.addi4spn	s0,sp,128
    2944:	0000                	c.unimp
    2946:	0101                	c.addi	sp,0
    2948:	1f01                	c.addi	t5,-32
    294a:	0902                	c.slli64	s2
    294c:	0002                	c.slli64	zero
    294e:	0900                	c.addi4spn	s0,sp,144
    2950:	0002                	c.slli64	zero
    2952:	0200                	c.addi4spn	s0,sp,256
    2954:	1f01                	c.addi	t5,-32
    2956:	0f02                	c.slli64	t5
    2958:	3202                	c.fldsp	ft4,32(sp)
    295a:	0002                	c.slli64	zero
    295c:	0000                	c.unimp
    295e:	0232                	c.slli	tp,0xc
    2960:	0000                	c.unimp
    2962:	0001                	c.addi	zero,0
    2964:	0205                	c.addi	tp,1
    2966:	14fc                	c.addi4spn	a5,sp,620
    2968:	8000                	0x8000
    296a:	0100c403          	lbu	s0,16(ra)
    296e:	04090103          	lb	sp,64(s2)
    2972:	0100                	c.addi4spn	s0,sp,128
    2974:	04090403          	lb	s0,64(s2)
    2978:	0100                	c.addi4spn	s0,sp,128
    297a:	04090103          	lb	sp,64(s2)
    297e:	0100                	c.addi4spn	s0,sp,128
    2980:	04090103          	lb	sp,64(s2)
    2984:	0100                	c.addi4spn	s0,sp,128
    2986:	04090103          	lb	sp,64(s2)
    298a:	0100                	c.addi4spn	s0,sp,128
    298c:	04090103          	lb	sp,64(s2)
    2990:	0100                	c.addi4spn	s0,sp,128
    2992:	04090103          	lb	sp,64(s2)
    2996:	0100                	c.addi4spn	s0,sp,128
    2998:	04090203          	lb	tp,64(s2)
    299c:	0100                	c.addi4spn	s0,sp,128
    299e:	04090103          	lb	sp,64(s2)
    29a2:	0100                	c.addi4spn	s0,sp,128
    29a4:	04090103          	lb	sp,64(s2)
    29a8:	0100                	c.addi4spn	s0,sp,128
    29aa:	04090103          	lb	sp,64(s2)
    29ae:	0100                	c.addi4spn	s0,sp,128
    29b0:	04090203          	lb	tp,64(s2)
    29b4:	0100                	c.addi4spn	s0,sp,128
    29b6:	04090203          	lb	tp,64(s2)
    29ba:	0100                	c.addi4spn	s0,sp,128
    29bc:	04090103          	lb	sp,64(s2)
    29c0:	0100                	c.addi4spn	s0,sp,128
    29c2:	04090103          	lb	sp,64(s2)
    29c6:	0100                	c.addi4spn	s0,sp,128
    29c8:	04090203          	lb	tp,64(s2)
    29cc:	0100                	c.addi4spn	s0,sp,128
    29ce:	04090103          	lb	sp,64(s2)
    29d2:	0100                	c.addi4spn	s0,sp,128
    29d4:	04090103          	lb	sp,64(s2)
    29d8:	0100                	c.addi4spn	s0,sp,128
    29da:	04090203          	lb	tp,64(s2)
    29de:	0100                	c.addi4spn	s0,sp,128
    29e0:	04090503          	lb	a0,64(s2)
    29e4:	0100                	c.addi4spn	s0,sp,128
    29e6:	04090103          	lb	sp,64(s2)
    29ea:	0100                	c.addi4spn	s0,sp,128
    29ec:	04090103          	lb	sp,64(s2)
    29f0:	0100                	c.addi4spn	s0,sp,128
    29f2:	04090103          	lb	sp,64(s2)
    29f6:	0100                	c.addi4spn	s0,sp,128
    29f8:	04090503          	lb	a0,64(s2)
    29fc:	0100                	c.addi4spn	s0,sp,128
    29fe:	04090203          	lb	tp,64(s2)
    2a02:	0100                	c.addi4spn	s0,sp,128
    2a04:	04090203          	lb	tp,64(s2)
    2a08:	0100                	c.addi4spn	s0,sp,128
    2a0a:	04090103          	lb	sp,64(s2)
    2a0e:	0100                	c.addi4spn	s0,sp,128
    2a10:	04090203          	lb	tp,64(s2)
    2a14:	0100                	c.addi4spn	s0,sp,128
    2a16:	04090203          	lb	tp,64(s2)
    2a1a:	0100                	c.addi4spn	s0,sp,128
    2a1c:	04090103          	lb	sp,64(s2)
    2a20:	0100                	c.addi4spn	s0,sp,128
    2a22:	04090103          	lb	sp,64(s2)
    2a26:	0100                	c.addi4spn	s0,sp,128
    2a28:	04090103          	lb	sp,64(s2)
    2a2c:	0100                	c.addi4spn	s0,sp,128
    2a2e:	04090403          	lb	s0,64(s2)
    2a32:	0100                	c.addi4spn	s0,sp,128
    2a34:	04090103          	lb	sp,64(s2)
    2a38:	0100                	c.addi4spn	s0,sp,128
    2a3a:	04090103          	lb	sp,64(s2)
    2a3e:	0100                	c.addi4spn	s0,sp,128
    2a40:	04090203          	lb	tp,64(s2)
    2a44:	0100                	c.addi4spn	s0,sp,128
    2a46:	04090103          	lb	sp,64(s2)
    2a4a:	0100                	c.addi4spn	s0,sp,128
    2a4c:	04090103          	lb	sp,64(s2)
    2a50:	0100                	c.addi4spn	s0,sp,128
    2a52:	04090203          	lb	tp,64(s2)
    2a56:	0100                	c.addi4spn	s0,sp,128
    2a58:	04090103          	lb	sp,64(s2)
    2a5c:	0100                	c.addi4spn	s0,sp,128
    2a5e:	04090203          	lb	tp,64(s2)
    2a62:	0100                	c.addi4spn	s0,sp,128
    2a64:	04090103          	lb	sp,64(s2)
    2a68:	0100                	c.addi4spn	s0,sp,128
    2a6a:	04090103          	lb	sp,64(s2)
    2a6e:	0100                	c.addi4spn	s0,sp,128
    2a70:	04090103          	lb	sp,64(s2)
    2a74:	0100                	c.addi4spn	s0,sp,128
    2a76:	0409                	c.addi	s0,2
    2a78:	0000                	c.unimp
    2a7a:	0101                	c.addi	sp,0

Disassembly of section .debug_line_str:

00000000 <.debug_line_str>:
   0:	2e2e                	c.fldsp	ft8,200(sp)
   2:	002e2e2f          	amoadd.w	t3,sp,(t3)
   6:	72617473          	csrrci	s0,0x726,2
   a:	2e74                	c.fld	fa3,216(a2)
   c:	72640053          	0x72640053
  10:	2e79                	c.jal	3ae <__stack_size-0x1fffc52>
  12:	682f0063          	beq	t5,sp,692 <__stack_size-0x1fff96e>
  16:	2f656d6f          	jal	s10,5630c <__stack_size-0x1fa9cf4>
  1a:	7574                	c.flw	fa3,108(a0)
  1c:	7574                	c.flw	fa3,108(a0)
  1e:	7574                	c.flw	fa3,108(a0)
  20:	6d69712f          	0x6d69712f
  24:	6e65                	c.lui	t3,0x19
  26:	69732f67          	0x69732f67
  2a:	756d                	c.lui	a0,0xffffb
  2c:	616c                	c.flw	fa1,68(a0)
  2e:	6f74                	c.flw	fa3,92(a4)
  30:	2f72                	c.fldsp	ft10,280(sp)
  32:	6162                	c.flwsp	ft2,24(sp)
  34:	6572                	c.flwsp	fa0,28(sp)
  36:	656d                	c.lui	a0,0x1b
  38:	6174                	c.flw	fa3,68(a0)
  3a:	2f6c                	c.fld	fa1,216(a4)
  3c:	6562                	c.flwsp	fa0,24(sp)
  3e:	636e                	c.flwsp	ft6,216(sp)
  40:	6d68                	c.flw	fa0,92(a0)
  42:	7261                	c.lui	tp,0xffff8
  44:	642f736b          	0x642f736b
  48:	7268                	c.flw	fa0,100(a2)
  4a:	7379                	c.lui	t1,0xffffe
  4c:	6f74                	c.flw	fa3,92(a4)
  4e:	656e                	c.flwsp	fa0,216(sp)
  50:	2e00                	c.fld	fs0,24(a2)
  52:	2f2e                	c.fldsp	ft10,200(sp)
  54:	2e2e                	c.fldsp	ft8,200(sp)
  56:	636e692f          	0x636e692f
  5a:	756c                	c.flw	fa1,108(a0)
  5c:	6564                	c.flw	fs1,76(a0)
  5e:	7800                	c.flw	fs0,48(s0)
  60:	7270                	c.flw	fa2,100(a2)
  62:	6e69                	c.lui	t3,0x1a
  64:	6674                	c.flw	fa3,76(a2)
  66:	682e                	c.flwsp	fa6,200(sp)
  68:	3c00                	c.fld	fs0,56(s0)
  6a:	7562                	c.flwsp	fa0,56(sp)
  6c:	6c69                	c.lui	s8,0x1a
  6e:	2d74                	c.fld	fa3,216(a0)
  70:	6e69                	c.lui	t3,0x1a
  72:	003e                	c.slli	zero,0xf
  74:	2e2e                	c.fldsp	ft8,200(sp)
  76:	2f2e2e2f          	0x2f2e2e2f
  7a:	696c                	c.flw	fa1,84(a0)
  7c:	2f62                	c.fldsp	ft10,24(sp)
  7e:	6175                	c.addi16sp	sp,368
  80:	7472                	c.flwsp	fs0,60(sp)
  82:	632e                	c.flwsp	ft6,200(sp)
  84:	2e00                	c.fld	fs0,24(a2)
  86:	2f2e                	c.fldsp	ft10,200(sp)
  88:	2e2e                	c.fldsp	ft8,200(sp)
  8a:	62696c2f          	0x62696c2f
  8e:	2e00                	c.fld	fs0,24(a2)
  90:	2f2e                	c.fldsp	ft10,200(sp)
  92:	2e2e                	c.fldsp	ft8,200(sp)
  94:	62696c2f          	0x62696c2f
  98:	2f2e2e2f          	0x2f2e2e2f
  9c:	6e69                	c.lui	t3,0x1a
  9e:	64756c63          	bltu	a0,t2,6f6 <__stack_size-0x1fff90a>
  a2:	0065                	c.addi	zero,25
  a4:	6d6f682f          	0x6d6f682f
  a8:	2f65                	c.jal	860 <__stack_size-0x1fff7a0>
  aa:	7574                	c.flw	fa3,108(a0)
  ac:	7574                	c.flw	fa3,108(a0)
  ae:	7574                	c.flw	fa3,108(a0)
  b0:	6d69712f          	0x6d69712f
  b4:	6e65                	c.lui	t3,0x19
  b6:	69662f67          	0x69662f67
  ba:	656c                	c.flw	fa1,76(a0)
  bc:	7261622f          	0x7261622f
  c0:	6d65                	c.lui	s10,0x19
  c2:	7465                	c.lui	s0,0xffff9
  c4:	6c61                	c.lui	s8,0x18
  c6:	6f6f742f          	0x6f6f742f
  ca:	636c                	c.flw	fa1,68(a4)
  cc:	6168                	c.flw	fa0,68(a0)
  ce:	6e69                	c.lui	t3,0x1a
  d0:	69722f73          	csrrs	t5,0x697,tp
  d4:	2d766373          	csrrsi	t1,0x2d7,12
  d8:	6c65                	c.lui	s8,0x19
  da:	3366                	c.fldsp	ft6,120(sp)
  dc:	2d32                	c.fldsp	fs10,264(sp)
  de:	6169                	c.addi16sp	sp,208
  e0:	7369722f          	0x7369722f
  e4:	32337663          	bgeu	t1,gp,410 <__stack_size-0x1fffbf0>
  e8:	752d                	c.lui	a0,0xfffeb
  ea:	6b6e                	c.flwsp	fs6,216(sp)
  ec:	6f6e                	c.flwsp	ft10,216(sp)
  ee:	652d6e77          	0x652d6e77
  f2:	666c                	c.flw	fa1,76(a2)
  f4:	636e692f          	0x636e692f
  f8:	756c                	c.flw	fa1,108(a0)
  fa:	6564                	c.flw	fs1,76(a0)
  fc:	63616d2f          	0x63616d2f
 100:	6968                	c.flw	fa0,84(a0)
 102:	656e                	c.flwsp	fa0,216(sp)
 104:	2f00                	c.fld	fs0,24(a4)
 106:	6f68                	c.flw	fa0,92(a4)
 108:	656d                	c.lui	a0,0x1b
 10a:	7475742f          	0x7475742f
 10e:	7475                	c.lui	s0,0xffffd
 110:	2f75                	c.jal	8cc <__stack_size-0x1fff734>
 112:	6971                	c.lui	s2,0x1c
 114:	656d                	c.lui	a0,0x1b
 116:	676e                	c.flwsp	fa4,216(sp)
 118:	6c69662f          	0x6c69662f
 11c:	2f65                	c.jal	8d4 <__stack_size-0x1fff72c>
 11e:	6162                	c.flwsp	ft2,24(sp)
 120:	6572                	c.flwsp	fa0,28(sp)
 122:	656d                	c.lui	a0,0x1b
 124:	6174                	c.flw	fa3,68(a0)
 126:	2f6c                	c.fld	fa1,216(a4)
 128:	6f74                	c.flw	fa3,92(a4)
 12a:	68636c6f          	jal	s8,367b0 <__stack_size-0x1fc9850>
 12e:	6961                	c.lui	s2,0x18
 130:	736e                	c.flwsp	ft6,248(sp)
 132:	7369722f          	0x7369722f
 136:	652d7663          	bgeu	s10,s2,782 <__stack_size-0x1fff87e>
 13a:	666c                	c.flw	fa1,76(a2)
 13c:	692d3233          	0x692d3233
 140:	2f61                	c.jal	8d8 <__stack_size-0x1fff728>
 142:	6972                	c.flwsp	fs2,28(sp)
 144:	33766373          	csrrsi	t1,mhpmevent23,12
 148:	2d32                	c.fldsp	fs10,264(sp)
 14a:	6e75                	c.lui	t3,0x1d
 14c:	776f6e6b          	0x776f6e6b
 150:	2d6e                	c.fldsp	fs10,216(sp)
 152:	6c65                	c.lui	s8,0x19
 154:	2f66                	c.fldsp	ft10,88(sp)
 156:	6e69                	c.lui	t3,0x1a
 158:	64756c63          	bltu	a0,t2,7b0 <__stack_size-0x1fff850>
 15c:	2f65                	c.jal	914 <__stack_size-0x1fff6ec>
 15e:	00737973          	csrrci	s2,0x7,6
 162:	6175                	c.addi16sp	sp,368
 164:	7472                	c.flwsp	fs0,60(sp)
 166:	682e                	c.flwsp	fa6,200(sp)
 168:	5f00                	c.lw	s0,56(a4)
 16a:	6564                	c.flw	fs1,76(a0)
 16c:	6166                	c.flwsp	ft2,88(sp)
 16e:	6c75                	c.lui	s8,0x1d
 170:	5f74                	c.lw	a3,124(a4)
 172:	7974                	c.flw	fa3,116(a0)
 174:	6570                	c.flw	fa2,76(a0)
 176:	00682e73          	csrrs	t3,0x6,a6
 17a:	735f 6474 6e69      	0x6e696474735f
 180:	2e74                	c.fld	fa3,216(a2)
 182:	0068                	c.addi4spn	a0,sp,12
 184:	2e2e                	c.fldsp	ft8,200(sp)
 186:	2f2e2e2f          	0x2f2e2e2f
 18a:	696c                	c.flw	fa1,84(a0)
 18c:	2f62                	c.fldsp	ft10,24(sp)
 18e:	7078                	c.flw	fa4,100(s0)
 190:	6972                	c.flwsp	fs2,28(sp)
 192:	746e                	c.flwsp	fs0,248(sp)
 194:	2e66                	c.fldsp	ft8,88(sp)
 196:	682f0063          	beq	t5,sp,816 <__stack_size-0x1fff7ea>
 19a:	2f656d6f          	jal	s10,56490 <__stack_size-0x1fa9b70>
 19e:	7574                	c.flw	fa3,108(a0)
 1a0:	7574                	c.flw	fa3,108(a0)
 1a2:	7574                	c.flw	fa3,108(a0)
 1a4:	6d69712f          	0x6d69712f
 1a8:	6e65                	c.lui	t3,0x19
 1aa:	69662f67          	0x69662f67
 1ae:	656c                	c.flw	fa1,76(a0)
 1b0:	7261622f          	0x7261622f
 1b4:	6d65                	c.lui	s10,0x19
 1b6:	7465                	c.lui	s0,0xffff9
 1b8:	6c61                	c.lui	s8,0x18
 1ba:	6f6f742f          	0x6f6f742f
 1be:	636c                	c.flw	fa1,68(a4)
 1c0:	6168                	c.flw	fa0,68(a0)
 1c2:	6e69                	c.lui	t3,0x1a
 1c4:	69722f73          	csrrs	t5,0x697,tp
 1c8:	2d766373          	csrrsi	t1,0x2d7,12
 1cc:	6c65                	c.lui	s8,0x19
 1ce:	3366                	c.fldsp	ft6,120(sp)
 1d0:	2d32                	c.fldsp	fs10,264(sp)
 1d2:	6169                	c.addi16sp	sp,208
 1d4:	62696c2f          	0x62696c2f
 1d8:	6363672f          	0x6363672f
 1dc:	7369722f          	0x7369722f
 1e0:	32337663          	bgeu	t1,gp,50c <__stack_size-0x1fffaf4>
 1e4:	752d                	c.lui	a0,0xfffeb
 1e6:	6b6e                	c.flwsp	fs6,216(sp)
 1e8:	6f6e                	c.flwsp	ft10,216(sp)
 1ea:	652d6e77          	0x652d6e77
 1ee:	666c                	c.flw	fa1,76(a2)
 1f0:	2e31312f          	0x2e31312f
 1f4:	2e31                	c.jal	510 <__stack_size-0x1fffaf0>
 1f6:	2f30                	c.fld	fa2,88(a4)
 1f8:	6e69                	c.lui	t3,0x1a
 1fa:	64756c63          	bltu	a0,t2,852 <__stack_size-0x1fff7ae>
 1fe:	0065                	c.addi	zero,25
 200:	61647473          	csrrci	s0,0x616,8
 204:	6772                	c.flwsp	fa4,28(sp)
 206:	682e                	c.flwsp	fa6,200(sp)
 208:	2e00                	c.fld	fs0,24(a2)
 20a:	2f2e                	c.fldsp	ft10,200(sp)
 20c:	2e2e                	c.fldsp	ft8,200(sp)
 20e:	2f2e2e2f          	0x2f2e2e2f
 212:	2f2e                	c.fldsp	ft10,200(sp)
 214:	6972                	c.flwsp	fs2,28(sp)
 216:	2d766373          	csrrsi	t1,0x2d7,12
 21a:	2f636367          	0x2f636367
 21e:	696c                	c.flw	fa1,84(a0)
 220:	6762                	c.flwsp	fa4,24(sp)
 222:	632f6363          	bltu	t5,s2,848 <__stack_size-0x1fff7b8>
 226:	69666e6f          	jal	t3,668bc <__stack_size-0x1f99744>
 22a:	69722f67          	0x69722f67
 22e:	00766373          	csrrsi	t1,0x7,12
 232:	6964                	c.flw	fs1,84(a0)
 234:	2e76                	c.fldsp	ft8,344(sp)
 236:	          	fadd.s	ft0,ft0,ft0,rne

Disassembly of section .debug_info:

00000000 <.debug_info>:
       0:	0020                	c.addi4spn	s0,sp,8
       2:	0000                	c.unimp
       4:	0005                	c.addi	zero,1
       6:	0401                	c.addi	s0,0
       8:	0000                	c.unimp
       a:	0000                	c.unimp
       c:	0001                	c.addi	zero,0
       e:	0000                	c.unimp
      10:	0000                	c.unimp
      12:	0000                	c.unimp
      14:	2c80                	c.fld	fs0,24(s1)
      16:	0000                	c.unimp
      18:	0000                	c.unimp
      1a:	0008                	0x8
      1c:	0000                	c.unimp
      1e:	0045                	c.addi	zero,17
      20:	0000                	c.unimp
      22:	8001                	c.srli64	s0
      24:	000013e7          	0x13e7
      28:	0005                	c.addi	zero,1
      2a:	0401                	c.addi	s0,0
      2c:	0014                	0x14
      2e:	0000                	c.unimp
      30:	4628                	c.lw	a0,72(a2)
      32:	0002                	c.slli64	zero
      34:	1d00                	c.addi4spn	s0,sp,688
      36:	000e                	c.slli	zero,0x3
      38:	0000                	c.unimp
      3a:	0014                	0x14
      3c:	0000                	c.unimp
      3e:	0321                	c.addi	t1,8
      40:	0000                	c.unimp
      42:	0000                	c.unimp
      44:	0000                	c.unimp
      46:	0072                	c.slli	zero,0x1c
      48:	0000                	c.unimp
      4a:	de080113          	addi	sp,a6,-544
      4e:	0001                	c.addi	zero,0
      50:	0c00                	c.addi4spn	s0,sp,528
      52:	00b9                	c.addi	ra,14
      54:	0000                	c.unimp
      56:	0165                	c.addi	sp,25
      58:	3916                	c.fldsp	fs2,352(sp)
      5a:	0000                	c.unimp
      5c:	1300                	c.addi4spn	s0,sp,416
      5e:	0704                	c.addi4spn	s1,sp,896
      60:	000004e3          	beq	zero,zero,868 <__stack_size-0x1fff798>
      64:	0729                	c.addi	a4,10
      66:	3904                	c.fld	fs1,48(a0)
      68:	0000                	c.unimp
      6a:	0100                	c.addi4spn	s0,sp,128
      6c:	6e0e0177          	0x6e0e0177
      70:	0000                	c.unimp
      72:	1400                	c.addi4spn	s0,sp,544
      74:	0000044b          	fnmsub.s	fs0,ft0,ft0,ft0,rne
      78:	1400                	c.addi4spn	s0,sp,544
      7a:	0051                	c.addi	zero,20
      7c:	0000                	c.unimp
      7e:	1401                	c.addi	s0,-32
      80:	0059                	c.addi	zero,22
      82:	0000                	c.unimp
      84:	1402                	c.slli	s0,0x20
      86:	0061                	c.addi	zero,24
      88:	0000                	c.unimp
      8a:	00691403          	lh	s0,6(s2) # 18006 <__stack_size-0x1fe7ffa>
      8e:	0000                	c.unimp
      90:	0004                	0x4
      92:	8c0c                	0x8c0c
      94:	77000003          	lb	zero,1904(zero) # 770 <__stack_size-0x1fff890>
      98:	3e01                	c.jal	fffffba8 <_sp+0x77fffba8>
      9a:	0040                	c.addi4spn	s0,sp,4
      9c:	0000                	c.unimp
      9e:	960c                	0x960c
      a0:	0000                	c.unimp
      a2:	8000                	0x8000
      a4:	0d01                	c.addi	s10,0
      a6:	0086                	c.slli	ra,0x1
      a8:	0000                	c.unimp
      aa:	042a                	c.slli	s0,0xa
      ac:	6905                	c.lui	s2,0x1
      ae:	746e                	c.flwsp	fs0,248(sp)
      b0:	0c00                	c.addi4spn	s0,sp,528
      b2:	0376                	c.slli	t1,0x1d
      b4:	0000                	c.unimp
      b6:	0181                	c.addi	gp,0
      b8:	860d                	c.srai	a2,0x3
      ba:	0000                	c.unimp
      bc:	0c00                	c.addi4spn	s0,sp,528
      be:	00000367          	jalr	t1,0(zero) # 0 <__stack_size-0x2000000>
      c2:	0182                	c.slli64	gp
      c4:	a50e                	c.fsdsp	ft3,136(sp)
      c6:	0000                	c.unimp
      c8:	1300                	c.addi4spn	s0,sp,416
      ca:	0801                	c.addi	a6,0
      cc:	000001e7          	jalr	gp,0(zero) # 0 <__stack_size-0x2000000>
      d0:	0000a52b          	0xa52b
      d4:	0c00                	c.addi4spn	s0,sp,528
      d6:	02c0                	c.addi4spn	s0,sp,324
      d8:	0000                	c.unimp
      da:	860d0183          	lb	gp,-1952(s10) # 18860 <__stack_size-0x1fe77a0>
      de:	0000                	c.unimp
      e0:	0c00                	c.addi4spn	s0,sp,528
      e2:	033d                	c.addi	t1,15
      e4:	0000                	c.unimp
      e6:	0184                	c.addi4spn	s1,sp,192
      e8:	c90e                	c.swsp	gp,144(sp)
      ea:	0000                	c.unimp
      ec:	1600                	c.addi4spn	s0,sp,800
      ee:	00a5                	c.addi	ra,9
      f0:	0000                	c.unimp
      f2:	00d9                	c.addi	ra,22
      f4:	0000                	c.unimp
      f6:	00003917          	auipc	s2,0x3
      fa:	1e00                	c.addi4spn	s0,sp,816
      fc:	1600                	c.addi4spn	s0,sp,800
      fe:	0086                	c.slli	ra,0x1
     100:	0000                	c.unimp
     102:	00e9                	c.addi	ra,26
     104:	0000                	c.unimp
     106:	00003917          	auipc	s2,0x3
     10a:	3100                	c.fld	fs0,32(a0)
     10c:	1600                	c.addi4spn	s0,sp,800
     10e:	0086                	c.slli	ra,0x1
     110:	0000                	c.unimp
     112:	00ff                	0xff
     114:	0000                	c.unimp
     116:	00003917          	auipc	s2,0x3
     11a:	3100                	c.fld	fs0,32(a0)
     11c:	00003917          	auipc	s2,0x3
     120:	3100                	c.fld	fs0,32(a0)
     122:	1c00                	c.addi4spn	s0,sp,560
     124:	8c28                	0x8c28
     126:	2f01                	c.jal	836 <__stack_size-0x1fff7ca>
     128:	0001                	c.addi	zero,0
     12a:	0a00                	c.addi4spn	s0,sp,272
     12c:	020a                	c.slli	tp,0x2
     12e:	0000                	c.unimp
     130:	018d                	c.addi	gp,3
     132:	00006e13          	ori	t3,zero,0
     136:	0000                	c.unimp
     138:	140a                	c.slli	s0,0x22
     13a:	0002                	c.slli64	zero
     13c:	8e00                	0x8e00
     13e:	0b01                	c.addi	s6,0
     140:	0086                	c.slli	ra,0x1
     142:	0000                	c.unimp
     144:	0a04                	c.addi4spn	s1,sp,272
     146:	0321                	c.addi	t1,8
     148:	0000                	c.unimp
     14a:	c90c018f          	0xc90c018f
     14e:	0000                	c.unimp
     150:	0800                	c.addi4spn	s0,sp,16
     152:	1c00                	c.addi4spn	s0,sp,560
     154:	9124                	0x9124
     156:	5201                	c.li	tp,-32
     158:	0001                	c.addi	zero,0
     15a:	0a00                	c.addi4spn	s0,sp,272
     15c:	0139                	c.addi	sp,14
     15e:	0000                	c.unimp
     160:	0192                	c.slli	gp,0x4
     162:	00006e13          	ori	t3,zero,0
     166:	0000                	c.unimp
     168:	aa0a                	c.fsdsp	ft2,272(sp)
     16a:	0001                	c.addi	zero,0
     16c:	9300                	0x9300
     16e:	0c01                	c.addi	s8,0
     170:	00c9                	c.addi	ra,18
     172:	0000                	c.unimp
     174:	0004                	0x4
     176:	021c                	c.addi4spn	a5,sp,256
     178:	0195                	c.addi	gp,5
     17a:	0175                	c.addi	sp,29
     17c:	0000                	c.unimp
     17e:	8b0a                	c.mv	s6,sp
     180:	0001                	c.addi	zero,0
     182:	9600                	0x9600
     184:	0c01                	c.addi	s8,0
     186:	00a5                	c.addi	ra,9
     188:	0000                	c.unimp
     18a:	0a00                	c.addi4spn	s0,sp,272
     18c:	039f 0000 0197      	0x1970000039f
     192:	a50c                	c.fsd	fa1,8(a0)
     194:	0000                	c.unimp
     196:	0100                	c.addi4spn	s0,sp,128
     198:	2c00                	c.fld	fs0,24(s0)
     19a:	0128                	c.addi4spn	a0,sp,136
     19c:	a103018b          	0xa103018b
     1a0:	0001                	c.addi	zero,0
     1a2:	1d00                	c.addi4spn	s0,sp,688
     1a4:	019e                	c.slli	gp,0x7
     1a6:	0000                	c.unimp
     1a8:	0190                	c.addi4spn	a2,sp,192
     1aa:	00ff                	0xff
     1ac:	0000                	c.unimp
     1ae:	a41d                	c.j	3d4 <__stack_size-0x1fffc2c>
     1b0:	0001                	c.addi	zero,0
     1b2:	9400                	0x9400
     1b4:	2f01                	c.jal	8c4 <__stack_size-0x1fff73c>
     1b6:	0001                	c.addi	zero,0
     1b8:	1d00                	c.addi4spn	s0,sp,688
     1ba:	00000133          	add	sp,zero,zero
     1be:	0198                	c.addi4spn	a4,sp,192
     1c0:	0152                	c.slli	sp,0x14
     1c2:	0000                	c.unimp
     1c4:	2d00                	c.fld	fs0,24(a0)
     1c6:	00c0                	c.addi4spn	s0,sp,68
     1c8:	0000                	c.unimp
     1ca:	0130                	c.addi4spn	a2,sp,136
     1cc:	0188                	c.addi4spn	a0,sp,192
     1ce:	d710                	c.sw	a2,40(a4)
     1d0:	0001                	c.addi	zero,0
     1d2:	0a00                	c.addi4spn	s0,sp,272
     1d4:	0300                	c.addi4spn	s0,sp,384
     1d6:	0000                	c.unimp
     1d8:	0189                	c.addi	gp,2
     1da:	d712                	c.swsp	tp,172(sp)
     1dc:	0001                	c.addi	zero,0
     1de:	0000                	c.unimp
     1e0:	f20a                	c.fswsp	ft2,36(sp)
     1e2:	0002                	c.slli64	zero
     1e4:	8a00                	0x8a00
     1e6:	0f01                	c.addi	t5,0
     1e8:	006e                	c.slli	zero,0x1b
     1ea:	0000                	c.unimp
     1ec:	0a04                	c.addi4spn	s1,sp,272
     1ee:	02d6                	c.slli	t0,0x15
     1f0:	0000                	c.unimp
     1f2:	0199                	c.addi	gp,6
     1f4:	7505                	c.lui	a0,0xfffe1
     1f6:	0001                	c.addi	zero,0
     1f8:	0800                	c.addi4spn	s0,sp,16
     1fa:	0d00                	c.addi4spn	s0,sp,656
     1fc:	01a1                	c.addi	gp,8
     1fe:	0000                	c.unimp
     200:	cd0c                	c.sw	a1,24(a0)
     202:	0001                	c.addi	zero,0
     204:	9a00                	0x9a00
     206:	0e01                	c.addi	t3,0
     208:	000001d7          	0x1d7
     20c:	00031807          	0x31807
     210:	9e00                	0x9e00
     212:	0d01                	c.addi	s10,0
     214:	01dc                	c.addi4spn	a5,sp,196
     216:	0000                	c.unimp
     218:	0305                	c.addi	t1,1
     21a:	49b0                	c.lw	a2,80(a1)
     21c:	8000                	0x8000
     21e:	00031307          	0x31307
     222:	9e00                	0x9e00
     224:	1701                	c.addi	a4,-32
     226:	01dc                	c.addi4spn	a5,sp,196
     228:	0000                	c.unimp
     22a:	0305                	c.addi	t1,1
     22c:	49ac                	c.lw	a1,80(a1)
     22e:	8000                	0x8000
     230:	00019507          	0x19507
     234:	9f00                	0x9f00
     236:	0501                	c.addi	a0,0
     238:	0086                	c.slli	ra,0x1
     23a:	0000                	c.unimp
     23c:	0305                	c.addi	t1,1
     23e:	49a8                	c.lw	a0,80(a1)
     240:	8000                	0x8000
     242:	0003d407          	0x3d407
     246:	a000                	c.fsd	fs0,0(s0)
     248:	0901                	c.addi	s2,0
     24a:	00b1                	c.addi	ra,12
     24c:	0000                	c.unimp
     24e:	0305                	c.addi	t1,1
     250:	49a4                	c.lw	s1,80(a1)
     252:	8000                	0x8000
     254:	00012907          	flw	fs2,0(sp)
     258:	a100                	c.fsd	fs0,0(a0)
     25a:	0601                	c.addi	a2,0
     25c:	00a5                	c.addi	ra,9
     25e:	0000                	c.unimp
     260:	0305                	c.addi	t1,1
     262:	49a1                	c.li	s3,8
     264:	8000                	0x8000
     266:	00030907          	0x30907
     26a:	a100                	c.fsd	fs0,0(a0)
     26c:	1101                	c.addi	sp,-32
     26e:	00a5                	c.addi	ra,9
     270:	0000                	c.unimp
     272:	0305                	c.addi	t1,1
     274:	49a0                	c.lw	s0,80(a1)
     276:	8000                	0x8000
     278:	00007107          	0x7107
     27c:	a200                	c.fsd	fs0,0(a2)
     27e:	0501                	c.addi	a0,0
     280:	00d9                	c.addi	ra,22
     282:	0000                	c.unimp
     284:	0305                	c.addi	t1,1
     286:	1dac                	c.addi4spn	a1,sp,760
     288:	8000                	0x8000
     28a:	00023407          	fld	fs0,0(tp) # ffff8000 <_sp+0x77ff8000>
     28e:	a300                	c.fsd	fs0,0(a4)
     290:	0501                	c.addi	a0,0
     292:	00e9                	c.addi	ra,26
     294:	0000                	c.unimp
     296:	0305                	c.addi	t1,1
     298:	2274                	c.fld	fa3,192(a2)
     29a:	8000                	0x8000
     29c:	522e                	c.lwsp	tp,232(sp)
     29e:	6765                	c.lui	a4,0x19
     2a0:	0100                	c.addi4spn	s0,sp,128
     2a2:	01a9                	c.addi	gp,10
     2a4:	b109                	c.j	fffffea6 <_sp+0x77fffea6>
     2a6:	0000                	c.unimp
     2a8:	0500                	c.addi4spn	s0,sp,640
     2aa:	00499c03          	lh	s8,4(s3)
     2ae:	0780                	c.addi4spn	s0,sp,960
     2b0:	0111                	c.addi	sp,4
     2b2:	0000                	c.unimp
     2b4:	b10901b3          	0xb10901b3
     2b8:	0000                	c.unimp
     2ba:	0500                	c.addi4spn	s0,sp,640
     2bc:	00499803          	lh	a6,4(s3)
     2c0:	0780                	c.addi4spn	s0,sp,960
     2c2:	0414                	c.addi4spn	a3,sp,512
     2c4:	0000                	c.unimp
     2c6:	01b5                	c.addi	gp,13
     2c8:	af06                	c.fsdsp	ft1,408(sp)
     2ca:	0002                	c.slli64	zero
     2cc:	0500                	c.addi4spn	s0,sp,640
     2ce:	00499403          	lh	s0,4(s3)
     2d2:	1380                	c.addi4spn	s0,sp,480
     2d4:	0504                	c.addi4spn	s1,sp,640
     2d6:	0502                	c.slli64	a0
     2d8:	0000                	c.unimp
     2da:	0000c707          	flq	fa4,0(ra)
     2de:	b500                	c.fsd	fs0,40(a0)
     2e0:	1201                	c.addi	tp,-32
     2e2:	000002af          	0x2af
     2e6:	0305                	c.addi	t1,1
     2e8:	4990                	c.lw	a2,16(a1)
     2ea:	8000                	0x8000
     2ec:	0000eb07          	0xeb07
     2f0:	b500                	c.fsd	fs0,40(a0)
     2f2:	1c01                	c.addi	s8,-32
     2f4:	000002af          	0x2af
     2f8:	0305                	c.addi	t1,1
     2fa:	498c                	c.lw	a1,16(a1)
     2fc:	8000                	0x8000
     2fe:	0003f807          	0x3f807
     302:	b600                	c.fsd	fs0,40(a2)
     304:	0701                	c.addi	a4,0
     306:	02ec                	c.addi4spn	a1,sp,332
     308:	0000                	c.unimp
     30a:	0305                	c.addi	t1,1
     30c:	4988                	c.lw	a0,16(a1)
     30e:	8000                	0x8000
     310:	62040413          	addi	s0,s0,1568 # ffff9620 <_sp+0x77ff9620>
     314:	0001                	c.addi	zero,0
     316:	0700                	c.addi4spn	s0,sp,896
     318:	03be                	c.slli	t2,0xf
     31a:	0000                	c.unimp
     31c:	01b6                	c.slli	gp,0xd
     31e:	ec15                	c.bnez	s0,35a <__stack_size-0x1fffca6>
     320:	0002                	c.slli64	zero
     322:	0500                	c.addi4spn	s0,sp,640
     324:	00498403          	lb	s0,4(s3)
     328:	1680                	c.addi4spn	s0,sp,864
     32a:	00a5                	c.addi	ra,9
     32c:	0000                	c.unimp
     32e:	0316                	c.slli	t1,0x5
     330:	0000                	c.unimp
     332:	0000392f          	0x392f
     336:	ff00                	c.fsw	fs0,56(a4)
     338:	5b180003          	lb	zero,1457(a6)
     33c:	0001                	c.addi	zero,0
     33e:	ba00                	c.fsd	fs0,48(a2)
     340:	0d01                	c.addi	s10,0
     342:	0305                	c.addi	t1,1
     344:	0000                	c.unimp
     346:	0305                	c.addi	t1,1
     348:	1e74                	c.addi4spn	a3,sp,828
     34a:	8000                	0x8000
     34c:	2018                	c.fld	fa4,0(s0)
     34e:	0001                	c.addi	zero,0
     350:	bb00                	c.fsd	fs0,48(a4)
     352:	0e01                	c.addi	t3,0
     354:	033a                	c.slli	t1,0xe
     356:	0000                	c.unimp
     358:	0305                	c.addi	t1,1
     35a:	49cc                	c.lw	a1,20(a1)
     35c:	8000                	0x8000
     35e:	a50d                	c.j	980 <__stack_size-0x1fff680>
     360:	0000                	c.unimp
     362:	0700                	c.addi4spn	s0,sp,896
     364:	01d9                	c.addi	gp,22
     366:	0000                	c.unimp
     368:	02ca                	c.slli	t0,0x12
     36a:	b109                	c.j	ffffff6c <_sp+0x77ffff6c>
     36c:	0000                	c.unimp
     36e:	0500                	c.addi4spn	s0,sp,640
     370:	0049c803          	lbu	a6,4(s3)
     374:	3080                	c.fld	fs0,32(s1)
     376:	02f8                	c.addi4spn	a4,sp,332
     378:	0000                	c.unimp
     37a:	0e02                	c.slli64	t3
     37c:	6406                	c.flwsp	fs0,64(sp)
     37e:	1e000003          	lb	zero,480(zero) # 1e0 <__stack_size-0x1fffe20>
     382:	0364                	c.addi4spn	s1,sp,396
     384:	0000                	c.unimp
     386:	000e                	c.slli	zero,0x3
     388:	ac0d                	c.j	5ba <__stack_size-0x1fffa46>
     38a:	0000                	c.unimp
     38c:	2000                	c.fld	fs0,0(s0)
     38e:	00e1                	c.addi	ra,24
     390:	0000                	c.unimp
     392:	0086                	c.slli	ra,0x1
     394:	0000                	c.unimp
     396:	0378                	c.addi4spn	a4,sp,396
     398:	0000                	c.unimp
     39a:	000e                	c.slli	zero,0x3
     39c:	f531                	c.bnez	a0,2e8 <__stack_size-0x1fffd18>
     39e:	0000                	c.unimp
     3a0:	0100                	c.addi4spn	s0,sp,128
     3a2:	02d0                	c.addi4spn	a2,sp,324
     3a4:	8605                	c.srai	a2,0x1
     3a6:	0000                	c.unimp
     3a8:	2800                	c.fld	fs0,16(s0)
     3aa:	0000                	c.unimp
     3ac:	2880                	c.fld	fs0,16(s1)
     3ae:	0009                	c.addi	zero,2
     3b0:	0100                	c.addi4spn	s0,sp,128
     3b2:	219c                	c.fld	fa5,0(a1)
     3b4:	000e                	c.slli	zero,0x3
     3b6:	2000                	c.fld	fs0,0(s0)
     3b8:	00e1                	c.addi	ra,24
     3ba:	0000                	c.unimp
     3bc:	0086                	c.slli	ra,0x1
     3be:	0000                	c.unimp
     3c0:	03a2                	c.slli	t2,0x8
     3c2:	0000                	c.unimp
     3c4:	000e                	c.slli	zero,0x3
     3c6:	3310                	c.fld	fa2,32(a4)
     3c8:	d8000003          	lb	zero,-640(zero) # fffffd80 <_sp+0x77fffd80>
     3cc:	0d02                	c.slli64	s10
     3ce:	008d                	c.addi	ra,3
     3d0:	0000                	c.unimp
     3d2:	000c                	0xc
     3d4:	0000                	c.unimp
     3d6:	5110                	c.lw	a2,32(a0)
     3d8:	0001                	c.addi	zero,0
     3da:	d900                	c.sw	s0,48(a0)
     3dc:	1102                	c.slli	sp,0x20
     3de:	008d                	c.addi	ra,3
     3e0:	0000                	c.unimp
     3e2:	00000077          	0x77
     3e6:	a110                	c.fsd	fa2,0(a0)
     3e8:	0000                	c.unimp
     3ea:	da00                	c.sw	s0,48(a2)
     3ec:	0d02                	c.slli64	s10
     3ee:	008d                	c.addi	ra,3
     3f0:	0000                	c.unimp
     3f2:	00ea                	c.slli	ra,0x1a
     3f4:	0000                	c.unimp
     3f6:	2d10                	c.fld	fa2,24(a0)
     3f8:	0004                	0x4
     3fa:	db00                	c.sw	s0,48(a4)
     3fc:	0c02                	c.slli64	s8
     3fe:	00a5                	c.addi	ra,9
     400:	0000                	c.unimp
     402:	00000103          	lb	sp,0(zero) # 0 <__stack_size-0x2000000>
     406:	7510                	c.flw	fa2,40(a0)
     408:	0001                	c.addi	zero,0
     40a:	dc00                	c.sw	s0,56(s0)
     40c:	0f02                	c.slli64	t5
     40e:	006e                	c.slli	zero,0x1b
     410:	0000                	c.unimp
     412:	014a                	c.slli	sp,0x12
     414:	0000                	c.unimp
     416:	1618                	c.addi4spn	a4,sp,800
     418:	0001                	c.addi	zero,0
     41a:	dd00                	c.sw	s0,56(a0)
     41c:	0a02                	c.slli64	s4
     41e:	00bd                	c.addi	ra,15
     420:	0000                	c.unimp
     422:	7f809103          	lh	sp,2040(ra)
     426:	b518                	c.fsd	fa4,40(a0)
     428:	0001                	c.addi	zero,0
     42a:	de00                	c.sw	s0,56(a2)
     42c:	0a02                	c.slli64	s4
     42e:	00bd                	c.addi	ra,15
     430:	0000                	c.unimp
     432:	7fa09103          	lh	sp,2042(ra)
     436:	4710                	c.lw	a2,8(a4)
     438:	0001                	c.addi	zero,0
     43a:	df00                	c.sw	s0,56(a4)
     43c:	0b02                	c.slli64	s6
     43e:	0086                	c.slli	ra,0x1
     440:	0000                	c.unimp
     442:	01a6                	c.slli	gp,0x9
     444:	0000                	c.unimp
     446:	0532                	c.slli	a0,0xc
     448:	0004                	0x4
     44a:	0100                	c.addi4spn	s0,sp,128
     44c:	02e0                	c.addi4spn	s0,sp,332
     44e:	0000860b          	0x860b
     452:	e800                	c.fsw	fs0,16(s0)
     454:	02eb3303          	0x2eb3303
     458:	0000                	c.unimp
     45a:	033a0003          	lb	zero,51(s4)
     45e:	0000                	c.unimp
     460:	0000044b          	fnmsub.s	fs0,ft0,ft0,ft0,rne
     464:	3a1e                	c.fldsp	fs4,480(sp)
     466:	1e000003          	lb	zero,480(zero) # 1e0 <__stack_size-0x1fffe20>
     46a:	0364                	c.addi4spn	s1,sp,396
     46c:	0000                	c.unimp
     46e:	1900                	c.addi4spn	s0,sp,176
     470:	05fc                	c.addi4spn	a5,sp,716
     472:	8000                	0x8000
     474:	0054                	c.addi4spn	a3,sp,4
     476:	0000                	c.unimp
     478:	000004d3          	fadd.s	fs1,ft0,ft0,rne
     47c:	9815                	c.andi	s0,-27
     47e:	86000003          	lb	zero,-1952(zero) # fffff860 <_sp+0x77fff860>
     482:	0000                	c.unimp
     484:	6700                	c.flw	fs0,8(a4)
     486:	0004                	0x4
     488:	0e00                	c.addi4spn	s0,sp,784
     48a:	0400                	c.addi4spn	s0,sp,512
     48c:	0e21                	c.addi	t3,8
     48e:	0000                	c.unimp
     490:	061c                	c.addi4spn	a5,sp,768
     492:	8000                	0x8000
     494:	0251                	c.addi	tp,20
     496:	0000                	c.unimp
     498:	035c                	c.addi4spn	a5,sp,388
     49a:	8508                	0x8508
     49c:	0004                	0x4
     49e:	0200                	c.addi4spn	s0,sp,256
     4a0:	0e30                	c.addi4spn	a2,sp,792
     4a2:	0000                	c.unimp
     4a4:	01c9                	c.addi	gp,18
     4a6:	0000                	c.unimp
     4a8:	0300                	c.addi4spn	s0,sp,384
     4aa:	061c                	c.addi4spn	a5,sp,768
     4ac:	8000                	0x8000
     4ae:	000013cf          	fnmadd.s	ft7,ft0,ft0,ft0,rtz
     4b2:	04a2                	c.slli	s1,0x8
     4b4:	0000                	c.unimp
     4b6:	0101                	c.addi	sp,0
     4b8:	025a                	c.slli	tp,0x16
     4ba:	0078                	c.addi4spn	a4,sp,12
     4bc:	0101                	c.addi	sp,0
     4be:	6403055b          	0x6403055b
     4c2:	0018                	0x18
     4c4:	0080                	c.addi4spn	s0,sp,64
     4c6:	00063c03          	0x63c03
     4ca:	5180                	c.lw	s0,32(a1)
     4cc:	bf000003          	lb	zero,-1040(zero) # fffffbf0 <_sp+0x77fffbf0>
     4d0:	0004                	0x4
     4d2:	0100                	c.addi4spn	s0,sp,128
     4d4:	5a01                	c.li	s4,-32
     4d6:	0305                	c.addi	t1,1
     4d8:	1a54                	c.addi4spn	a3,sp,308
     4da:	8000                	0x8000
     4dc:	0101                	c.addi	sp,0
     4de:	0078025b          	0x78025b
     4e2:	1100                	c.addi4spn	s0,sp,160
     4e4:	0648                	c.addi4spn	a0,sp,772
     4e6:	8000                	0x8000
     4e8:	0351                	c.addi	t1,20
     4ea:	0000                	c.unimp
     4ec:	0101                	c.addi	sp,0
     4ee:	055a                	c.slli	a0,0x16
     4f0:	001a7803          	0x1a7803
     4f4:	0080                	c.addi4spn	s0,sp,64
     4f6:	1900                	c.addi4spn	s0,sp,176
     4f8:	0718                	c.addi4spn	a4,sp,896
     4fa:	8000                	0x8000
     4fc:	0058                	c.addi4spn	a4,sp,4
     4fe:	0000                	c.unimp
     500:	0000055b          	0x55b
     504:	9815                	c.andi	s0,-27
     506:	86000003          	lb	zero,-1952(zero) # fffff860 <_sp+0x77fff860>
     50a:	0000                	c.unimp
     50c:	ef00                	c.fsw	fs0,24(a4)
     50e:	0004                	0x4
     510:	0e00                	c.addi4spn	s0,sp,784
     512:	0400                	c.addi4spn	s0,sp,512
     514:	0e21                	c.addi	t3,8
     516:	0000                	c.unimp
     518:	073c                	c.addi4spn	a5,sp,904
     51a:	8000                	0x8000
     51c:	000002af          	0x2af
     520:	0371                	c.addi	t1,28
     522:	0d08                	c.addi4spn	a0,sp,656
     524:	0005                	c.addi	zero,1
     526:	0200                	c.addi4spn	s0,sp,256
     528:	0e30                	c.addi4spn	a2,sp,792
     52a:	0000                	c.unimp
     52c:	01dc                	c.addi4spn	a5,sp,196
     52e:	0000                	c.unimp
     530:	0300                	c.addi4spn	s0,sp,384
     532:	073c                	c.addi4spn	a5,sp,904
     534:	8000                	0x8000
     536:	000013cf          	fnmadd.s	ft7,ft0,ft0,ft0,rtz
     53a:	052a                	c.slli	a0,0xa
     53c:	0000                	c.unimp
     53e:	0101                	c.addi	sp,0
     540:	025a                	c.slli	tp,0x16
     542:	0078                	c.addi4spn	a4,sp,12
     544:	0101                	c.addi	sp,0
     546:	6403055b          	0x6403055b
     54a:	0018                	0x18
     54c:	0080                	c.addi4spn	s0,sp,64
     54e:	00075c03          	lhu	s8,0(a4) # 19000 <__stack_size-0x1fe7000>
     552:	5180                	c.lw	s0,32(a1)
     554:	47000003          	lb	zero,1136(zero) # 470 <__stack_size-0x1fffb90>
     558:	0005                	c.addi	zero,1
     55a:	0100                	c.addi4spn	s0,sp,128
     55c:	5a01                	c.li	s4,-32
     55e:	0305                	c.addi	t1,1
     560:	1b28                	c.addi4spn	a0,sp,440
     562:	8000                	0x8000
     564:	0101                	c.addi	sp,0
     566:	0078025b          	0x78025b
     56a:	1100                	c.addi4spn	s0,sp,160
     56c:	0768                	c.addi4spn	a0,sp,908
     56e:	8000                	0x8000
     570:	0351                	c.addi	t1,20
     572:	0000                	c.unimp
     574:	0101                	c.addi	sp,0
     576:	055a                	c.slli	a0,0x16
     578:	001a7803          	0x1a7803
     57c:	0080                	c.addi4spn	s0,sp,64
     57e:	1900                	c.addi4spn	s0,sp,176
     580:	07f8                	c.addi4spn	a4,sp,972
     582:	8000                	0x8000
     584:	0034                	c.addi4spn	a3,sp,8
     586:	0000                	c.unimp
     588:	05e5                	c.addi	a1,25
     58a:	0000                	c.unimp
     58c:	9815                	c.andi	s0,-27
     58e:	86000003          	lb	zero,-1952(zero) # fffff860 <_sp+0x77fff860>
     592:	0000                	c.unimp
     594:	7700                	c.flw	fs0,40(a4)
     596:	0005                	c.addi	zero,1
     598:	0e00                	c.addi4spn	s0,sp,784
     59a:	0400                	c.addi4spn	s0,sp,512
     59c:	0e21                	c.addi	t3,8
     59e:	0000                	c.unimp
     5a0:	0808                	c.addi4spn	a0,sp,16
     5a2:	8000                	0x8000
     5a4:	000002fb          	0x2fb
     5a8:	0389                	c.addi	t2,2
     5aa:	9508                	0x9508
     5ac:	0005                	c.addi	zero,1
     5ae:	0200                	c.addi4spn	s0,sp,256
     5b0:	0e30                	c.addi4spn	a2,sp,792
     5b2:	0000                	c.unimp
     5b4:	000001ef          	jal	gp,5b4 <__stack_size-0x1fffa4c>
     5b8:	0300                	c.addi4spn	s0,sp,384
     5ba:	0808                	c.addi4spn	a0,sp,16
     5bc:	8000                	0x8000
     5be:	000013cf          	fnmadd.s	ft7,ft0,ft0,ft0,rtz
     5c2:	000005b3          	add	a1,zero,zero
     5c6:	0101                	c.addi	sp,0
     5c8:	035a                	c.slli	t1,0x16
     5ca:	8091                	c.srli	s1,0x4
     5cc:	017f                	0x17f
     5ce:	5b01                	c.li	s6,-32
     5d0:	0305                	c.addi	t1,1
     5d2:	1ba4                	c.addi4spn	s1,sp,504
     5d4:	8000                	0x8000
     5d6:	0300                	c.addi4spn	s0,sp,384
     5d8:	0820                	c.addi4spn	s0,sp,24
     5da:	8000                	0x8000
     5dc:	0351                	c.addi	t1,20
     5de:	0000                	c.unimp
     5e0:	05d1                	c.addi	a1,20
     5e2:	0000                	c.unimp
     5e4:	0101                	c.addi	sp,0
     5e6:	055a                	c.slli	a0,0x16
     5e8:	001bc403          	lbu	s0,1(s7)
     5ec:	0180                	c.addi4spn	s0,sp,192
     5ee:	5b01                	c.li	s6,-32
     5f0:	7f809103          	lh	sp,2040(ra)
     5f4:	1100                	c.addi4spn	s0,sp,160
     5f6:	082c                	c.addi4spn	a1,sp,24
     5f8:	8000                	0x8000
     5fa:	0351                	c.addi	t1,20
     5fc:	0000                	c.unimp
     5fe:	0101                	c.addi	sp,0
     600:	055a                	c.slli	a0,0x16
     602:	001be003          	0x1be003
     606:	0080                	c.addi4spn	s0,sp,64
     608:	1900                	c.addi4spn	s0,sp,176
     60a:	082c                	c.addi4spn	a1,sp,24
     60c:	8000                	0x8000
     60e:	0034                	c.addi4spn	a3,sp,8
     610:	0000                	c.unimp
     612:	0000066f          	jal	a2,612 <__stack_size-0x1fff9ee>
     616:	9815                	c.andi	s0,-27
     618:	86000003          	lb	zero,-1952(zero) # fffff860 <_sp+0x77fff860>
     61c:	0000                	c.unimp
     61e:	0100                	c.addi4spn	s0,sp,128
     620:	0006                	c.slli	zero,0x1
     622:	0e00                	c.addi4spn	s0,sp,784
     624:	0400                	c.addi4spn	s0,sp,512
     626:	0e21                	c.addi	t3,8
     628:	0000                	c.unimp
     62a:	083c                	c.addi4spn	a5,sp,24
     62c:	8000                	0x8000
     62e:	030e                	c.slli	t1,0x3
     630:	0000                	c.unimp
     632:	038d                	c.addi	t2,3
     634:	1f08                	c.addi4spn	a0,sp,944
     636:	0006                	c.slli	zero,0x1
     638:	0200                	c.addi4spn	s0,sp,256
     63a:	0e30                	c.addi4spn	a2,sp,792
     63c:	0000                	c.unimp
     63e:	0202                	c.slli64	tp
     640:	0000                	c.unimp
     642:	0300                	c.addi4spn	s0,sp,384
     644:	083c                	c.addi4spn	a5,sp,24
     646:	8000                	0x8000
     648:	000013cf          	fnmadd.s	ft7,ft0,ft0,ft0,rtz
     64c:	063d                	c.addi	a2,15
     64e:	0000                	c.unimp
     650:	0101                	c.addi	sp,0
     652:	035a                	c.slli	t1,0x16
     654:	a091                	c.j	698 <__stack_size-0x1fff968>
     656:	017f                	0x17f
     658:	5b01                	c.li	s6,-32
     65a:	0305                	c.addi	t1,1
     65c:	1c18                	c.addi4spn	a4,sp,560
     65e:	8000                	0x8000
     660:	0300                	c.addi4spn	s0,sp,384
     662:	0854                	c.addi4spn	a3,sp,20
     664:	8000                	0x8000
     666:	0351                	c.addi	t1,20
     668:	0000                	c.unimp
     66a:	0000065b          	0x65b
     66e:	0101                	c.addi	sp,0
     670:	055a                	c.slli	a0,0x16
     672:	001c3803          	0x1c3803
     676:	0180                	c.addi4spn	s0,sp,192
     678:	5b01                	c.li	s6,-32
     67a:	7fa09103          	lh	sp,2042(ra)
     67e:	1100                	c.addi4spn	s0,sp,160
     680:	0860                	c.addi4spn	s0,sp,28
     682:	8000                	0x8000
     684:	0351                	c.addi	t1,20
     686:	0000                	c.unimp
     688:	0101                	c.addi	sp,0
     68a:	055a                	c.slli	a0,0x16
     68c:	001c5403          	lhu	s0,1(s8) # 19001 <__stack_size-0x1fe6fff>
     690:	0080                	c.addi4spn	s0,sp,64
     692:	0400                	c.addi4spn	s0,sp,512
     694:	110e                	c.slli	sp,0x23
     696:	0000                	c.unimp
     698:	0064                	c.addi4spn	s1,sp,12
     69a:	8000                	0x8000
     69c:	007d                	c.addi	zero,31
     69e:	0000                	c.unimp
     6a0:	02e6                	c.slli	t0,0x19
     6a2:	9c20                	0x9c20
     6a4:	0006                	c.slli	zero,0x1
     6a6:	0200                	c.addi4spn	s0,sp,256
     6a8:	1120                	c.addi4spn	s0,sp,168
     6aa:	0000                	c.unimp
     6ac:	0215                	c.addi	tp,5
     6ae:	0000                	c.unimp
     6b0:	7d08                	c.flw	fa0,56(a0)
     6b2:	0000                	c.unimp
     6b4:	0500                	c.addi4spn	s0,sp,640
     6b6:	112c                	c.addi4spn	a1,sp,168
     6b8:	0000                	c.unimp
     6ba:	00000223          	sb	zero,4(zero) # 4 <__stack_size-0x1fffffc>
     6be:	0000                	c.unimp
     6c0:	0e04                	c.addi4spn	s1,sp,784
     6c2:	0011                	c.addi	zero,4
     6c4:	9000                	0x9000
     6c6:	0000                	c.unimp
     6c8:	9080                	0x9080
     6ca:	0000                	c.unimp
     6cc:	e700                	c.fsw	fs0,8(a4)
     6ce:	1b02                	c.slli	s6,0x20
     6d0:	06c9                	c.addi	a3,18
     6d2:	0000                	c.unimp
     6d4:	2002                	c.fldsp	ft0,0(sp)
     6d6:	0011                	c.addi	zero,4
     6d8:	3e00                	c.fld	fs0,56(a2)
     6da:	0002                	c.slli64	zero
     6dc:	0800                	c.addi4spn	s0,sp,16
     6de:	0090                	c.addi4spn	a2,sp,64
     6e0:	0000                	c.unimp
     6e2:	2c05                	c.jal	912 <__stack_size-0x1fff6ee>
     6e4:	0011                	c.addi	zero,4
     6e6:	4c00                	c.lw	s0,24(s0)
     6e8:	0002                	c.slli64	zero
     6ea:	0000                	c.unimp
     6ec:	3400                	c.fld	fs0,40(s0)
     6ee:	0fca                	c.slli	t6,0x12
     6f0:	0000                	c.unimp
     6f2:	01f4                	c.addi4spn	a3,sp,204
     6f4:	8000                	0x8000
     6f6:	0008                	0x8
     6f8:	0000                	c.unimp
     6fa:	0301                	c.addi	t1,0
     6fc:	d4210703          	lb	a4,-702(sp)
     700:	fc00000f          	0xfc00000f
     704:	0001                	c.addi	zero,0
     706:	0880                	c.addi4spn	s0,sp,80
     708:	0000                	c.unimp
     70a:	0400                	c.addi4spn	s0,sp,512
     70c:	06f80703          	lb	a4,111(a6)
     710:	0000                	c.unimp
     712:	df05                	c.beqz	a4,64a <__stack_size-0x1fff9b6>
     714:	6700000f          	0x6700000f
     718:	0002                	c.slli64	zero
     71a:	0000                	c.unimp
     71c:	6504                	c.flw	fs1,8(a0)
     71e:	000e                	c.slli	zero,0x3
     720:	0800                	c.addi4spn	s0,sp,16
     722:	0002                	c.slli64	zero
     724:	b580                	c.fsd	fs0,40(a1)
     726:	0000                	c.unimp
     728:	0a00                	c.addi4spn	s0,sp,272
     72a:	07951403          	lh	s0,121(a0) # fffe1079 <_sp+0x77fe1079>
     72e:	0000                	c.unimp
     730:	8002                	0x8002
     732:	000e                	c.slli	zero,0x3
     734:	7400                	c.flw	fs0,40(s0)
     736:	0002                	c.slli64	zero
     738:	0200                	c.addi4spn	s0,sp,256
     73a:	0e74                	c.addi4spn	a3,sp,796
     73c:	0000                	c.unimp
     73e:	02aa                	c.slli	t0,0xa
     740:	0000                	c.unimp
     742:	b508                	c.fsd	fa0,40(a0)
     744:	0000                	c.unimp
     746:	0500                	c.addi4spn	s0,sp,640
     748:	0e8c                	c.addi4spn	a1,sp,848
     74a:	0000                	c.unimp
     74c:	02e0                	c.addi4spn	s0,sp,332
     74e:	0000                	c.unimp
     750:	981a                	c.add	a6,t1
     752:	000e                	c.slli	zero,0x3
     754:	4100                	c.lw	s0,0(a0)
     756:	bf04                	c.fsd	fs1,56(a4)
     758:	000e                	c.slli	zero,0x3
     75a:	5400                	c.lw	s0,40(s0)
     75c:	0002                	c.slli64	zero
     75e:	da80                	c.sw	s0,48(a3)
     760:	0000                	c.unimp
     762:	a300                	c.fsd	fs0,0(a4)
     764:	0902                	c.slli64	s2
     766:	0771                	c.addi	a4,28
     768:	0000                	c.unimp
     76a:	dd02                	c.swsp	zero,184(sp)
     76c:	000e                	c.slli	zero,0x3
     76e:	0500                	c.addi4spn	s0,sp,640
     770:	02000003          	lb	zero,32(zero) # 20 <__stack_size-0x1ffffe0>
     774:	0ed1                	c.addi	t4,20
     776:	0000                	c.unimp
     778:	0320                	c.addi4spn	s0,sp,392
     77a:	0000                	c.unimp
     77c:	da08                	c.sw	a0,48(a2)
     77e:	0000                	c.unimp
     780:	0500                	c.addi4spn	s0,sp,640
     782:	0ee9                	c.addi	t4,26
     784:	0000                	c.unimp
     786:	0000033b          	0x33b
     78a:	f505                	c.bnez	a0,6b2 <__stack_size-0x1fff94e>
     78c:	000e                	c.slli	zero,0x3
     78e:	3b00                	c.fld	fs0,48(a4)
     790:	00000003          	lb	zero,0(zero) # 0 <__stack_size-0x2000000>
     794:	3500                	c.fld	fs0,40(a0)
     796:	0ea4                	c.addi4spn	s1,sp,856
     798:	0000                	c.unimp
     79a:	00f6                	c.slli	ra,0x1d
     79c:	0000                	c.unimp
     79e:	7011                	c.lui	zero,0xfffe4
     7a0:	0002                	c.slli64	zero
     7a2:	cf80                	c.sw	s0,24(a5)
     7a4:	01000013          	addi	zero,zero,16
     7a8:	5a01                	c.li	s4,-32
     7aa:	7f809103          	lh	sp,2040(ra)
     7ae:	0101                	c.addi	sp,0
     7b0:	a091035b          	0xa091035b
     7b4:	007f                	0x7f
     7b6:	0000                	c.unimp
     7b8:	0400                	c.addi4spn	s0,sp,512
     7ba:	0f02                	c.slli64	t5
     7bc:	0000                	c.unimp
     7be:	0270                	c.addi4spn	a2,sp,268
     7c0:	8000                	0x8000
     7c2:	0109                	c.addi	sp,2
     7c4:	0000                	c.unimp
     7c6:	0315                	c.addi	t1,5
     7c8:	0007e607          	0x7e607
     7cc:	0200                	c.addi4spn	s0,sp,256
     7ce:	0f31                	c.addi	t5,12
     7d0:	0000                	c.unimp
     7d2:	0356                	c.slli	t1,0x15
     7d4:	0000                	c.unimp
     7d6:	2502                	c.fldsp	fa0,0(sp)
     7d8:	6300000f          	0x6300000f
     7dc:	02000003          	lb	zero,32(zero) # 20 <__stack_size-0x1ffffe0>
     7e0:	0f19                	c.addi	t5,6
     7e2:	0000                	c.unimp
     7e4:	0370                	c.addi4spn	a2,sp,396
     7e6:	0000                	c.unimp
     7e8:	0d02                	c.slli64	s10
     7ea:	8100000f          	0x8100000f
     7ee:	08000003          	lb	zero,128(zero) # 80 <__stack_size-0x1ffff80>
     7f2:	0109                	c.addi	sp,2
     7f4:	0000                	c.unimp
     7f6:	3d05                	c.jal	626 <__stack_size-0x1fff9da>
     7f8:	9200000f          	0x9200000f
     7fc:	05000003          	lb	zero,80(zero) # 50 <__stack_size-0x1ffffb0>
     800:	0f49                	c.addi	t5,18
     802:	0000                	c.unimp
     804:	000003ab          	0x3ab
     808:	0000                	c.unimp
     80a:	bf04                	c.fsd	fs1,56(a4)
     80c:	000e                	c.slli	zero,0x3
     80e:	d800                	c.sw	s0,48(s0)
     810:	0002                	c.slli64	zero
     812:	2e80                	c.fld	fs0,24(a3)
     814:	0001                	c.addi	zero,0
     816:	1b00                	c.addi4spn	s0,sp,432
     818:	08251903          	lh	s2,130(a0)
     81c:	0000                	c.unimp
     81e:	dd02                	c.swsp	zero,184(sp)
     820:	000e                	c.slli	zero,0x3
     822:	b800                	c.fsd	fs0,48(s0)
     824:	02000003          	lb	zero,32(zero) # 20 <__stack_size-0x1ffffe0>
     828:	0ed1                	c.addi	t4,20
     82a:	0000                	c.unimp
     82c:	03ed                	c.addi	t2,27
     82e:	0000                	c.unimp
     830:	2e08                	c.fld	fa0,24(a2)
     832:	0001                	c.addi	zero,0
     834:	0500                	c.addi4spn	s0,sp,640
     836:	0ee9                	c.addi	t4,26
     838:	0000                	c.unimp
     83a:	03ed                	c.addi	t2,27
     83c:	0000                	c.unimp
     83e:	f505                	c.bnez	a0,766 <__stack_size-0x1fff89a>
     840:	000e                	c.slli	zero,0x3
     842:	ed00                	c.fsw	fs0,24(a0)
     844:	00000003          	lb	zero,0(zero) # 0 <__stack_size-0x2000000>
     848:	0400                	c.addi4spn	s0,sp,512
     84a:	0fa1                	c.addi	t6,8
     84c:	0000                	c.unimp
     84e:	02f0                	c.addi4spn	a2,sp,332
     850:	8000                	0x8000
     852:	015c                	c.addi4spn	a5,sp,132
     854:	0000                	c.unimp
     856:	031e                	c.slli	t1,0x7
     858:	0008440b          	0x8440b
     85c:	2200                	c.fld	fs0,0(a2)
     85e:	0fb8                	c.addi4spn	a4,sp,984
     860:	0000                	c.unimp
     862:	ac22                	c.fsdsp	fs0,24(sp)
     864:	0000000f          	fence	unknown,unknown
     868:	0904                	c.addi4spn	s1,sp,144
     86a:	0010                	0x10
     86c:	a400                	c.fsd	fs0,8(s0)
     86e:	6f800003          	lb	zero,1784(zero) # 6f8 <__stack_size-0x1fff908>
     872:	0001                	c.addi	zero,0
     874:	2900                	c.fld	fs0,16(a0)
     876:	087a0703          	lb	a4,135(s4)
     87a:	0000                	c.unimp
     87c:	1402                	c.slli	s0,0x20
     87e:	0010                	0x10
     880:	1a00                	c.addi4spn	s0,sp,304
     882:	0004                	0x4
     884:	0800                	c.addi4spn	s0,sp,16
     886:	0000016f          	jal	sp,886 <__stack_size-0x1fff77a>
     88a:	2005                	c.jal	8aa <__stack_size-0x1fff756>
     88c:	0010                	0x10
     88e:	2b00                	c.fld	fs0,16(a4)
     890:	0004                	0x4
     892:	0500                	c.addi4spn	s0,sp,640
     894:	102c                	c.addi4spn	a1,sp,40
     896:	0000                	c.unimp
     898:	0444                	c.addi4spn	s1,sp,516
     89a:	0000                	c.unimp
     89c:	0000                	c.unimp
     89e:	2104                	c.fld	fs1,0(a0)
     8a0:	000e                	c.slli	zero,0x3
     8a2:	d400                	c.sw	s0,40(s0)
     8a4:	8b800003          	lb	zero,-1864(zero) # fffff8b8 <_sp+0x77fff8b8>
     8a8:	0001                	c.addi	zero,0
     8aa:	3500                	c.fld	fs0,40(a0)
     8ac:	08980803          	lb	a6,137(a6)
     8b0:	0000                	c.unimp
     8b2:	3002                	c.fldsp	ft0,32(sp)
     8b4:	000e                	c.slli	zero,0x3
     8b6:	5d00                	c.lw	s0,56(a0)
     8b8:	0004                	0x4
     8ba:	0000                	c.unimp
     8bc:	2104                	c.fld	fs1,0(a0)
     8be:	000e                	c.slli	zero,0x3
     8c0:	1c00                	c.addi4spn	s0,sp,560
     8c2:	0004                	0x4
     8c4:	a780                	c.fsd	fs0,8(a5)
     8c6:	0001                	c.addi	zero,0
     8c8:	3900                	c.fld	fs0,48(a0)
     8ca:	08b60803          	lb	a6,139(a2)
     8ce:	0000                	c.unimp
     8d0:	3002                	c.fldsp	ft0,32(sp)
     8d2:	000e                	c.slli	zero,0x3
     8d4:	8200                	0x8200
     8d6:	0004                	0x4
     8d8:	0000                	c.unimp
     8da:	2104                	c.fld	fs1,0(a0)
     8dc:	000e                	c.slli	zero,0x3
     8de:	5800                	c.lw	s0,48(s0)
     8e0:	0004                	0x4
     8e2:	ba80                	c.fsd	fs0,48(a3)
     8e4:	0001                	c.addi	zero,0
     8e6:	3d00                	c.fld	fs0,56(a0)
     8e8:	08d40803          	lb	a6,141(s0)
     8ec:	0000                	c.unimp
     8ee:	3002                	c.fldsp	ft0,32(sp)
     8f0:	000e                	c.slli	zero,0x3
     8f2:	9500                	0x9500
     8f4:	0004                	0x4
     8f6:	0000                	c.unimp
     8f8:	2104                	c.fld	fs1,0(a0)
     8fa:	000e                	c.slli	zero,0x3
     8fc:	9400                	0x9400
     8fe:	0004                	0x4
     900:	cd80                	c.sw	s0,24(a1)
     902:	0001                	c.addi	zero,0
     904:	4100                	c.lw	s0,0(a0)
     906:	08f20803          	lb	a6,143(tp) # 8f <__stack_size-0x1ffff71>
     90a:	0000                	c.unimp
     90c:	3002                	c.fldsp	ft0,32(sp)
     90e:	000e                	c.slli	zero,0x3
     910:	ac00                	c.fsd	fs0,24(s0)
     912:	0004                	0x4
     914:	0000                	c.unimp
     916:	2104                	c.fld	fs1,0(a0)
     918:	000e                	c.slli	zero,0x3
     91a:	d000                	c.sw	s0,32(s0)
     91c:	0004                	0x4
     91e:	e080                	c.fsw	fs0,0(s1)
     920:	0001                	c.addi	zero,0
     922:	4500                	c.lw	s0,8(a0)
     924:	09100803          	lb	a6,145(zero) # 91 <__stack_size-0x1ffff6f>
     928:	0000                	c.unimp
     92a:	3002                	c.fldsp	ft0,32(sp)
     92c:	000e                	c.slli	zero,0x3
     92e:	c300                	c.sw	s0,0(a4)
     930:	0004                	0x4
     932:	0000                	c.unimp
     934:	2104                	c.fld	fs1,0(a0)
     936:	000e                	c.slli	zero,0x3
     938:	0c00                	c.addi4spn	s0,sp,528
     93a:	0005                	c.addi	zero,1
     93c:	f380                	c.fsw	fs0,32(a5)
     93e:	0001                	c.addi	zero,0
     940:	4900                	c.lw	s0,16(a0)
     942:	092e0803          	lb	a6,146(t3) # 1a092 <__stack_size-0x1fe5f6e>
     946:	0000                	c.unimp
     948:	3002                	c.fldsp	ft0,32(sp)
     94a:	000e                	c.slli	zero,0x3
     94c:	d600                	c.sw	s0,40(a2)
     94e:	0004                	0x4
     950:	0000                	c.unimp
     952:	2104                	c.fld	fs1,0(a0)
     954:	000e                	c.slli	zero,0x3
     956:	4800                	c.lw	s0,16(s0)
     958:	0005                	c.addi	zero,1
     95a:	0680                	c.addi4spn	s0,sp,832
     95c:	0002                	c.slli64	zero
     95e:	4e00                	c.lw	s0,24(a2)
     960:	094c0803          	lb	a6,148(s8)
     964:	0000                	c.unimp
     966:	3002                	c.fldsp	ft0,32(sp)
     968:	000e                	c.slli	zero,0x3
     96a:	eb00                	c.fsw	fs0,16(a4)
     96c:	0004                	0x4
     96e:	0000                	c.unimp
     970:	2104                	c.fld	fs1,0(a0)
     972:	000e                	c.slli	zero,0x3
     974:	8000                	0x8000
     976:	0005                	c.addi	zero,1
     978:	1980                	c.addi4spn	s0,sp,240
     97a:	0002                	c.slli64	zero
     97c:	5200                	c.lw	s0,32(a2)
     97e:	096a0803          	lb	a6,150(s4)
     982:	0000                	c.unimp
     984:	3002                	c.fldsp	ft0,32(sp)
     986:	000e                	c.slli	zero,0x3
     988:	fe00                	c.fsw	fs0,56(a2)
     98a:	0004                	0x4
     98c:	0000                	c.unimp
     98e:	2104                	c.fld	fs1,0(a0)
     990:	000e                	c.slli	zero,0x3
     992:	c000                	c.sw	s0,0(s0)
     994:	0005                	c.addi	zero,1
     996:	3580                	c.fld	fs0,40(a1)
     998:	0002                	c.slli64	zero
     99a:	5700                	c.lw	s0,40(a4)
     99c:	09880803          	lb	a6,152(a6)
     9a0:	0000                	c.unimp
     9a2:	3002                	c.fldsp	ft0,32(sp)
     9a4:	000e                	c.slli	zero,0x3
     9a6:	1100                	c.addi4spn	s0,sp,160
     9a8:	0005                	c.addi	zero,1
     9aa:	0000                	c.unimp
     9ac:	2104                	c.fld	fs1,0(a0)
     9ae:	000e                	c.slli	zero,0x3
     9b0:	5c00                	c.lw	s0,56(s0)
     9b2:	0006                	c.slli	zero,0x1
     9b4:	6480                	c.flw	fs0,8(s1)
     9b6:	0002                	c.slli64	zero
     9b8:	6300                	c.flw	fs0,0(a4)
     9ba:	09a60803          	lb	a6,154(a2)
     9be:	0000                	c.unimp
     9c0:	3002                	c.fldsp	ft0,32(sp)
     9c2:	000e                	c.slli	zero,0x3
     9c4:	2400                	c.fld	fs0,8(s0)
     9c6:	0005                	c.addi	zero,1
     9c8:	0000                	c.unimp
     9ca:	2104                	c.fld	fs1,0(a0)
     9cc:	000e                	c.slli	zero,0x3
     9ce:	9800                	0x9800
     9d0:	0006                	c.slli	zero,0x1
     9d2:	7780                	c.flw	fs0,40(a5)
     9d4:	0002                	c.slli64	zero
     9d6:	6700                	c.flw	fs0,8(a4)
     9d8:	09c40803          	lb	a6,156(s0)
     9dc:	0000                	c.unimp
     9de:	3002                	c.fldsp	ft0,32(sp)
     9e0:	000e                	c.slli	zero,0x3
     9e2:	3700                	c.fld	fs0,40(a4)
     9e4:	0005                	c.addi	zero,1
     9e6:	0000                	c.unimp
     9e8:	2104                	c.fld	fs1,0(a0)
     9ea:	000e                	c.slli	zero,0x3
     9ec:	dc00                	c.sw	s0,56(s0)
     9ee:	0006                	c.slli	zero,0x1
     9f0:	9380                	0x9380
     9f2:	0002                	c.slli64	zero
     9f4:	6c00                	c.flw	fs0,24(s0)
     9f6:	09e20803          	lb	a6,158(tp) # 9e <__stack_size-0x1ffff62>
     9fa:	0000                	c.unimp
     9fc:	3002                	c.fldsp	ft0,32(sp)
     9fe:	000e                	c.slli	zero,0x3
     a00:	4a00                	c.lw	s0,16(a2)
     a02:	0005                	c.addi	zero,1
     a04:	0000                	c.unimp
     a06:	2104                	c.fld	fs1,0(a0)
     a08:	000e                	c.slli	zero,0x3
     a0a:	7000                	c.flw	fs0,32(s0)
     a0c:	c2800007          	0xc2800007
     a10:	0002                	c.slli64	zero
     a12:	7800                	c.flw	fs0,48(s0)
     a14:	0a000803          	lb	a6,160(zero) # a0 <__stack_size-0x1ffff60>
     a18:	0000                	c.unimp
     a1a:	3002                	c.fldsp	ft0,32(sp)
     a1c:	000e                	c.slli	zero,0x3
     a1e:	5d00                	c.lw	s0,56(a0)
     a20:	0005                	c.addi	zero,1
     a22:	0000                	c.unimp
     a24:	2104                	c.fld	fs1,0(a0)
     a26:	000e                	c.slli	zero,0x3
     a28:	a400                	c.fsd	fs0,8(s0)
     a2a:	d5800007          	0xd5800007
     a2e:	0002                	c.slli64	zero
     a30:	7c00                	c.flw	fs0,56(s0)
     a32:	0a1e0803          	lb	a6,161(t3)
     a36:	0000                	c.unimp
     a38:	3002                	c.fldsp	ft0,32(sp)
     a3a:	000e                	c.slli	zero,0x3
     a3c:	7000                	c.flw	fs0,32(s0)
     a3e:	0005                	c.addi	zero,1
     a40:	0000                	c.unimp
     a42:	2104                	c.fld	fs1,0(a0)
     a44:	000e                	c.slli	zero,0x3
     a46:	d000                	c.sw	s0,32(s0)
     a48:	e8800007          	0xe8800007
     a4c:	0002                	c.slli64	zero
     a4e:	8400                	0x8400
     a50:	0a3c0803          	lb	a6,163(s8)
     a54:	0000                	c.unimp
     a56:	3002                	c.fldsp	ft0,32(sp)
     a58:	000e                	c.slli	zero,0x3
     a5a:	8300                	0x8300
     a5c:	0005                	c.addi	zero,1
     a5e:	0000                	c.unimp
     a60:	6412                	c.flwsp	fs0,4(sp)
     a62:	0000                	c.unimp
     a64:	6980                	c.flw	fs0,16(a1)
     a66:	03000003          	lb	zero,48(zero) # 30 <__stack_size-0x1ffffd0>
     a6a:	00ec                	c.addi4spn	a1,sp,76
     a6c:	8000                	0x8000
     a6e:	13d8                	c.addi4spn	a4,sp,484
     a70:	0000                	c.unimp
     a72:	0a61                	c.addi	s4,24
     a74:	0000                	c.unimp
     a76:	0101                	c.addi	sp,0
     a78:	6403055b          	0x6403055b
     a7c:	0018                	0x18
     a7e:	0180                	c.addi4spn	s0,sp,192
     a80:	5c01                	c.li	s8,-32
     a82:	4f01                	c.li	t5,0
     a84:	0300                	c.addi4spn	s0,sp,384
     a86:	0160                	c.addi4spn	s0,sp,140
     a88:	8000                	0x8000
     a8a:	0351                	c.addi	t1,20
     a8c:	0000                	c.unimp
     a8e:	0a81                	c.addi	s5,0
     a90:	0000                	c.unimp
     a92:	0101                	c.addi	sp,0
     a94:	055a                	c.slli	a0,0x16
     a96:	00189403          	lh	s0,1(a7)
     a9a:	0180                	c.addi4spn	s0,sp,192
     a9c:	5b01                	c.li	s6,-32
     a9e:	0305                	c.addi	t1,1
     aa0:	1884                	c.addi4spn	s1,sp,112
     aa2:	8000                	0x8000
     aa4:	0300                	c.addi4spn	s0,sp,384
     aa6:	0178                	c.addi4spn	a4,sp,140
     aa8:	8000                	0x8000
     aaa:	0351                	c.addi	t1,20
     aac:	0000                	c.unimp
     aae:	0a9f 0000 0101      	0x10100000a9f
     ab4:	055a                	c.slli	a0,0x16
     ab6:	0018b803          	0x18b803
     aba:	0180                	c.addi4spn	s0,sp,192
     abc:	5b01                	c.li	s6,-32
     abe:	03e80a03          	lb	s4,62(a6)
     ac2:	1200                	c.addi4spn	s0,sp,288
     ac4:	02b8                	c.addi4spn	a4,sp,328
     ac6:	8000                	0x8000
     ac8:	1039                	c.addi	zero,-18
     aca:	0000                	c.unimp
     acc:	8c12                	c.mv	s8,tp
     ace:	e1800003          	lb	zero,-488(zero) # fffffe18 <_sp+0x77fffe18>
     ad2:	03000013          	addi	zero,zero,48
     ad6:	0400                	c.addi4spn	s0,sp,512
     ad8:	8000                	0x8000
     ada:	0351                	c.addi	t1,20
     adc:	0000                	c.unimp
     ade:	0ac8                	c.addi4spn	a0,sp,340
     ae0:	0000                	c.unimp
     ae2:	0101                	c.addi	sp,0
     ae4:	055a                	c.slli	a0,0x16
     ae6:	0018dc03          	lhu	s8,1(a7)
     aea:	0080                	c.addi4spn	s0,sp,64
     aec:	00041003          	lh	zero,0(s0)
     af0:	5180                	c.lw	s0,32(a1)
     af2:	e4000003          	lb	zero,-448(zero) # fffffe40 <_sp+0x77fffe40>
     af6:	000a                	c.slli	zero,0x2
     af8:	0100                	c.addi4spn	s0,sp,128
     afa:	5a01                	c.li	s4,-32
     afc:	0305                	c.addi	t1,1
     afe:	18f8                	c.addi4spn	a4,sp,124
     b00:	8000                	0x8000
     b02:	0101                	c.addi	sp,0
     b04:	0035015b          	0x35015b
     b08:	00043c03          	0x43c03
     b0c:	5180                	c.lw	s0,32(a1)
     b0e:	fb000003          	lb	zero,-80(zero) # ffffffb0 <_sp+0x77ffffb0>
     b12:	000a                	c.slli	zero,0x2
     b14:	0100                	c.addi4spn	s0,sp,128
     b16:	5a01                	c.li	s4,-32
     b18:	0305                	c.addi	t1,1
     b1a:	1914                	c.addi4spn	a3,sp,176
     b1c:	8000                	0x8000
     b1e:	0300                	c.addi4spn	s0,sp,384
     b20:	044c                	c.addi4spn	a1,sp,516
     b22:	8000                	0x8000
     b24:	0351                	c.addi	t1,20
     b26:	0000                	c.unimp
     b28:	00000b17          	auipc	s6,0x0
     b2c:	0101                	c.addi	sp,0
     b2e:	055a                	c.slli	a0,0x16
     b30:	0018f803          	0x18f803
     b34:	0180                	c.addi4spn	s0,sp,192
     b36:	5b01                	c.li	s6,-32
     b38:	3101                	c.jal	738 <__stack_size-0x1fff8c8>
     b3a:	0300                	c.addi4spn	s0,sp,384
     b3c:	0478                	c.addi4spn	a4,sp,524
     b3e:	8000                	0x8000
     b40:	0351                	c.addi	t1,20
     b42:	0000                	c.unimp
     b44:	0b2e                	c.slli	s6,0xb
     b46:	0000                	c.unimp
     b48:	0101                	c.addi	sp,0
     b4a:	055a                	c.slli	a0,0x16
     b4c:	00193003          	0x193003
     b50:	0080                	c.addi4spn	s0,sp,64
     b52:	00048803          	lb	a6,0(s1)
     b56:	5180                	c.lw	s0,32(a1)
     b58:	4b000003          	lb	zero,1200(zero) # 4b0 <__stack_size-0x1fffb50>
     b5c:	0100000b          	0x100000b
     b60:	5a01                	c.li	s4,-32
     b62:	0305                	c.addi	t1,1
     b64:	194c                	c.addi4spn	a1,sp,180
     b66:	8000                	0x8000
     b68:	0101                	c.addi	sp,0
     b6a:	4108025b          	0x4108025b
     b6e:	0300                	c.addi4spn	s0,sp,384
     b70:	04b4                	c.addi4spn	a3,sp,584
     b72:	8000                	0x8000
     b74:	0351                	c.addi	t1,20
     b76:	0000                	c.unimp
     b78:	0b62                	c.slli	s6,0x18
     b7a:	0000                	c.unimp
     b7c:	0101                	c.addi	sp,0
     b7e:	055a                	c.slli	a0,0x16
     b80:	00196803          	0x196803
     b84:	0080                	c.addi4spn	s0,sp,64
     b86:	0004c403          	lbu	s0,0(s1)
     b8a:	5180                	c.lw	s0,32(a1)
     b8c:	7f000003          	lb	zero,2032(zero) # 7f0 <__stack_size-0x1fff810>
     b90:	0100000b          	0x100000b
     b94:	5a01                	c.li	s4,-32
     b96:	0305                	c.addi	t1,1
     b98:	194c                	c.addi4spn	a1,sp,180
     b9a:	8000                	0x8000
     b9c:	0101                	c.addi	sp,0
     b9e:	4208025b          	0x4208025b
     ba2:	0300                	c.addi4spn	s0,sp,384
     ba4:	04f0                	c.addi4spn	a2,sp,588
     ba6:	8000                	0x8000
     ba8:	0351                	c.addi	t1,20
     baa:	0000                	c.unimp
     bac:	0b96                	c.slli	s7,0x5
     bae:	0000                	c.unimp
     bb0:	0101                	c.addi	sp,0
     bb2:	055a                	c.slli	a0,0x16
     bb4:	00198403          	lb	s0,1(s3)
     bb8:	0080                	c.addi4spn	s0,sp,64
     bba:	00050003          	lb	zero,0(a0)
     bbe:	5180                	c.lw	s0,32(a1)
     bc0:	b2000003          	lb	zero,-1248(zero) # fffffb20 <_sp+0x77fffb20>
     bc4:	0100000b          	0x100000b
     bc8:	5a01                	c.li	s4,-32
     bca:	0305                	c.addi	t1,1
     bcc:	18f8                	c.addi4spn	a4,sp,124
     bce:	8000                	0x8000
     bd0:	0101                	c.addi	sp,0
     bd2:	0037015b          	0x37015b
     bd6:	00052c03          	lw	s8,0(a0)
     bda:	5180                	c.lw	s0,32(a1)
     bdc:	c9000003          	lb	zero,-880(zero) # fffffc90 <_sp+0x77fffc90>
     be0:	0100000b          	0x100000b
     be4:	5a01                	c.li	s4,-32
     be6:	0305                	c.addi	t1,1
     be8:	19a0                	c.addi4spn	s0,sp,248
     bea:	8000                	0x8000
     bec:	0300                	c.addi4spn	s0,sp,384
     bee:	0538                	c.addi4spn	a4,sp,648
     bf0:	8000                	0x8000
     bf2:	0351                	c.addi	t1,20
     bf4:	0000                	c.unimp
     bf6:	0be0                	c.addi4spn	s0,sp,476
     bf8:	0000                	c.unimp
     bfa:	0101                	c.addi	sp,0
     bfc:	055a                	c.slli	a0,0x16
     bfe:	0019bc03          	0x19bc03
     c02:	0080                	c.addi4spn	s0,sp,64
     c04:	00056403          	0x56403
     c08:	5180                	c.lw	s0,32(a1)
     c0a:	f7000003          	lb	zero,-144(zero) # ffffff70 <_sp+0x77ffff70>
     c0e:	0100000b          	0x100000b
     c12:	5a01                	c.li	s4,-32
     c14:	0305                	c.addi	t1,1
     c16:	19e8                	c.addi4spn	a0,sp,252
     c18:	8000                	0x8000
     c1a:	0300                	c.addi4spn	s0,sp,384
     c1c:	0574                	c.addi4spn	a3,sp,652
     c1e:	8000                	0x8000
     c20:	0351                	c.addi	t1,20
     c22:	0000                	c.unimp
     c24:	00000c13          	addi	s8,zero,0
     c28:	0101                	c.addi	sp,0
     c2a:	055a                	c.slli	a0,0x16
     c2c:	0018f803          	0x18f803
     c30:	0180                	c.addi4spn	s0,sp,192
     c32:	5b01                	c.li	s6,-32
     c34:	3001                	c.jal	434 <__stack_size-0x1fffbcc>
     c36:	0300                	c.addi4spn	s0,sp,384
     c38:	05a4                	c.addi4spn	s1,sp,712
     c3a:	8000                	0x8000
     c3c:	0351                	c.addi	t1,20
     c3e:	0000                	c.unimp
     c40:	0c2a                	c.slli	s8,0xa
     c42:	0000                	c.unimp
     c44:	0101                	c.addi	sp,0
     c46:	055a                	c.slli	a0,0x16
     c48:	001a0c03          	lb	s8,1(s4)
     c4c:	0080                	c.addi4spn	s0,sp,64
     c4e:	0005b403          	0x5b403
     c52:	5180                	c.lw	s0,32(a1)
     c54:	46000003          	lb	zero,1120(zero) # 460 <__stack_size-0x1fffba0>
     c58:	000c                	0xc
     c5a:	0100                	c.addi4spn	s0,sp,128
     c5c:	5a01                	c.li	s4,-32
     c5e:	0305                	c.addi	t1,1
     c60:	18f8                	c.addi4spn	a4,sp,124
     c62:	8000                	0x8000
     c64:	0101                	c.addi	sp,0
     c66:	0032015b          	0x32015b
     c6a:	0005e403          	0x5e403
     c6e:	5180                	c.lw	s0,32(a1)
     c70:	5d000003          	lb	zero,1488(zero) # 5d0 <__stack_size-0x1fffa30>
     c74:	000c                	0xc
     c76:	0100                	c.addi4spn	s0,sp,128
     c78:	5a01                	c.li	s4,-32
     c7a:	0305                	c.addi	t1,1
     c7c:	1a30                	c.addi4spn	a2,sp,312
     c7e:	8000                	0x8000
     c80:	0300                	c.addi4spn	s0,sp,384
     c82:	05f4                	c.addi4spn	a3,sp,716
     c84:	8000                	0x8000
     c86:	0351                	c.addi	t1,20
     c88:	0000                	c.unimp
     c8a:	0c79                	c.addi	s8,30
     c8c:	0000                	c.unimp
     c8e:	0101                	c.addi	sp,0
     c90:	055a                	c.slli	a0,0x16
     c92:	0018f803          	0x18f803
     c96:	0180                	c.addi4spn	s0,sp,192
     c98:	5b01                	c.li	s6,-32
     c9a:	4101                	c.li	sp,0
     c9c:	0300                	c.addi4spn	s0,sp,384
     c9e:	0678                	c.addi4spn	a4,sp,780
     ca0:	8000                	0x8000
     ca2:	0351                	c.addi	t1,20
     ca4:	0000                	c.unimp
     ca6:	0c90                	c.addi4spn	a2,sp,592
     ca8:	0000                	c.unimp
     caa:	0101                	c.addi	sp,0
     cac:	055a                	c.slli	a0,0x16
     cae:	001ab003          	0x1ab003
     cb2:	0080                	c.addi4spn	s0,sp,64
     cb4:	00068803          	lb	a6,0(a3)
     cb8:	5180                	c.lw	s0,32(a1)
     cba:	ac000003          	lb	zero,-1344(zero) # fffffac0 <_sp+0x77fffac0>
     cbe:	000c                	0xc
     cc0:	0100                	c.addi4spn	s0,sp,128
     cc2:	5a01                	c.li	s4,-32
     cc4:	0305                	c.addi	t1,1
     cc6:	18f8                	c.addi4spn	a4,sp,124
     cc8:	8000                	0x8000
     cca:	0101                	c.addi	sp,0
     ccc:	0030015b          	0x30015b
     cd0:	0006bc03          	0x6bc03
     cd4:	5180                	c.lw	s0,32(a1)
     cd6:	c3000003          	lb	zero,-976(zero) # fffffc30 <_sp+0x77fffc30>
     cda:	000c                	0xc
     cdc:	0100                	c.addi4spn	s0,sp,128
     cde:	5a01                	c.li	s4,-32
     ce0:	0305                	c.addi	t1,1
     ce2:	1ad8                	c.addi4spn	a4,sp,372
     ce4:	8000                	0x8000
     ce6:	0300                	c.addi4spn	s0,sp,384
     ce8:	06cc                	c.addi4spn	a1,sp,836
     cea:	8000                	0x8000
     cec:	0351                	c.addi	t1,20
     cee:	0000                	c.unimp
     cf0:	0cdf 0000 0101      	0x10100000cdf
     cf6:	055a                	c.slli	a0,0x16
     cf8:	0018f803          	0x18f803
     cfc:	0180                	c.addi4spn	s0,sp,192
     cfe:	5b01                	c.li	s6,-32
     d00:	3101                	c.jal	900 <__stack_size-0x1fff700>
     d02:	0300                	c.addi4spn	s0,sp,384
     d04:	0700                	c.addi4spn	s0,sp,896
     d06:	8000                	0x8000
     d08:	0351                	c.addi	t1,20
     d0a:	0000                	c.unimp
     d0c:	0cf6                	c.slli	s9,0x1d
     d0e:	0000                	c.unimp
     d10:	0101                	c.addi	sp,0
     d12:	055a                	c.slli	a0,0x16
     d14:	001b0003          	lb	zero,1(s6) # b29 <__stack_size-0x1fff4d7>
     d18:	0080                	c.addi4spn	s0,sp,64
     d1a:	00071003          	lh	zero,0(a4)
     d1e:	5180                	c.lw	s0,32(a1)
     d20:	12000003          	lb	zero,288(zero) # 120 <__stack_size-0x1fffee0>
     d24:	000d                	c.addi	zero,3
     d26:	0100                	c.addi4spn	s0,sp,128
     d28:	5a01                	c.li	s4,-32
     d2a:	0305                	c.addi	t1,1
     d2c:	18f8                	c.addi4spn	a4,sp,124
     d2e:	8000                	0x8000
     d30:	0101                	c.addi	sp,0
     d32:	0042015b          	0x42015b
     d36:	00079003          	lh	zero,0(a5)
     d3a:	5180                	c.lw	s0,32(a1)
     d3c:	29000003          	lb	zero,656(zero) # 290 <__stack_size-0x1fffd70>
     d40:	000d                	c.addi	zero,3
     d42:	0100                	c.addi4spn	s0,sp,128
     d44:	5a01                	c.li	s4,-32
     d46:	0305                	c.addi	t1,1
     d48:	1b50                	c.addi4spn	a2,sp,436
     d4a:	8000                	0x8000
     d4c:	0300                	c.addi4spn	s0,sp,384
     d4e:	07a0                	c.addi4spn	s0,sp,968
     d50:	8000                	0x8000
     d52:	0351                	c.addi	t1,20
     d54:	0000                	c.unimp
     d56:	0d45                	c.addi	s10,17
     d58:	0000                	c.unimp
     d5a:	0101                	c.addi	sp,0
     d5c:	055a                	c.slli	a0,0x16
     d5e:	0018f803          	0x18f803
     d62:	0180                	c.addi4spn	s0,sp,192
     d64:	5b01                	c.li	s6,-32
     d66:	3501                	c.jal	b66 <__stack_size-0x1fff49a>
     d68:	0300                	c.addi4spn	s0,sp,384
     d6a:	07c0                	c.addi4spn	s0,sp,964
     d6c:	8000                	0x8000
     d6e:	0351                	c.addi	t1,20
     d70:	0000                	c.unimp
     d72:	0d5c                	c.addi4spn	a5,sp,660
     d74:	0000                	c.unimp
     d76:	0101                	c.addi	sp,0
     d78:	055a                	c.slli	a0,0x16
     d7a:	001b6c03          	0x1b6c03
     d7e:	0080                	c.addi4spn	s0,sp,64
     d80:	0007d003          	lhu	zero,0(a5)
     d84:	5180                	c.lw	s0,32(a1)
     d86:	78000003          	lb	zero,1920(zero) # 780 <__stack_size-0x1fff880>
     d8a:	000d                	c.addi	zero,3
     d8c:	0100                	c.addi4spn	s0,sp,128
     d8e:	5a01                	c.li	s4,-32
     d90:	0305                	c.addi	t1,1
     d92:	18f8                	c.addi4spn	a4,sp,124
     d94:	8000                	0x8000
     d96:	0101                	c.addi	sp,0
     d98:	003d015b          	0x3d015b
     d9c:	0007e803          	0x7e803
     da0:	5180                	c.lw	s0,32(a1)
     da2:	94000003          	lb	zero,-1728(zero) # fffff940 <_sp+0x77fff940>
     da6:	000d                	c.addi	zero,3
     da8:	0100                	c.addi4spn	s0,sp,128
     daa:	5a01                	c.li	s4,-32
     dac:	0305                	c.addi	t1,1
     dae:	1b88                	c.addi4spn	a0,sp,496
     db0:	8000                	0x8000
     db2:	0101                	c.addi	sp,0
     db4:	0030015b          	0x30015b
     db8:	0007f803          	0x7f803
     dbc:	5180                	c.lw	s0,32(a1)
     dbe:	b0000003          	lb	zero,-1280(zero) # fffffb00 <_sp+0x77fffb00>
     dc2:	000d                	c.addi	zero,3
     dc4:	0100                	c.addi4spn	s0,sp,128
     dc6:	5a01                	c.li	s4,-32
     dc8:	0305                	c.addi	t1,1
     dca:	18f8                	c.addi4spn	a4,sp,124
     dcc:	8000                	0x8000
     dce:	0101                	c.addi	sp,0
     dd0:	0031015b          	0x31015b
     dd4:	00087403          	0x87403
     dd8:	5180                	c.lw	s0,32(a1)
     dda:	c7000003          	lb	zero,-912(zero) # fffffc70 <_sp+0x77fffc70>
     dde:	000d                	c.addi	zero,3
     de0:	0100                	c.addi4spn	s0,sp,128
     de2:	5a01                	c.li	s4,-32
     de4:	0305                	c.addi	t1,1
     de6:	1c8c                	c.addi4spn	a1,sp,624
     de8:	8000                	0x8000
     dea:	0300                	c.addi4spn	s0,sp,384
     dec:	0880                	c.addi4spn	s0,sp,80
     dee:	8000                	0x8000
     df0:	0351                	c.addi	t1,20
     df2:	0000                	c.unimp
     df4:	0dde                	c.slli	s11,0x17
     df6:	0000                	c.unimp
     df8:	0101                	c.addi	sp,0
     dfa:	055a                	c.slli	a0,0x16
     dfc:	001ca003          	lw	zero,1(s9)
     e00:	0080                	c.addi4spn	s0,sp,64
     e02:	a012                	c.fsdsp	ft4,0(sp)
     e04:	0008                	0x8
     e06:	e180                	c.fsw	fs0,0(a1)
     e08:	12000013          	addi	zero,zero,288
     e0c:	08a8                	c.addi4spn	a0,sp,88
     e0e:	8000                	0x8000
     e10:	13e1                	c.addi	t2,-8
     e12:	0000                	c.unimp
     e14:	0008bc03          	0x8bc03
     e18:	5180                	c.lw	s0,32(a1)
     e1a:	0d000003          	lb	zero,208(zero) # d0 <__stack_size-0x1ffff30>
     e1e:	000e                	c.slli	zero,0x3
     e20:	0100                	c.addi4spn	s0,sp,128
     e22:	5a01                	c.li	s4,-32
     e24:	0305                	c.addi	t1,1
     e26:	1cd4                	c.addi4spn	a3,sp,628
     e28:	8000                	0x8000
     e2a:	0101                	c.addi	sp,0
     e2c:	0078025b          	0x78025b
     e30:	1100                	c.addi4spn	s0,sp,160
     e32:	08c8                	c.addi4spn	a0,sp,84
     e34:	8000                	0x8000
     e36:	0351                	c.addi	t1,20
     e38:	0000                	c.unimp
     e3a:	0101                	c.addi	sp,0
     e3c:	055a                	c.slli	a0,0x16
     e3e:	001cf403          	0x1cf403
     e42:	0080                	c.addi4spn	s0,sp,64
     e44:	1f00                	c.addi4spn	s0,sp,944
     e46:	03de                	c.slli	t2,0x17
     e48:	0000                	c.unimp
     e4a:	00b102cb          	fnmsub.s	ft5,ft2,fa1,ft0,rne
     e4e:	0000                	c.unimp
     e50:	0e3d                	c.addi	t3,15
     e52:	0000                	c.unimp
     e54:	cf06                	c.swsp	ra,156(sp)
     e56:	cb000003          	lb	zero,-848(zero) # fffffcb0 <_sp+0x77fffcb0>
     e5a:	1302                	c.slli	t1,0x20
     e5c:	0086                	c.slli	ra,0x1
     e5e:	0000                	c.unimp
     e60:	1f00                	c.addi4spn	s0,sp,944
     e62:	0444                	c.addi4spn	s1,sp,516
     e64:	0000                	c.unimp
     e66:	02ba                	c.slli	t0,0xe
     e68:	00b1                	c.addi	ra,12
     e6a:	0000                	c.unimp
     e6c:	0e65                	c.addi	t3,25
     e6e:	0000                	c.unimp
     e70:	4406                	c.lwsp	s0,64(sp)
     e72:	be000003          	lb	zero,-1056(zero) # fffffbe0 <_sp+0x77fffbe0>
     e76:	0d02                	c.slli64	s10
     e78:	006e                	c.slli	zero,0x1b
     e7a:	0000                	c.unimp
     e7c:	7509                	c.lui	a0,0xfffe2
     e7e:	0001                	c.addi	zero,0
     e80:	c000                	c.sw	s0,0(s0)
     e82:	0f02                	c.slli64	t5
     e84:	006e                	c.slli	zero,0x1b
     e86:	0000                	c.unimp
     e88:	1f00                	c.addi4spn	s0,sp,944
     e8a:	043d                	c.addi	s0,15
     e8c:	0000                	c.unimp
     e8e:	0295                	c.addi	t0,5
     e90:	00b1                	c.addi	ra,12
     e92:	0000                	c.unimp
     e94:	00000ebf 00008806 	0x880600000ebf
     e9c:	9b00                	0x9b00
     e9e:	0802                	c.slli64	a6
     ea0:	033a                	c.slli	t1,0xe
     ea2:	0000                	c.unimp
     ea4:	ab06                	c.fsdsp	ft1,400(sp)
     ea6:	0000                	c.unimp
     ea8:	9c00                	0x9c00
     eaa:	0802                	c.slli64	a6
     eac:	033a                	c.slli	t1,0xe
     eae:	0000                	c.unimp
     eb0:	e409                	c.bnez	s0,eba <__stack_size-0x1fff146>
     eb2:	9e000003          	lb	zero,-1568(zero) # fffff9e0 <_sp+0x77fff9e0>
     eb6:	1202                	c.slli	tp,0x20
     eb8:	007a                	c.slli	zero,0x1e
     eba:	0000                	c.unimp
     ebc:	0309                	c.addi	t1,2
     ebe:	0002                	c.slli64	zero
     ec0:	9f00                	0x9f00
     ec2:	1202                	c.slli	tp,0x20
     ec4:	0099                	c.addi	ra,6
     ec6:	0000                	c.unimp
     ec8:	1536                	c.slli	a0,0x2d
     eca:	0398                	c.addi4spn	a4,sp,448
     ecc:	0000                	c.unimp
     ece:	0086                	c.slli	ra,0x1
     ed0:	0000                	c.unimp
     ed2:	0eb4                	c.addi4spn	a3,sp,856
     ed4:	0000                	c.unimp
     ed6:	000e                	c.slli	zero,0x3
     ed8:	7412                	c.flwsp	fs0,36(sp)
     eda:	000c                	0xc
     edc:	cf80                	c.sw	s0,24(a5)
     ede:	00000013          	addi	zero,zero,0
     ee2:	3700                	c.fld	fs0,40(a4)
     ee4:	0436                	c.slli	s0,0xd
     ee6:	0000                	c.unimp
     ee8:	7c01                	c.lui	s8,0xfffe0
     eea:	0d02                	c.slli64	s10
     eec:	006e                	c.slli	zero,0x1b
     eee:	0000                	c.unimp
     ef0:	0201                	c.addi	tp,0
     ef2:	0600000f          	fence	or,unknown
     ef6:	0168                	c.addi4spn	a0,sp,140
     ef8:	0000                	c.unimp
     efa:	99100283          	lb	t0,-1647(zero) # fffff991 <_sp+0x77fff991>
     efe:	0000                	c.unimp
     f00:	0600                	c.addi4spn	s0,sp,768
     f02:	017e                	c.slli	sp,0x1f
     f04:	0000                	c.unimp
     f06:	0284                	c.addi4spn	s1,sp,320
     f08:	9910                	0x9910
     f0a:	0000                	c.unimp
     f0c:	0900                	c.addi4spn	s0,sp,144
     f0e:	01fa                	c.slli	gp,0x1e
     f10:	0000                	c.unimp
     f12:	0286                	c.slli	t0,0x1
     f14:	9912                	c.add	s2,tp
     f16:	0000                	c.unimp
     f18:	0900                	c.addi4spn	s0,sp,144
     f1a:	0108                	c.addi4spn	a0,sp,128
     f1c:	0000                	c.unimp
     f1e:	99120287          	0x99120287
     f22:	0000                	c.unimp
     f24:	0000                	c.unimp
     f26:	00023f1b          	0x23f1b
     f2a:	6400                	c.flw	fs0,8(s0)
     f2c:	5602                	c.lwsp	a2,32(sp)
     f2e:	0600000f          	fence	or,unknown
     f32:	00fa                	c.slli	ra,0x1e
     f34:	0000                	c.unimp
     f36:	0269                	c.addi	tp,26
     f38:	000f560f          	0xf560f
     f3c:	0600                	c.addi4spn	s0,sp,768
     f3e:	041f 0000 026a      	0x26a0000041f
     f44:	000f5b0b          	0xf5b0b
     f48:	0600                	c.addi4spn	s0,sp,768
     f4a:	000001bf 8605026b 	0x8605026b000001bf
     f52:	0000                	c.unimp
     f54:	0600                	c.addi4spn	s0,sp,768
     f56:	01ec                	c.addi4spn	a1,sp,204
     f58:	0000                	c.unimp
     f5a:	026c                	c.addi4spn	a1,sp,268
     f5c:	8605                	c.srai	a2,0x1
     f5e:	0000                	c.unimp
     f60:	0900                	c.addi4spn	s0,sp,144
     f62:	035d                	c.addi	t1,23
     f64:	0000                	c.unimp
     f66:	026e                	c.slli	tp,0x1b
     f68:	8d11                	c.sub	a0,a2
     f6a:	0000                	c.unimp
     f6c:	0900                	c.addi4spn	s0,sp,144
     f6e:	03e4                	c.addi4spn	s1,sp,460
     f70:	0000                	c.unimp
     f72:	8d11026f          	jal	tp,fff11842 <_sp+0x77f11842>
     f76:	0000                	c.unimp
     f78:	0000                	c.unimp
     f7a:	860d                	c.srai	a2,0x3
     f7c:	0000                	c.unimp
     f7e:	0d00                	c.addi4spn	s0,sp,656
     f80:	00d9                	c.addi	ra,22
     f82:	0000                	c.unimp
     f84:	0002cf1b          	0x2cf1b
     f88:	5c00                	c.lw	s0,56(s0)
     f8a:	9c02                	c.jalr	s8
     f8c:	0600000f          	fence	or,unknown
     f90:	000001bf 8d17025c 	0x8d17025c000001bf
     f98:	0000                	c.unimp
     f9a:	0600                	c.addi4spn	s0,sp,768
     f9c:	01ec                	c.addi4spn	a1,sp,204
     f9e:	0000                	c.unimp
     fa0:	025c                	c.addi4spn	a5,sp,260
     fa2:	8d30                	0x8d30
     fa4:	0000                	c.unimp
     fa6:	0600                	c.addi4spn	s0,sp,768
     fa8:	0351                	c.addi	t1,20
     faa:	0000                	c.unimp
     fac:	025d                	c.addi	tp,23
     fae:	9c18                	0x9c18
     fb0:	0900000f          	fence	iw,unknown
     fb4:	03e4                	c.addi4spn	s1,sp,460
     fb6:	0000                	c.unimp
     fb8:	025e                	c.slli	tp,0x17
     fba:	8d0d                	c.sub	a0,a1
     fbc:	0000                	c.unimp
     fbe:	0000                	c.unimp
     fc0:	8d0d                	c.sub	a0,a1
     fc2:	0000                	c.unimp
     fc4:	1b00                	c.addi4spn	s0,sp,432
     fc6:	02c8                	c.addi4spn	a0,sp,324
     fc8:	0000                	c.unimp
     fca:	023a                	c.slli	tp,0xe
     fcc:	0fc5                	c.addi	t6,17
     fce:	0000                	c.unimp
     fd0:	de06                	c.swsp	ra,60(sp)
     fd2:	0002                	c.slli64	zero
     fd4:	3f00                	c.fld	fs0,56(a4)
     fd6:	1102                	c.slli	sp,0x20
     fd8:	006e                	c.slli	zero,0x1b
     fda:	0000                	c.unimp
     fdc:	b106                	c.fsdsp	ft1,160(sp)
     fde:	40000003          	lb	zero,1024(zero) # 400 <__stack_size-0x1fffc00>
     fe2:	0e02                	c.slli64	t3
     fe4:	0fc5                	c.addi	t6,17
     fe6:	0000                	c.unimp
     fe8:	0d00                	c.addi4spn	s0,sp,656
     fea:	006e                	c.slli	zero,0x1b
     fec:	0000                	c.unimp
     fee:	2d38                	c.fld	fa4,88(a0)
     ff0:	0002                	c.slli64	zero
     ff2:	0100                	c.addi4spn	s0,sp,128
     ff4:	021a                	c.slli	tp,0x6
     ff6:	0106                	c.slli	sp,0x1
     ff8:	00022623          	sw	zero,12(tp) # c <__stack_size-0x1fffff4>
     ffc:	0f00                	c.addi4spn	s0,sp,912
     ffe:	ec02                	c.fswsp	ft0,24(sp)
    1000:	0900000f          	fence	iw,unknown
    1004:	021d                	c.addi	tp,7
    1006:	0000                	c.unimp
    1008:	b10b0213          	addi	tp,s6,-1264
    100c:	0000                	c.unimp
    100e:	0000                	c.unimp
    1010:	0002b91b          	0x2b91b
    1014:	0100                	c.addi4spn	s0,sp,128
    1016:	0402                	c.slli64	s0
    1018:	0010                	0x10
    101a:	0600                	c.addi4spn	s0,sp,768
    101c:	007c                	c.addi4spn	a5,sp,12
    101e:	0000                	c.unimp
    1020:	0206                	c.slli	tp,0x1
    1022:	0412                	c.slli	s0,0x4
    1024:	0010                	0x10
    1026:	0000                	c.unimp
    1028:	dc0d                	c.beqz	s0,f62 <__stack_size-0x1fff09e>
    102a:	0001                	c.addi	zero,0
    102c:	2300                	c.fld	fs0,0(a4)
    102e:	02b2                	c.slli	t0,0xc
    1030:	0000                	c.unimp
    1032:	103901eb          	0x103901eb
    1036:	0000                	c.unimp
    1038:	5106                	c.lwsp	sp,96(sp)
    103a:	f0000003          	lb	zero,-256(zero) # ffffff00 <_sp+0x77ffff00>
    103e:	1001                	c.addi	zero,-32
    1040:	0f9c                	c.addi4spn	a5,sp,976
    1042:	0000                	c.unimp
    1044:	e409                	c.bnez	s0,104e <__stack_size-0x1ffefb2>
    1046:	f2000003          	lb	zero,-224(zero) # ffffff20 <_sp+0x77ffff20>
    104a:	0d01                	c.addi	s10,0
    104c:	008d                	c.addi	ra,3
    104e:	0000                	c.unimp
    1050:	7509                	c.lui	a0,0xfffe2
    1052:	0001                	c.addi	zero,0
    1054:	f300                	c.fsw	fs0,32(a4)
    1056:	0f01                	c.addi	t5,0
    1058:	006e                	c.slli	zero,0x1b
    105a:	0000                	c.unimp
    105c:	3900                	c.fld	fs0,48(a0)
    105e:	000002ab          	0x2ab
    1062:	cc01                	c.beqz	s0,107a <__stack_size-0x1ffef86>
    1064:	0601                	c.addi	a2,0
    1066:	0a48                	c.addi4spn	a0,sp,276
    1068:	8000                	0x8000
    106a:	0158                	c.addi4spn	a4,sp,132
    106c:	0000                	c.unimp
    106e:	9c01                	0x9c01
    1070:	110e                	c.slli	sp,0x23
    1072:	0000                	c.unimp
    1074:	803a                	c.mv	zero,a4
    1076:	01000003          	lb	zero,16(zero) # 10 <__stack_size-0x1fffff0>
    107a:	dc1501cf          	0xdc1501cf
    107e:	0001                	c.addi	zero,0
    1080:	9600                	0x9600
    1082:	0005                	c.addi	zero,1
    1084:	1000                	c.addi4spn	s0,sp,32
    1086:	03ec                	c.addi4spn	a1,sp,460
    1088:	0000                	c.unimp
    108a:	01d2                	c.slli	gp,0x14
    108c:	0001dc13          	srli	s8,gp,0x0
    1090:	b000                	c.fsd	fs0,32(s0)
    1092:	0005                	c.addi	zero,1
    1094:	0400                	c.addi4spn	s0,sp,512
    1096:	0fec                	c.addi4spn	a1,sp,988
    1098:	0000                	c.unimp
    109a:	0acc                	c.addi4spn	a1,sp,340
    109c:	8000                	0x8000
    109e:	001f 0000 01db      	0x1db0000001f
    10a4:	0010c703          	lbu	a4,1(ra)
    10a8:	0200                	c.addi4spn	s0,sp,256
    10aa:	00000ff7          	0xff7
    10ae:	000005c7          	fmsub.s	fa1,ft0,ft0,ft0,rne
    10b2:	6024                	c.flw	fs1,64(s0)
    10b4:	d400000f          	0xd400000f
    10b8:	000a                	c.slli	zero,0x2
    10ba:	3280                	c.fld	fs0,32(a3)
    10bc:	0000                	c.unimp
    10be:	0200                	c.addi4spn	s0,sp,256
    10c0:	00000f83          	lb	t6,0(zero) # 0 <__stack_size-0x2000000>
    10c4:	000005d3          	fadd.s	fa1,ft0,ft0,rne
    10c8:	7702                	c.flwsp	fa4,32(sp)
    10ca:	e100000f          	0xe100000f
    10ce:	0005                	c.addi	zero,1
    10d0:	0200                	c.addi4spn	s0,sp,256
    10d2:	00000f6b          	0xf6b
    10d6:	05f1                	c.addi	a1,28
    10d8:	0000                	c.unimp
    10da:	3208                	c.fld	fa0,32(a2)
    10dc:	0000                	c.unimp
    10de:	0500                	c.addi4spn	s0,sp,640
    10e0:	00000f8f          	0xf8f
    10e4:	05fe                	c.slli	a1,0x1f
    10e6:	0000                	c.unimp
    10e8:	0000                	c.unimp
    10ea:	0400                	c.addi4spn	s0,sp,512
    10ec:	0f60                	c.addi4spn	s0,sp,924
    10ee:	0000                	c.unimp
    10f0:	0b80                	c.addi4spn	s0,sp,464
    10f2:	8000                	0x8000
    10f4:	004e                	c.slli	zero,0x13
    10f6:	0000                	c.unimp
    10f8:	01e5                	c.addi	gp,25
    10fa:	fd05                	c.bnez	a0,1032 <__stack_size-0x1ffefce>
    10fc:	0010                	0x10
    10fe:	0200                	c.addi4spn	s0,sp,256
    1100:	00000f83          	lb	t6,0(zero) # 0 <__stack_size-0x2000000>
    1104:	0000060b          	0x60b
    1108:	7725                	c.lui	a4,0xfffe9
    110a:	0a00000f          	fence	ir,unknown
    110e:	6b25                	c.lui	s6,0x9
    1110:	0600000f          	fence	or,unknown
    1114:	4e08                	c.lw	a0,24(a2)
    1116:	0000                	c.unimp
    1118:	1a00                	c.addi4spn	s0,sp,304
    111a:	00000f8f          	0xf8f
    111e:	0008                	0x8
    1120:	1100                	c.addi4spn	s0,sp,160
    1122:	0b80                	c.addi4spn	s0,sp,464
    1124:	8000                	0x8000
    1126:	0fa1                	c.addi	t6,8
    1128:	0000                	c.unimp
    112a:	0101                	c.addi	sp,0
    112c:	0878025b          	0x878025b
    1130:	0000                	c.unimp
    1132:	0003a93b          	0x3a93b
    1136:	0100                	c.addi4spn	s0,sp,128
    1138:	01bd                	c.addi	gp,15
    113a:	3a0e                	c.fldsp	fs4,224(sp)
    113c:	01000003          	lb	zero,16(zero) # 10 <__stack_size-0x1fffff0>
    1140:	113a                	c.slli	sp,0x2e
    1142:	0000                	c.unimp
    1144:	4206                	c.lwsp	tp,64(sp)
    1146:	0001                	c.addi	zero,0
    1148:	bd00                	c.fsd	fs0,56(a0)
    114a:	1d01                	c.addi	s10,-32
    114c:	002d                	c.addi	zero,11
    114e:	0000                	c.unimp
    1150:	723c                	c.flw	fa5,96(a2)
    1152:	7465                	c.lui	s0,0xffff9
    1154:	0100                	c.addi4spn	s0,sp,128
    1156:	01c0                	c.addi4spn	s0,sp,196
    1158:	3a09                	c.jal	a6a <__stack_size-0x1fff596>
    115a:	00000003          	lb	zero,0(zero) # 0 <__stack_size-0x2000000>
    115e:	0010090b          	0x10090b
    1162:	5000                	c.lw	s0,32(s0)
    1164:	0009                	c.addi	zero,2
    1166:	3080                	c.fld	fs0,32(s1)
    1168:	0000                	c.unimp
    116a:	0100                	c.addi4spn	s0,sp,128
    116c:	649c                	c.flw	fa5,8(s1)
    116e:	0011                	c.addi	zero,4
    1170:	0f00                	c.addi4spn	s0,sp,912
    1172:	1014                	c.addi4spn	a3,sp,32
    1174:	0000                	c.unimp
    1176:	5a01                	c.li	s4,-32
    1178:	2005                	c.jal	1198 <__stack_size-0x1ffee68>
    117a:	0010                	0x10
    117c:	1900                	c.addi4spn	s0,sp,176
    117e:	0006                	c.slli	zero,0x1
    1180:	1a00                	c.addi4spn	s0,sp,304
    1182:	102c                	c.addi4spn	a1,sp,40
    1184:	0000                	c.unimp
    1186:	0000                	c.unimp
    1188:	000fec0b          	0xfec0b
    118c:	8000                	0x8000
    118e:	0009                	c.addi	zero,2
    1190:	2c80                	c.fld	fs0,24(s1)
    1192:	0000                	c.unimp
    1194:	0100                	c.addi4spn	s0,sp,128
    1196:	b79c                	c.fsd	fa5,40(a5)
    1198:	0011                	c.addi	zero,4
    119a:	0f00                	c.addi4spn	s0,sp,912
    119c:	00000ff7          	0xff7
    11a0:	5a01                	c.li	s4,-32
    11a2:	6024                	c.flw	fs1,64(s0)
    11a4:	9800000f          	0x9800000f
    11a8:	0009                	c.addi	zero,2
    11aa:	0c80                	c.addi4spn	s0,sp,592
    11ac:	0000                	c.unimp
    11ae:	0200                	c.addi4spn	s0,sp,256
    11b0:	00000f83          	lb	t6,0(zero) # 0 <__stack_size-0x2000000>
    11b4:	0655                	c.addi	a2,21
    11b6:	0000                	c.unimp
    11b8:	7702                	c.flwsp	fa4,32(sp)
    11ba:	6900000f          	0x6900000f
    11be:	0006                	c.slli	zero,0x1
    11c0:	0200                	c.addi4spn	s0,sp,256
    11c2:	00000f6b          	0xf6b
    11c6:	0679                	c.addi	a2,30
    11c8:	0000                	c.unimp
    11ca:	0c08                	c.addi4spn	a0,sp,528
    11cc:	0000                	c.unimp
    11ce:	0500                	c.addi4spn	s0,sp,640
    11d0:	00000f8f          	0xf8f
    11d4:	0686                	c.slli	a3,0x1
    11d6:	0000                	c.unimp
    11d8:	0000                	c.unimp
    11da:	0b00                	c.addi4spn	s0,sp,400
    11dc:	0fd4                	c.addi4spn	a3,sp,980
    11de:	0000                	c.unimp
    11e0:	09ac                	c.addi4spn	a1,sp,216
    11e2:	8000                	0x8000
    11e4:	0030                	c.addi4spn	a2,sp,8
    11e6:	0000                	c.unimp
    11e8:	9c01                	0x9c01
    11ea:	11df 0000 df26      	0xdf26000011df
    11f0:	0e00000f          	fence	ior,unknown
    11f4:	0049a103          	lw	sp,4(s3)
    11f8:	9480                	0x9480
    11fa:	0801                	c.addi	a6,0
    11fc:	2941                	c.jal	168c <__stack_size-0x1ffe974>
    11fe:	ff08                	c.fsw	fa0,56(a4)
    1200:	9f1a                	c.add	t5,t1
    1202:	3d00                	c.fld	fs0,56(a0)
    1204:	0fca                	c.slli	t6,0x12
    1206:	0000                	c.unimp
    1208:	09dc                	c.addi4spn	a5,sp,212
    120a:	8000                	0x8000
    120c:	0018                	0x18
    120e:	0000                	c.unimp
    1210:	9c01                	0x9c01
    1212:	000fa10b          	0xfa10b
    1216:	f400                	c.fsw	fs0,40(s0)
    1218:	0009                	c.addi	zero,2
    121a:	5480                	c.lw	s0,40(s1)
    121c:	0000                	c.unimp
    121e:	0100                	c.addi4spn	s0,sp,128
    1220:	599c                	c.lw	a5,48(a1)
    1222:	0012                	c.slli	zero,0x4
    1224:	0f00                	c.addi4spn	s0,sp,912
    1226:	0fac                	c.addi4spn	a1,sp,984
    1228:	0000                	c.unimp
    122a:	5a01                	c.li	s4,-32
    122c:	000fb80f          	0xfb80f
    1230:	0100                	c.addi4spn	s0,sp,128
    1232:	0e3d215b          	0xe3d215b
    1236:	0000                	c.unimp
    1238:	09f4                	c.addi4spn	a3,sp,220
    123a:	8000                	0x8000
    123c:	0008                	0x8
    123e:	0000                	c.unimp
    1240:	34080243          	0x34080243
    1244:	0012                	c.slli	zero,0x4
    1246:	0200                	c.addi4spn	s0,sp,256
    1248:	0e4c                	c.addi4spn	a1,sp,788
    124a:	0000                	c.unimp
    124c:	00000693          	addi	a3,zero,0
    1250:	5826                	c.lwsp	a6,104(sp)
    1252:	000e                	c.slli	zero,0x3
    1254:	0100                	c.addi4spn	s0,sp,128
    1256:	005a                	c.slli	zero,0x16
    1258:	a13e                	c.fsdsp	fa5,128(sp)
    125a:	2000000f          	0x2000000f
    125e:	000a                	c.slli	zero,0x2
    1260:	1c80                	c.addi4spn	s0,sp,624
    1262:	0000                	c.unimp
    1264:	0100                	c.addi4spn	s0,sp,128
    1266:	023a                	c.slli	tp,0xe
    1268:	0206                	c.slli	tp,0x1
    126a:	0fac                	c.addi4spn	a1,sp,984
    126c:	0000                	c.unimp
    126e:	069f 0000 b802      	0xb8020000069f
    1274:	ac00000f          	0xac00000f
    1278:	0006                	c.slli	zero,0x1
    127a:	0000                	c.unimp
    127c:	0b00                	c.addi4spn	s0,sp,400
    127e:	0f60                	c.addi4spn	s0,sp,924
    1280:	0000                	c.unimp
    1282:	0ba0                	c.addi4spn	s0,sp,472
    1284:	8000                	0x8000
    1286:	0010                	0x10
    1288:	0000                	c.unimp
    128a:	9c01                	0x9c01
    128c:	128d                	c.addi	t0,-29
    128e:	0000                	c.unimp
    1290:	6b02                	c.flwsp	fs6,0(sp)
    1292:	b800000f          	0xb800000f
    1296:	0006                	c.slli	zero,0x1
    1298:	0f00                	c.addi4spn	s0,sp,912
    129a:	00000f77          	0xf77
    129e:	5b01                	c.li	s6,-32
    12a0:	000f830f          	0xf830f
    12a4:	0100                	c.addi4spn	s0,sp,128
    12a6:	055c                	c.addi4spn	a5,sp,644
    12a8:	00000f8f          	0xf8f
    12ac:	06df 0000 0b00      	0xb00000006df
    12b2:	0f02                	c.slli64	t5
    12b4:	0000                	c.unimp
    12b6:	0bb0                	c.addi4spn	a2,sp,472
    12b8:	8000                	0x8000
    12ba:	0074                	c.addi4spn	a3,sp,12
    12bc:	0000                	c.unimp
    12be:	9c01                	0x9c01
    12c0:	000012d7          	0x12d7
    12c4:	0d02                	c.slli64	s10
    12c6:	0800000f          	fence	i,unknown
    12ca:	02000007          	0x2000007
    12ce:	0f19                	c.addi	t5,6
    12d0:	0000                	c.unimp
    12d2:	0722                	c.slli	a4,0x8
    12d4:	0000                	c.unimp
    12d6:	2502                	c.fldsp	fa0,0(sp)
    12d8:	3c00000f          	0x3c00000f
    12dc:	02000007          	0x2000007
    12e0:	0f31                	c.addi	t5,12
    12e2:	0000                	c.unimp
    12e4:	00000773          	0x773
    12e8:	3d05                	c.jal	1118 <__stack_size-0x1ffeee8>
    12ea:	9900000f          	0x9900000f
    12ee:	05000007          	0x5000007
    12f2:	0f49                	c.addi	t5,18
    12f4:	0000                	c.unimp
    12f6:	07df 0000 0b00      	0xb00000007df
    12fc:	00000ebf 80000c24 	0x80000c2400000ebf
    1304:	0024                	c.addi4spn	s1,sp,8
    1306:	0000                	c.unimp
    1308:	9c01                	0x9c01
    130a:	130d                	c.addi	t1,-29
    130c:	0000                	c.unimp
    130e:	d102                	c.swsp	zero,160(sp)
    1310:	000e                	c.slli	zero,0x3
    1312:	0700                	c.addi4spn	s0,sp,896
    1314:	0008                	0x8
    1316:	0f00                	c.addi4spn	s0,sp,912
    1318:	0edd                	c.addi	t4,23
    131a:	0000                	c.unimp
    131c:	5b01                	c.li	s6,-32
    131e:	e905                	c.bnez	a0,134e <__stack_size-0x1ffecb2>
    1320:	000e                	c.slli	zero,0x3
    1322:	2100                	c.fld	fs0,0(a0)
    1324:	0008                	0x8
    1326:	0500                	c.addi4spn	s0,sp,640
    1328:	0ef5                	c.addi	t4,29
    132a:	0000                	c.unimp
    132c:	0855                	c.addi	a6,21
    132e:	0000                	c.unimp
    1330:	0b00                	c.addi4spn	s0,sp,400
    1332:	0e65                	c.addi	t3,25
    1334:	0000                	c.unimp
    1336:	0c48                	c.addi4spn	a0,sp,532
    1338:	8000                	0x8000
    133a:	0060                	c.addi4spn	s0,sp,12
    133c:	0000                	c.unimp
    133e:	9c01                	0x9c01
    1340:	138e                	c.slli	t2,0x23
    1342:	0000                	c.unimp
    1344:	7402                	c.flwsp	fs0,32(sp)
    1346:	000e                	c.slli	zero,0x3
    1348:	8900                	0x8900
    134a:	0008                	0x8
    134c:	0200                	c.addi4spn	s0,sp,256
    134e:	0e80                	c.addi4spn	s0,sp,848
    1350:	0000                	c.unimp
    1352:	08ae                	c.slli	a7,0xb
    1354:	0000                	c.unimp
    1356:	8c05                	c.sub	s0,s1
    1358:	000e                	c.slli	zero,0x3
    135a:	d300                	c.sw	s0,32(a4)
    135c:	0008                	0x8
    135e:	1a00                	c.addi4spn	s0,sp,304
    1360:	0e98                	c.addi4spn	a4,sp,848
    1362:	0000                	c.unimp
    1364:	0441                	c.addi	s0,16
    1366:	00000ebf 80000c60 	0x80000c6000000ebf
    136e:	006a                	c.slli	zero,0x1a
    1370:	0000                	c.unimp
    1372:	800902a3          	sb	zero,-2043(s2) # 2921 <__stack_size-0x1ffd6df>
    1376:	02000013          	addi	zero,zero,32
    137a:	0edd                	c.addi	t4,23
    137c:	0000                	c.unimp
    137e:	0904                	c.addi4spn	s1,sp,144
    1380:	0000                	c.unimp
    1382:	d102                	c.swsp	zero,160(sp)
    1384:	000e                	c.slli	zero,0x3
    1386:	1d00                	c.addi4spn	s0,sp,688
    1388:	0009                	c.addi	zero,2
    138a:	0800                	c.addi4spn	s0,sp,16
    138c:	006a                	c.slli	zero,0x1a
    138e:	0000                	c.unimp
    1390:	e905                	c.bnez	a0,13c0 <__stack_size-0x1ffec40>
    1392:	000e                	c.slli	zero,0x3
    1394:	3600                	c.fld	fs0,40(a2)
    1396:	0009                	c.addi	zero,2
    1398:	0500                	c.addi4spn	s0,sp,640
    139a:	0ef5                	c.addi	t4,29
    139c:	0000                	c.unimp
    139e:	0936                	c.slli	s2,0xd
    13a0:	0000                	c.unimp
    13a2:	0000                	c.unimp
    13a4:	000ea43f 000c7000 	0xc7000000ea43f
    13ac:	1c80                	c.addi4spn	s0,sp,624
    13ae:	0000                	c.unimp
    13b0:	0000                	c.unimp
    13b2:	000e3d0b          	0xe3d0b
    13b6:	a800                	c.fsd	fs0,16(s0)
    13b8:	000c                	0xc
    13ba:	0c80                	c.addi4spn	s0,sp,592
    13bc:	0000                	c.unimp
    13be:	0100                	c.addi4spn	s0,sp,128
    13c0:	b49c                	c.fsd	fa5,40(s1)
    13c2:	02000013          	addi	zero,zero,32
    13c6:	0e4c                	c.addi4spn	a1,sp,788
    13c8:	0000                	c.unimp
    13ca:	0000094f          	fnmadd.s	fs2,ft0,ft0,ft0,rne
    13ce:	5805                	c.li	a6,-31
    13d0:	000e                	c.slli	zero,0x3
    13d2:	7600                	c.flw	fs0,40(a2)
    13d4:	0009                	c.addi	zero,2
    13d6:	0000                	c.unimp
    13d8:	000e210b          	0xe210b
    13dc:	b400                	c.fsd	fs0,40(s0)
    13de:	000c                	0xc
    13e0:	1080                	c.addi4spn	s0,sp,96
    13e2:	0000                	c.unimp
    13e4:	0100                	c.addi4spn	s0,sp,128
    13e6:	cf9c                	c.sw	a5,24(a5)
    13e8:	0f000013          	addi	zero,zero,240
    13ec:	0e30                	c.addi4spn	a2,sp,792
    13ee:	0000                	c.unimp
    13f0:	5a01                	c.li	s4,-32
    13f2:	2700                	c.fld	fs0,8(a4)
    13f4:	0398                	c.addi4spn	a4,sp,448
    13f6:	0000                	c.unimp
    13f8:	0398                	c.addi4spn	a4,sp,448
    13fa:	0000                	c.unimp
    13fc:	0000da27          	0xda27
    1400:	d000                	c.sw	s0,32(s0)
    1402:	0000                	c.unimp
    1404:	4000                	c.lw	s0,0(s0)
    1406:	032a                	c.slli	t1,0xa
    1408:	0000                	c.unimp
    140a:	032a                	c.slli	t1,0xa
    140c:	0000                	c.unimp
    140e:	4900                	c.lw	s0,16(a0)
    1410:	0005                	c.addi	zero,1
    1412:	0500                	c.addi4spn	s0,sp,640
    1414:	0100                	c.addi4spn	s0,sp,128
    1416:	ce04                	c.sw	s1,24(a2)
    1418:	10000003          	lb	zero,256(zero) # 100 <__stack_size-0x1ffff00>
    141c:	0246                	c.slli	tp,0x11
    141e:	0000                	c.unimp
    1420:	741d                	c.lui	s0,0xfffe7
    1422:	0000                	c.unimp
    1424:	1400                	c.addi4spn	s0,sp,544
    1426:	0000                	c.unimp
    1428:	c400                	c.sw	s0,8(s0)
    142a:	000c                	0xc
    142c:	5880                	c.lw	s0,48(s1)
    142e:	0001                	c.addi	zero,0
    1430:	5f00                	c.lw	s0,56(a4)
    1432:	0016                	c.slli	zero,0x5
    1434:	0200                	c.addi4spn	s0,sp,256
    1436:	0601                	c.addi	a2,0
    1438:	01e0                	c.addi4spn	s0,sp,204
    143a:	0000                	c.unimp
    143c:	0102                	c.slli64	sp
    143e:	de08                	c.sw	a0,56(a2)
    1440:	0001                	c.addi	zero,0
    1442:	0200                	c.addi4spn	s0,sp,256
    1444:	0502                	c.slli64	a0
    1446:	0525                	c.addi	a0,9
    1448:	0000                	c.unimp
    144a:	ad06                	c.fsdsp	ft1,152(sp)
    144c:	0004                	0x4
    144e:	0300                	c.addi4spn	s0,sp,384
    1450:	1939                	c.addi	s2,-18
    1452:	00000047          	fmsub.s	ft0,ft0,ft0,ft0,rne
    1456:	0202                	c.slli64	tp
    1458:	00049007          	0x49007
    145c:	0200                	c.addi4spn	s0,sp,256
    145e:	0504                	c.addi4spn	s1,sp,640
    1460:	0502                	c.slli64	a0
    1462:	0000                	c.unimp
    1464:	b806                	c.fsdsp	ft1,48(sp)
    1466:	0004                	0x4
    1468:	0300                	c.addi4spn	s0,sp,384
    146a:	0061194f          	fnmadd.s	fs2,ft2,ft6,ft0,rtz
    146e:	0000                	c.unimp
    1470:	0402                	c.slli64	s0
    1472:	0004de07          	0x4de07
    1476:	0200                	c.addi4spn	s0,sp,256
    1478:	0508                	c.addi4spn	a0,sp,640
    147a:	04fd                	c.addi	s1,31
    147c:	0000                	c.unimp
    147e:	0802                	c.slli64	a6
    1480:	0004d907          	0x4d907
    1484:	1100                	c.addi4spn	s0,sp,160
    1486:	0504                	c.addi4spn	s1,sp,640
    1488:	6e69                	c.lui	t3,0x1a
    148a:	0074                	c.addi4spn	a3,sp,12
    148c:	0402                	c.slli64	s0
    148e:	0004e307          	0x4e307
    1492:	0600                	c.addi4spn	s0,sp,768
    1494:	000004af          	0x4af
    1498:	2404                	c.fld	fs1,8(s0)
    149a:	3b14                	c.fld	fa3,48(a4)
    149c:	0000                	c.unimp
    149e:	0600                	c.addi4spn	s0,sp,768
    14a0:	04ba                	c.slli	s1,0xe
    14a2:	0000                	c.unimp
    14a4:	3004                	c.fld	fs1,32(s0)
    14a6:	5514                	c.lw	a3,40(a0)
    14a8:	0000                	c.unimp
    14aa:	1200                	c.addi4spn	s0,sp,288
    14ac:	000000a7          	0xa7
    14b0:	00002d13          	slti	s10,zero,0
    14b4:	0000                	c.unimp
    14b6:	c314                	c.sw	a3,0(a4)
    14b8:	0004                	0x4
    14ba:	0500                	c.addi4spn	s0,sp,640
    14bc:	00b30f0b          	0xb30f0b
    14c0:	0000                	c.unimp
    14c2:	00009c0b          	0x9c0b
    14c6:	0c00                	c.addi4spn	s0,sp,528
    14c8:	0539                	c.addi	a0,14
    14ca:	0000                	c.unimp
    14cc:	171e                	c.slli	a4,0x27
    14ce:	00c9                	c.addi	ra,18
    14d0:	0000                	c.unimp
    14d2:	0305                	c.addi	t1,1
    14d4:	49b8                	c.lw	a4,80(a1)
    14d6:	8000                	0x8000
    14d8:	0000ce0b          	0xce0b
    14dc:	1500                	c.addi4spn	s0,sp,672
    14de:	ce16                	c.swsp	t0,28(sp)
    14e0:	0000                	c.unimp
    14e2:	0700                	c.addi4spn	s0,sp,896
    14e4:	046a                	c.slli	s0,0x1a
    14e6:	0000                	c.unimp
    14e8:	0c1f 0090 0000      	0x900c1f
    14ee:	00045807          	0x45807
    14f2:	2000                	c.fld	fs0,0(s0)
    14f4:	900c                	0x900c
    14f6:	0000                	c.unimp
    14f8:	0c00                	c.addi4spn	s0,sp,528
    14fa:	0000050b          	0x50b
    14fe:	0c21                	c.addi	s8,8
    1500:	0090                	c.addi4spn	a2,sp,64
    1502:	0000                	c.unimp
    1504:	0305                	c.addi	t1,1
    1506:	49b4                	c.lw	a3,80(a1)
    1508:	8000                	0x8000
    150a:	0000e117          	auipc	sp,0xe
    150e:	0100                	c.addi4spn	s0,sp,128
    1510:	0540                	c.addi4spn	s0,sp,644
    1512:	0076                	c.slli	zero,0x1d
    1514:	0000                	c.unimp
    1516:	0d2c                	c.addi4spn	a1,sp,664
    1518:	8000                	0x8000
    151a:	00f0                	c.addi4spn	a2,sp,76
    151c:	0000                	c.unimp
    151e:	9c01                	0x9c01
    1520:	0356                	c.slli	t1,0x15
    1522:	0000                	c.unimp
    1524:	7b18                	c.flw	fa4,48(a4)
    1526:	0004                	0x4
    1528:	0100                	c.addi4spn	s0,sp,128
    152a:	0942                	c.slli	s2,0x10
    152c:	0084                	c.addi4spn	s1,sp,64
    152e:	0000                	c.unimp
    1530:	0495051b          	0x495051b
    1534:	0000                	c.unimp
    1536:	0d40                	c.addi4spn	s0,sp,660
    1538:	8000                	0x8000
    153a:	0014                	0x14
    153c:	0000                	c.unimp
    153e:	054c                	c.addi4spn	a1,sp,644
    1540:	00000173          	0x173
    1544:	ae01                	c.j	1854 <__stack_size-0x1ffe7ac>
    1546:	0004                	0x4
    1548:	a900                	c.fsd	fs0,16(a0)
    154a:	0009                	c.addi	zero,2
    154c:	0100                	c.addi4spn	s0,sp,128
    154e:	04a2                	c.slli	s1,0x8
    1550:	0000                	c.unimp
    1552:	09b6                	c.slli	s3,0xd
    1554:	0000                	c.unimp
    1556:	0004ba03          	0x4ba03
    155a:	b600                	c.fsd	fs0,40(a2)
    155c:	0009                	c.addi	zero,2
    155e:	0400                	c.addi4spn	s0,sp,512
    1560:	0000052b          	0x52b
    1564:	0d44                	c.addi4spn	s1,sp,660
    1566:	8000                	0x8000
    1568:	0382                	c.slli64	t2
    156a:	0000                	c.unimp
    156c:	052e                	c.slli	a0,0xb
    156e:	4001                	c.li	zero,0
    1570:	0005                	c.addi	zero,1
    1572:	c300                	c.sw	s0,0(a4)
    1574:	0009                	c.addi	zero,2
    1576:	0100                	c.addi4spn	s0,sp,128
    1578:	0534                	c.addi4spn	a3,sp,648
    157a:	0000                	c.unimp
    157c:	09e2                	c.slli	s3,0x18
    157e:	0000                	c.unimp
    1580:	0000                	c.unimp
    1582:	9505                	c.srai	a0,0x21
    1584:	0004                	0x4
    1586:	5400                	c.lw	s0,40(s0)
    1588:	000d                	c.addi	zero,3
    158a:	2080                	c.fld	fs0,0(s1)
    158c:	0000                	c.unimp
    158e:	4e00                	c.lw	s0,24(a2)
    1590:	c405                	c.beqz	s0,15b8 <__stack_size-0x1ffea48>
    1592:	0001                	c.addi	zero,0
    1594:	0100                	c.addi4spn	s0,sp,128
    1596:	04ae                	c.slli	s1,0xb
    1598:	0000                	c.unimp
    159a:	000009ef          	jal	s3,159a <__stack_size-0x1ffea66>
    159e:	a201                	c.j	169e <__stack_size-0x1ffe962>
    15a0:	0004                	0x4
    15a2:	fd00                	c.fsw	fs0,56(a0)
    15a4:	0009                	c.addi	zero,2
    15a6:	0300                	c.addi4spn	s0,sp,384
    15a8:	04ba                	c.slli	s1,0xe
    15aa:	0000                	c.unimp
    15ac:	0a0a                	c.slli	s4,0x2
    15ae:	0000                	c.unimp
    15b0:	2b04                	c.fld	fs1,16(a4)
    15b2:	0005                	c.addi	zero,1
    15b4:	6400                	c.flw	fs0,8(s0)
    15b6:	000d                	c.addi	zero,3
    15b8:	9e80                	0x9e80
    15ba:	2e000003          	lb	zero,736(zero) # 2e0 <__stack_size-0x1fffd20>
    15be:	0105                	c.addi	sp,1
    15c0:	0540                	c.addi4spn	s0,sp,644
    15c2:	0000                	c.unimp
    15c4:	0a2e                	c.slli	s4,0xb
    15c6:	0000                	c.unimp
    15c8:	3401                	c.jal	fc8 <__stack_size-0x1fff038>
    15ca:	0005                	c.addi	zero,1
    15cc:	4e00                	c.lw	s0,24(a2)
    15ce:	000a                	c.slli	zero,0x2
    15d0:	0000                	c.unimp
    15d2:	0500                	c.addi4spn	s0,sp,640
    15d4:	0495                	c.addi	s1,5
    15d6:	0000                	c.unimp
    15d8:	0d74                	c.addi4spn	a3,sp,668
    15da:	8000                	0x8000
    15dc:	001c                	0x1c
    15de:	0000                	c.unimp
    15e0:	0552                	c.slli	a0,0x14
    15e2:	0215                	c.addi	tp,5
    15e4:	0000                	c.unimp
    15e6:	ae01                	c.j	18f6 <__stack_size-0x1ffe70a>
    15e8:	0004                	0x4
    15ea:	5c00                	c.lw	s0,56(s0)
    15ec:	000a                	c.slli	zero,0x2
    15ee:	0100                	c.addi4spn	s0,sp,128
    15f0:	04a2                	c.slli	s1,0x8
    15f2:	0000                	c.unimp
    15f4:	0a69                	c.addi	s4,26
    15f6:	0000                	c.unimp
    15f8:	0004ba03          	0x4ba03
    15fc:	7600                	c.flw	fs0,40(a2)
    15fe:	000a                	c.slli	zero,0x2
    1600:	0400                	c.addi4spn	s0,sp,512
    1602:	0000052b          	0x52b
    1606:	0d84                	c.addi4spn	s1,sp,720
    1608:	8000                	0x8000
    160a:	03b1                	c.addi	t2,12
    160c:	0000                	c.unimp
    160e:	052e                	c.slli	a0,0xb
    1610:	4001                	c.li	zero,0
    1612:	0005                	c.addi	zero,1
    1614:	8200                	0x8200
    1616:	000a                	c.slli	zero,0x2
    1618:	0100                	c.addi4spn	s0,sp,128
    161a:	0534                	c.addi4spn	a3,sp,648
    161c:	0000                	c.unimp
    161e:	0aa2                	c.slli	s5,0x8
    1620:	0000                	c.unimp
    1622:	0000                	c.unimp
    1624:	9505                	c.srai	a0,0x21
    1626:	0004                	0x4
    1628:	9000                	0x9000
    162a:	000d                	c.addi	zero,3
    162c:	1c80                	c.addi4spn	s0,sp,624
    162e:	0000                	c.unimp
    1630:	5400                	c.lw	s0,40(s0)
    1632:	6605                	c.lui	a2,0x1
    1634:	0002                	c.slli64	zero
    1636:	0100                	c.addi4spn	s0,sp,128
    1638:	04ae                	c.slli	s1,0xb
    163a:	0000                	c.unimp
    163c:	00000aaf          	0xaaf
    1640:	a201                	c.j	1740 <__stack_size-0x1ffe8c0>
    1642:	0004                	0x4
    1644:	af00                	c.fsd	fs0,24(a4)
    1646:	000a                	c.slli	zero,0x2
    1648:	0300                	c.addi4spn	s0,sp,384
    164a:	04ba                	c.slli	s1,0xe
    164c:	0000                	c.unimp
    164e:	0abc                	c.addi4spn	a5,sp,344
    1650:	0000                	c.unimp
    1652:	2b04                	c.fld	fs1,16(a4)
    1654:	0005                	c.addi	zero,1
    1656:	9c00                	0x9c00
    1658:	000d                	c.addi	zero,3
    165a:	c480                	c.sw	s0,8(s1)
    165c:	2e000003          	lb	zero,736(zero) # 2e0 <__stack_size-0x1fffd20>
    1660:	0105                	c.addi	sp,1
    1662:	0540                	c.addi4spn	s0,sp,644
    1664:	0000                	c.unimp
    1666:	0adf 0000 3401      	0x340100000adf
    166c:	0005                	c.addi	zero,1
    166e:	ff00                	c.fsw	fs0,56(a4)
    1670:	000a                	c.slli	zero,0x2
    1672:	0000                	c.unimp
    1674:	0500                	c.addi4spn	s0,sp,640
    1676:	0495                	c.addi	s1,5
    1678:	0000                	c.unimp
    167a:	0dac                	c.addi4spn	a1,sp,728
    167c:	8000                	0x8000
    167e:	0020                	c.addi4spn	s0,sp,8
    1680:	0000                	c.unimp
    1682:	0556                	c.slli	a0,0x15
    1684:	000002b7          	lui	t0,0x0
    1688:	ae01                	c.j	1998 <__stack_size-0x1ffe668>
    168a:	0004                	0x4
    168c:	0c00                	c.addi4spn	s0,sp,528
    168e:	0100000b          	0x100000b
    1692:	04a2                	c.slli	s1,0x8
    1694:	0000                	c.unimp
    1696:	0b19                	c.addi	s6,6
    1698:	0000                	c.unimp
    169a:	0004ba03          	0x4ba03
    169e:	2600                	c.fld	fs0,8(a2)
    16a0:	0400000b          	0x400000b
    16a4:	0000052b          	0x52b
    16a8:	0dbc                	c.addi4spn	a5,sp,728
    16aa:	8000                	0x8000
    16ac:	000003d7          	0x3d7
    16b0:	052e                	c.slli	a0,0xb
    16b2:	4001                	c.li	zero,0
    16b4:	0005                	c.addi	zero,1
    16b6:	4900                	c.lw	s0,16(a0)
    16b8:	0100000b          	0x100000b
    16bc:	0534                	c.addi4spn	a3,sp,648
    16be:	0000                	c.unimp
    16c0:	0b69                	c.addi	s6,26
    16c2:	0000                	c.unimp
    16c4:	0000                	c.unimp
    16c6:	9505                	c.srai	a0,0x21
    16c8:	0004                	0x4
    16ca:	cc00                	c.sw	s0,24(s0)
    16cc:	000d                	c.addi	zero,3
    16ce:	1c80                	c.addi4spn	s0,sp,624
    16d0:	0000                	c.unimp
    16d2:	5800                	c.lw	s0,48(s0)
    16d4:	0805                	c.addi	a6,1
    16d6:	01000003          	lb	zero,16(zero) # 10 <__stack_size-0x1fffff0>
    16da:	04ae                	c.slli	s1,0xb
    16dc:	0000                	c.unimp
    16de:	0b76                	c.slli	s6,0x1d
    16e0:	0000                	c.unimp
    16e2:	a201                	c.j	17e2 <__stack_size-0x1ffe81e>
    16e4:	0004                	0x4
    16e6:	8300                	0x8300
    16e8:	0300000b          	0x300000b
    16ec:	04ba                	c.slli	s1,0xe
    16ee:	0000                	c.unimp
    16f0:	0b90                	c.addi4spn	a2,sp,464
    16f2:	0000                	c.unimp
    16f4:	2b04                	c.fld	fs1,16(a4)
    16f6:	0005                	c.addi	zero,1
    16f8:	dc00                	c.sw	s0,56(s0)
    16fa:	000d                	c.addi	zero,3
    16fc:	ea80                	c.fsw	fs0,16(a3)
    16fe:	2e000003          	lb	zero,736(zero) # 2e0 <__stack_size-0x1fffd20>
    1702:	0105                	c.addi	sp,1
    1704:	0540                	c.addi4spn	s0,sp,644
    1706:	0000                	c.unimp
    1708:	0b9c                	c.addi4spn	a5,sp,464
    170a:	0000                	c.unimp
    170c:	3401                	c.jal	110c <__stack_size-0x1ffeef4>
    170e:	0005                	c.addi	zero,1
    1710:	bc00                	c.fsd	fs0,56(s0)
    1712:	0000000b          	0xb
    1716:	0800                	c.addi4spn	s0,sp,16
    1718:	0495                	c.addi	s1,5
    171a:	0000                	c.unimp
    171c:	0de8                	c.addi4spn	a0,sp,732
    171e:	8000                	0x8000
    1720:	001c                	0x1c
    1722:	0000                	c.unimp
    1724:	055e                	c.slli	a0,0x17
    1726:	ae01                	c.j	1a36 <__stack_size-0x1ffe5ca>
    1728:	0004                	0x4
    172a:	c900                	c.sw	s0,16(a0)
    172c:	0100000b          	0x100000b
    1730:	04a2                	c.slli	s1,0x8
    1732:	0000                	c.unimp
    1734:	0bd6                	c.slli	s7,0x15
    1736:	0000                	c.unimp
    1738:	0004ba03          	0x4ba03
    173c:	e300                	c.fsw	fs0,0(a4)
    173e:	0400000b          	0x400000b
    1742:	0000052b          	0x52b
    1746:	0df8                	c.addi4spn	a4,sp,732
    1748:	8000                	0x8000
    174a:	03fd                	c.addi	t2,31
    174c:	0000                	c.unimp
    174e:	052e                	c.slli	a0,0xb
    1750:	4001                	c.li	zero,0
    1752:	0005                	c.addi	zero,1
    1754:	ef00                	c.fsw	fs0,24(a4)
    1756:	0100000b          	0x100000b
    175a:	0534                	c.addi4spn	a3,sp,648
    175c:	0000                	c.unimp
    175e:	00000c0f          	0xc0f
    1762:	0000                	c.unimp
    1764:	1900                	c.addi4spn	s0,sp,176
    1766:	000004a3          	sb	zero,9(zero) # 9 <__stack_size-0x1fffff7>
    176a:	3901                	c.jal	137a <__stack_size-0x1ffec86>
    176c:	7605                	c.lui	a2,0xfffe1
    176e:	0000                	c.unimp
    1770:	d800                	c.sw	s0,48(s0)
    1772:	000c                	0xc
    1774:	5480                	c.lw	s0,40(s1)
    1776:	0000                	c.unimp
    1778:	0100                	c.addi4spn	s0,sp,128
    177a:	1d9c                	c.addi4spn	a5,sp,752
    177c:	0004                	0x4
    177e:	0500                	c.addi4spn	s0,sp,640
    1780:	04c6                	c.slli	s1,0x11
    1782:	0000                	c.unimp
    1784:	0cd8                	c.addi4spn	a4,sp,596
    1786:	8000                	0x8000
    1788:	002c                	c.addi4spn	a1,sp,8
    178a:	0000                	c.unimp
    178c:	03c9093b          	0x3c9093b
    1790:	0000                	c.unimp
    1792:	d701                	c.beqz	a4,169a <__stack_size-0x1ffe966>
    1794:	0004                	0x4
    1796:	1c00                	c.addi4spn	s0,sp,560
    1798:	000c                	0xc
    179a:	0300                	c.addi4spn	s0,sp,384
    179c:	000004e3          	beq	zero,zero,1fa4 <__stack_size-0x1ffe05c>
    17a0:	0c29                	c.addi	s8,10
    17a2:	0000                	c.unimp
    17a4:	ee1a                	c.fswsp	ft6,28(sp)
    17a6:	0004                	0x4
    17a8:	5300                	c.lw	s0,32(a4)
    17aa:	09000003          	lb	zero,144(zero) # 90 <__stack_size-0x1ffff70>
    17ae:	000004ef          	jal	s1,17ae <__stack_size-0x1ffe852>
    17b2:	fd04                	c.fsw	fs1,56(a0)
    17b4:	0004                	0x4
    17b6:	d800                	c.sw	s0,48(s0)
    17b8:	000c                	0xc
    17ba:	6f80                	c.flw	fs0,24(a5)
    17bc:	27000003          	lb	zero,624(zero) # 270 <__stack_size-0x1fffd90>
    17c0:	010c                	c.addi4spn	a1,sp,128
    17c2:	050e                	c.slli	a0,0x3
    17c4:	0000                	c.unimp
    17c6:	0c3d                	c.addi	s8,15
    17c8:	0000                	c.unimp
    17ca:	00036f1b          	0x36f1b
    17ce:	0900                	c.addi4spn	s0,sp,144
    17d0:	0519                	c.addi	a0,6
    17d2:	0000                	c.unimp
    17d4:	0000                	c.unimp
    17d6:	0000                	c.unimp
    17d8:	c608                	c.sw	a0,8(a2)
    17da:	0004                	0x4
    17dc:	0c00                	c.addi4spn	s0,sp,528
    17de:	000d                	c.addi	zero,3
    17e0:	1480                	c.addi4spn	s0,sp,608
    17e2:	0000                	c.unimp
    17e4:	3c00                	c.fld	fs0,56(s0)
    17e6:	0110                	c.addi4spn	a2,sp,128
    17e8:	000004d7          	0x4d7
    17ec:	0c58                	c.addi4spn	a4,sp,532
    17ee:	0000                	c.unimp
    17f0:	0004e303          	0x4e303
    17f4:	5800                	c.lw	s0,48(s0)
    17f6:	000c                	0xc
    17f8:	1c00                	c.addi4spn	s0,sp,560
    17fa:	04ee                	c.slli	s1,0x1b
    17fc:	0000                	c.unimp
    17fe:	0d0c                	c.addi4spn	a1,sp,656
    1800:	8000                	0x8000
    1802:	0014                	0x14
    1804:	0000                	c.unimp
    1806:	ef09                	c.bnez	a4,1820 <__stack_size-0x1ffe7e0>
    1808:	0004                	0x4
    180a:	0800                	c.addi4spn	s0,sp,16
    180c:	04fd                	c.addi	s1,31
    180e:	0000                	c.unimp
    1810:	0d0c                	c.addi4spn	a1,sp,656
    1812:	8000                	0x8000
    1814:	0010                	0x10
    1816:	0000                	c.unimp
    1818:	0e010c27          	0xe010c27
    181c:	0005                	c.addi	zero,1
    181e:	6500                	c.flw	fs0,8(a0)
    1820:	000c                	0xc
    1822:	0900                	c.addi4spn	s0,sp,144
    1824:	0519                	c.addi	a0,6
    1826:	0000                	c.unimp
    1828:	0000                	c.unimp
    182a:	0000                	c.unimp
    182c:	2f1d                	c.jal	1f62 <__stack_size-0x1ffe09e>
    182e:	0005                	c.addi	zero,1
    1830:	0100                	c.addi4spn	s0,sp,128
    1832:	0631                	c.addi	a2,12
    1834:	0cc4                	c.addi4spn	s1,sp,596
    1836:	8000                	0x8000
    1838:	0014                	0x14
    183a:	0000                	c.unimp
    183c:	9c01                	0x9c01
    183e:	048e                	c.slli	s1,0x3
    1840:	0000                	c.unimp
    1842:	631e                	c.flwsp	ft6,196(sp)
    1844:	0068                	c.addi4spn	a0,sp,12
    1846:	3101                	c.jal	1446 <__stack_size-0x1ffebba>
    1848:	8e15                	c.sub	a2,a3
    184a:	0004                	0x4
    184c:	0100                	c.addi4spn	s0,sp,128
    184e:	085a                	c.slli	a6,0x16
    1850:	0495                	c.addi	s1,5
    1852:	0000                	c.unimp
    1854:	0cc4                	c.addi4spn	s1,sp,596
    1856:	8000                	0x8000
    1858:	0010                	0x10
    185a:	0000                	c.unimp
    185c:	0536                	c.slli	a0,0xd
    185e:	ae01                	c.j	1b6e <__stack_size-0x1ffe492>
    1860:	0004                	0x4
    1862:	7500                	c.flw	fs0,40(a0)
    1864:	000c                	0xc
    1866:	0100                	c.addi4spn	s0,sp,128
    1868:	04a2                	c.slli	s1,0x8
    186a:	0000                	c.unimp
    186c:	0c86                	c.slli	s9,0x1
    186e:	0000                	c.unimp
    1870:	0004ba03          	0x4ba03
    1874:	8600                	0x8600
    1876:	000c                	0xc
    1878:	0400                	c.addi4spn	s0,sp,512
    187a:	0000052b          	0x52b
    187e:	0cc8                	c.addi4spn	a0,sp,596
    1880:	8000                	0x8000
    1882:	0340                	c.addi4spn	s0,sp,388
    1884:	0000                	c.unimp
    1886:	052e                	c.slli	a0,0xb
    1888:	4001                	c.li	zero,0
    188a:	0005                	c.addi	zero,1
    188c:	9300                	0x9300
    188e:	000c                	0xc
    1890:	0100                	c.addi4spn	s0,sp,128
    1892:	0534                	c.addi4spn	a3,sp,648
    1894:	0000                	c.unimp
    1896:	00000ca3          	sb	zero,25(zero) # 19 <__stack_size-0x1ffffe7>
    189a:	0000                	c.unimp
    189c:	0200                	c.addi4spn	s0,sp,256
    189e:	0801                	c.addi	a6,0
    18a0:	000001e7          	jalr	gp,0(zero) # 0 <__stack_size-0x2000000>
    18a4:	881f 0004 0100      	0x1000004881f
    18aa:	0d2a                	c.slli	s10,0xa
    18ac:	c601                	c.beqz	a2,18b4 <__stack_size-0x1ffe74c>
    18ae:	0004                	0x4
    18b0:	0a00                	c.addi4spn	s0,sp,272
    18b2:	756e                	c.flwsp	fa0,248(sp)
    18b4:	006d                	c.addi	zero,27
    18b6:	2a01                	c.jal	19c6 <__stack_size-0x1ffe63a>
    18b8:	9019                	c.srli	s0,0x26
    18ba:	0000                	c.unimp
    18bc:	0a00                	c.addi4spn	s0,sp,272
    18be:	6176                	c.flwsp	ft2,92(sp)
    18c0:	006c                	c.addi4spn	a1,sp,12
    18c2:	2a01                	c.jal	19d2 <__stack_size-0x1ffe62e>
    18c4:	9022                	c.add	zero,s0
    18c6:	0000                	c.unimp
    18c8:	0700                	c.addi4spn	s0,sp,896
    18ca:	051e                	c.slli	a0,0x7
    18cc:	0000                	c.unimp
    18ce:	092c                	c.addi4spn	a1,sp,152
    18d0:	0090                	c.addi4spn	a2,sp,64
    18d2:	0000                	c.unimp
    18d4:	0d00                	c.addi4spn	s0,sp,656
    18d6:	0480                	c.addi4spn	s0,sp,576
    18d8:	0000                	c.unimp
    18da:	2301                	c.jal	1dda <__stack_size-0x1ffe226>
    18dc:	900c                	0x900c
    18de:	0000                	c.unimp
    18e0:	0100                	c.addi4spn	s0,sp,128
    18e2:	04fd                	c.addi	s1,31
    18e4:	0000                	c.unimp
    18e6:	6e0a                	c.flwsp	ft8,128(sp)
    18e8:	6d75                	c.lui	s10,0x1d
    18ea:	0100                	c.addi4spn	s0,sp,128
    18ec:	00901823          	sh	s1,16(zero) # 10 <__stack_size-0x1fffff0>
    18f0:	0000                	c.unimp
    18f2:	00051e07          	0x51e07
    18f6:	2500                	c.fld	fs0,8(a0)
    18f8:	9009                	c.srli	s0,0x22
    18fa:	0000                	c.unimp
    18fc:	2000                	c.fld	fs0,0(s0)
    18fe:	5f0e                	c.lwsp	t5,224(sp)
    1900:	765f 0100 0c27      	0xc270100765f
    1906:	0084                	c.addi4spn	s1,sp,64
    1908:	0000                	c.unimp
    190a:	0000                	c.unimp
    190c:	cd0d                	c.beqz	a0,1946 <__stack_size-0x1ffe6ba>
    190e:	0004                	0x4
    1910:	0200                	c.addi4spn	s0,sp,256
    1912:	1234                	c.addi4spn	a3,sp,296
    1914:	0084                	c.addi4spn	s1,sp,64
    1916:	0000                	c.unimp
    1918:	00052603          	lw	a2,0(a0) # fffe2000 <_sp+0x77fe2000>
    191c:	0f00                	c.addi4spn	s0,sp,912
    191e:	00000453          	fadd.s	fs0,ft0,ft0,rne
    1922:	3334                	c.fld	fa3,96(a4)
    1924:	0526                	c.slli	a0,0x9
    1926:	0000                	c.unimp
    1928:	760e                	c.flwsp	fa2,224(sp)
    192a:	6c61                	c.lui	s8,0x18
    192c:	0200                	c.addi4spn	s0,sp,256
    192e:	0635                	c.addi	a2,13
    1930:	0084                	c.addi4spn	s1,sp,64
    1932:	0000                	c.unimp
    1934:	0b00                	c.addi4spn	s0,sp,400
    1936:	000000cf          	fnmadd.s	ft1,ft0,ft0,ft0,rne
    193a:	f021                	c.bnez	s0,187a <__stack_size-0x1ffe786>
    193c:	0004                	0x4
    193e:	0200                	c.addi4spn	s0,sp,256
    1940:	1430                	c.addi4spn	a2,sp,552
    1942:	61760a03          	lb	s4,1559(a2) # fffe1617 <_sp+0x77fe1617>
    1946:	006c                	c.addi4spn	a1,sp,12
    1948:	3002                	c.fldsp	ft0,32(sp)
    194a:	8424                	0x8424
    194c:	0000                	c.unimp
    194e:	0f00                	c.addi4spn	s0,sp,912
    1950:	00000453          	fadd.s	fs0,ft0,ft0,rne
    1954:	3830                	c.fld	fa2,112(s0)
    1956:	00c9                	c.addi	ra,18
    1958:	0000                	c.unimp
    195a:	0000                	c.unimp
    195c:	04e0                	c.addi4spn	s0,sp,588
    195e:	0000                	c.unimp
    1960:	0005                	c.addi	zero,1
    1962:	0401                	c.addi	s0,0
    1964:	000005af          	0x5af
    1968:	4611                	c.li	a2,4
    196a:	0002                	c.slli64	zero
    196c:	1d00                	c.addi4spn	s0,sp,688
    196e:	0184                	c.addi4spn	s1,sp,192
    1970:	0000                	c.unimp
    1972:	0014                	0x14
    1974:	0000                	c.unimp
    1976:	0e1c                	c.addi4spn	a5,sp,784
    1978:	8000                	0x8000
    197a:	06e0                	c.addi4spn	s0,sp,844
    197c:	0000                	c.unimp
    197e:	1b8e                	c.slli	s7,0x23
    1980:	0000                	c.unimp
    1982:	3112                	c.fldsp	ft2,288(sp)
    1984:	0000                	c.unimp
    1986:	1300                	c.addi4spn	s0,sp,416
    1988:	0031                	c.addi	zero,12
    198a:	0000                	c.unimp
    198c:	0700                	c.addi4spn	s0,sp,896
    198e:	0801                	c.addi	a6,0
    1990:	01de                	c.slli	gp,0x17
    1992:	0000                	c.unimp
    1994:	c314                	c.sw	a3,0(a4)
    1996:	0004                	0x4
    1998:	0300                	c.addi4spn	s0,sp,384
    199a:	00440f0b          	0x440f0b
    199e:	0000                	c.unimp
    19a0:	0000260b          	0x260b
    19a4:	0c00                	c.addi4spn	s0,sp,528
    19a6:	057d                	c.addi	a0,31
    19a8:	0000                	c.unimp
    19aa:	1b28                	c.addi4spn	a0,sp,440
    19ac:	0054                	c.addi4spn	a3,sp,4
    19ae:	0000                	c.unimp
    19b0:	0415                	c.addi	s0,5
    19b2:	00000547          	fmsub.s	fa0,ft0,ft0,ft0,rne
    19b6:	840c                	0x840c
    19b8:	0005                	c.addi	zero,1
    19ba:	6300                	c.flw	fs0,0(a4)
    19bc:	4918                	c.lw	a4,16(a0)
    19be:	0000                	c.unimp
    19c0:	1600                	c.addi4spn	s0,sp,800
    19c2:	0038                	c.addi4spn	a4,sp,8
    19c4:	0000                	c.unimp
    19c6:	1301                	c.addi	t1,-32
    19c8:	0508                	c.addi4spn	a0,sp,640
    19ca:	0049c003          	lbu	zero,4(s3)
    19ce:	1780                	c.addi4spn	s0,sp,992
    19d0:	056d                	c.addi	a0,27
    19d2:	0000                	c.unimp
    19d4:	1401                	c.addi	s0,-32
    19d6:	850e                	c.mv	a0,gp
    19d8:	0000                	c.unimp
    19da:	0500                	c.addi4spn	s0,sp,640
    19dc:	0049bc03          	0x49bc03
    19e0:	0b80                	c.addi4spn	s0,sp,464
    19e2:	008a                	c.slli	ra,0x2
    19e4:	0000                	c.unimp
    19e6:	e7080107          	0xe7080107
    19ea:	0001                	c.addi	zero,0
    19ec:	1800                	c.addi4spn	s0,sp,48
    19ee:	008a                	c.slli	ra,0x2
    19f0:	0000                	c.unimp
    19f2:	f819                	c.bnez	s0,1908 <__stack_size-0x1ffe6f8>
    19f4:	0002                	c.slli64	zero
    19f6:	0100                	c.addi4spn	s0,sp,128
    19f8:	0692                	c.slli	a3,0x4
    19fa:	0ec4                	c.addi4spn	s1,sp,852
    19fc:	8000                	0x8000
    19fe:	0638                	c.addi4spn	a4,sp,776
    1a00:	0000                	c.unimp
    1a02:	9c01                	0x9c01
    1a04:	00000383          	lb	t2,0(zero) # 0 <__stack_size-0x2000000>
    1a08:	661a                	c.flwsp	fa2,132(sp)
    1a0a:	746d                	c.lui	s0,0xffffb
    1a0c:	0100                	c.addi4spn	s0,sp,128
    1a0e:	03830e93          	addi	t4,t1,56 # ffffe038 <_sp+0x77ffe038>
    1a12:	0000                	c.unimp
    1a14:	0cc0                	c.addi4spn	s0,sp,596
    1a16:	0000                	c.unimp
    1a18:	72611c1b          	0x72611c1b
    1a1c:	0070                	c.addi4spn	a2,sp,12
    1a1e:	9701                	c.srai	a4,0x20
    1a20:	5a0a                	c.lwsp	s4,160(sp)
    1a22:	0000                	c.unimp
    1a24:	0300                	c.addi4spn	s0,sp,384
    1a26:	8c91                	c.sub	s1,a2
    1a28:	057f                	0x57f
    1a2a:	0388                	c.addi4spn	a0,sp,448
    1a2c:	0000                	c.unimp
    1a2e:	0f1c                	c.addi4spn	a5,sp,912
    1a30:	8000                	0x8000
    1a32:	0454                	c.addi4spn	a3,sp,516
    1a34:	0000                	c.unimp
    1a36:	a001029b          	0xa001029b
    1a3a:	e5000003          	lb	zero,-432(zero) # fffffe50 <_sp+0x77fffe50>
    1a3e:	000c                	0xc
    1a40:	0100                	c.addi4spn	s0,sp,128
    1a42:	0395                	c.addi	t2,5
    1a44:	0000                	c.unimp
    1a46:	0dcc                	c.addi4spn	a1,sp,724
    1a48:	0000                	c.unimp
    1a4a:	541d                	c.li	s0,-25
    1a4c:	0004                	0x4
    1a4e:	0400                	c.addi4spn	s0,sp,512
    1a50:	000003ab          	0x3ab
    1a54:	0e94                	c.addi4spn	a3,sp,848
    1a56:	0000                	c.unimp
    1a58:	b404                	c.fsd	fs1,40(s0)
    1a5a:	e9000003          	lb	zero,-368(zero) # fffffe90 <_sp+0x77fffe90>
    1a5e:	000e                	c.slli	zero,0x3
    1a60:	0400                	c.addi4spn	s0,sp,512
    1a62:	03bd                	c.addi	t2,15
    1a64:	0000                	c.unimp
    1a66:	0f8d                	c.addi	t6,3
    1a68:	0000                	c.unimp
    1a6a:	c604                	c.sw	s1,8(a2)
    1a6c:	ca000003          	lb	zero,-864(zero) # fffffca0 <_sp+0x77fffca0>
    1a70:	0010                	0x10
    1a72:	0400                	c.addi4spn	s0,sp,512
    1a74:	000003cf          	fnmadd.s	ft7,ft0,ft0,ft0,rne
    1a78:	10e2                	c.slli	ra,0x38
    1a7a:	0000                	c.unimp
    1a7c:	d804                	c.sw	s1,48(s0)
    1a7e:	54000003          	lb	zero,1344(zero) # 540 <__stack_size-0x1fffac0>
    1a82:	0011                	c.addi	zero,4
    1a84:	0d00                	c.addi4spn	s0,sp,656
    1a86:	03e1                	c.addi	t2,24
    1a88:	0000                	c.unimp
    1a8a:	7f909103          	lh	sp,2041(ra)
    1a8e:	ea04                	c.fsw	fs1,16(a2)
    1a90:	c3000003          	lb	zero,-976(zero) # fffffc30 <_sp+0x77fffc30>
    1a94:	0011                	c.addi	zero,4
    1a96:	0400                	c.addi4spn	s0,sp,512
    1a98:	000003f3          	0x3f3
    1a9c:	123d                	c.addi	tp,-17
    1a9e:	0000                	c.unimp
    1aa0:	fc0d                	c.bnez	s0,19da <__stack_size-0x1ffe626>
    1aa2:	01000003          	lb	zero,16(zero) # 10 <__stack_size-0x1fffff0>
    1aa6:	0358                	c.addi4spn	a4,sp,388
    1aa8:	043a                	c.slli	s0,0xe
    1aaa:	0000                	c.unimp
    1aac:	0f3c                	c.addi4spn	a5,sp,920
    1aae:	8000                	0x8000
    1ab0:	0470                	c.addi4spn	a2,sp,524
    1ab2:	0000                	c.unimp
    1ab4:	0181047b          	0x181047b
    1ab8:	0000                	c.unimp
    1aba:	4401                	c.li	s0,0
    1abc:	0004                	0x4
    1abe:	d800                	c.sw	s0,48(s0)
    1ac0:	0012                	c.slli	zero,0x4
    1ac2:	0500                	c.addi4spn	s0,sp,640
    1ac4:	043a                	c.slli	s0,0xe
    1ac6:	0000                	c.unimp
    1ac8:	0f40                	c.addi4spn	s0,sp,916
    1aca:	8000                	0x8000
    1acc:	0495                	c.addi	s1,5
    1ace:	0000                	c.unimp
    1ad0:	061a                	c.slli	a2,0x6
    1ad2:	4401                	c.li	s0,0
    1ad4:	0004                	0x4
    1ad6:	ef00                	c.fsw	fs0,24(a4)
    1ad8:	0012                	c.slli	zero,0x4
    1ada:	0000                	c.unimp
    1adc:	0300                	c.addi4spn	s0,sp,384
    1ade:	043a                	c.slli	s0,0xe
    1ae0:	0000                	c.unimp
    1ae2:	0f54                	c.addi4spn	a3,sp,916
    1ae4:	8000                	0x8000
    1ae6:	04b1                	c.addi	s1,12
    1ae8:	0000                	c.unimp
    1aea:	0454                	c.addi4spn	a3,sp,516
    1aec:	01b5                	c.addi	gp,13
    1aee:	0000                	c.unimp
    1af0:	4401                	c.li	s0,0
    1af2:	0004                	0x4
    1af4:	fb00                	c.fsw	fs0,48(a4)
    1af6:	0012                	c.slli	zero,0x4
    1af8:	0600                	c.addi4spn	s0,sp,768
    1afa:	043a                	c.slli	s0,0xe
    1afc:	0000                	c.unimp
    1afe:	1404                	c.addi4spn	s1,sp,544
    1b00:	8000                	0x8000
    1b02:	000c                	0xc
    1b04:	0000                	c.unimp
    1b06:	4401                	c.li	s0,0
    1b08:	0004                	0x4
    1b0a:	1200                	c.addi4spn	s0,sp,288
    1b0c:	00000013          	addi	zero,zero,0
    1b10:	0300                	c.addi4spn	s0,sp,384
    1b12:	043a                	c.slli	s0,0xe
    1b14:	0000                	c.unimp
    1b16:	10cc                	c.addi4spn	a1,sp,100
    1b18:	8000                	0x8000
    1b1a:	04cd                	c.addi	s1,19
    1b1c:	0000                	c.unimp
    1b1e:	0470                	c.addi4spn	a2,sp,524
    1b20:	000001eb          	0x1eb
    1b24:	4401                	c.li	s0,0
    1b26:	0004                	0x4
    1b28:	1e00                	c.addi4spn	s0,sp,816
    1b2a:	05000013          	addi	zero,zero,80
    1b2e:	043a                	c.slli	s0,0xe
    1b30:	0000                	c.unimp
    1b32:	1438                	c.addi4spn	a4,sp,552
    1b34:	8000                	0x8000
    1b36:	000004fb          	0x4fb
    1b3a:	061a                	c.slli	a2,0x6
    1b3c:	4401                	c.li	s0,0
    1b3e:	0004                	0x4
    1b40:	3500                	c.fld	fs0,40(a0)
    1b42:	00000013          	addi	zero,zero,0
    1b46:	0300                	c.addi4spn	s0,sp,384
    1b48:	043a                	c.slli	s0,0xe
    1b4a:	0000                	c.unimp
    1b4c:	1138                	c.addi4spn	a4,sp,168
    1b4e:	8000                	0x8000
    1b50:	050e                	c.slli	a0,0x3
    1b52:	0000                	c.unimp
    1b54:	022b206b          	0x22b206b
    1b58:	0000                	c.unimp
    1b5a:	4401                	c.li	s0,0
    1b5c:	0004                	0x4
    1b5e:	4100                	c.lw	s0,0(a0)
    1b60:	06000013          	addi	zero,zero,96
    1b64:	043a                	c.slli	s0,0xe
    1b66:	0000                	c.unimp
    1b68:	115c                	c.addi4spn	a5,sp,164
    1b6a:	8000                	0x8000
    1b6c:	0010                	0x10
    1b6e:	0000                	c.unimp
    1b70:	4401                	c.li	s0,0
    1b72:	0004                	0x4
    1b74:	5c00                	c.lw	s0,56(s0)
    1b76:	08000013          	addi	zero,zero,128
    1b7a:	116c                	c.addi4spn	a1,sp,172
    1b7c:	8000                	0x8000
    1b7e:	0109                	c.addi	sp,2
    1b80:	025a                	c.slli	tp,0x16
    1b82:	2008                	c.fld	fa0,0(s0)
    1b84:	0000                	c.unimp
    1b86:	0300                	c.addi4spn	s0,sp,384
    1b88:	0424                	c.addi4spn	s1,sp,520
    1b8a:	0000                	c.unimp
    1b8c:	117c                	c.addi4spn	a5,sp,172
    1b8e:	8000                	0x8000
    1b90:	0521                	c.addi	a0,8
    1b92:	0000                	c.unimp
    1b94:	046c                	c.addi4spn	a1,sp,524
    1b96:	0278                	c.addi4spn	a4,sp,268
    1b98:	0000                	c.unimp
    1b9a:	2e01                	c.jal	1eaa <__stack_size-0x1ffe156>
    1b9c:	0004                	0x4
    1b9e:	6a00                	c.flw	fs0,16(a2)
    1ba0:	05000013          	addi	zero,zero,80
    1ba4:	043a                	c.slli	s0,0xe
    1ba6:	0000                	c.unimp
    1ba8:	11dc                	c.addi4spn	a5,sp,228
    1baa:	8000                	0x8000
    1bac:	0000054f          	fnmadd.s	fa0,ft0,ft0,ft0,rne
    1bb0:	0330                	c.addi4spn	a2,sp,392
    1bb2:	4401                	c.li	s0,0
    1bb4:	0004                	0x4
    1bb6:	8c00                	0x8c00
    1bb8:	06000013          	addi	zero,zero,96
    1bbc:	043a                	c.slli	s0,0xe
    1bbe:	0000                	c.unimp
    1bc0:	11fc                	c.addi4spn	a5,sp,236
    1bc2:	8000                	0x8000
    1bc4:	0010                	0x10
    1bc6:	0000                	c.unimp
    1bc8:	4401                	c.li	s0,0
    1bca:	0004                	0x4
    1bcc:	a300                	c.fsd	fs0,0(a4)
    1bce:	00000013          	addi	zero,zero,0
    1bd2:	0000                	c.unimp
    1bd4:	00043a03          	0x43a03
    1bd8:	9800                	0x9800
    1bda:	0011                	c.addi	zero,4
    1bdc:	6b80                	c.flw	fs0,16(a5)
    1bde:	0005                	c.addi	zero,1
    1be0:	6d00                	c.flw	fs0,24(a0)
    1be2:	b814                	c.fsd	fa3,48(s0)
    1be4:	0002                	c.slli64	zero
    1be6:	0100                	c.addi4spn	s0,sp,128
    1be8:	0444                	c.addi4spn	s1,sp,516
    1bea:	0000                	c.unimp
    1bec:	000013af          	0x13af
    1bf0:	3a06                	c.fldsp	fs4,96(sp)
    1bf2:	0004                	0x4
    1bf4:	bc00                	c.fsd	fs0,56(s0)
    1bf6:	0011                	c.addi	zero,4
    1bf8:	1080                	c.addi4spn	s0,sp,96
    1bfa:	0000                	c.unimp
    1bfc:	0100                	c.addi4spn	s0,sp,128
    1bfe:	0444                	c.addi4spn	s1,sp,516
    1c00:	0000                	c.unimp
    1c02:	13ca                	c.slli	t2,0x32
    1c04:	0000                	c.unimp
    1c06:	cc08                	c.sw	a0,24(s0)
    1c08:	0011                	c.addi	zero,4
    1c0a:	0980                	c.addi4spn	s0,sp,208
    1c0c:	5a01                	c.li	s4,-32
    1c0e:	0802                	c.slli64	a6
    1c10:	0020                	c.addi4spn	s0,sp,8
    1c12:	0000                	c.unimp
    1c14:	00043a03          	0x43a03
    1c18:	ec00                	c.fsw	fs0,24(s0)
    1c1a:	0012                	c.slli	zero,0x4
    1c1c:	7e80                	c.flw	fs0,56(a3)
    1c1e:	0005                	c.addi	zero,1
    1c20:	8c00                	0x8c00
    1c22:	f81f 0002 0100      	0x1000002f81f
    1c28:	0444                	c.addi4spn	s1,sp,516
    1c2a:	0000                	c.unimp
    1c2c:	13d8                	c.addi4spn	a4,sp,484
    1c2e:	0000                	c.unimp
    1c30:	3a06                	c.fldsp	fs4,96(sp)
    1c32:	0004                	0x4
    1c34:	9800                	0x9800
    1c36:	10800013          	addi	zero,zero,264
    1c3a:	0000                	c.unimp
    1c3c:	0100                	c.addi4spn	s0,sp,128
    1c3e:	0444                	c.addi4spn	s1,sp,516
    1c40:	0000                	c.unimp
    1c42:	13e4                	c.addi4spn	s1,sp,492
    1c44:	0000                	c.unimp
    1c46:	a808                	c.fsd	fa0,16(s0)
    1c48:	09800013          	addi	zero,zero,152
    1c4c:	5a01                	c.li	s4,-32
    1c4e:	8a02                	c.jr	s4
    1c50:	0000                	c.unimp
    1c52:	0000                	c.unimp
    1c54:	00043a03          	0x43a03
    1c58:	1400                	c.addi4spn	s0,sp,544
    1c5a:	91800013          	addi	zero,zero,-1768
    1c5e:	0005                	c.addi	zero,1
    1c60:	8d00                	0x8d00
    1c62:	2e06                	c.fldsp	ft8,64(sp)
    1c64:	01000003          	lb	zero,16(zero) # 10 <__stack_size-0x1fffff0>
    1c68:	0444                	c.addi4spn	s1,sp,516
    1c6a:	0000                	c.unimp
    1c6c:	13f0                	c.addi4spn	a2,sp,492
    1c6e:	0000                	c.unimp
    1c70:	3a05                	c.jal	15a0 <__stack_size-0x1ffea60>
    1c72:	0004                	0x4
    1c74:	3400                	c.fld	fs0,40(s0)
    1c76:	b6800013          	addi	zero,zero,-1176
    1c7a:	0005                	c.addi	zero,1
    1c7c:	1a00                	c.addi4spn	s0,sp,304
    1c7e:	0106                	c.slli	sp,0x1
    1c80:	0444                	c.addi4spn	s1,sp,516
    1c82:	0000                	c.unimp
    1c84:	00001407          	0x1407
    1c88:	0000                	c.unimp
    1c8a:	00043a03          	0x43a03
    1c8e:	2800                	c.fld	fs0,16(s0)
    1c90:	c9800013          	addi	zero,zero,-872
    1c94:	0005                	c.addi	zero,1
    1c96:	8e00                	0x8e00
    1c98:	00036e13          	ori	t3,t1,0
    1c9c:	0100                	c.addi4spn	s0,sp,128
    1c9e:	0444                	c.addi4spn	s1,sp,516
    1ca0:	0000                	c.unimp
    1ca2:	00001413          	slli	s0,zero,0x0
    1ca6:	3a06                	c.fldsp	fs4,96(sp)
    1ca8:	0004                	0x4
    1caa:	7800                	c.flw	fs0,48(s0)
    1cac:	14800013          	addi	zero,zero,328
    1cb0:	0000                	c.unimp
    1cb2:	0100                	c.addi4spn	s0,sp,128
    1cb4:	0444                	c.addi4spn	s1,sp,516
    1cb6:	0000                	c.unimp
    1cb8:	142e                	c.slli	s0,0x2b
    1cba:	0000                	c.unimp
    1cbc:	8808                	0x8808
    1cbe:	09800013          	addi	zero,zero,152
    1cc2:	5a01                	c.li	s4,-32
    1cc4:	0802                	c.slli64	a6
    1cc6:	0020                	c.addi4spn	s0,sp,8
    1cc8:	0000                	c.unimp
    1cca:	600e                	c.flwsp	ft0,192(sp)
    1ccc:	0012                	c.slli	zero,0x4
    1cce:	d180                	c.sw	s0,32(a1)
    1cd0:	0004                	0x4
    1cd2:	0e00                	c.addi4spn	s0,sp,784
    1cd4:	1270                	c.addi4spn	a2,sp,300
    1cd6:	8000                	0x8000
    1cd8:	04da                	c.slli	s1,0x16
    1cda:	0000                	c.unimp
    1cdc:	0000                	c.unimp
    1cde:	0b00                	c.addi4spn	s0,sp,400
    1ce0:	0091                	c.addi	ra,4
    1ce2:	0000                	c.unimp
    1ce4:	741e                	c.flwsp	fs0,228(sp)
    1ce6:	0005                	c.addi	zero,1
    1ce8:	0100                	c.addi4spn	s0,sp,128
    1cea:	0646                	c.slli	a2,0x11
    1cec:	0601                	c.addi	a2,0
    1cee:	0004                	0x4
    1cf0:	0a00                	c.addi4spn	s0,sp,272
    1cf2:	6d66                	c.flwsp	fs10,88(sp)
    1cf4:	0074                	c.addi4spn	a3,sp,12
    1cf6:	03830e47          	fmsub.d	ft8,ft6,fs8,ft0,rne
    1cfa:	0000                	c.unimp
    1cfc:	610a                	c.flwsp	ft2,128(sp)
    1cfe:	7072                	c.flwsp	ft0,60(sp)
    1d00:	4800                	c.lw	s0,16(s0)
    1d02:	5a0a                	c.lwsp	s4,160(sp)
    1d04:	0000                	c.unimp
    1d06:	0200                	c.addi4spn	s0,sp,256
    1d08:	0072                	c.slli	zero,0x1c
    1d0a:	04060f4b          	0x4060f4b
    1d0e:	0000                	c.unimp
    1d10:	6902                	c.flwsp	fs2,0(sp)
    1d12:	4b00                	c.lw	s0,16(a4)
    1d14:	0612                	c.slli	a2,0x4
    1d16:	0004                	0x4
    1d18:	0200                	c.addi4spn	s0,sp,256
    1d1a:	006a                	c.slli	zero,0x1a
    1d1c:	0406154b          	0x406154b
    1d20:	0000                	c.unimp
    1d22:	7702                	c.flwsp	fa4,32(sp)
    1d24:	4b00                	c.lw	s0,16(a4)
    1d26:	0618                	c.addi4spn	a4,sp,768
    1d28:	0004                	0x4
    1d2a:	0200                	c.addi4spn	s0,sp,256
    1d2c:	0066                	c.slli	zero,0x19
    1d2e:	04061b4b          	0x4061b4b
    1d32:	0000                	c.unimp
    1d34:	7602                	c.flwsp	fa2,32(sp)
    1d36:	4c00                	c.lw	s0,24(s0)
    1d38:	0d10                	c.addi4spn	a2,sp,656
    1d3a:	0004                	0x4
    1d3c:	0200                	c.addi4spn	s0,sp,256
    1d3e:	074d0073          	0x74d0073
    1d42:	0414                	c.addi4spn	a3,sp,512
    1d44:	0000                	c.unimp
    1d46:	6302                	c.flwsp	ft6,0(sp)
    1d48:	4d00                	c.lw	s0,24(a0)
    1d4a:	8a0e                	c.mv	s4,gp
    1d4c:	0000                	c.unimp
    1d4e:	0200                	c.addi4spn	s0,sp,256
    1d50:	0064                	c.addi4spn	s1,sp,12
    1d52:	114d                	c.addi	sp,-13
    1d54:	008a                	c.slli	ra,0x2
    1d56:	0000                	c.unimp
    1d58:	7002                	c.flwsp	ft0,32(sp)
    1d5a:	4d00                	c.lw	s0,24(a0)
    1d5c:	8515                	c.srai	a0,0x5
    1d5e:	0000                	c.unimp
    1d60:	0000                	c.unimp
    1d62:	e3070407          	0xe3070407
    1d66:	0004                	0x4
    1d68:	0700                	c.addi4spn	s0,sp,896
    1d6a:	0704                	c.addi4spn	s1,sp,896
    1d6c:	04de                	c.slli	s1,0x17
    1d6e:	0000                	c.unimp
    1d70:	8a1f 0000 2400      	0x240000008a1f
    1d76:	0004                	0x4
    1d78:	2000                	c.fld	fs0,0(s0)
    1d7a:	0406                	c.slli	s0,0x1
    1d7c:	0000                	c.unimp
    1d7e:	8c0f000f          	0x8c0f000f
    1d82:	0005                	c.addi	zero,1
    1d84:	2b00                	c.fld	fs0,16(a4)
    1d86:	043a                	c.slli	s0,0xe
    1d88:	0000                	c.unimp
    1d8a:	730a                	c.flwsp	ft6,160(sp)
    1d8c:	7274                	c.flw	fa3,100(a2)
    1d8e:	2c00                	c.fld	fs0,24(s0)
    1d90:	830e                	c.mv	t1,gp
    1d92:	00000003          	lb	zero,0(zero) # 0 <__stack_size-0x2000000>
    1d96:	0005920f          	0x5920f
    1d9a:	1a00                	c.addi4spn	s0,sp,304
    1d9c:	044e                	c.slli	s0,0x13
    1d9e:	0000                	c.unimp
    1da0:	630a                	c.flwsp	ft6,128(sp)
    1da2:	1a00                	c.addi4spn	s0,sp,304
    1da4:	8a12                	c.mv	s4,tp
    1da6:	0000                	c.unimp
    1da8:	0000                	c.unimp
    1daa:	3a21                	c.jal	16c2 <__stack_size-0x1ffe93e>
    1dac:	0004                	0x4
    1dae:	1c00                	c.addi4spn	s0,sp,560
    1db0:	000e                	c.slli	zero,0x3
    1db2:	3080                	c.fld	fs0,32(s1)
    1db4:	0000                	c.unimp
    1db6:	0100                	c.addi4spn	s0,sp,128
    1db8:	829c                	0x829c
    1dba:	0004                	0x4
    1dbc:	0100                	c.addi4spn	s0,sp,128
    1dbe:	0444                	c.addi4spn	s1,sp,516
    1dc0:	0000                	c.unimp
    1dc2:	143c                	c.addi4spn	a5,sp,552
    1dc4:	0000                	c.unimp
    1dc6:	3a06                	c.fldsp	fs4,96(sp)
    1dc8:	0004                	0x4
    1dca:	3800                	c.fld	fs0,48(s0)
    1dcc:	000e                	c.slli	zero,0x3
    1dce:	1080                	c.addi4spn	s0,sp,96
    1dd0:	0000                	c.unimp
    1dd2:	0100                	c.addi4spn	s0,sp,128
    1dd4:	0444                	c.addi4spn	s1,sp,516
    1dd6:	0000                	c.unimp
    1dd8:	1461                	c.addi	s0,-8
    1dda:	0000                	c.unimp
    1ddc:	0000                	c.unimp
    1dde:	2422                	c.fldsp	fs0,8(sp)
    1de0:	0004                	0x4
    1de2:	4c00                	c.lw	s0,24(s0)
    1de4:	000e                	c.slli	zero,0x3
    1de6:	7880                	c.flw	fs0,48(s1)
    1de8:	0000                	c.unimp
    1dea:	0100                	c.addi4spn	s0,sp,128
    1dec:	d19c                	c.sw	a5,32(a1)
    1dee:	0004                	0x4
    1df0:	0100                	c.addi4spn	s0,sp,128
    1df2:	042e                	c.slli	s0,0xb
    1df4:	0000                	c.unimp
    1df6:	1478                	c.addi4spn	a4,sp,556
    1df8:	0000                	c.unimp
    1dfa:	3a05                	c.jal	172a <__stack_size-0x1ffe8d6>
    1dfc:	0004                	0x4
    1dfe:	7000                	c.flw	fs0,32(s0)
    1e00:	000e                	c.slli	zero,0x3
    1e02:	1c80                	c.addi4spn	s0,sp,624
    1e04:	0004                	0x4
    1e06:	3000                	c.fld	fs0,32(s0)
    1e08:	04440103          	lb	sp,68(s0) # ffffb044 <_sp+0x77ffb044>
    1e0c:	0000                	c.unimp
    1e0e:	0000148f          	0x148f
    1e12:	3a05                	c.jal	1742 <__stack_size-0x1ffe8be>
    1e14:	0004                	0x4
    1e16:	7000                	c.flw	fs0,32(s0)
    1e18:	000e                	c.slli	zero,0x3
    1e1a:	3880                	c.fld	fs0,48(s1)
    1e1c:	0004                	0x4
    1e1e:	1a00                	c.addi4spn	s0,sp,304
    1e20:	0106                	c.slli	sp,0x1
    1e22:	0444                	c.addi4spn	s1,sp,516
    1e24:	0000                	c.unimp
    1e26:	14a6                	c.slli	s1,0x29
    1e28:	0000                	c.unimp
    1e2a:	0000                	c.unimp
    1e2c:	1000                	c.addi4spn	s0,sp,32
    1e2e:	00000563          	beq	zero,zero,1e38 <__stack_size-0x1ffe1c8>
    1e32:	00000563          	beq	zero,zero,1e3c <__stack_size-0x1ffe1c4>
    1e36:	5910                	c.lw	a2,48(a0)
    1e38:	0005                	c.addi	zero,1
    1e3a:	5900                	c.lw	s0,48(a0)
    1e3c:	0005                	c.addi	zero,1
    1e3e:	0000                	c.unimp
    1e40:	0021                	c.addi	zero,8
    1e42:	0000                	c.unimp
    1e44:	0005                	c.addi	zero,1
    1e46:	0401                	c.addi	s0,0
    1e48:	077c                	c.addi4spn	a5,sp,908
    1e4a:	0000                	c.unimp
    1e4c:	2901                	c.jal	225c <__stack_size-0x1ffdda4>
    1e4e:	0029                	c.addi	zero,10
    1e50:	fc00                	c.fsw	fs0,56(s0)
    1e52:	0014                	0x14
    1e54:	b480                	c.fsd	fs0,40(s1)
    1e56:	9801                	c.andi	s0,-32
    1e58:	0005                	c.addi	zero,1
    1e5a:	9e00                	0x9e00
    1e5c:	0005                	c.addi	zero,1
    1e5e:	4500                	c.lw	s0,8(a0)
    1e60:	0000                	c.unimp
    1e62:	0100                	c.addi4spn	s0,sp,128
    1e64:	80              	Address 0x0000000000001e64 is out of bounds.


Disassembly of section .debug_abbrev:

00000000 <.debug_abbrev>:
   0:	1101                	c.addi	sp,-32
   2:	1000                	c.addi4spn	s0,sp,32
   4:	12011117          	auipc	sp,0x12011
   8:	1b0e030f          	0x1b0e030f
   c:	250e                	c.fldsp	fa0,192(sp)
   e:	130e                	c.slli	t1,0x23
  10:	0005                	c.addi	zero,1
  12:	0000                	c.unimp
  14:	4901                	c.li	s2,0
  16:	0200                	c.addi4spn	s0,sp,256
  18:	7e18                	c.flw	fa4,56(a2)
  1a:	0018                	0x18
  1c:	0200                	c.addi4spn	s0,sp,256
  1e:	0005                	c.addi	zero,1
  20:	1331                	c.addi	t1,-20
  22:	1702                	c.slli	a4,0x20
  24:	0000                	c.unimp
  26:	7d014803          	lbu	a6,2000(sp) # 120117d4 <__stack_size+0x100117d4>
  2a:	7f01                	c.lui	t5,0xfffe0
  2c:	00130113          	addi	sp,t1,1
  30:	0400                	c.addi4spn	s0,sp,512
  32:	011d                	c.addi	sp,7
  34:	1331                	c.addi	t1,-20
  36:	0152                	c.slli	sp,0x14
  38:	1755                	c.addi	a4,-11
  3a:	2158                	c.fld	fa4,128(a0)
  3c:	5901                	c.li	s2,-32
  3e:	5705                	c.li	a4,-31
  40:	0013010b          	0x13010b
  44:	0500                	c.addi4spn	s0,sp,640
  46:	0034                	c.addi4spn	a3,sp,8
  48:	1331                	c.addi	t1,-20
  4a:	1702                	c.slli	a4,0x20
  4c:	0000                	c.unimp
  4e:	0506                	c.slli	a0,0x1
  50:	0300                	c.addi4spn	s0,sp,384
  52:	3a0e                	c.fldsp	fs4,224(sp)
  54:	0121                	c.addi	sp,8
  56:	0b39053b          	0xb39053b
  5a:	1349                	c.addi	t1,-14
  5c:	0000                	c.unimp
  5e:	03003407          	fld	fs0,48(zero) # 30 <__stack_size-0x1ffffd0>
  62:	3a0e                	c.fldsp	fs4,224(sp)
  64:	0121                	c.addi	sp,8
  66:	0b39053b          	0xb39053b
  6a:	1349                	c.addi	t1,-14
  6c:	1802193f 0b080000 	0xb0800001802193f
  74:	5501                	c.li	a0,-32
  76:	09000017          	auipc	zero,0x9000
  7a:	0034                	c.addi4spn	a3,sp,8
  7c:	213a0e03          	lb	t3,531(s4)
  80:	3b01                	c.jal	fffffd90 <_sp+0x77fffd90>
  82:	3905                	c.jal	fffffcb2 <_sp+0x77fffcb2>
  84:	0013490b          	0x13490b
  88:	0a00                	c.addi4spn	s0,sp,272
  8a:	000d                	c.addi	zero,3
  8c:	213a0e03          	lb	t3,531(s4)
  90:	3b01                	c.jal	fffffda0 <_sp+0x77fffda0>
  92:	3905                	c.jal	fffffcc2 <_sp+0x77fffcc2>
  94:	3813490b          	0x3813490b
  98:	0b00000b          	0xb00000b
  9c:	012e                	c.slli	sp,0xb
  9e:	1331                	c.addi	t1,-20
  a0:	0111                	c.addi	sp,4
  a2:	0612                	c.slli	a2,0x4
  a4:	1840                	c.addi4spn	s0,sp,52
  a6:	197a                	c.slli	s2,0x3e
  a8:	1301                	c.addi	t1,-32
  aa:	0000                	c.unimp
  ac:	160c                	c.addi4spn	a1,sp,800
  ae:	0300                	c.addi4spn	s0,sp,384
  b0:	3a0e                	c.fldsp	fs4,224(sp)
  b2:	0121                	c.addi	sp,8
  b4:	0b39053b          	0xb39053b
  b8:	1349                	c.addi	t1,-14
  ba:	0000                	c.unimp
  bc:	0f0d                	c.addi	t5,3
  be:	0b00                	c.addi4spn	s0,sp,400
  c0:	0421                	c.addi	s0,8
  c2:	1349                	c.addi	t1,-14
  c4:	0000                	c.unimp
  c6:	180e                	c.slli	a6,0x23
  c8:	0000                	c.unimp
  ca:	0f00                	c.addi4spn	s0,sp,912
  cc:	0005                	c.addi	zero,1
  ce:	1331                	c.addi	t1,-20
  d0:	1802                	c.slli	a6,0x20
  d2:	0000                	c.unimp
  d4:	3410                	c.fld	fa2,40(s0)
  d6:	0300                	c.addi4spn	s0,sp,384
  d8:	3a0e                	c.fldsp	fs4,224(sp)
  da:	0121                	c.addi	sp,8
  dc:	0b39053b          	0xb39053b
  e0:	1349                	c.addi	t1,-14
  e2:	1702                	c.slli	a4,0x20
  e4:	0000                	c.unimp
  e6:	4811                	c.li	a6,4
  e8:	7d01                	c.lui	s10,0xfffe0
  ea:	7f01                	c.lui	t5,0xfffe0
  ec:	12000013          	addi	zero,zero,288
  f0:	0048                	c.addi4spn	a0,sp,4
  f2:	017d                	c.addi	sp,31
  f4:	137f                	0x137f
  f6:	0000                	c.unimp
  f8:	0b002413          	slti	s0,zero,176
  fc:	030b3e0b          	0x30b3e0b
 100:	000e                	c.slli	zero,0x3
 102:	1400                	c.addi4spn	s0,sp,544
 104:	0028                	c.addi4spn	a0,sp,8
 106:	0b1c0e03          	lb	t3,177(s8) # 180b1 <__stack_size-0x1fe7f4f>
 10a:	0000                	c.unimp
 10c:	2e15                	c.jal	440 <__stack_size-0x1fffbc0>
 10e:	3f01                	c.jal	1e <__stack_size-0x1ffffe2>
 110:	0319                	c.addi	t1,6
 112:	3a0e                	c.fldsp	fs4,224(sp)
 114:	0321                	c.addi	t1,8
 116:	4900213b          	0x4900213b
 11a:	01193c13          	sltiu	s8,s2,17
 11e:	16000013          	addi	zero,zero,352
 122:	0101                	c.addi	sp,0
 124:	1349                	c.addi	t1,-14
 126:	1301                	c.addi	t1,-32
 128:	0000                	c.unimp
 12a:	49002117          	auipc	sp,0x49002
 12e:	000b2f13          	slti	t5,s6,0
 132:	1800                	c.addi4spn	s0,sp,48
 134:	0034                	c.addi4spn	a3,sp,8
 136:	213a0e03          	lb	t3,531(s4)
 13a:	3b01                	c.jal	fffffe4a <_sp+0x77fffe4a>
 13c:	3905                	c.jal	fffffd6c <_sp+0x77fffd6c>
 13e:	0213490b          	0x213490b
 142:	0018                	0x18
 144:	1900                	c.addi4spn	s0,sp,176
 146:	0111010b          	0x111010b
 14a:	0612                	c.slli	a2,0x4
 14c:	1301                	c.addi	t1,-32
 14e:	0000                	c.unimp
 150:	341a                	c.fldsp	fs0,416(sp)
 152:	3100                	c.fld	fs0,32(a0)
 154:	000b1c13          	slli	s8,s6,0x0
 158:	1b00                	c.addi4spn	s0,sp,432
 15a:	012e                	c.slli	sp,0xb
 15c:	0e03193f 3b01213a 	0x3b01213a0e03193f
 164:	3905                	c.jal	fffffd94 <_sp+0x77fffd94>
 166:	0621                	c.addi	a2,8
 168:	21201927          	0x21201927
 16c:	0101                	c.addi	sp,0
 16e:	1c000013          	addi	zero,zero,448
 172:	0b0b0113          	addi	sp,s6,176 # 90b0 <__stack_size-0x1ff6f50>
 176:	213a                	c.fldsp	ft2,392(sp)
 178:	3b01                	c.jal	fffffe88 <_sp+0x77fffe88>
 17a:	3905                	c.jal	fffffdaa <_sp+0x77fffdaa>
 17c:	0521                	c.addi	a0,8
 17e:	1301                	c.addi	t1,-32
 180:	0000                	c.unimp
 182:	0d1d                	c.addi	s10,7
 184:	0300                	c.addi4spn	s0,sp,384
 186:	3a0e                	c.fldsp	fs4,224(sp)
 188:	0121                	c.addi	sp,8
 18a:	2139053b          	0x2139053b
 18e:	00134907          	flq	fs2,1(t1)
 192:	1e00                	c.addi4spn	s0,sp,816
 194:	0005                	c.addi	zero,1
 196:	1349                	c.addi	t1,-14
 198:	0000                	c.unimp
 19a:	2e1f 3f01 0319      	0x3193f012e1f
 1a0:	3a0e                	c.fldsp	fs4,224(sp)
 1a2:	0121                	c.addi	sp,8
 1a4:	2139053b          	0x2139053b
 1a8:	2709                	c.jal	8aa <__stack_size-0x1fff756>
 1aa:	4919                	c.li	s2,6
 1ac:	01212013          	slti	zero,sp,18
 1b0:	1301                	c.addi	t1,-32
 1b2:	0000                	c.unimp
 1b4:	2e20                	c.fld	fs0,88(a2)
 1b6:	3f01                	c.jal	c6 <__stack_size-0x1ffff3a>
 1b8:	0319                	c.addi	t1,6
 1ba:	3a0e                	c.fldsp	fs4,224(sp)
 1bc:	0121                	c.addi	sp,8
 1be:	05d7213b          	0x5d7213b
 1c2:	2139                	c.jal	5d0 <__stack_size-0x1fffa30>
 1c4:	3c134903          	lbu	s2,961(t1)
 1c8:	0119                	c.addi	sp,6
 1ca:	21000013          	addi	zero,zero,528
 1ce:	011d                	c.addi	sp,7
 1d0:	1331                	c.addi	t1,-20
 1d2:	0111                	c.addi	sp,4
 1d4:	0612                	c.slli	a2,0x4
 1d6:	2158                	c.fld	fa4,128(a0)
 1d8:	5901                	c.li	s2,-32
 1da:	5705                	c.li	a4,-31
 1dc:	0013010b          	0x13010b
 1e0:	2200                	c.fld	fs0,0(a2)
 1e2:	0005                	c.addi	zero,1
 1e4:	1331                	c.addi	t1,-20
 1e6:	0000                	c.unimp
 1e8:	3f012e23          	sw	a6,1020(sp) # 49002526 <__stack_size+0x47002526>
 1ec:	0319                	c.addi	t1,6
 1ee:	3a0e                	c.fldsp	fs4,224(sp)
 1f0:	0121                	c.addi	sp,8
 1f2:	2139053b          	0x2139053b
 1f6:	2006                	c.fldsp	ft0,64(sp)
 1f8:	0121                	c.addi	sp,8
 1fa:	1301                	c.addi	t1,-32
 1fc:	0000                	c.unimp
 1fe:	1d24                	c.addi4spn	s1,sp,696
 200:	3101                	c.jal	fffffe00 <_sp+0x77fffe00>
 202:	55015213          	0x55015213
 206:	01215817          	auipc	a6,0x1215
 20a:	2159                	c.jal	690 <__stack_size-0x1fff970>
 20c:	048c                	c.addi4spn	a1,sp,576
 20e:	00032157          	0x32157
 212:	2500                	c.fld	fs0,8(a0)
 214:	0005                	c.addi	zero,1
 216:	1331                	c.addi	t1,-20
 218:	0b1c                	c.addi4spn	a5,sp,400
 21a:	0000                	c.unimp
 21c:	3426                	c.fldsp	fs0,104(sp)
 21e:	3100                	c.fld	fs0,32(a0)
 220:	00180213          	addi	tp,a6,1 # 1215207 <__stack_size-0xdeadf9>
 224:	2700                	c.fld	fs0,8(a4)
 226:	002e                	c.slli	zero,0xb
 228:	193c193f 0e030e6e 	0xe030e6e193c193f
 230:	213a                	c.fldsp	ft2,392(sp)
 232:	00213b03          	0x213b03
 236:	0000                	c.unimp
 238:	1128                	c.addi4spn	a0,sp,168
 23a:	2501                	c.jal	83a <__stack_size-0x1fff7c6>
 23c:	130e                	c.slli	t1,0x23
 23e:	1b1f030b          	0x1b1f030b
 242:	551f 1117 1001      	0x10011117551f
 248:	29000017          	auipc	zero,0x29000
 24c:	0104                	c.addi4spn	s1,sp,128
 24e:	0b3e                	c.slli	s6,0xf
 250:	13490b0b          	0x13490b0b
 254:	0b3a                	c.slli	s6,0xe
 256:	0b39053b          	0xb39053b
 25a:	1301                	c.addi	t1,-32
 25c:	0000                	c.unimp
 25e:	242a                	c.fldsp	fs0,136(sp)
 260:	0b00                	c.addi4spn	s0,sp,400
 262:	030b3e0b          	0x30b3e0b
 266:	0008                	0x8
 268:	2b00                	c.fld	fs0,16(a4)
 26a:	0026                	c.slli	zero,0x9
 26c:	1349                	c.addi	t1,-14
 26e:	0000                	c.unimp
 270:	172c                	c.addi4spn	a1,sp,936
 272:	0b01                	c.addi	s6,0
 274:	3b0b3a0b          	0x3b0b3a0b
 278:	3905                	c.jal	fffffea8 <_sp+0x77fffea8>
 27a:	0013010b          	0x13010b
 27e:	2d00                	c.fld	fs0,24(a0)
 280:	0e030113          	addi	sp,t1,224
 284:	0b3a0b0b          	0xb3a0b0b
 288:	0b39053b          	0xb39053b
 28c:	1301                	c.addi	t1,-32
 28e:	0000                	c.unimp
 290:	342e                	c.fldsp	fs0,232(sp)
 292:	0300                	c.addi4spn	s0,sp,384
 294:	3a08                	c.fld	fa0,48(a2)
 296:	39053b0b          	0x39053b0b
 29a:	3f13490b          	0x3f13490b
 29e:	0219                	c.addi	tp,6
 2a0:	0018                	0x18
 2a2:	2f00                	c.fld	fs0,24(a4)
 2a4:	0021                	c.addi	zero,8
 2a6:	1349                	c.addi	t1,-14
 2a8:	0000052f          	0x52f
 2ac:	2e30                	c.fld	fa2,88(a2)
 2ae:	3f01                	c.jal	1be <__stack_size-0x1fffe42>
 2b0:	0319                	c.addi	t1,6
 2b2:	3a0e                	c.fldsp	fs4,224(sp)
 2b4:	390b3b0b          	0x390b3b0b
 2b8:	3c19270b          	0x3c19270b
 2bc:	0119                	c.addi	sp,6
 2be:	31000013          	addi	zero,zero,784
 2c2:	012e                	c.slli	sp,0xb
 2c4:	0e03193f 053b0b3a 	0x53b0b3a0e03193f
 2cc:	0b39                	c.addi	s6,14
 2ce:	1349                	c.addi	t1,-14
 2d0:	0111                	c.addi	sp,4
 2d2:	0612                	c.slli	a2,0x4
 2d4:	1840                	c.addi4spn	s0,sp,52
 2d6:	197a                	c.slli	s2,0x3e
 2d8:	1301                	c.addi	t1,-32
 2da:	0000                	c.unimp
 2dc:	3432                	c.fldsp	fs0,296(sp)
 2de:	0300                	c.addi4spn	s0,sp,384
 2e0:	3a0e                	c.fldsp	fs4,224(sp)
 2e2:	39053b0b          	0x39053b0b
 2e6:	1c13490b          	0x1c13490b
 2ea:	0005                	c.addi	zero,1
 2ec:	3300                	c.fld	fs0,32(a4)
 2ee:	012e                	c.slli	sp,0xb
 2f0:	0e03193f 0b3b0b3a 	0xb3b0b3a0e03193f
 2f8:	13491927          	0x13491927
 2fc:	193c                	c.addi4spn	a5,sp,184
 2fe:	1301                	c.addi	t1,-32
 300:	0000                	c.unimp
 302:	1d34                	c.addi4spn	a3,sp,696
 304:	3100                	c.fld	fs0,32(a0)
 306:	12011113          	0x12011113
 30a:	5806                	c.lwsp	a6,96(sp)
 30c:	5705590b          	0x5705590b
 310:	3500000b          	0x3500000b
 314:	1331010b          	0x1331010b
 318:	1755                	c.addi	a4,-11
 31a:	0000                	c.unimp
 31c:	0b36                	c.slli	s6,0xd
 31e:	0001                	c.addi	zero,0
 320:	3700                	c.fld	fs0,40(a4)
 322:	012e                	c.slli	sp,0xb
 324:	0e03193f 053b0b3a 	0x53b0b3a0e03193f
 32c:	0b39                	c.addi	s6,14
 32e:	1349                	c.addi	t1,-14
 330:	0b20                	c.addi4spn	s0,sp,408
 332:	1301                	c.addi	t1,-32
 334:	0000                	c.unimp
 336:	2e38                	c.fld	fa4,88(a2)
 338:	3f00                	c.fld	fs0,56(a4)
 33a:	0319                	c.addi	t1,6
 33c:	3a0e                	c.fldsp	fs4,224(sp)
 33e:	39053b0b          	0x39053b0b
 342:	000b200b          	0xb200b
 346:	3900                	c.fld	fs0,48(a0)
 348:	012e                	c.slli	sp,0xb
 34a:	0e03193f 053b0b3a 	0x53b0b3a0e03193f
 352:	0b39                	c.addi	s6,14
 354:	0111                	c.addi	sp,4
 356:	0612                	c.slli	a2,0x4
 358:	1840                	c.addi4spn	s0,sp,52
 35a:	197a                	c.slli	s2,0x3e
 35c:	1301                	c.addi	t1,-32
 35e:	0000                	c.unimp
 360:	053a                	c.slli	a0,0xe
 362:	0300                	c.addi4spn	s0,sp,384
 364:	3a0e                	c.fldsp	fs4,224(sp)
 366:	39053b0b          	0x39053b0b
 36a:	0213490b          	0x213490b
 36e:	3b000017          	auipc	zero,0x3b000
 372:	012e                	c.slli	sp,0xb
 374:	0b3a0e03          	lb	t3,179(s4)
 378:	0b39053b          	0xb39053b
 37c:	13491927          	0x13491927
 380:	0b20                	c.addi4spn	s0,sp,408
 382:	1301                	c.addi	t1,-32
 384:	0000                	c.unimp
 386:	343c                	c.fld	fa5,104(s0)
 388:	0300                	c.addi4spn	s0,sp,384
 38a:	3a08                	c.fld	fa0,48(a2)
 38c:	39053b0b          	0x39053b0b
 390:	0013490b          	0x13490b
 394:	3d00                	c.fld	fs0,56(a0)
 396:	002e                	c.slli	zero,0xb
 398:	1331                	c.addi	t1,-20
 39a:	0111                	c.addi	sp,4
 39c:	0612                	c.slli	a2,0x4
 39e:	1840                	c.addi4spn	s0,sp,52
 3a0:	197a                	c.slli	s2,0x3e
 3a2:	0000                	c.unimp
 3a4:	1d3e                	c.slli	s10,0x2f
 3a6:	3101                	c.jal	ffffffa6 <_sp+0x77ffffa6>
 3a8:	12011113          	0x12011113
 3ac:	5806                	c.lwsp	a6,96(sp)
 3ae:	5705590b          	0x5705590b
 3b2:	3f00000b          	0x3f00000b
 3b6:	1331000b          	0x1331000b
 3ba:	0111                	c.addi	sp,4
 3bc:	0612                	c.slli	a2,0x4
 3be:	0000                	c.unimp
 3c0:	2e40                	c.fld	fs0,152(a2)
 3c2:	3f00                	c.fld	fs0,56(a4)
 3c4:	3c19                	c.jal	fffffdda <_sp+0x77fffdda>
 3c6:	6e19                	c.lui	t3,0x6
 3c8:	030e                	c.slli	t1,0x3
 3ca:	000e                	c.slli	zero,0x3
 3cc:	0000                	c.unimp
 3ce:	0501                	c.addi	a0,0
 3d0:	3100                	c.fld	fs0,32(a0)
 3d2:	00170213          	addi	tp,a4,1 # fffe9001 <_sp+0x77fe9001>
 3d6:	0200                	c.addi4spn	s0,sp,256
 3d8:	0024                	c.addi4spn	s1,sp,8
 3da:	0b3e0b0b          	0xb3e0b0b
 3de:	00000e03          	lb	t3,0(zero) # 0 <__stack_size-0x2000000>
 3e2:	31003403          	0x31003403
 3e6:	00170213          	addi	tp,a4,1
 3ea:	0400                	c.addi4spn	s0,sp,512
 3ec:	011d                	c.addi	sp,7
 3ee:	1331                	c.addi	t1,-20
 3f0:	0152                	c.slli	sp,0x14
 3f2:	1755                	c.addi	a4,-11
 3f4:	2158                	c.fld	fa4,128(a0)
 3f6:	5901                	c.li	s2,-32
 3f8:	000b570b          	0xb570b
 3fc:	0500                	c.addi4spn	s0,sp,640
 3fe:	011d                	c.addi	sp,7
 400:	1331                	c.addi	t1,-20
 402:	0111                	c.addi	sp,4
 404:	0612                	c.slli	a2,0x4
 406:	2158                	c.fld	fa4,128(a0)
 408:	5901                	c.li	s2,-32
 40a:	010b570b          	0x10b570b
 40e:	06000013          	addi	zero,zero,96
 412:	0016                	c.slli	zero,0x5
 414:	0b3a0e03          	lb	t3,179(s4)
 418:	0b390b3b          	0xb390b3b
 41c:	1349                	c.addi	t1,-14
 41e:	0000                	c.unimp
 420:	03003407          	fld	fs0,48(zero) # 30 <__stack_size-0x1ffffd0>
 424:	3a0e                	c.fldsp	fs4,224(sp)
 426:	0121                	c.addi	sp,8
 428:	0b390b3b          	0xb390b3b
 42c:	1349                	c.addi	t1,-14
 42e:	0000                	c.unimp
 430:	1d08                	c.addi4spn	a0,sp,688
 432:	3101                	c.jal	32 <__stack_size-0x1ffffce>
 434:	12011113          	0x12011113
 438:	5806                	c.lwsp	a6,96(sp)
 43a:	0121                	c.addi	sp,8
 43c:	0b59                	c.addi	s6,22
 43e:	00000b57          	0xb57
 442:	3409                	c.jal	fffffe44 <_sp+0x77fffe44>
 444:	3100                	c.fld	fs0,32(a0)
 446:	0a000013          	addi	zero,zero,160
 44a:	0005                	c.addi	zero,1
 44c:	0b3a0803          	lb	a6,179(s4)
 450:	0b390b3b          	0xb390b3b
 454:	1349                	c.addi	t1,-14
 456:	0000                	c.unimp
 458:	0b000f0b          	0xb000f0b
 45c:	0421                	c.addi	s0,8
 45e:	1349                	c.addi	t1,-14
 460:	0000                	c.unimp
 462:	340c                	c.fld	fa1,40(s0)
 464:	0300                	c.addi4spn	s0,sp,384
 466:	3a0e                	c.fldsp	fs4,224(sp)
 468:	0121                	c.addi	sp,8
 46a:	0b390b3b          	0xb390b3b
 46e:	1349                	c.addi	t1,-14
 470:	1802                	c.slli	a6,0x20
 472:	0000                	c.unimp
 474:	2e0d                	c.jal	7a6 <__stack_size-0x1fff85a>
 476:	0301                	c.addi	t1,0
 478:	3a0e                	c.fldsp	fs4,224(sp)
 47a:	390b3b0b          	0x390b3b0b
 47e:	4919270b          	0x4919270b
 482:	010b2013          	slti	zero,s6,16
 486:	0e000013          	addi	zero,zero,224
 48a:	0034                	c.addi4spn	a3,sp,8
 48c:	0b3a0803          	lb	a6,179(s4)
 490:	0b390b3b          	0xb390b3b
 494:	1349                	c.addi	t1,-14
 496:	0000                	c.unimp
 498:	0300050f          	0x300050f
 49c:	3a0e                	c.fldsp	fs4,224(sp)
 49e:	0221                	c.addi	tp,8
 4a0:	0b390b3b          	0xb390b3b
 4a4:	1349                	c.addi	t1,-14
 4a6:	0000                	c.unimp
 4a8:	1110                	c.addi4spn	a2,sp,160
 4aa:	2501                	c.jal	aaa <__stack_size-0x1fff556>
 4ac:	130e                	c.slli	t1,0x23
 4ae:	1b1f030b          	0x1b1f030b
 4b2:	111f 1201 1006      	0x10061201111f
 4b8:	11000017          	auipc	zero,0x11000
 4bc:	0024                	c.addi4spn	s1,sp,8
 4be:	0b3e0b0b          	0xb3e0b0b
 4c2:	00000803          	lb	a6,0(zero) # 0 <__stack_size-0x2000000>
 4c6:	1512                	c.slli	a0,0x24
 4c8:	2701                	c.jal	bc8 <__stack_size-0x1fff438>
 4ca:	0119                	c.addi	sp,6
 4cc:	13000013          	addi	zero,zero,304
 4d0:	0005                	c.addi	zero,1
 4d2:	1349                	c.addi	t1,-14
 4d4:	0000                	c.unimp
 4d6:	3414                	c.fld	fa3,40(s0)
 4d8:	0300                	c.addi4spn	s0,sp,384
 4da:	3a0e                	c.fldsp	fs4,224(sp)
 4dc:	390b3b0b          	0x390b3b0b
 4e0:	3f13490b          	0x3f13490b
 4e4:	3c19                	c.jal	fffffefa <_sp+0x77fffefa>
 4e6:	0019                	c.addi	zero,6
 4e8:	1500                	c.addi4spn	s0,sp,672
 4ea:	0035                	c.addi	zero,13
 4ec:	0000                	c.unimp
 4ee:	2616                	c.fldsp	fa2,320(sp)
 4f0:	4900                	c.lw	s0,16(a0)
 4f2:	17000013          	addi	zero,zero,368
 4f6:	012e                	c.slli	sp,0xb
 4f8:	0e03193f 0b3b0b3a 	0xb3b0b3a0e03193f
 500:	0b39                	c.addi	s6,14
 502:	1349                	c.addi	t1,-14
 504:	0111                	c.addi	sp,4
 506:	0612                	c.slli	a2,0x4
 508:	1840                	c.addi4spn	s0,sp,52
 50a:	197a                	c.slli	s2,0x3e
 50c:	1301                	c.addi	t1,-32
 50e:	0000                	c.unimp
 510:	3418                	c.fld	fa4,40(s0)
 512:	0300                	c.addi4spn	s0,sp,384
 514:	3a0e                	c.fldsp	fs4,224(sp)
 516:	390b3b0b          	0x390b3b0b
 51a:	1c13490b          	0x1c13490b
 51e:	1900000b          	0x1900000b
 522:	012e                	c.slli	sp,0xb
 524:	0e03193f 0b3b0b3a 	0xb3b0b3a0e03193f
 52c:	0b39                	c.addi	s6,14
 52e:	13491927          	0x13491927
 532:	0111                	c.addi	sp,4
 534:	0612                	c.slli	a2,0x4
 536:	1840                	c.addi4spn	s0,sp,52
 538:	197a                	c.slli	s2,0x3e
 53a:	1301                	c.addi	t1,-32
 53c:	0000                	c.unimp
 53e:	0b1a                	c.slli	s6,0x6
 540:	3101                	c.jal	140 <__stack_size-0x1fffec0>
 542:	00175513          	srli	a0,a4,0x1
 546:	1b00                	c.addi4spn	s0,sp,432
 548:	1755010b          	0x1755010b
 54c:	0000                	c.unimp
 54e:	0b1c                	c.addi4spn	a5,sp,400
 550:	3101                	c.jal	150 <__stack_size-0x1fffeb0>
 552:	12011113          	0x12011113
 556:	0006                	c.slli	zero,0x1
 558:	1d00                	c.addi4spn	s0,sp,688
 55a:	012e                	c.slli	sp,0xb
 55c:	0e03193f 0b3b0b3a 	0xb3b0b3a0e03193f
 564:	0b39                	c.addi	s6,14
 566:	01111927          	0x1111927
 56a:	0612                	c.slli	a2,0x4
 56c:	1840                	c.addi4spn	s0,sp,52
 56e:	197a                	c.slli	s2,0x3e
 570:	1301                	c.addi	t1,-32
 572:	0000                	c.unimp
 574:	051e                	c.slli	a0,0x7
 576:	0300                	c.addi4spn	s0,sp,384
 578:	3a08                	c.fld	fa0,48(a2)
 57a:	390b3b0b          	0x390b3b0b
 57e:	0213490b          	0x213490b
 582:	0018                	0x18
 584:	1f00                	c.addi4spn	s0,sp,944
 586:	012e                	c.slli	sp,0xb
 588:	0b3a0e03          	lb	t3,179(s4)
 58c:	0b390b3b          	0xb390b3b
 590:	0b201927          	0xb201927
 594:	1301                	c.addi	t1,-32
 596:	0000                	c.unimp
 598:	0b20                	c.addi4spn	s0,sp,408
 59a:	0001                	c.addi	zero,0
 59c:	2100                	c.fld	fs0,0(a0)
 59e:	012e                	c.slli	sp,0xb
 5a0:	0b3a0e03          	lb	t3,179(s4)
 5a4:	0b390b3b          	0xb390b3b
 5a8:	0b201927          	0xb201927
 5ac:	0000                	c.unimp
 5ae:	0100                	c.addi4spn	s0,sp,128
 5b0:	0005                	c.addi	zero,1
 5b2:	1331                	c.addi	t1,-20
 5b4:	1702                	c.slli	a4,0x20
 5b6:	0000                	c.unimp
 5b8:	3402                	c.fldsp	fs0,32(sp)
 5ba:	0300                	c.addi4spn	s0,sp,384
 5bc:	3a08                	c.fld	fa0,48(a2)
 5be:	0121                	c.addi	sp,8
 5c0:	0b390b3b          	0xb390b3b
 5c4:	1349                	c.addi	t1,-14
 5c6:	0000                	c.unimp
 5c8:	31011d03          	lh	s10,784(sp)
 5cc:	55015213          	0x55015213
 5d0:	01215817          	auipc	a6,0x1215
 5d4:	0b59                	c.addi	s6,22
 5d6:	13010b57          	0x13010b57
 5da:	0000                	c.unimp
 5dc:	3404                	c.fld	fs1,40(s0)
 5de:	3100                	c.fld	fs0,32(a0)
 5e0:	00170213          	addi	tp,a4,1
 5e4:	0500                	c.addi4spn	s0,sp,640
 5e6:	011d                	c.addi	sp,7
 5e8:	1331                	c.addi	t1,-20
 5ea:	0152                	c.slli	sp,0x14
 5ec:	1755                	c.addi	a4,-11
 5ee:	2158                	c.fld	fa4,128(a0)
 5f0:	5901                	c.li	s2,-32
 5f2:	000b570b          	0xb570b
 5f6:	0600                	c.addi4spn	s0,sp,768
 5f8:	011d                	c.addi	sp,7
 5fa:	1331                	c.addi	t1,-20
 5fc:	0111                	c.addi	sp,4
 5fe:	0612                	c.slli	a2,0x4
 600:	2158                	c.fld	fa4,128(a0)
 602:	5901                	c.li	s2,-32
 604:	1a21                	c.addi	s4,-24
 606:	00062157          	0x62157
 60a:	0700                	c.addi4spn	s0,sp,896
 60c:	0024                	c.addi4spn	s1,sp,8
 60e:	0b3e0b0b          	0xb3e0b0b
 612:	00000e03          	lb	t3,0(zero) # 0 <__stack_size-0x2000000>
 616:	4808                	c.lw	a0,16(s0)
 618:	7d01                	c.lui	s10,0xfffe0
 61a:	0001                	c.addi	zero,0
 61c:	0900                	c.addi4spn	s0,sp,144
 61e:	0049                	c.addi	zero,18
 620:	1802                	c.slli	a6,0x20
 622:	187e                	c.slli	a6,0x3f
 624:	0000                	c.unimp
 626:	050a                	c.slli	a0,0x2
 628:	0300                	c.addi4spn	s0,sp,384
 62a:	3a08                	c.fld	fa0,48(a2)
 62c:	0121                	c.addi	sp,8
 62e:	0b390b3b          	0xb390b3b
 632:	1349                	c.addi	t1,-14
 634:	0000                	c.unimp
 636:	0b000f0b          	0xb000f0b
 63a:	0421                	c.addi	s0,8
 63c:	1349                	c.addi	t1,-14
 63e:	0000                	c.unimp
 640:	160c                	c.addi4spn	a1,sp,800
 642:	0300                	c.addi4spn	s0,sp,384
 644:	3a0e                	c.fldsp	fs4,224(sp)
 646:	0221                	c.addi	tp,8
 648:	0b390b3b          	0xb390b3b
 64c:	1349                	c.addi	t1,-14
 64e:	0000                	c.unimp
 650:	340d                	c.jal	72 <__stack_size-0x1ffff8e>
 652:	3100                	c.fld	fs0,32(a0)
 654:	00180213          	addi	tp,a6,1 # 12155d1 <__stack_size-0xdeaa2f>
 658:	0e00                	c.addi4spn	s0,sp,784
 65a:	0048                	c.addi4spn	a0,sp,4
 65c:	017d                	c.addi	sp,31
 65e:	137f                	0x137f
 660:	0000                	c.unimp
 662:	3f012e0f          	0x3f012e0f
 666:	0319                	c.addi	t1,6
 668:	3a0e                	c.fldsp	fs4,224(sp)
 66a:	0121                	c.addi	sp,8
 66c:	21390b3b          	0x21390b3b
 670:	2706                	c.fldsp	fa4,64(sp)
 672:	2019                	c.jal	678 <__stack_size-0x1fff988>
 674:	0121                	c.addi	sp,8
 676:	1301                	c.addi	t1,-32
 678:	0000                	c.unimp
 67a:	2e10                	c.fld	fa2,24(a2)
 67c:	3f00                	c.fld	fs0,56(a4)
 67e:	3c19                	c.jal	94 <__stack_size-0x1ffff6c>
 680:	6e19                	c.lui	t3,0x6
 682:	030e                	c.slli	t1,0x3
 684:	000e                	c.slli	zero,0x3
 686:	1100                	c.addi4spn	s0,sp,160
 688:	0111                	c.addi	sp,4
 68a:	0e25                	c.addi	t3,9
 68c:	1f030b13          	addi	s6,t1,496
 690:	01111f1b          	0x1111f1b
 694:	0612                	c.slli	a2,0x4
 696:	1710                	c.addi4spn	a2,sp,928
 698:	0000                	c.unimp
 69a:	1512                	c.slli	a0,0x24
 69c:	2701                	c.jal	d9c <__stack_size-0x1fff264>
 69e:	0119                	c.addi	sp,6
 6a0:	13000013          	addi	zero,zero,304
 6a4:	0005                	c.addi	zero,1
 6a6:	1349                	c.addi	t1,-14
 6a8:	0000                	c.unimp
 6aa:	3414                	c.fld	fa3,40(s0)
 6ac:	0300                	c.addi4spn	s0,sp,384
 6ae:	3a0e                	c.fldsp	fs4,224(sp)
 6b0:	390b3b0b          	0x390b3b0b
 6b4:	3f13490b          	0x3f13490b
 6b8:	3c19                	c.jal	ce <__stack_size-0x1ffff32>
 6ba:	0019                	c.addi	zero,6
 6bc:	1500                	c.addi4spn	s0,sp,672
 6be:	0b0b000f          	0xb0b000f
 6c2:	00000e03          	lb	t3,0(zero) # 0 <__stack_size-0x2000000>
 6c6:	3416                	c.fldsp	fs0,352(sp)
 6c8:	4700                	c.lw	s0,8(a4)
 6ca:	3b0b3a13          	sltiu	s4,s6,944
 6ce:	020b390b          	0x20b390b
 6d2:	0018                	0x18
 6d4:	1700                	c.addi4spn	s0,sp,928
 6d6:	0034                	c.addi4spn	a3,sp,8
 6d8:	0b3a0e03          	lb	t3,179(s4)
 6dc:	0b390b3b          	0xb390b3b
 6e0:	1349                	c.addi	t1,-14
 6e2:	1802                	c.slli	a6,0x20
 6e4:	0000                	c.unimp
 6e6:	2618                	c.fld	fa4,8(a2)
 6e8:	4900                	c.lw	s0,16(a0)
 6ea:	19000013          	addi	zero,zero,400
 6ee:	012e                	c.slli	sp,0xb
 6f0:	0e03193f 0b3b0b3a 	0xb3b0b3a0e03193f
 6f8:	0b39                	c.addi	s6,14
 6fa:	01111927          	0x1111927
 6fe:	0612                	c.slli	a2,0x4
 700:	1840                	c.addi4spn	s0,sp,52
 702:	197c                	c.addi4spn	a5,sp,188
 704:	1301                	c.addi	t1,-32
 706:	0000                	c.unimp
 708:	051a                	c.slli	a0,0x6
 70a:	0300                	c.addi4spn	s0,sp,384
 70c:	3a08                	c.fld	fa0,48(a2)
 70e:	390b3b0b          	0x390b3b0b
 712:	0213490b          	0x213490b
 716:	1b000017          	auipc	zero,0x1b000
 71a:	0018                	0x18
 71c:	0000                	c.unimp
 71e:	341c                	c.fld	fa5,40(s0)
 720:	0300                	c.addi4spn	s0,sp,384
 722:	3a08                	c.fld	fa0,48(a2)
 724:	390b3b0b          	0x390b3b0b
 728:	0213490b          	0x213490b
 72c:	0018                	0x18
 72e:	1d00                	c.addi4spn	s0,sp,688
 730:	1755010b          	0x1755010b
 734:	0000                	c.unimp
 736:	2e1e                	c.fldsp	ft8,448(sp)
 738:	0301                	c.addi	t1,0
 73a:	3a0e                	c.fldsp	fs4,224(sp)
 73c:	390b3b0b          	0x390b3b0b
 740:	2019270b          	0x2019270b
 744:	0013010b          	0x13010b
 748:	1f00                	c.addi4spn	s0,sp,944
 74a:	0101                	c.addi	sp,0
 74c:	1349                	c.addi	t1,-14
 74e:	1301                	c.addi	t1,-32
 750:	0000                	c.unimp
 752:	2120                	c.fld	fs0,64(a0)
 754:	4900                	c.lw	s0,16(a0)
 756:	000b2f13          	slti	t5,s6,0
 75a:	2100                	c.fld	fs0,0(a0)
 75c:	012e                	c.slli	sp,0xb
 75e:	1331                	c.addi	t1,-20
 760:	0111                	c.addi	sp,4
 762:	0612                	c.slli	a2,0x4
 764:	1840                	c.addi4spn	s0,sp,52
 766:	1301                	c.addi	t1,-32
 768:	0000                	c.unimp
 76a:	2e22                	c.fldsp	ft8,8(sp)
 76c:	3101                	c.jal	36c <__stack_size-0x1fffc94>
 76e:	12011113          	0x12011113
 772:	4006                	0x4006
 774:	7c18                	c.flw	fa4,56(s0)
 776:	0119                	c.addi	sp,6
 778:	00000013          	addi	zero,zero,0
 77c:	1101                	c.addi	sp,-32
 77e:	1000                	c.addi4spn	s0,sp,32
 780:	12011117          	auipc	sp,0x12011
 784:	1b0e030f          	0x1b0e030f
 788:	250e                	c.fldsp	fa0,192(sp)
 78a:	130e                	c.slli	t1,0x23
 78c:	0005                	c.addi	zero,1
	...

Disassembly of section .debug_aranges:

00000000 <.debug_aranges>:
   0:	001c                	0x1c
   2:	0000                	c.unimp
   4:	0002                	c.slli64	zero
   6:	0000                	c.unimp
   8:	0000                	c.unimp
   a:	0004                	0x4
   c:	0000                	c.unimp
   e:	0000                	c.unimp
  10:	0000                	c.unimp
  12:	8000                	0x8000
  14:	0028                	c.addi4spn	a0,sp,8
	...
  1e:	0000                	c.unimp
  20:	0024                	c.addi4spn	s1,sp,8
  22:	0000                	c.unimp
  24:	0002                	c.slli64	zero
  26:	0024                	c.addi4spn	s1,sp,8
  28:	0000                	c.unimp
  2a:	0004                	0x4
  2c:	0000                	c.unimp
  2e:	0000                	c.unimp
  30:	0950                	c.addi4spn	a2,sp,148
  32:	8000                	0x8000
  34:	0374                	c.addi4spn	a3,sp,396
  36:	0000                	c.unimp
  38:	0028                	c.addi4spn	a0,sp,8
  3a:	8000                	0x8000
  3c:	0928                	c.addi4spn	a0,sp,152
	...
  46:	0000                	c.unimp
  48:	001c                	0x1c
  4a:	0000                	c.unimp
  4c:	0002                	c.slli64	zero
  4e:	0000140f          	0x140f
  52:	0004                	0x4
  54:	0000                	c.unimp
  56:	0000                	c.unimp
  58:	0cc4                	c.addi4spn	s1,sp,596
  5a:	8000                	0x8000
  5c:	0158                	c.addi4spn	a4,sp,132
	...
  66:	0000                	c.unimp
  68:	001c                	0x1c
  6a:	0000                	c.unimp
  6c:	0002                	c.slli64	zero
  6e:	195c                	c.addi4spn	a5,sp,180
  70:	0000                	c.unimp
  72:	0004                	0x4
  74:	0000                	c.unimp
  76:	0000                	c.unimp
  78:	0e1c                	c.addi4spn	a5,sp,784
  7a:	8000                	0x8000
  7c:	06e0                	c.addi4spn	s0,sp,844
	...
  86:	0000                	c.unimp
  88:	001c                	0x1c
  8a:	0000                	c.unimp
  8c:	0002                	c.slli64	zero
  8e:	1e40                	c.addi4spn	s0,sp,820
  90:	0000                	c.unimp
  92:	0004                	0x4
  94:	0000                	c.unimp
  96:	0000                	c.unimp
  98:	14fc                	c.addi4spn	a5,sp,620
  9a:	8000                	0x8000
  9c:	00b4                	c.addi4spn	a3,sp,72
	...

Disassembly of section .debug_str:

00000000 <.debug_str>:
   0:	72617473          	csrrci	s0,0x726,2
   4:	2e74                	c.fld	fa3,216(a2)
   6:	682f0053          	0x682f0053
   a:	2f656d6f          	jal	s10,56300 <__stack_size-0x1fa9d00>
   e:	7574                	c.flw	fa3,108(a0)
  10:	7574                	c.flw	fa3,108(a0)
  12:	7574                	c.flw	fa3,108(a0)
  14:	6d69712f          	0x6d69712f
  18:	6e65                	c.lui	t3,0x19
  1a:	69732f67          	0x69732f67
  1e:	756d                	c.lui	a0,0xffffb
  20:	616c                	c.flw	fa1,68(a0)
  22:	6f74                	c.flw	fa3,92(a4)
  24:	2f72                	c.fldsp	ft10,280(sp)
  26:	6162                	c.flwsp	ft2,24(sp)
  28:	6572                	c.flwsp	fa0,28(sp)
  2a:	656d                	c.lui	a0,0x1b
  2c:	6174                	c.flw	fa3,68(a0)
  2e:	2f6c                	c.fld	fa1,216(a4)
  30:	6562                	c.flwsp	fa0,24(sp)
  32:	636e                	c.flwsp	ft6,216(sp)
  34:	6d68                	c.flw	fa0,92(a0)
  36:	7261                	c.lui	tp,0xffff8
  38:	642f736b          	0x642f736b
  3c:	7268                	c.flw	fa0,100(a2)
  3e:	7379                	c.lui	t1,0xffffe
  40:	6f74                	c.flw	fa3,92(a4)
  42:	656e                	c.flwsp	fa0,216(sp)
  44:	4700                	c.lw	s0,8(a4)
  46:	554e                	c.lwsp	a0,240(sp)
  48:	4120                	c.lw	s0,64(a0)
  4a:	2e322053          	0x2e322053
  4e:	49003733          	0x49003733
  52:	6564                	c.flw	fs1,76(a0)
  54:	746e                	c.flwsp	fs0,248(sp)
  56:	325f 4900 6564      	0x65644900325f
  5c:	746e                	c.flwsp	fs0,248(sp)
  5e:	335f 4900 6564      	0x65644900335f
  64:	746e                	c.flwsp	fs0,248(sp)
  66:	345f 4900 6564      	0x65644900345f
  6c:	746e                	c.flwsp	fs0,248(sp)
  6e:	355f 4100 7272      	0x72724100355f
  74:	315f 475f 6f6c      	0x6f6c475f315f
  7a:	0062                	c.slli	zero,0x18
  7c:	7450                	c.flw	fa2,44(s0)
  7e:	5f72                	c.lwsp	t5,60(sp)
  80:	6552                	c.flwsp	fa0,20(sp)
  82:	5f66                	c.lwsp	t5,120(sp)
  84:	6150                	c.flw	fa2,4(a0)
  86:	0072                	c.slli	zero,0x1c
  88:	5f727453          	0x5f727453
  8c:	5f31                	c.li	t5,-20
  8e:	6150                	c.flw	fa2,4(a0)
  90:	5f72                	c.lwsp	t5,60(sp)
  92:	6552                	c.flwsp	fa0,20(sp)
  94:	0066                	c.slli	zero,0x19
  96:	5f656e4f          	fnmadd.q	ft8,fa0,fs6,fa1,unknown
  9a:	6854                	c.flw	fa3,20(s0)
  9c:	7269                	c.lui	tp,0xffffa
  9e:	7974                	c.flw	fa3,116(a0)
  a0:	4900                	c.lw	s0,16(a0)
  a2:	746e                	c.flwsp	fs0,248(sp)
  a4:	335f 4c5f 636f      	0x636f4c5f335f
  aa:	5300                	c.lw	s0,32(a4)
  ac:	7274                	c.flw	fa3,100(a2)
  ae:	325f 505f 7261      	0x7261505f325f
  b4:	525f 6665 7300      	0x73006665525f
  ba:	7a69                	c.lui	s4,0xffffa
  bc:	5f65                	c.li	t5,-7
  be:	0074                	c.addi4spn	a3,sp,12
  c0:	6572                	c.flwsp	fa0,28(sp)
  c2:	64726f63          	bltu	tp,t2,720 <__stack_size-0x1fff8e0>
  c6:	4500                	c.lw	s0,8(a0)
  c8:	646e                	c.flwsp	fs0,216(sp)
  ca:	545f 6d69 0065      	0x656d69545f
  d0:	5f5f 7562 6c69      	0x6c6975625f5f
  d6:	6974                	c.flw	fa3,84(a0)
  d8:	5f6e                	c.lwsp	t5,248(sp)
  da:	656d                	c.lui	a0,0x1b
  dc:	636d                	c.lui	t1,0x1b
  de:	7970                	c.flw	fa2,116(a0)
  e0:	7500                	c.flw	fs0,40(a0)
  e2:	7261                	c.lui	tp,0xffff8
  e4:	5f74                	c.lw	a3,124(a4)
  e6:	6e69                	c.lui	t3,0x1a
  e8:	7469                	c.lui	s0,0xffffa
  ea:	5500                	c.lw	s0,40(a0)
  ec:	5f726573          	csrrsi	a0,0x5f7,4
  f0:	6954                	c.flw	fa3,20(a0)
  f2:	656d                	c.lui	a0,0x1b
  f4:	6d00                	c.flw	fs0,24(a0)
  f6:	6961                	c.lui	s2,0x18
  f8:	006e                	c.slli	zero,0x1b
  fa:	7241                	c.lui	tp,0xffff0
  fc:	5f72                	c.lwsp	t5,60(sp)
  fe:	5f31                	c.li	t5,-20
 100:	6150                	c.flw	fa2,4(a0)
 102:	5f72                	c.lwsp	t5,60(sp)
 104:	6552                	c.flwsp	fa0,20(sp)
 106:	0066                	c.slli	zero,0x19
 108:	325f6843          	fmadd.d	fa6,ft10,ft5,ft6,unknown
 10c:	4c5f 636f 4400      	0x4400636f4c5f
 112:	00656e6f          	jal	t3,56118 <__stack_size-0x1fa9ee8>
 116:	5f727453          	0x5f727453
 11a:	5f31                	c.li	t5,-20
 11c:	6f4c                	c.flw	fa1,28(a4)
 11e:	72660063          	beq	a2,t1,83e <__stack_size-0x1fff7c2>
 122:	6565                	c.lui	a0,0x19
 124:	6d5f 6d65 4300      	0x43006d656d5f
 12a:	5f68                	c.lw	a0,124(a4)
 12c:	5f31                	c.li	t5,-20
 12e:	626f6c47          	fmsub.d	fs8,ft10,ft6,fa2,unknown
 132:	7600                	c.flw	fs0,40(a2)
 134:	7261                	c.lui	tp,0xffff8
 136:	335f 4500 435f      	0x435f4500335f
 13c:	5f706d6f          	jal	s10,6f32 <__stack_size-0x1ff90ce>
 140:	0032                	c.slli	zero,0xc
 142:	657a6973          	csrrsi	s2,0x657,20
 146:	5200                	c.lw	s0,32(a2)
 148:	6e75                	c.lui	t3,0x1d
 14a:	495f 646e 7865      	0x7865646e495f
 150:	4900                	c.lw	s0,16(a0)
 152:	746e                	c.flwsp	fs0,248(sp)
 154:	325f 4c5f 636f      	0x636f4c5f325f
 15a:	6d00                	c.flw	fs0,24(a0)
 15c:	6d65                	c.lui	s10,0x19
 15e:	0079726f          	jal	tp,97964 <__stack_size-0x1f6869c>
 162:	6c66                	c.flwsp	fs8,88(sp)
 164:	0074616f          	jal	sp,4696a <__stack_size-0x1fb9696>
 168:	315f6843          	fmadd.s	fa6,ft10,fs5,ft6,unknown
 16c:	505f 7261 565f      	0x565f7261505f
 172:	6c61                	c.lui	s8,0x18
 174:	4500                	c.lw	s0,8(a0)
 176:	756e                	c.flwsp	fa0,248(sp)
 178:	5f6d                	c.li	t5,-5
 17a:	6f4c                	c.flw	fa1,28(a4)
 17c:	68430063          	beq	t1,tp,7fc <__stack_size-0x1fff804>
 180:	325f 505f 7261      	0x7261505f325f
 186:	565f 6c61 4300      	0x43006c61565f
 18c:	5f68                	c.lw	a0,124(a4)
 18e:	5f31                	c.li	t5,-20
 190:	706d6f43          	fmadd.s	ft10,fs10,ft6,fa4,unknown
 194:	4900                	c.lw	s0,16(a0)
 196:	746e                	c.flwsp	fs0,248(sp)
 198:	475f 6f6c 0062      	0x626f6c475f
 19e:	6176                	c.flwsp	ft2,92(sp)
 1a0:	5f72                	c.lwsp	t5,60(sp)
 1a2:	0031                	c.addi	zero,12
 1a4:	6176                	c.flwsp	ft2,92(sp)
 1a6:	5f72                	c.lwsp	t5,60(sp)
 1a8:	0032                	c.slli	zero,0xc
 1aa:	5f727453          	0x5f727453
 1ae:	5f32                	c.lwsp	t5,44(sp)
 1b0:	706d6f43          	fmadd.s	ft10,fs10,ft6,fa4,unknown
 1b4:	5300                	c.lw	s0,32(a4)
 1b6:	7274                	c.flw	fa3,100(a2)
 1b8:	325f 4c5f 636f      	0x636f4c5f325f
 1be:	4900                	c.lw	s0,16(a0)
 1c0:	746e                	c.flwsp	fs0,248(sp)
 1c2:	315f 505f 7261      	0x7261505f315f
 1c8:	565f 6c61 5200      	0x52006c61565f
 1ce:	6365                	c.lui	t1,0x19
 1d0:	505f 696f 746e      	0x746e696f505f
 1d6:	7265                	c.lui	tp,0xffff9
 1d8:	7000                	c.flw	fs0,32(s0)
 1da:	7361                	c.lui	t1,0xffff8
 1dc:	6e750073          	0x6e750073
 1e0:	6e676973          	csrrsi	s2,0x6e6,14
 1e4:	6465                	c.lui	s0,0x19
 1e6:	6320                	c.flw	fs0,64(a4)
 1e8:	6168                	c.flw	fa0,68(a0)
 1ea:	0072                	c.slli	zero,0x1c
 1ec:	6e49                	c.lui	t3,0x12
 1ee:	5f74                	c.lw	a3,124(a4)
 1f0:	5f32                	c.lwsp	t5,44(sp)
 1f2:	6150                	c.flw	fa2,4(a0)
 1f4:	5f72                	c.lwsp	t5,60(sp)
 1f6:	6156                	c.flwsp	ft2,84(sp)
 1f8:	006c                	c.addi4spn	a1,sp,12
 1fa:	315f6843          	fmadd.s	fa6,ft10,fs5,ft6,unknown
 1fe:	4c5f 636f 4300      	0x4300636f4c5f
 204:	5f68                	c.lw	a0,124(a4)
 206:	6f4c                	c.flw	fa1,28(a4)
 208:	6e450063          	beq	a0,tp,8e8 <__stack_size-0x1fff718>
 20c:	6d75                	c.lui	s10,0x1d
 20e:	435f 6d6f 0070      	0x706d6f435f
 214:	6e49                	c.lui	t3,0x12
 216:	5f74                	c.lw	a3,124(a4)
 218:	706d6f43          	fmadd.s	ft10,fs10,ft6,fa4,unknown
 21c:	4200                	c.lw	s0,0(a2)
 21e:	5f6c6f6f          	jal	t5,c6814 <__stack_size-0x1f397ec>
 222:	6f4c                	c.flw	fa1,28(a4)
 224:	72500063          	beq	zero,t0,944 <__stack_size-0x1fff6bc>
 228:	345f636f          	jal	t1,f6d6c <__stack_size-0x1f09294>
 22c:	5000                	c.lw	s0,32(s0)
 22e:	6f72                	c.flwsp	ft10,28(sp)
 230:	00355f63          	bge	a0,gp,24e <__stack_size-0x1fffdb2>
 234:	7241                	c.lui	tp,0xffff0
 236:	5f72                	c.lwsp	t5,60(sp)
 238:	5f32                	c.lwsp	t5,44(sp)
 23a:	626f6c47          	fmsub.d	fs8,ft10,ft6,fa2,unknown
 23e:	5000                	c.lw	s0,32(s0)
 240:	6f72                	c.flwsp	ft10,28(sp)
 242:	00385f63          	bge	a6,gp,260 <__stack_size-0x1fffda0>
 246:	20554e47          	fmsub.s	ft8,fa0,ft5,ft4,rmm
 24a:	20373143          	fmadd.s	ft2,fa4,ft3,ft4,rup
 24e:	3131                	c.jal	fffffe5a <_sp+0x77fffe5a>
 250:	312e                	c.fldsp	ft2,232(sp)
 252:	302e                	c.fldsp	ft0,232(sp)
 254:	2d20                	c.fld	fs0,88(a0)
 256:	616d                	c.addi16sp	sp,240
 258:	6372                	c.flwsp	ft6,28(sp)
 25a:	3d68                	c.fld	fa0,248(a0)
 25c:	7672                	c.flwsp	fa2,60(sp)
 25e:	61693233          	0x61693233
 262:	2d20                	c.fld	fs0,88(a0)
 264:	616d                	c.addi16sp	sp,240
 266:	6962                	c.flwsp	fs2,24(sp)
 268:	693d                	c.lui	s2,0xf
 26a:	706c                	c.flw	fa1,100(s0)
 26c:	2d203233          	0x2d203233
 270:	636d                	c.lui	t1,0x1b
 272:	6f6d                	c.lui	t5,0x1b
 274:	6564                	c.flw	fs1,76(a0)
 276:	3d6c                	c.fld	fa1,248(a0)
 278:	656d                	c.lui	a0,0x1b
 27a:	6c64                	c.flw	fs1,92(s0)
 27c:	2d20776f          	jal	a4,754e <__stack_size-0x1ff8ab2>
 280:	746d                	c.lui	s0,0xffffb
 282:	6e75                	c.lui	t3,0x1d
 284:	3d65                	c.jal	13c <__stack_size-0x1fffec4>
 286:	6f72                	c.flwsp	ft10,28(sp)
 288:	74656b63          	bltu	a0,t1,9de <__stack_size-0x1fff622>
 28c:	2d20                	c.fld	fs0,88(a0)
 28e:	616d                	c.addi16sp	sp,240
 290:	6372                	c.flwsp	ft6,28(sp)
 292:	3d68                	c.fld	fa0,248(a0)
 294:	7672                	c.flwsp	fa2,60(sp)
 296:	61693233          	0x61693233
 29a:	2d20                	c.fld	fs0,88(a0)
 29c:	61776467          	0x61776467
 2a0:	6672                	c.flwsp	fa2,28(sp)
 2a2:	2d20                	c.fld	fs0,88(a0)
 2a4:	2d20324f          	0x2d20324f
 2a8:	5000324f          	fnmadd.s	ft4,ft0,ft0,fa0,rup
 2ac:	6f72                	c.flwsp	ft10,28(sp)
 2ae:	00315f63          	bge	sp,gp,2cc <__stack_size-0x1fffd34>
 2b2:	7250                	c.flw	fa2,36(a2)
 2b4:	325f636f          	jal	t1,f6dd8 <__stack_size-0x1f09228>
 2b8:	5000                	c.lw	s0,32(s0)
 2ba:	6f72                	c.flwsp	ft10,28(sp)
 2bc:	00335f63          	bge	t1,gp,2da <__stack_size-0x1fffd26>
 2c0:	6f42                	c.flwsp	ft10,16(sp)
 2c2:	61656c6f          	jal	s8,568d8 <__stack_size-0x1fa9728>
 2c6:	006e                	c.slli	zero,0x1b
 2c8:	7250                	c.flw	fa2,36(a2)
 2ca:	365f636f          	jal	t1,f6e2e <__stack_size-0x1f091d2>
 2ce:	5000                	c.lw	s0,32(s0)
 2d0:	6f72                	c.flwsp	ft10,28(sp)
 2d2:	00375f63          	bge	a4,gp,2f0 <__stack_size-0x1fffd10>
 2d6:	6176                	c.flwsp	ft2,92(sp)
 2d8:	6972                	c.flwsp	fs2,28(sp)
 2da:	6e61                	c.lui	t3,0x18
 2dc:	0074                	c.addi4spn	a3,sp,12
 2de:	6e45                	c.lui	t3,0x11
 2e0:	6d75                	c.lui	s10,0x1d
 2e2:	565f 6c61 505f      	0x505f6c61565f
 2e8:	7261                	c.lui	tp,0xffff8
 2ea:	7300                	c.flw	fs0,32(a4)
 2ec:	7274                	c.flw	fa3,100(a2)
 2ee:	00797063          	bgeu	s2,t2,2ee <__stack_size-0x1fffd12>
 2f2:	6944                	c.flw	fs1,20(a0)
 2f4:	00726373          	csrrsi	t1,0x7,4
 2f8:	7078                	c.flw	fa4,100(s0)
 2fa:	6972                	c.flwsp	fs2,28(sp)
 2fc:	746e                	c.flwsp	fs0,248(sp)
 2fe:	0066                	c.slli	zero,0x19
 300:	7450                	c.flw	fa2,44(s0)
 302:	5f72                	c.lwsp	t5,60(sp)
 304:	706d6f43          	fmadd.s	ft10,fs10,ft6,fa4,unknown
 308:	4300                	c.lw	s0,0(a4)
 30a:	5f68                	c.lw	a0,124(a4)
 30c:	5f32                	c.lwsp	t5,44(sp)
 30e:	626f6c47          	fmsub.d	fs8,ft10,ft6,fa2,unknown
 312:	4e00                	c.lw	s0,24(a2)
 314:	7865                	c.lui	a6,0xffff9
 316:	5f74                	c.lw	a3,124(a4)
 318:	7450                	c.flw	fa2,44(s0)
 31a:	5f72                	c.lwsp	t5,60(sp)
 31c:	626f6c47          	fmsub.d	fs8,ft10,ft6,fa2,unknown
 320:	5300                	c.lw	s0,32(a4)
 322:	7274                	c.flw	fa3,100(a2)
 324:	435f 6d6f 0070      	0x706d6f435f
 32a:	5f5f 6964 7376      	0x737669645f5f
 330:	3369                	c.jal	ba <__stack_size-0x1ffff46>
 332:	4900                	c.lw	s0,16(a0)
 334:	746e                	c.flwsp	fs0,248(sp)
 336:	315f 4c5f 636f      	0x636f4c5f315f
 33c:	5300                	c.lw	s0,32(a4)
 33e:	7274                	c.flw	fa3,100(a2)
 340:	335f 0030 6e45      	0x6e450030335f
 346:	6d75                	c.lui	s10,0x1d
 348:	505f 7261 565f      	0x565f7261505f
 34e:	6c61                	c.lui	s8,0x18
 350:	4900                	c.lw	s0,16(a0)
 352:	746e                	c.flwsp	fs0,248(sp)
 354:	505f 7261 525f      	0x525f7261505f
 35a:	6665                	c.lui	a2,0x19
 35c:	4900                	c.lw	s0,16(a0)
 35e:	746e                	c.flwsp	fs0,248(sp)
 360:	495f 646e 7865      	0x7865646e495f
 366:	4300                	c.lw	s0,0(a4)
 368:	7061                	c.lui	zero,0xffff8
 36a:	7469                	c.lui	s0,0xffffa
 36c:	6c61                	c.lui	s8,0x18
 36e:	4c5f 7465 6574      	0x657474654c5f
 374:	0072                	c.slli	zero,0x1c
 376:	5f656e4f          	fnmadd.q	ft8,fa0,fs6,fa1,unknown
 37a:	6946                	c.flwsp	fs2,80(sp)
 37c:	7466                	c.flwsp	fs0,120(sp)
 37e:	0079                	c.addi	zero,30
 380:	7450                	c.flw	fa2,44(s0)
 382:	5f72                	c.lwsp	t5,60(sp)
 384:	6156                	c.flwsp	ft2,84(sp)
 386:	5f6c                	c.lw	a1,124(a4)
 388:	6150                	c.flw	fa2,4(a0)
 38a:	0072                	c.slli	zero,0x1c
 38c:	6e45                	c.lui	t3,0x11
 38e:	6d75                	c.lui	s10,0x1d
 390:	7265                	c.lui	tp,0xffff9
 392:	7461                	c.lui	s0,0xffff8
 394:	6f69                	c.lui	t5,0x1a
 396:	006e                	c.slli	zero,0x1b
 398:	63727473          	csrrci	s0,0x637,4
 39c:	706d                	c.lui	zero,0xffffb
 39e:	4300                	c.lw	s0,0(a4)
 3a0:	5f68                	c.lw	a0,124(a4)
 3a2:	5f32                	c.lwsp	t5,44(sp)
 3a4:	706d6f43          	fmadd.s	ft10,fs10,ft6,fa4,unknown
 3a8:	6d00                	c.flw	fs0,24(a0)
 3aa:	6179                	c.addi16sp	sp,464
 3ac:	6c6c                	c.flw	fa1,92(s0)
 3ae:	4500636f          	jal	t1,67fe <__stack_size-0x1ff9802>
 3b2:	756e                	c.flwsp	fa0,248(sp)
 3b4:	5f6d                	c.li	t5,-5
 3b6:	6552                	c.flwsp	fa0,20(sp)
 3b8:	5f66                	c.lwsp	t5,120(sp)
 3ba:	6150                	c.flw	fa2,4(a0)
 3bc:	0072                	c.slli	zero,0x1c
 3be:	6844                	c.flw	fs1,20(s0)
 3c0:	7972                	c.flwsp	fs2,60(sp)
 3c2:	6e6f7473          	csrrci	s0,0x6e6,30
 3c6:	7365                	c.lui	t1,0xffff9
 3c8:	505f 7265 535f      	0x535f7265505f
 3ce:	6365                	c.lui	t1,0x19
 3d0:	00646e6f          	jal	t3,463d6 <__stack_size-0x1fb9c2a>
 3d4:	6f42                	c.flwsp	ft10,16(sp)
 3d6:	475f6c6f          	jal	s8,f704a <__stack_size-0x1f08fb6>
 3da:	6f6c                	c.flw	fa1,92(a4)
 3dc:	0062                	c.slli	zero,0x18
 3de:	63656863          	bltu	a0,s6,a0e <__stack_size-0x1fff5f2>
 3e2:	6e49006b          	0x6e49006b
 3e6:	5f74                	c.lw	a3,124(a4)
 3e8:	6f4c                	c.flw	fa1,28(a4)
 3ea:	654e0063          	beq	t3,s4,a2a <__stack_size-0x1fff5d6>
 3ee:	7478                	c.flw	fa4,108(s0)
 3f0:	525f 6365 726f      	0x726f6365525f
 3f6:	0064                	c.addi4spn	s1,sp,12
 3f8:	694d                	c.lui	s2,0x13
 3fa:	736f7263          	bgeu	t5,s6,b1e <__stack_size-0x1fff4e2>
 3fe:	6365                	c.lui	t1,0x19
 400:	73646e6f          	jal	t3,46b36 <__stack_size-0x1fb94ca>
 404:	4e00                	c.lw	s0,24(a2)
 406:	6d75                	c.lui	s10,0x1d
 408:	6562                	c.flwsp	fa0,24(sp)
 40a:	5f72                	c.lwsp	t5,60(sp)
 40c:	525f664f          	fnmadd.d	fa2,ft10,ft5,fa0,unknown
 410:	6e75                	c.lui	t3,0x1d
 412:	65420073          	0x65420073
 416:	5f6e6967          	0x5f6e6967
 41a:	6954                	c.flw	fa3,20(a0)
 41c:	656d                	c.lui	a0,0x1b
 41e:	4100                	c.lw	s0,0(a0)
 420:	7272                	c.flwsp	ft4,60(sp)
 422:	325f 505f 7261      	0x7261505f325f
 428:	525f 6665 4300      	0x43006665525f
 42e:	5f68                	c.lw	a0,124(a4)
 430:	6e49                	c.lui	t3,0x12
 432:	6564                	c.flw	fs1,76(a0)
 434:	0078                	c.addi4spn	a4,sp,12
 436:	7546                	c.flwsp	fa0,112(sp)
 438:	636e                	c.flwsp	ft6,216(sp)
 43a:	315f 4600 6e75      	0x6e754600315f
 440:	00325f63          	bge	tp,gp,45e <__stack_size-0x1fffba2>
 444:	7546                	c.flwsp	fa0,112(sp)
 446:	636e                	c.flwsp	ft6,216(sp)
 448:	335f 4900 6564      	0x65644900335f
 44e:	746e                	c.flwsp	fs0,248(sp)
 450:	315f 6100 6464      	0x64646100315f
 456:	0072                	c.slli	zero,0x1c
 458:	6175                	c.addi16sp	sp,368
 45a:	7472                	c.flwsp	fs0,60(sp)
 45c:	3238                	c.fld	fa4,96(a2)
 45e:	3035                	c.jal	fffffc8a <_sp+0x77fffc8a>
 460:	625f 7561 7264      	0x72647561625f
 466:	7461                	c.lui	s0,0xffff8
 468:	0065                	c.addi	zero,25
 46a:	6175                	c.addi16sp	sp,368
 46c:	7472                	c.flwsp	fs0,60(sp)
 46e:	3238                	c.fld	fa4,96(a2)
 470:	3035                	c.jal	fffffc9c <_sp+0x77fffc9c>
 472:	695f 5f6e 7266      	0x72665f6e695f
 478:	7165                	c.addi16sp	sp,-400
 47a:	6200                	c.flw	fs0,0(a2)
 47c:	6964                	c.flw	fs1,84(a0)
 47e:	0076                	c.slli	zero,0x1d
 480:	5f746567          	0x5f746567
 484:	6572                	c.flwsp	fa0,28(sp)
 486:	65730067          	jalr	zero,1623(t1) # 19657 <__stack_size-0x1fe69a9>
 48a:	5f74                	c.lw	a3,124(a4)
 48c:	6572                	c.flwsp	fa0,28(sp)
 48e:	68730067          	jalr	zero,1671(t1)
 492:	2074726f          	jal	tp,47e98 <__stack_size-0x1fb8168>
 496:	6e75                	c.lui	t3,0x1d
 498:	6e676973          	csrrsi	s2,0x6e6,14
 49c:	6465                	c.lui	s0,0x19
 49e:	6920                	c.flw	fs0,80(a0)
 4a0:	746e                	c.flwsp	fs0,248(sp)
 4a2:	7500                	c.flw	fs0,40(a0)
 4a4:	7261                	c.lui	tp,0xffff8
 4a6:	5f74                	c.lw	a3,124(a4)
 4a8:	63746567          	0x63746567
 4ac:	5f00                	c.lw	s0,56(a4)
 4ae:	755f 6e69 3174      	0x31746e69755f
 4b4:	5f36                	c.lwsp	t5,108(sp)
 4b6:	0074                	c.addi4spn	a3,sp,12
 4b8:	5f5f 6975 746e      	0x746e69755f5f
 4be:	745f3233          	0x745f3233
 4c2:	7800                	c.flw	fs0,48(s0)
 4c4:	7566                	c.flwsp	fa0,120(sp)
 4c6:	636e                	c.flwsp	ft6,216(sp)
 4c8:	6f5f 7475 5f00      	0x5f0074756f5f
 4ce:	725f 7761 725f      	0x725f7761725f
 4d4:	6165                	c.addi16sp	sp,112
 4d6:	6264                	c.flw	fs1,68(a2)
 4d8:	6c00                	c.flw	fs0,24(s0)
 4da:	20676e6f          	jal	t3,766e0 <__stack_size-0x1f89920>
 4de:	6f6c                	c.flw	fa1,92(a4)
 4e0:	676e                	c.flwsp	fa4,216(sp)
 4e2:	7520                	c.flw	fs0,104(a0)
 4e4:	736e                	c.flwsp	ft6,248(sp)
 4e6:	6769                	c.lui	a4,0x1a
 4e8:	656e                	c.flwsp	fa0,216(sp)
 4ea:	2064                	c.fld	fs1,192(s0)
 4ec:	6e69                	c.lui	t3,0x1a
 4ee:	0074                	c.addi4spn	a3,sp,12
 4f0:	5f5f 6172 5f77      	0x5f7761725f5f
 4f6:	74697277          	0x74697277
 4fa:	6265                	c.lui	tp,0x19
 4fc:	6c00                	c.flw	fs0,24(s0)
 4fe:	20676e6f          	jal	t3,76704 <__stack_size-0x1f898fc>
 502:	6f6c                	c.flw	fa1,92(a4)
 504:	676e                	c.flwsp	fa4,216(sp)
 506:	6920                	c.flw	fs0,80(a0)
 508:	746e                	c.flwsp	fs0,248(sp)
 50a:	7500                	c.flw	fs0,40(a0)
 50c:	7261                	c.lui	tp,0xffff8
 50e:	3874                	c.fld	fa3,240(s0)
 510:	3532                	c.fldsp	fa0,296(sp)
 512:	5f30                	c.lw	a2,120(a4)
 514:	6572                	c.flwsp	fa0,28(sp)
 516:	68735f67          	0x68735f67
 51a:	6669                	c.lui	a2,0x1a
 51c:	0074                	c.addi4spn	a3,sp,12
 51e:	7366666f          	jal	a2,66c54 <__stack_size-0x1f993ac>
 522:	7465                	c.lui	s0,0xffff9
 524:	7300                	c.flw	fs0,32(a4)
 526:	6f68                	c.flw	fa0,92(a4)
 528:	7472                	c.flwsp	fs0,60(sp)
 52a:	6920                	c.flw	fs0,80(a0)
 52c:	746e                	c.flwsp	fs0,248(sp)
 52e:	7500                	c.flw	fs0,40(a0)
 530:	7261                	c.lui	tp,0xffff8
 532:	5f74                	c.lw	a3,124(a4)
 534:	7570                	c.flw	fa2,108(a0)
 536:	6374                	c.flw	fa3,68(a4)
 538:	7500                	c.flw	fs0,40(a0)
 53a:	7261                	c.lui	tp,0xffff8
 53c:	3874                	c.fld	fa3,240(s0)
 53e:	3532                	c.fldsp	fa0,296(sp)
 540:	5f30                	c.lw	a2,120(a4)
 542:	6162                	c.flwsp	ft2,24(sp)
 544:	5f006573          	csrrsi	a0,0x5f0,0
 548:	625f 6975 746c      	0x746c6975625f
 54e:	6e69                	c.lui	t3,0x1a
 550:	765f 5f61 696c      	0x696c5f61765f
 556:	5f007473          	csrrci	s0,0x5f0,0
 55a:	755f 6964 7376      	0x73766964755f
 560:	3369                	c.jal	2ea <__stack_size-0x1fffd16>
 562:	5f00                	c.lw	s0,56(a4)
 564:	755f 6f6d 7364      	0x73646f6d755f
 56a:	3369                	c.jal	2f4 <__stack_size-0x1fffd0c>
 56c:	6f00                	c.flw	fs0,24(a4)
 56e:	7475                	c.lui	s0,0xffffd
 570:	7470                	c.flw	fa2,108(s0)
 572:	0072                	c.slli	zero,0x1c
 574:	7678                	c.flw	fa4,108(a2)
 576:	7270                	c.flw	fa2,100(a2)
 578:	6e69                	c.lui	t3,0x1a
 57a:	6674                	c.flw	fa3,76(a2)
 57c:	5f00                	c.lw	s0,56(a4)
 57e:	675f 756e 5f63      	0x5f63756e675f
 584:	6176                	c.flwsp	ft2,92(sp)
 586:	6c5f 7369 0074      	0x7473696c5f
 58c:	7078                	c.flw	fa4,100(s0)
 58e:	7475                	c.lui	s0,0xffffd
 590:	70780073          	0x70780073
 594:	7475                	c.lui	s0,0xffffd
 596:	69640063          	beq	s0,s6,c16 <__stack_size-0x1fff3ea>
 59a:	2e76                	c.fldsp	ft8,344(sp)
 59c:	682f0053          	0x682f0053
 5a0:	2f656d6f          	jal	s10,56896 <__stack_size-0x1fa976a>
 5a4:	696a                	c.flwsp	fs2,152(sp)
 5a6:	706e                	c.flwsp	ft0,248(sp)
 5a8:	6e65                	c.lui	t3,0x19
 5aa:	69657767          	0x69657767
 5ae:	7369722f          	0x7369722f
 5b2:	672d7663          	bgeu	s10,s2,c1e <__stack_size-0x1fff3e2>
 5b6:	756e                	c.flwsp	fa0,248(sp)
 5b8:	742d                	c.lui	s0,0xfffeb
 5ba:	636c6f6f          	jal	t5,c6bf0 <__stack_size-0x1f39410>
 5be:	6168                	c.flw	fa0,68(a0)
 5c0:	6e69                	c.lui	t3,0x1a
 5c2:	6975622f          	0x6975622f
 5c6:	646c                	c.flw	fa1,76(s0)
 5c8:	672d                	c.lui	a4,0xb
 5ca:	6e2d6363          	bltu	s10,sp,cb0 <__stack_size-0x1fff350>
 5ce:	7765                	c.lui	a4,0xffff9
 5d0:	696c                	c.flw	fa1,84(a0)
 5d2:	2d62                	c.fldsp	fs10,24(sp)
 5d4:	67617473          	csrrci	s0,0x676,2
 5d8:	3265                	c.jal	ffffff80 <_sp+0x77ffff80>
 5da:	7369722f          	0x7369722f
 5de:	32337663          	bgeu	t1,gp,90a <__stack_size-0x1fff6f6>
 5e2:	752d                	c.lui	a0,0xfffeb
 5e4:	6b6e                	c.flwsp	fs6,216(sp)
 5e6:	6f6e                	c.flwsp	ft10,216(sp)
 5e8:	652d6e77          	0x652d6e77
 5ec:	666c                	c.flw	fa1,76(a2)
 5ee:	62696c2f          	0x62696c2f
 5f2:	00636367          	0x636367

Disassembly of section .debug_loclists:

00000000 <.debug_loclists>:
       0:	0999                	c.addi	s3,6
       2:	0000                	c.unimp
       4:	0005                	c.addi	zero,1
       6:	0004                	0x4
       8:	0000                	c.unimp
       a:	0000                	c.unimp
       c:	00020407          	0x20407
      10:	ac80                	c.fsd	fs0,24(s1)
      12:	0002                	c.slli64	zero
      14:	0280                	c.addi4spn	s0,sp,320
      16:	9f32                	c.add	t5,a2
      18:	0002ac07          	flw	fs8,0(t0) # 0 <__stack_size-0x2000000>
      1c:	a480                	c.fsd	fs0,8(s1)
      1e:	02800003          	lb	zero,40(zero) # 28 <__stack_size-0x1ffffd8>
      22:	b8079f33          	0xb8079f33
      26:	ec800003          	lb	zero,-312(zero) # fffffec8 <_sp+0x77fffec8>
      2a:	01800003          	lb	zero,24(zero) # 18 <__stack_size-0x1ffffe8>
      2e:	075a                	c.slli	a4,0x16
      30:	03ec                	c.addi4spn	a1,sp,460
      32:	8000                	0x8000
      34:	03ff                	0x3ff
      36:	8000                	0x8000
      38:	5e01                	c.li	t3,-32
      3a:	0003ff07          	0x3ff07
      3e:	1880                	c.addi4spn	s0,sp,112
      40:	0004                	0x4
      42:	0380                	c.addi4spn	s0,sp,448
      44:	d491                	c.beqz	s1,ffffff50 <_sp+0x77ffff50>
      46:	077e                	c.slli	a4,0x1f
      48:	090c                	c.addi4spn	a1,sp,144
      4a:	8000                	0x8000
      4c:	0918                	c.addi4spn	a4,sp,144
      4e:	8000                	0x8000
      50:	3302                	c.fldsp	ft6,32(sp)
      52:	079f 0918 8000      	0x80000918079f
      58:	0920                	c.addi4spn	s0,sp,152
      5a:	8000                	0x8000
      5c:	3202                	c.fldsp	ft4,32(sp)
      5e:	079f 0920 8000      	0x80000920079f
      64:	093c                	c.addi4spn	a5,sp,152
      66:	8000                	0x8000
      68:	3302                	c.fldsp	ft6,32(sp)
      6a:	079f 093c 8000      	0x8000093c079f
      70:	0944                	c.addi4spn	s1,sp,148
      72:	8000                	0x8000
      74:	5a01                	c.li	s4,-32
      76:	0700                	c.addi4spn	s0,sp,896
      78:	0204                	c.addi4spn	s1,sp,256
      7a:	8000                	0x8000
      7c:	02dc                	c.addi4spn	a5,sp,324
      7e:	8000                	0x8000
      80:	3302                	c.fldsp	ft6,32(sp)
      82:	079f 02dc 8000      	0x800002dc079f
      88:	02f0                	c.addi4spn	a2,sp,332
      8a:	8000                	0x8000
      8c:	5a01                	c.li	s4,-32
      8e:	00034007          	flq	ft0,0(t1)
      92:	5880                	c.lw	s0,48(s1)
      94:	01800003          	lb	zero,24(zero) # 18 <__stack_size-0x1ffffe8>
      98:	0759                	c.addi	a4,22
      9a:	0358                	c.addi4spn	a4,sp,388
      9c:	8000                	0x8000
      9e:	037c                	c.addi4spn	a5,sp,396
      a0:	8000                	0x8000
      a2:	5a01                	c.li	s4,-32
      a4:	0003e007          	0x3e007
      a8:	ff80                	c.fsw	fs0,56(a5)
      aa:	01800003          	lb	zero,24(zero) # 18 <__stack_size-0x1ffffe8>
      ae:	075c                	c.addi4spn	a5,sp,900
      b0:	03ff                	0x3ff
      b2:	8000                	0x8000
      b4:	0418                	c.addi4spn	a4,sp,512
      b6:	8000                	0x8000
      b8:	7ed89103          	lh	sp,2029(a7)
      bc:	00090c07          	0x90c07
      c0:	1880                	c.addi4spn	s0,sp,112
      c2:	0009                	c.addi	zero,2
      c4:	0180                	c.addi4spn	s0,sp,192
      c6:	075a                	c.slli	a4,0x16
      c8:	0918                	c.addi4spn	a4,sp,144
      ca:	8000                	0x8000
      cc:	0934                	c.addi4spn	a3,sp,152
      ce:	8000                	0x8000
      d0:	3302                	c.fldsp	ft6,32(sp)
      d2:	079f 0934 8000      	0x80000934079f
      d8:	093c                	c.addi4spn	a5,sp,152
      da:	8000                	0x8000
      dc:	5a01                	c.li	s4,-32
      de:	00093c07          	fld	fs8,0(s2) # 13000 <__stack_size-0x1fed000>
      e2:	4480                	c.lw	s0,8(s1)
      e4:	0009                	c.addi	zero,2
      e6:	0180                	c.addi4spn	s0,sp,192
      e8:	005c                	c.addi4spn	a5,sp,4
      ea:	00017407          	0x17407
      ee:	c880                	c.sw	s0,16(s1)
      f0:	0008                	0x8
      f2:	0280                	c.addi4spn	s0,sp,320
      f4:	0c079f37          	lui	t5,0xc079
      f8:	0009                	c.addi	zero,2
      fa:	5080                	c.lw	s0,32(s1)
      fc:	0009                	c.addi	zero,2
      fe:	0280                	c.addi4spn	s0,sp,320
     100:	07009f37          	lui	t5,0x7009
     104:	02b8                	c.addi4spn	a4,sp,328
     106:	8000                	0x8000
     108:	02dc                	c.addi4spn	a5,sp,324
     10a:	8000                	0x8000
     10c:	9f410803          	lb	a6,-1548(sp) # 12011174 <__stack_size+0x10011174>
     110:	0002e407          	0x2e407
     114:	f080                	c.fsw	fs0,32(s1)
     116:	0002                	c.slli64	zero
     118:	0180                	c.addi4spn	s0,sp,192
     11a:	075f 0354 8000      	0x80000354075f
     120:	0368                	c.addi4spn	a0,sp,396
     122:	8000                	0x8000
     124:	5f01                	c.li	t5,-32
     126:	00090c07          	0x90c07
     12a:	1880                	c.addi4spn	s0,sp,112
     12c:	0009                	c.addi	zero,2
     12e:	0180                	c.addi4spn	s0,sp,192
     130:	075f 0920 8000      	0x80000920075f
     136:	0934                	c.addi4spn	a3,sp,152
     138:	8000                	0x8000
     13a:	9f410803          	lb	a6,-1548(sp)
     13e:	00093407          	fld	fs0,0(s2)
     142:	3c80                	c.fld	fs0,56(s1)
     144:	0009                	c.addi	zero,2
     146:	0180                	c.addi4spn	s0,sp,192
     148:	005f 5407 0002      	0x25407005f
     14e:	dc80                	c.sw	s0,56(s1)
     150:	0002                	c.slli64	zero
     152:	0280                	c.addi4spn	s0,sp,320
     154:	9f31                	0x9f31
     156:	0002dc07          	0x2dc07
     15a:	f080                	c.fsw	fs0,32(s1)
     15c:	0002                	c.slli64	zero
     15e:	0180                	c.addi4spn	s0,sp,192
     160:	0769                	c.addi	a4,26
     162:	02f0                	c.addi4spn	a2,sp,332
     164:	8000                	0x8000
     166:	0354                	c.addi4spn	a3,sp,388
     168:	8000                	0x8000
     16a:	3002                	c.fldsp	ft0,32(sp)
     16c:	079f 0354 8000      	0x80000354079f
     172:	03a4                	c.addi4spn	s1,sp,456
     174:	8000                	0x8000
     176:	6901                	0x6901
     178:	0003bc07          	fld	fs8,0(t2)
     17c:	c880                	c.sw	s0,16(s1)
     17e:	0008                	0x8
     180:	0180                	c.addi4spn	s0,sp,192
     182:	0769                	c.addi	a4,26
     184:	090c                	c.addi4spn	a1,sp,144
     186:	8000                	0x8000
     188:	0918                	c.addi4spn	a4,sp,144
     18a:	8000                	0x8000
     18c:	6901                	0x6901
     18e:	00091807          	0x91807
     192:	3480                	c.fld	fs0,40(s1)
     194:	0009                	c.addi	zero,2
     196:	0280                	c.addi4spn	s0,sp,320
     198:	9f31                	0x9f31
     19a:	00093407          	fld	fs0,0(s2)
     19e:	5080                	c.lw	s0,32(s1)
     1a0:	0009                	c.addi	zero,2
     1a2:	0180                	c.addi4spn	s0,sp,192
     1a4:	0069                	c.addi	zero,26
     1a6:	00017807          	0x17807
     1aa:	f480                	c.fsw	fs0,40(s1)
     1ac:	0001                	c.addi	zero,0
     1ae:	0280                	c.addi4spn	s0,sp,320
     1b0:	9f31                	0x9f31
     1b2:	0001f407          	0x1f407
     1b6:	f480                	c.fsw	fs0,40(s1)
     1b8:	01800003          	lb	zero,24(zero) # 18 <__stack_size-0x1ffffe8>
     1bc:	0759                	c.addi	a4,22
     1be:	090c                	c.addi4spn	a1,sp,144
     1c0:	8000                	0x8000
     1c2:	0940                	c.addi4spn	s0,sp,148
     1c4:	8000                	0x8000
     1c6:	5901                	c.li	s2,-32
     1c8:	0700                	c.addi4spn	s0,sp,896
     1ca:	061c                	c.addi4spn	a5,sp,768
     1cc:	8000                	0x8000
     1ce:	062c                	c.addi4spn	a1,sp,776
     1d0:	8000                	0x8000
     1d2:	7a08                	c.flw	fa0,48(a2)
     1d4:	3000                	c.fld	fs0,32(s0)
     1d6:	0829                	c.addi	a6,10
     1d8:	1aff                	0x1aff
     1da:	009f 3c07 0007      	0x73c07009f
     1e0:	4c80                	c.lw	s0,24(s1)
     1e2:	08800007          	0x8800007
     1e6:	007a                	c.slli	zero,0x1e
     1e8:	2930                	c.fld	fa2,80(a0)
     1ea:	ff08                	c.fsw	fa0,56(a4)
     1ec:	9f1a                	c.add	t5,t1
     1ee:	0700                	c.addi4spn	s0,sp,896
     1f0:	0808                	c.addi4spn	a0,sp,16
     1f2:	8000                	0x8000
     1f4:	0810                	c.addi4spn	a2,sp,16
     1f6:	8000                	0x8000
     1f8:	7a08                	c.flw	fa0,48(a2)
     1fa:	3000                	c.fld	fs0,32(s0)
     1fc:	0829                	c.addi	a6,10
     1fe:	1aff                	0x1aff
     200:	009f 3c07 0008      	0x83c07009f
     206:	4480                	c.lw	s0,8(s1)
     208:	0008                	0x8
     20a:	0880                	c.addi4spn	s0,sp,80
     20c:	007a                	c.slli	zero,0x1e
     20e:	2930                	c.fld	fa2,80(a0)
     210:	ff08                	c.fsw	fa0,56(a4)
     212:	9f1a                	c.add	t5,t1
     214:	0700                	c.addi4spn	s0,sp,896
     216:	0064                	c.addi4spn	s1,sp,12
     218:	8000                	0x8000
     21a:	0098                	c.addi4spn	a4,sp,64
     21c:	8000                	0x8000
     21e:	9f300803          	lb	a6,-1549(zero) # fffff9f3 <_sp+0x77fff9f3>
     222:	0700                	c.addi4spn	s0,sp,896
     224:	0088                	c.addi4spn	a0,sp,64
     226:	8000                	0x8000
     228:	00c0                	c.addi4spn	s0,sp,68
     22a:	8000                	0x8000
     22c:	5f01                	c.li	t5,-32
     22e:	0000c007          	flq	ft0,0(ra)
     232:	eb80                	c.fsw	fs0,16(a5)
     234:	0000                	c.unimp
     236:	0580                	c.addi4spn	s0,sp,704
     238:	0049ac03          	lw	s8,4(s3)
     23c:	0080                	c.addi4spn	s0,sp,64
     23e:	00009807          	0x9807
     242:	e880                	c.fsw	fs0,16(s1)
     244:	0000                	c.unimp
     246:	0380                	c.addi4spn	s0,sp,448
     248:	3008                	c.fld	fa0,32(s0)
     24a:	009f b007 0000      	0xb007009f
     250:	e480                	c.fsw	fs0,8(s1)
     252:	0000                	c.unimp
     254:	0180                	c.addi4spn	s0,sp,192
     256:	075a                	c.slli	a4,0x16
     258:	00e4                	c.addi4spn	s1,sp,76
     25a:	8000                	0x8000
     25c:	800000eb          	0x800000eb
     260:	0305                	c.addi	t1,1
     262:	49b0                	c.lw	a2,80(a1)
     264:	8000                	0x8000
     266:	0700                	c.addi4spn	s0,sp,896
     268:	01fc                	c.addi4spn	a5,sp,204
     26a:	8000                	0x8000
     26c:	0204                	c.addi4spn	s1,sp,256
     26e:	8000                	0x8000
     270:	3102                	c.fldsp	ft2,32(sp)
     272:	009f 5407 0002      	0x25407009f
     278:	6880                	c.flw	fs0,16(s1)
     27a:	0002                	c.slli64	zero
     27c:	0480                	c.addi4spn	s0,sp,576
     27e:	a091                	c.j	2c2 <__stack_size-0x1fffd3e>
     280:	9f7f                	0x9f7f
     282:	00026807          	0x26807
     286:	6f80                	c.flw	fs0,24(a5)
     288:	0002                	c.slli64	zero
     28a:	0180                	c.addi4spn	s0,sp,192
     28c:	026f075b          	0x26f075b
     290:	8000                	0x8000
     292:	0270                	c.addi4spn	a2,sp,268
     294:	8000                	0x8000
     296:	9104                	0x9104
     298:	7fa0                	c.flw	fs0,120(a5)
     29a:	079f 0918 8000      	0x80000918079f
     2a0:	0920                	c.addi4spn	s0,sp,152
     2a2:	8000                	0x8000
     2a4:	9104                	0x9104
     2a6:	7fa0                	c.flw	fs0,120(a5)
     2a8:	009f 5407 0002      	0x25407009f
     2ae:	6c80                	c.flw	fs0,24(s1)
     2b0:	0002                	c.slli64	zero
     2b2:	0480                	c.addi4spn	s0,sp,576
     2b4:	8091                	c.srli	s1,0x4
     2b6:	9f7f                	0x9f7f
     2b8:	00026c07          	0x26c07
     2bc:	6f80                	c.flw	fs0,24(a5)
     2be:	0002                	c.slli64	zero
     2c0:	0180                	c.addi4spn	s0,sp,192
     2c2:	075a                	c.slli	a4,0x16
     2c4:	8000026f          	jal	tp,fff002c4 <_sp+0x77f002c4>
     2c8:	0270                	c.addi4spn	a2,sp,268
     2ca:	8000                	0x8000
     2cc:	9104                	0x9104
     2ce:	7f80                	c.flw	fs0,56(a5)
     2d0:	079f 0918 8000      	0x80000918079f
     2d6:	0920                	c.addi4spn	s0,sp,152
     2d8:	8000                	0x8000
     2da:	9104                	0x9104
     2dc:	7f80                	c.flw	fs0,56(a5)
     2de:	009f 5407 0002      	0x25407009f
     2e4:	6480                	c.flw	fs0,8(s1)
     2e6:	0002                	c.slli64	zero
     2e8:	0280                	c.addi4spn	s0,sp,320
     2ea:	9f32                	c.add	t5,a2
     2ec:	00026407          	0x26407
     2f0:	7080                	c.flw	fs0,32(s1)
     2f2:	0002                	c.slli64	zero
     2f4:	0280                	c.addi4spn	s0,sp,320
     2f6:	18079f33          	0x18079f33
     2fa:	0009                	c.addi	zero,2
     2fc:	2080                	c.fld	fs0,0(s1)
     2fe:	0009                	c.addi	zero,2
     300:	0280                	c.addi4spn	s0,sp,320
     302:	9f32                	c.add	t5,a2
     304:	0700                	c.addi4spn	s0,sp,896
     306:	0258                	c.addi4spn	a4,sp,260
     308:	8000                	0x8000
     30a:	0264                	c.addi4spn	s1,sp,268
     30c:	8000                	0x8000
     30e:	7fa39103          	lh	sp,2042(t2)
     312:	00091807          	0x91807
     316:	2080                	c.fld	fs0,0(s1)
     318:	0009                	c.addi	zero,2
     31a:	0380                	c.addi4spn	s0,sp,448
     31c:	a391                	c.j	860 <__stack_size-0x1fff7a0>
     31e:	007f                	0x7f
     320:	00025807          	0x25807
     324:	6480                	c.flw	fs0,8(s1)
     326:	0002                	c.slli64	zero
     328:	0380                	c.addi4spn	s0,sp,448
     32a:	8291                	c.srli	a3,0x4
     32c:	077f                	0x77f
     32e:	0918                	c.addi4spn	a4,sp,144
     330:	8000                	0x8000
     332:	0920                	c.addi4spn	s0,sp,152
     334:	8000                	0x8000
     336:	7f829103          	lh	sp,2040(t0)
     33a:	0700                	c.addi4spn	s0,sp,896
     33c:	0258                	c.addi4spn	a4,sp,260
     33e:	8000                	0x8000
     340:	8000026f          	jal	tp,fff00340 <_sp+0x77f00340>
     344:	7f829103          	lh	sp,2040(t0)
     348:	00091807          	0x91807
     34c:	2080                	c.fld	fs0,0(s1)
     34e:	0009                	c.addi	zero,2
     350:	0380                	c.addi4spn	s0,sp,448
     352:	8291                	c.srli	a3,0x4
     354:	007f                	0x7f
     356:	0002ac07          	flw	fs8,0(t0)
     35a:	b480                	c.fsd	fs0,40(s1)
     35c:	0002                	c.slli64	zero
     35e:	0280                	c.addi4spn	s0,sp,320
     360:	07009f37          	lui	t5,0x7009
     364:	02ac                	c.addi4spn	a1,sp,328
     366:	8000                	0x8000
     368:	02b4                	c.addi4spn	a3,sp,328
     36a:	8000                	0x8000
     36c:	3302                	c.fldsp	ft6,32(sp)
     36e:	009f ac07 0002      	0x2ac07009f
     374:	b480                	c.fsd	fs0,40(s1)
     376:	0002                	c.slli64	zero
     378:	0680                	c.addi4spn	s0,sp,832
     37a:	00227403          	0x227403
     37e:	9f80                	0x9f80
     380:	0700                	c.addi4spn	s0,sp,896
     382:	02ac                	c.addi4spn	a1,sp,328
     384:	8000                	0x8000
     386:	02b4                	c.addi4spn	a3,sp,328
     388:	8000                	0x8000
     38a:	0306                	c.slli	t1,0x1
     38c:	1dac                	c.addi4spn	a1,sp,760
     38e:	8000                	0x8000
     390:	009f ac07 0002      	0x2ac07009f
     396:	b080                	c.fsd	fs0,32(s1)
     398:	0002                	c.slli64	zero
     39a:	0280                	c.addi4spn	s0,sp,320
     39c:	9f38                	0x9f38
     39e:	0002b007          	fld	ft0,0(t0)
     3a2:	b480                	c.fsd	fs0,40(s1)
     3a4:	0002                	c.slli64	zero
     3a6:	0280                	c.addi4spn	s0,sp,320
     3a8:	9f39                	0x9f39
     3aa:	0700                	c.addi4spn	s0,sp,896
     3ac:	02ac                	c.addi4spn	a1,sp,328
     3ae:	8000                	0x8000
     3b0:	02b4                	c.addi4spn	a3,sp,328
     3b2:	8000                	0x8000
     3b4:	3802                	c.fldsp	fa6,32(sp)
     3b6:	009f e407 0002      	0x2e407009f
     3bc:	f080                	c.fsw	fs0,32(s1)
     3be:	0002                	c.slli64	zero
     3c0:	0380                	c.addi4spn	s0,sp,448
     3c2:	4308                	c.lw	a0,0(a4)
     3c4:	079f 0354 8000      	0x80000354079f
     3ca:	03a4                	c.addi4spn	s1,sp,456
     3cc:	8000                	0x8000
     3ce:	9f430803          	lb	a6,-1548(t1)
     3d2:	00090c07          	0x90c07
     3d6:	1880                	c.addi4spn	s0,sp,112
     3d8:	0009                	c.addi	zero,2
     3da:	0380                	c.addi4spn	s0,sp,448
     3dc:	4308                	c.lw	a0,0(a4)
     3de:	079f 0934 8000      	0x80000934079f
     3e4:	093c                	c.addi4spn	a5,sp,152
     3e6:	8000                	0x8000
     3e8:	9f430803          	lb	a6,-1548(t1)
     3ec:	0700                	c.addi4spn	s0,sp,896
     3ee:	02e4                	c.addi4spn	s1,sp,332
     3f0:	8000                	0x8000
     3f2:	02f0                	c.addi4spn	a2,sp,332
     3f4:	8000                	0x8000
     3f6:	5f01                	c.li	t5,-32
     3f8:	00035407          	0x35407
     3fc:	6880                	c.flw	fs0,16(s1)
     3fe:	01800003          	lb	zero,24(zero) # 18 <__stack_size-0x1ffffe8>
     402:	075f 090c 8000      	0x8000090c075f
     408:	0918                	c.addi4spn	a4,sp,144
     40a:	8000                	0x8000
     40c:	5f01                	c.li	t5,-32
     40e:	00093407          	fld	fs0,0(s2)
     412:	3c80                	c.fld	fs0,56(s1)
     414:	0009                	c.addi	zero,2
     416:	0180                	c.addi4spn	s0,sp,192
     418:	005f a407 0003      	0x3a407005f
     41e:	b880                	c.fsd	fs0,48(s1)
     420:	06800003          	lb	zero,104(zero) # 68 <__stack_size-0x1ffff98>
     424:	c6a0                	c.sw	s0,72(a3)
     426:	00000003          	lb	zero,0(zero) # 0 <__stack_size-0x2000000>
     42a:	0700                	c.addi4spn	s0,sp,896
     42c:	03ac                	c.addi4spn	a1,sp,456
     42e:	8000                	0x8000
     430:	03b4                	c.addi4spn	a3,sp,456
     432:	8000                	0x8000
     434:	9f097a03          	0x9f097a03
     438:	0003b407          	fld	fs0,0(t2)
     43c:	b880                	c.fsd	fs0,48(s1)
     43e:	01800003          	lb	zero,24(zero) # 18 <__stack_size-0x1ffffe8>
     442:	005a                	c.slli	zero,0x16
     444:	0003b807          	fld	fa6,0(t2)
     448:	0c80                	c.addi4spn	s0,sp,592
     44a:	0009                	c.addi	zero,2
     44c:	0280                	c.addi4spn	s0,sp,320
     44e:	9f30                	0x9f30
     450:	00093c07          	fld	fs8,0(s2)
     454:	5080                	c.lw	s0,32(s1)
     456:	0009                	c.addi	zero,2
     458:	0280                	c.addi4spn	s0,sp,320
     45a:	9f30                	0x9f30
     45c:	0700                	c.addi4spn	s0,sp,896
     45e:	03e0                	c.addi4spn	s0,sp,460
     460:	8000                	0x8000
     462:	03fc                	c.addi4spn	a5,sp,460
     464:	8000                	0x8000
     466:	7b08                	c.flw	fa0,48(a4)
     468:	3500                	c.fld	fs0,40(a0)
     46a:	0829                	c.addi	a6,10
     46c:	1aff                	0x1aff
     46e:	079f 093c 8000      	0x8000093c079f
     474:	0944                	c.addi4spn	s1,sp,148
     476:	8000                	0x8000
     478:	7b08                	c.flw	fa0,48(a4)
     47a:	3500                	c.fld	fs0,40(a0)
     47c:	0829                	c.addi	a6,10
     47e:	1aff                	0x1aff
     480:	009f 1c07 0004      	0x41c07009f
     486:	3880                	c.fld	fs0,48(s1)
     488:	0004                	0x4
     48a:	0880                	c.addi4spn	s0,sp,80
     48c:	2931007b          	0x2931007b
     490:	ff08                	c.fsw	fa0,56(a4)
     492:	9f1a                	c.add	t5,t1
     494:	0700                	c.addi4spn	s0,sp,896
     496:	0458                	c.addi4spn	a4,sp,516
     498:	8000                	0x8000
     49a:	0474                	c.addi4spn	a3,sp,524
     49c:	8000                	0x8000
     49e:	7b0c                	c.flw	fa1,48(a4)
     4a0:	0800                	c.addi4spn	s0,sp,16
     4a2:	1aff                	0x1aff
     4a4:	4108                	c.lw	a0,0(a0)
     4a6:	0829                	c.addi	a6,10
     4a8:	1aff                	0x1aff
     4aa:	009f 9407 0004      	0x49407009f
     4b0:	b080                	c.fsd	fs0,32(s1)
     4b2:	0004                	0x4
     4b4:	0c80                	c.addi4spn	s0,sp,592
     4b6:	ff08007b          	0xff08007b
     4ba:	081a                	c.slli	a6,0x6
     4bc:	2942                	c.fldsp	fs2,16(sp)
     4be:	ff08                	c.fsw	fa0,56(a4)
     4c0:	9f1a                	c.add	t5,t1
     4c2:	0700                	c.addi4spn	s0,sp,896
     4c4:	04d0                	c.addi4spn	a2,sp,580
     4c6:	8000                	0x8000
     4c8:	04ec                	c.addi4spn	a1,sp,588
     4ca:	8000                	0x8000
     4cc:	7b08                	c.flw	fa0,48(a4)
     4ce:	3700                	c.fld	fs0,40(a4)
     4d0:	0829                	c.addi	a6,10
     4d2:	1aff                	0x1aff
     4d4:	009f 0c07 0005      	0x50c07009f
     4da:	2880                	c.fld	fs0,16(s1)
     4dc:	0005                	c.addi	zero,1
     4de:	0a80                	c.addi4spn	s0,sp,336
     4e0:	f20a007b          	0xf20a007b
     4e4:	ff082903          	lw	s2,-16(a6) # ffff8ff0 <_sp+0x77ff8ff0>
     4e8:	9f1a                	c.add	t5,t1
     4ea:	0700                	c.addi4spn	s0,sp,896
     4ec:	0548                	c.addi4spn	a0,sp,644
     4ee:	8000                	0x8000
     4f0:	0560                	c.addi4spn	s0,sp,652
     4f2:	8000                	0x8000
     4f4:	7b08                	c.flw	fa0,48(a4)
     4f6:	3000                	c.fld	fs0,32(s0)
     4f8:	0829                	c.addi	a6,10
     4fa:	1aff                	0x1aff
     4fc:	009f 8807 0005      	0x58807009f
     502:	a080                	c.fsd	fs0,0(s1)
     504:	0005                	c.addi	zero,1
     506:	0880                	c.addi4spn	s0,sp,80
     508:	2932007b          	0x2932007b
     50c:	ff08                	c.fsw	fa0,56(a4)
     50e:	9f1a                	c.add	t5,t1
     510:	0700                	c.addi4spn	s0,sp,896
     512:	05c8                	c.addi4spn	a0,sp,708
     514:	8000                	0x8000
     516:	05e0                	c.addi4spn	s0,sp,716
     518:	8000                	0x8000
     51a:	7b08                	c.flw	fa0,48(a4)
     51c:	4100                	c.lw	s0,0(a0)
     51e:	0829                	c.addi	a6,10
     520:	1aff                	0x1aff
     522:	009f 5c07 0006      	0x65c07009f
     528:	7480                	c.flw	fs0,40(s1)
     52a:	0006                	c.slli	zero,0x1
     52c:	0880                	c.addi4spn	s0,sp,80
     52e:	2930007b          	0x2930007b
     532:	ff08                	c.fsw	fa0,56(a4)
     534:	9f1a                	c.add	t5,t1
     536:	0700                	c.addi4spn	s0,sp,896
     538:	06a0                	c.addi4spn	s0,sp,840
     53a:	8000                	0x8000
     53c:	06b8                	c.addi4spn	a4,sp,840
     53e:	8000                	0x8000
     540:	7b08                	c.flw	fa0,48(a4)
     542:	3100                	c.fld	fs0,32(a0)
     544:	0829                	c.addi	a6,10
     546:	1aff                	0x1aff
     548:	009f e407 0006      	0x6e407009f
     54e:	fc80                	c.fsw	fs0,56(s1)
     550:	0006                	c.slli	zero,0x1
     552:	0880                	c.addi4spn	s0,sp,80
     554:	2942007b          	0x2942007b
     558:	ff08                	c.fsw	fa0,56(a4)
     55a:	9f1a                	c.add	t5,t1
     55c:	0700                	c.addi4spn	s0,sp,896
     55e:	0770                	c.addi4spn	a2,sp,908
     560:	8000                	0x8000
     562:	078c                	c.addi4spn	a1,sp,960
     564:	8000                	0x8000
     566:	7e08                	c.flw	fa0,56(a2)
     568:	3500                	c.fld	fs0,40(a0)
     56a:	0829                	c.addi	a6,10
     56c:	1aff                	0x1aff
     56e:	009f a407 0007      	0x7a407009f
     574:	bc80                	c.fsd	fs0,56(s1)
     576:	08800007          	0x8800007
     57a:	007c                	c.addi4spn	a5,sp,12
     57c:	293d                	c.jal	9ba <__stack_size-0x1fff646>
     57e:	ff08                	c.fsw	fa0,56(a4)
     580:	9f1a                	c.add	t5,t1
     582:	0700                	c.addi4spn	s0,sp,896
     584:	07d0                	c.addi4spn	a2,sp,964
     586:	8000                	0x8000
     588:	07e4                	c.addi4spn	s1,sp,972
     58a:	8000                	0x8000
     58c:	8908                	0x8908
     58e:	3100                	c.fld	fs0,32(a0)
     590:	0829                	c.addi	a6,10
     592:	1aff                	0x1aff
     594:	009f 4807 000a      	0xa4807009f
     59a:	7080                	c.flw	fs0,32(s1)
     59c:	0180000b          	0x180000b
     5a0:	075a                	c.slli	a4,0x16
     5a2:	0b70                	c.addi4spn	a2,sp,412
     5a4:	8000                	0x8000
     5a6:	0ba0                	c.addi4spn	s0,sp,472
     5a8:	8000                	0x8000
     5aa:	a304                	c.fsd	fs1,0(a4)
     5ac:	5a01                	c.li	s4,-32
     5ae:	009f 6007 000a      	0xa6007009f
     5b4:	0080                	c.addi4spn	s0,sp,64
     5b6:	0180000b          	0x180000b
     5ba:	0758                	c.addi4spn	a4,sp,900
     5bc:	0b6c                	c.addi4spn	a1,sp,412
     5be:	8000                	0x8000
     5c0:	0b94                	c.addi4spn	a3,sp,464
     5c2:	8000                	0x8000
     5c4:	5801                	c.li	a6,-32
     5c6:	0700                	c.addi4spn	s0,sp,896
     5c8:	0ae8                	c.addi4spn	a0,sp,348
     5ca:	8000                	0x8000
     5cc:	0aec                	c.addi4spn	a1,sp,348
     5ce:	8000                	0x8000
     5d0:	5801                	c.li	a6,-32
     5d2:	0700                	c.addi4spn	s0,sp,896
     5d4:	0ae8                	c.addi4spn	a0,sp,348
     5d6:	8000                	0x8000
     5d8:	0aec                	c.addi4spn	a1,sp,348
     5da:	8000                	0x8000
     5dc:	9f0c7d03          	0x9f0c7d03
     5e0:	0700                	c.addi4spn	s0,sp,896
     5e2:	0ae8                	c.addi4spn	a0,sp,348
     5e4:	8000                	0x8000
     5e6:	0aec                	c.addi4spn	a1,sp,348
     5e8:	8000                	0x8000
     5ea:	0305                	c.addi	t1,1
     5ec:	49a8                	c.lw	a0,80(a1)
     5ee:	8000                	0x8000
     5f0:	0700                	c.addi4spn	s0,sp,896
     5f2:	0ae8                	c.addi4spn	a0,sp,348
     5f4:	8000                	0x8000
     5f6:	0aec                	c.addi4spn	a1,sp,348
     5f8:	8000                	0x8000
     5fa:	3a02                	c.fldsp	fs4,32(sp)
     5fc:	009f e807 000a      	0xae807009f
     602:	ec80                	c.fsw	fs0,24(s1)
     604:	000a                	c.slli	zero,0x2
     606:	0280                	c.addi4spn	s0,sp,320
     608:	9f3c                	0x9f3c
     60a:	0700                	c.addi4spn	s0,sp,896
     60c:	0b88                	c.addi4spn	a0,sp,464
     60e:	8000                	0x8000
     610:	0b94                	c.addi4spn	a3,sp,464
     612:	8000                	0x8000
     614:	9f0c7803          	0x9f0c7803
     618:	0700                	c.addi4spn	s0,sp,896
     61a:	095c                	c.addi4spn	a5,sp,148
     61c:	8000                	0x8000
     61e:	0964                	c.addi4spn	s1,sp,156
     620:	8000                	0x8000
     622:	7a06                	c.flwsp	fs4,96(sp)
     624:	0600                	c.addi4spn	s0,sp,768
     626:	079f0a23          	sb	s9,116(t5) # 7009074 <__stack_size+0x5009074>
     62a:	0964                	c.addi4spn	s1,sp,156
     62c:	8000                	0x8000
     62e:	0974                	c.addi4spn	a3,sp,156
     630:	8000                	0x8000
     632:	7a06                	c.flwsp	fs4,96(sp)
     634:	0600                	c.addi4spn	s0,sp,768
     636:	079f0923          	sb	s9,114(t5)
     63a:	0974                	c.addi4spn	a3,sp,156
     63c:	8000                	0x8000
     63e:	0978                	c.addi4spn	a4,sp,156
     640:	8000                	0x8000
     642:	5f01                	c.li	t5,-32
     644:	00097807          	0x97807
     648:	7c80                	c.flw	fs0,56(s1)
     64a:	0009                	c.addi	zero,2
     64c:	0680                	c.addi4spn	s0,sp,832
     64e:	007a                	c.slli	zero,0x1e
     650:	2306                	c.fldsp	ft6,64(sp)
     652:	9f09                	0x9f09
     654:	0700                	c.addi4spn	s0,sp,896
     656:	0998                	c.addi4spn	a4,sp,208
     658:	8000                	0x8000
     65a:	09a8                	c.addi4spn	a0,sp,216
     65c:	8000                	0x8000
     65e:	0309                	c.addi	t1,2
     660:	49b0                	c.lw	a2,80(a1)
     662:	8000                	0x8000
     664:	2306                	c.fldsp	ft6,64(sp)
     666:	9f0c                	0x9f0c
     668:	0700                	c.addi4spn	s0,sp,896
     66a:	0998                	c.addi4spn	a4,sp,208
     66c:	8000                	0x8000
     66e:	09a8                	c.addi4spn	a0,sp,216
     670:	8000                	0x8000
     672:	0305                	c.addi	t1,1
     674:	49a8                	c.lw	a0,80(a1)
     676:	8000                	0x8000
     678:	0700                	c.addi4spn	s0,sp,896
     67a:	0998                	c.addi4spn	a4,sp,208
     67c:	8000                	0x8000
     67e:	09a8                	c.addi4spn	a0,sp,216
     680:	8000                	0x8000
     682:	3a02                	c.fldsp	fs4,32(sp)
     684:	009f 9807 0009      	0x99807009f
     68a:	a880                	c.fsd	fs0,16(s1)
     68c:	0009                	c.addi	zero,2
     68e:	0280                	c.addi4spn	s0,sp,320
     690:	9f3c                	0x9f3c
     692:	0700                	c.addi4spn	s0,sp,896
     694:	09f4                	c.addi4spn	a3,sp,220
     696:	8000                	0x8000
     698:	09fc                	c.addi4spn	a5,sp,220
     69a:	8000                	0x8000
     69c:	5a01                	c.li	s4,-32
     69e:	0700                	c.addi4spn	s0,sp,896
     6a0:	0a20                	c.addi4spn	s0,sp,280
     6a2:	8000                	0x8000
     6a4:	0a30                	c.addi4spn	a2,sp,280
     6a6:	8000                	0x8000
     6a8:	3102                	c.fldsp	ft2,32(sp)
     6aa:	009f 2007 000a      	0xa2007009f
     6b0:	3080                	c.fld	fs0,32(s1)
     6b2:	000a                	c.slli	zero,0x2
     6b4:	0180                	c.addi4spn	s0,sp,192
     6b6:	a007005b          	0xa007005b
     6ba:	a480000b          	0xa480000b
     6be:	0180000b          	0x180000b
     6c2:	075a                	c.slli	a4,0x16
     6c4:	0ba4                	c.addi4spn	s1,sp,472
     6c6:	8000                	0x8000
     6c8:	0ba8                	c.addi4spn	a0,sp,472
     6ca:	8000                	0x8000
     6cc:	9f7e7a03          	0x9f7e7a03
     6d0:	000ba807          	flw	fa6,0(s7)
     6d4:	b080                	c.fsd	fs0,32(s1)
     6d6:	0480000b          	0x480000b
     6da:	9f5a01a3          	sb	s5,-1565(s4) # ffff99e3 <_sp+0x77ff99e3>
     6de:	0700                	c.addi4spn	s0,sp,896
     6e0:	0ba0                	c.addi4spn	s0,sp,472
     6e2:	8000                	0x8000
     6e4:	0ba4                	c.addi4spn	s1,sp,472
     6e6:	8000                	0x8000
     6e8:	9f027a03          	0x9f027a03
     6ec:	000ba407          	flw	fs0,0(s7)
     6f0:	a880                	c.fsd	fs0,16(s1)
     6f2:	0180000b          	0x180000b
     6f6:	075a                	c.slli	a4,0x16
     6f8:	0ba8                	c.addi4spn	a0,sp,472
     6fa:	8000                	0x8000
     6fc:	0bb0                	c.addi4spn	a2,sp,472
     6fe:	8000                	0x8000
     700:	a306                	c.fsdsp	ft1,384(sp)
     702:	5a01                	c.li	s4,-32
     704:	009f0223          	sb	s1,4(t5)
     708:	000bb007          	fld	ft0,0(s7)
     70c:	d480                	c.sw	s0,40(s1)
     70e:	0180000b          	0x180000b
     712:	075a                	c.slli	a4,0x16
     714:	0bd4                	c.addi4spn	a3,sp,468
     716:	8000                	0x8000
     718:	0c24                	c.addi4spn	s1,sp,536
     71a:	8000                	0x8000
     71c:	a304                	c.fsd	fs1,0(a4)
     71e:	5a01                	c.li	s4,-32
     720:	009f b007 000b      	0xbb007009f
     726:	0480                	c.addi4spn	s0,sp,576
     728:	000c                	0xc
     72a:	0180                	c.addi4spn	s0,sp,192
     72c:	0c04075b          	0xc04075b
     730:	8000                	0x8000
     732:	0c24                	c.addi4spn	s1,sp,536
     734:	8000                	0x8000
     736:	a304                	c.fsd	fs1,0(a4)
     738:	5b01                	c.li	s6,-32
     73a:	009f b007 000b      	0xbb007009f
     740:	d080                	c.sw	s0,32(s1)
     742:	0180000b          	0x180000b
     746:	075c                	c.addi4spn	a5,sp,900
     748:	0bd0                	c.addi4spn	a2,sp,468
     74a:	8000                	0x8000
     74c:	0bf8                	c.addi4spn	a4,sp,476
     74e:	8000                	0x8000
     750:	9f7b7e03          	0x9f7b7e03
     754:	000bf807          	0xbf807
     758:	1480                	c.addi4spn	s0,sp,608
     75a:	000c                	0xc
     75c:	0680                	c.addi4spn	s0,sp,832
     75e:	147d                	c.addi	s0,-1
     760:	3506                	c.fldsp	fa0,96(sp)
     762:	9f1c                	0x9f1c
     764:	000c1407          	0xc1407
     768:	2480                	c.fld	fs0,8(s1)
     76a:	000c                	0xc
     76c:	0480                	c.addi4spn	s0,sp,576
     76e:	9f5c01a3          	sb	s5,-1565(s8) # 179e3 <__stack_size-0x1fe861d>
     772:	0700                	c.addi4spn	s0,sp,896
     774:	0bb0                	c.addi4spn	a2,sp,472
     776:	8000                	0x8000
     778:	0be8                	c.addi4spn	a0,sp,476
     77a:	8000                	0x8000
     77c:	5d01                	c.li	s10,-32
     77e:	000be807          	0xbe807
     782:	f080                	c.fsw	fs0,32(s1)
     784:	0280000b          	0x280000b
     788:	007a                	c.slli	zero,0x1e
     78a:	000bf007          	0xbf007
     78e:	2480                	c.fld	fs0,8(s1)
     790:	000c                	0xc
     792:	0480                	c.addi4spn	s0,sp,576
     794:	9f5d01a3          	sb	s5,-1565(s10) # 1c9e3 <__stack_size-0x1fe361d>
     798:	0700                	c.addi4spn	s0,sp,896
     79a:	0be4                	c.addi4spn	s1,sp,476
     79c:	8000                	0x8000
     79e:	0bf0                	c.addi4spn	a2,sp,476
     7a0:	8000                	0x8000
     7a2:	5e01                	c.li	t3,-32
     7a4:	000bf007          	0xbf007
     7a8:	f480                	c.fsw	fs0,40(s1)
     7aa:	0380000b          	0x380000b
     7ae:	017e                	c.slli	sp,0x1f
     7b0:	079f 0bf4 8000      	0x80000bf4079f
     7b6:	0bf8                	c.addi4spn	a4,sp,476
     7b8:	8000                	0x8000
     7ba:	9f027e03          	0x9f027e03
     7be:	000bf807          	0xbf807
     7c2:	1480                	c.addi4spn	s0,sp,608
     7c4:	000c                	0xc
     7c6:	0680                	c.addi4spn	s0,sp,832
     7c8:	147d                	c.addi	s0,-1
     7ca:	2306                	c.fldsp	ft6,64(sp)
     7cc:	9f02                	c.jalr	t5
     7ce:	000c1407          	0xc1407
     7d2:	2480                	c.fld	fs0,8(s1)
     7d4:	000c                	0xc
     7d6:	0680                	c.addi4spn	s0,sp,832
     7d8:	235c01a3          	sb	s5,547(s8)
     7dc:	07009f07          	0x7009f07
     7e0:	0bb4                	c.addi4spn	a3,sp,472
     7e2:	8000                	0x8000
     7e4:	0bf8                	c.addi4spn	a4,sp,476
     7e6:	8000                	0x8000
     7e8:	5e01                	c.li	t3,-32
     7ea:	000bf807          	0xbf807
     7ee:	1480                	c.addi4spn	s0,sp,608
     7f0:	000c                	0xc
     7f2:	0280                	c.addi4spn	s0,sp,320
     7f4:	147d                	c.addi	s0,-1
     7f6:	000c1407          	0xc1407
     7fa:	2480                	c.fld	fs0,8(s1)
     7fc:	000c                	0xc
     7fe:	0680                	c.addi4spn	s0,sp,832
     800:	235c01a3          	sb	s5,547(s8)
     804:	9f05                	0x9f05
     806:	0700                	c.addi4spn	s0,sp,896
     808:	0c24                	c.addi4spn	s1,sp,536
     80a:	8000                	0x8000
     80c:	0c34                	c.addi4spn	a3,sp,536
     80e:	8000                	0x8000
     810:	5a01                	c.li	s4,-32
     812:	000c3407          	fld	fs0,0(s8)
     816:	4880                	c.lw	s0,16(s1)
     818:	000c                	0xc
     81a:	0480                	c.addi4spn	s0,sp,576
     81c:	9f5a01a3          	sb	s5,-1565(s4)
     820:	0700                	c.addi4spn	s0,sp,896
     822:	0c28                	c.addi4spn	a0,sp,536
     824:	8000                	0x8000
     826:	0c34                	c.addi4spn	a3,sp,536
     828:	8000                	0x8000
     82a:	5a01                	c.li	s4,-32
     82c:	000c3407          	fld	fs0,0(s8)
     830:	3880                	c.fld	fs0,48(s1)
     832:	000c                	0xc
     834:	0480                	c.addi4spn	s0,sp,576
     836:	9f5a01a3          	sb	s5,-1565(s4)
     83a:	000c3807          	fld	fa6,0(s8)
     83e:	4480                	c.lw	s0,8(s1)
     840:	000c                	0xc
     842:	0180                	c.addi4spn	s0,sp,192
     844:	075a                	c.slli	a4,0x16
     846:	0c44                	c.addi4spn	s1,sp,532
     848:	8000                	0x8000
     84a:	0c48                	c.addi4spn	a0,sp,532
     84c:	8000                	0x8000
     84e:	0305                	c.addi	t1,1
     850:	49a1                	c.li	s3,8
     852:	8000                	0x8000
     854:	0700                	c.addi4spn	s0,sp,896
     856:	0c28                	c.addi4spn	a0,sp,536
     858:	8000                	0x8000
     85a:	0c34                	c.addi4spn	a3,sp,536
     85c:	8000                	0x8000
     85e:	5a01                	c.li	s4,-32
     860:	000c3407          	fld	fs0,0(s8)
     864:	3880                	c.fld	fs0,48(s1)
     866:	000c                	0xc
     868:	0480                	c.addi4spn	s0,sp,576
     86a:	9f5a01a3          	sb	s5,-1565(s4)
     86e:	000c3807          	fld	fa6,0(s8)
     872:	4480                	c.lw	s0,8(s1)
     874:	000c                	0xc
     876:	0180                	c.addi4spn	s0,sp,192
     878:	075a                	c.slli	a4,0x16
     87a:	0c44                	c.addi4spn	s1,sp,532
     87c:	8000                	0x8000
     87e:	0c48                	c.addi4spn	a0,sp,532
     880:	8000                	0x8000
     882:	0305                	c.addi	t1,1
     884:	49a1                	c.li	s3,8
     886:	8000                	0x8000
     888:	0700                	c.addi4spn	s0,sp,896
     88a:	0c48                	c.addi4spn	a0,sp,532
     88c:	8000                	0x8000
     88e:	80000c73          	0x80000c73
     892:	5a01                	c.li	s4,-32
     894:	000c7307          	0xc7307
     898:	9c80                	0x9c80
     89a:	000c                	0xc
     89c:	0480                	c.addi4spn	s0,sp,576
     89e:	9f5a01a3          	sb	s5,-1565(s4)
     8a2:	000c9c07          	0xc9c07
     8a6:	a880                	c.fsd	fs0,16(s1)
     8a8:	000c                	0xc
     8aa:	0180                	c.addi4spn	s0,sp,192
     8ac:	005a                	c.slli	zero,0x16
     8ae:	000c4807          	flq	fa6,0(s8)
     8b2:	7380                	c.flw	fs0,32(a5)
     8b4:	000c                	0xc
     8b6:	0180                	c.addi4spn	s0,sp,192
     8b8:	0c73075b          	0xc73075b
     8bc:	8000                	0x8000
     8be:	0c9c                	c.addi4spn	a5,sp,592
     8c0:	8000                	0x8000
     8c2:	a304                	c.fsd	fs1,0(a4)
     8c4:	5b01                	c.li	s6,-32
     8c6:	079f 0c9c 8000      	0x80000c9c079f
     8cc:	0ca8                	c.addi4spn	a0,sp,600
     8ce:	8000                	0x8000
     8d0:	5b01                	c.li	s6,-32
     8d2:	0700                	c.addi4spn	s0,sp,896
     8d4:	0c48                	c.addi4spn	a0,sp,532
     8d6:	8000                	0x8000
     8d8:	0c70                	c.addi4spn	a2,sp,540
     8da:	8000                	0x8000
     8dc:	3202                	c.fldsp	ft4,32(sp)
     8de:	079f 0c70 8000      	0x80000c70079f
     8e4:	0c7c                	c.addi4spn	a5,sp,540
     8e6:	8000                	0x8000
     8e8:	3302                	c.fldsp	ft6,32(sp)
     8ea:	079f 0c7c 8000      	0x80000c7c079f
     8f0:	0c8c                	c.addi4spn	a1,sp,592
     8f2:	8000                	0x8000
     8f4:	3a02                	c.fldsp	fs4,32(sp)
     8f6:	079f 0c9c 8000      	0x80000c9c079f
     8fc:	0ca8                	c.addi4spn	a0,sp,600
     8fe:	8000                	0x8000
     900:	3202                	c.fldsp	ft4,32(sp)
     902:	009f 6007 000c      	0xc6007009f
     908:	7080                	c.flw	fs0,32(s1)
     90a:	000c                	0xc
     90c:	0280                	c.addi4spn	s0,sp,320
     90e:	9c07037b          	0x9c07037b
     912:	000c                	0xc
     914:	a880                	c.fsd	fs0,16(s1)
     916:	000c                	0xc
     918:	0280                	c.addi4spn	s0,sp,320
     91a:	0700037b          	0x700037b
     91e:	0c60                	c.addi4spn	s0,sp,540
     920:	8000                	0x8000
     922:	0c70                	c.addi4spn	a2,sp,540
     924:	8000                	0x8000
     926:	7a02                	c.flwsp	fs4,32(sp)
     928:	0702                	c.slli64	a4
     92a:	0c9c                	c.addi4spn	a5,sp,592
     92c:	8000                	0x8000
     92e:	0ca8                	c.addi4spn	a0,sp,600
     930:	8000                	0x8000
     932:	7a02                	c.flwsp	fs4,32(sp)
     934:	0002                	c.slli64	zero
     936:	000c6007          	0xc6007
     93a:	7380                	c.flw	fs0,32(a5)
     93c:	000c                	0xc
     93e:	0280                	c.addi4spn	s0,sp,320
     940:	027a                	c.slli	tp,0x1e
     942:	000c9c07          	0xc9c07
     946:	a880                	c.fsd	fs0,16(s1)
     948:	000c                	0xc
     94a:	0280                	c.addi4spn	s0,sp,320
     94c:	027a                	c.slli	tp,0x1e
     94e:	0700                	c.addi4spn	s0,sp,896
     950:	0ca8                	c.addi4spn	a0,sp,600
     952:	8000                	0x8000
     954:	0cac                	c.addi4spn	a1,sp,600
     956:	8000                	0x8000
     958:	5a01                	c.li	s4,-32
     95a:	000cac07          	flw	fs8,0(s9)
     95e:	b080                	c.fsd	fs0,32(s1)
     960:	000c                	0xc
     962:	0380                	c.addi4spn	s0,sp,448
     964:	027a                	c.slli	tp,0x1e
     966:	079f 0cb0 8000      	0x80000cb0079f
     96c:	0cb4                	c.addi4spn	a3,sp,600
     96e:	8000                	0x8000
     970:	a304                	c.fsd	fs1,0(a4)
     972:	5a01                	c.li	s4,-32
     974:	009f a807 000c      	0xca807009f
     97a:	ac80                	c.fsd	fs0,24(s1)
     97c:	000c                	0xc
     97e:	0180                	c.addi4spn	s0,sp,192
     980:	075a                	c.slli	a4,0x16
     982:	0cac                	c.addi4spn	a1,sp,600
     984:	8000                	0x8000
     986:	0cb0                	c.addi4spn	a2,sp,600
     988:	8000                	0x8000
     98a:	9f027a03          	0x9f027a03
     98e:	000cb007          	fld	ft0,0(s9)
     992:	b480                	c.fsd	fs0,40(s1)
     994:	000c                	0xc
     996:	0480                	c.addi4spn	s0,sp,576
     998:	9f5a01a3          	sb	s5,-1565(s4)
     99c:	1300                	c.addi4spn	s0,sp,416
     99e:	05000003          	lb	zero,80(zero) # 50 <__stack_size-0x1ffffb0>
     9a2:	0400                	c.addi4spn	s0,sp,512
     9a4:	0000                	c.unimp
     9a6:	0000                	c.unimp
     9a8:	0700                	c.addi4spn	s0,sp,896
     9aa:	0d40                	c.addi4spn	s0,sp,660
     9ac:	8000                	0x8000
     9ae:	0d54                	c.addi4spn	a3,sp,660
     9b0:	8000                	0x8000
     9b2:	3002                	c.fldsp	ft0,32(sp)
     9b4:	009f 4007 000d      	0xd4007009f
     9ba:	5480                	c.lw	s0,40(s1)
     9bc:	000d                	c.addi	zero,3
     9be:	0280                	c.addi4spn	s0,sp,320
     9c0:	9f31                	0x9f31
     9c2:	0700                	c.addi4spn	s0,sp,896
     9c4:	0d44                	c.addi4spn	s1,sp,660
     9c6:	8000                	0x8000
     9c8:	0d50                	c.addi4spn	a2,sp,660
     9ca:	8000                	0x8000
     9cc:	0309                	c.addi	t1,2
     9ce:	49b8                	c.lw	a4,80(a1)
     9d0:	8000                	0x8000
     9d2:	2306                	c.fldsp	ft6,64(sp)
     9d4:	9f01                	0x9f01
     9d6:	000d5007          	0xd5007
     9da:	5480                	c.lw	s0,40(s1)
     9dc:	000d                	c.addi	zero,3
     9de:	0180                	c.addi4spn	s0,sp,192
     9e0:	005c                	c.addi4spn	a5,sp,4
     9e2:	000d4407          	flq	fs0,0(s10)
     9e6:	5480                	c.lw	s0,40(s1)
     9e8:	000d                	c.addi	zero,3
     9ea:	0280                	c.addi4spn	s0,sp,320
     9ec:	9f30                	0x9f30
     9ee:	0700                	c.addi4spn	s0,sp,896
     9f0:	0d54                	c.addi4spn	a3,sp,660
     9f2:	8000                	0x8000
     9f4:	0d74                	c.addi4spn	a3,sp,668
     9f6:	8000                	0x8000
     9f8:	9f800803          	lb	a6,-1544(zero) # fffff9f8 <_sp+0x77fff9f8>
     9fc:	0700                	c.addi4spn	s0,sp,896
     9fe:	0d54                	c.addi4spn	a3,sp,660
     a00:	8000                	0x8000
     a02:	0d74                	c.addi4spn	a3,sp,668
     a04:	8000                	0x8000
     a06:	3302                	c.fldsp	ft6,32(sp)
     a08:	009f 6007 000d      	0xd6007009f
     a0e:	7080                	c.flw	fs0,32(s1)
     a10:	000d                	c.addi	zero,3
     a12:	0180                	c.addi4spn	s0,sp,192
     a14:	075a                	c.slli	a4,0x16
     a16:	0d70                	c.addi4spn	a2,sp,668
     a18:	8000                	0x8000
     a1a:	0d74                	c.addi4spn	a3,sp,668
     a1c:	8000                	0x8000
     a1e:	7c0e                	c.flwsp	fs8,224(sp)
     a20:	0300                	c.addi4spn	s0,sp,384
     a22:	49b4                	c.lw	a3,80(a1)
     a24:	8000                	0x8000
     a26:	0194                	c.addi4spn	a3,sp,192
     a28:	ff08                	c.fsw	fa0,56(a4)
     a2a:	241a                	c.fldsp	fs0,384(sp)
     a2c:	009f 6407 000d      	0xd6407009f
     a32:	6c80                	c.flw	fs0,24(s1)
     a34:	000d                	c.addi	zero,3
     a36:	0a80                	c.addi4spn	s0,sp,336
     a38:	0049b803          	0x49b803
     a3c:	0680                	c.addi4spn	s0,sp,832
     a3e:	007a                	c.slli	zero,0x1e
     a40:	9f22                	c.add	t5,s0
     a42:	000d6c07          	0xd6c07
     a46:	7480                	c.flw	fs0,40(s1)
     a48:	000d                	c.addi	zero,3
     a4a:	0180                	c.addi4spn	s0,sp,192
     a4c:	6407005b          	0x6407005b
     a50:	000d                	c.addi	zero,3
     a52:	7480                	c.flw	fs0,40(s1)
     a54:	000d                	c.addi	zero,3
     a56:	0380                	c.addi4spn	s0,sp,448
     a58:	8008                	0x8008
     a5a:	009f 7407 000d      	0xd7407009f
     a60:	9080                	0x9080
     a62:	000d                	c.addi	zero,3
     a64:	0280                	c.addi4spn	s0,sp,320
     a66:	9f30                	0x9f30
     a68:	0700                	c.addi4spn	s0,sp,896
     a6a:	0d74                	c.addi4spn	a3,sp,668
     a6c:	8000                	0x8000
     a6e:	0d90                	c.addi4spn	a2,sp,720
     a70:	8000                	0x8000
     a72:	3102                	c.fldsp	ft2,32(sp)
     a74:	009f 8007 000d      	0xd8007009f
     a7a:	9080                	0x9080
     a7c:	000d                	c.addi	zero,3
     a7e:	0180                	c.addi4spn	s0,sp,192
     a80:	005a                	c.slli	zero,0x16
     a82:	000d8407          	0xd8407
     a86:	8c80                	0x8c80
     a88:	000d                	c.addi	zero,3
     a8a:	0a80                	c.addi4spn	s0,sp,336
     a8c:	0049b803          	0x49b803
     a90:	0680                	c.addi4spn	s0,sp,832
     a92:	007a                	c.slli	zero,0x1e
     a94:	9f22                	c.add	t5,s0
     a96:	000d8c07          	0xd8c07
     a9a:	9080                	0x9080
     a9c:	000d                	c.addi	zero,3
     a9e:	0180                	c.addi4spn	s0,sp,192
     aa0:	8407005b          	0x8407005b
     aa4:	000d                	c.addi	zero,3
     aa6:	9080                	0x9080
     aa8:	000d                	c.addi	zero,3
     aaa:	0280                	c.addi4spn	s0,sp,320
     aac:	9f30                	0x9f30
     aae:	0700                	c.addi4spn	s0,sp,896
     ab0:	0d90                	c.addi4spn	a2,sp,720
     ab2:	8000                	0x8000
     ab4:	0dac                	c.addi4spn	a1,sp,728
     ab6:	8000                	0x8000
     ab8:	3302                	c.fldsp	ft6,32(sp)
     aba:	009f 9807 000d      	0xd9807009f
     ac0:	a480                	c.fsd	fs0,8(s1)
     ac2:	000d                	c.addi	zero,3
     ac4:	0180                	c.addi4spn	s0,sp,192
     ac6:	075c                	c.addi4spn	a5,sp,900
     ac8:	0da4                	c.addi4spn	s1,sp,728
     aca:	8000                	0x8000
     acc:	0dac                	c.addi4spn	a1,sp,728
     ace:	8000                	0x8000
     ad0:	330d                	c.jal	7f2 <__stack_size-0x1fff80e>
     ad2:	0049b403          	0x49b403
     ad6:	9480                	0x9480
     ad8:	0801                	c.addi	a6,0
     ada:	1aff                	0x1aff
     adc:	9f24                	0x9f24
     ade:	0700                	c.addi4spn	s0,sp,896
     ae0:	0d9c                	c.addi4spn	a5,sp,720
     ae2:	8000                	0x8000
     ae4:	0da4                	c.addi4spn	s1,sp,728
     ae6:	8000                	0x8000
     ae8:	030a                	c.slli	t1,0x2
     aea:	49b8                	c.lw	a4,80(a1)
     aec:	8000                	0x8000
     aee:	7c06                	c.flwsp	fs8,96(sp)
     af0:	2200                	c.fld	fs0,0(a2)
     af2:	079f 0da4 8000      	0x80000da4079f
     af8:	0dac                	c.addi4spn	a1,sp,728
     afa:	8000                	0x8000
     afc:	5c01                	c.li	s8,-32
     afe:	0700                	c.addi4spn	s0,sp,896
     b00:	0d9c                	c.addi4spn	a5,sp,720
     b02:	8000                	0x8000
     b04:	0dac                	c.addi4spn	a1,sp,728
     b06:	8000                	0x8000
     b08:	3302                	c.fldsp	ft6,32(sp)
     b0a:	009f ac07 000d      	0xdac07009f
     b10:	cc80                	c.sw	s0,24(s1)
     b12:	000d                	c.addi	zero,3
     b14:	0280                	c.addi4spn	s0,sp,320
     b16:	9f31                	0x9f31
     b18:	0700                	c.addi4spn	s0,sp,896
     b1a:	0dac                	c.addi4spn	a1,sp,728
     b1c:	8000                	0x8000
     b1e:	0dcc                	c.addi4spn	a1,sp,724
     b20:	8000                	0x8000
     b22:	3202                	c.fldsp	ft4,32(sp)
     b24:	009f b807 000d      	0xdb807009f
     b2a:	c880                	c.sw	s0,16(s1)
     b2c:	000d                	c.addi	zero,3
     b2e:	0180                	c.addi4spn	s0,sp,192
     b30:	0dc8075b          	0xdc8075b
     b34:	8000                	0x8000
     b36:	0dcc                	c.addi4spn	a1,sp,724
     b38:	8000                	0x8000
     b3a:	320d                	c.jal	45c <__stack_size-0x1fffba4>
     b3c:	0049b403          	0x49b403
     b40:	9480                	0x9480
     b42:	0801                	c.addi	a6,0
     b44:	1aff                	0x1aff
     b46:	9f24                	0x9f24
     b48:	0700                	c.addi4spn	s0,sp,896
     b4a:	0dbc                	c.addi4spn	a5,sp,728
     b4c:	8000                	0x8000
     b4e:	0dc4                	c.addi4spn	s1,sp,724
     b50:	8000                	0x8000
     b52:	030a                	c.slli	t1,0x2
     b54:	49b8                	c.lw	a4,80(a1)
     b56:	8000                	0x8000
     b58:	7b06                	c.flwsp	fs6,96(sp)
     b5a:	2200                	c.fld	fs0,0(a2)
     b5c:	079f 0dc4 8000      	0x80000dc4079f
     b62:	0dcc                	c.addi4spn	a1,sp,724
     b64:	8000                	0x8000
     b66:	5c01                	c.li	s8,-32
     b68:	0700                	c.addi4spn	s0,sp,896
     b6a:	0dbc                	c.addi4spn	a5,sp,728
     b6c:	8000                	0x8000
     b6e:	0dcc                	c.addi4spn	a1,sp,724
     b70:	8000                	0x8000
     b72:	3102                	c.fldsp	ft2,32(sp)
     b74:	009f cc07 000d      	0xdcc07009f
     b7a:	e880                	c.fsw	fs0,16(s1)
     b7c:	000d                	c.addi	zero,3
     b7e:	0280                	c.addi4spn	s0,sp,320
     b80:	9f30                	0x9f30
     b82:	0700                	c.addi4spn	s0,sp,896
     b84:	0dcc                	c.addi4spn	a1,sp,724
     b86:	8000                	0x8000
     b88:	0de8                	c.addi4spn	a0,sp,732
     b8a:	8000                	0x8000
     b8c:	3402                	c.fldsp	fs0,32(sp)
     b8e:	009f d807 000d      	0xdd807009f
     b94:	e880                	c.fsw	fs0,16(s1)
     b96:	000d                	c.addi	zero,3
     b98:	0180                	c.addi4spn	s0,sp,192
     b9a:	dc07005b          	0xdc07005b
     b9e:	000d                	c.addi	zero,3
     ba0:	e480                	c.fsw	fs0,8(s1)
     ba2:	000d                	c.addi	zero,3
     ba4:	0a80                	c.addi4spn	s0,sp,336
     ba6:	0049b803          	0x49b803
     baa:	0680                	c.addi4spn	s0,sp,832
     bac:	9f22007b          	0x9f22007b
     bb0:	000de407          	0xde407
     bb4:	e880                	c.fsw	fs0,16(s1)
     bb6:	000d                	c.addi	zero,3
     bb8:	0180                	c.addi4spn	s0,sp,192
     bba:	005c                	c.addi4spn	a5,sp,4
     bbc:	000ddc07          	0xddc07
     bc0:	e880                	c.fsw	fs0,16(s1)
     bc2:	000d                	c.addi	zero,3
     bc4:	0280                	c.addi4spn	s0,sp,320
     bc6:	9f30                	0x9f30
     bc8:	0700                	c.addi4spn	s0,sp,896
     bca:	0de8                	c.addi4spn	a0,sp,732
     bcc:	8000                	0x8000
     bce:	0e04                	c.addi4spn	s1,sp,784
     bd0:	8000                	0x8000
     bd2:	3002                	c.fldsp	ft0,32(sp)
     bd4:	009f e807 000d      	0xde807009f
     bda:	0480                	c.addi4spn	s0,sp,576
     bdc:	000e                	c.slli	zero,0x3
     bde:	0280                	c.addi4spn	s0,sp,320
     be0:	07009f37          	lui	t5,0x7009
     be4:	0df4                	c.addi4spn	a3,sp,732
     be6:	8000                	0x8000
     be8:	0e04                	c.addi4spn	s1,sp,784
     bea:	8000                	0x8000
     bec:	5e01                	c.li	t3,-32
     bee:	0700                	c.addi4spn	s0,sp,896
     bf0:	0df8                	c.addi4spn	a4,sp,732
     bf2:	8000                	0x8000
     bf4:	0e00                	c.addi4spn	s0,sp,784
     bf6:	8000                	0x8000
     bf8:	030a                	c.slli	t1,0x2
     bfa:	49b8                	c.lw	a4,80(a1)
     bfc:	8000                	0x8000
     bfe:	7e06                	c.flwsp	ft8,96(sp)
     c00:	2200                	c.fld	fs0,0(a2)
     c02:	079f 0e00 8000      	0x80000e00079f
     c08:	0e04                	c.addi4spn	s1,sp,784
     c0a:	8000                	0x8000
     c0c:	5f01                	c.li	t5,-32
     c0e:	0700                	c.addi4spn	s0,sp,896
     c10:	0df8                	c.addi4spn	a4,sp,732
     c12:	8000                	0x8000
     c14:	0e04                	c.addi4spn	s1,sp,784
     c16:	8000                	0x8000
     c18:	3002                	c.fldsp	ft0,32(sp)
     c1a:	009f d807 000c      	0xcd807009f
     c20:	0480                	c.addi4spn	s0,sp,576
     c22:	000d                	c.addi	zero,3
     c24:	0280                	c.addi4spn	s0,sp,320
     c26:	9f35                	0x9f35
     c28:	0700                	c.addi4spn	s0,sp,896
     c2a:	0cd8                	c.addi4spn	a4,sp,596
     c2c:	8000                	0x8000
     c2e:	0d04                	c.addi4spn	s1,sp,656
     c30:	8000                	0x8000
     c32:	3509                	c.jal	a34 <__stack_size-0x1fff5cc>
     c34:	0049b403          	0x49b403
     c38:	0680                	c.addi4spn	s0,sp,832
     c3a:	9f24                	0x9f24
     c3c:	0700                	c.addi4spn	s0,sp,896
     c3e:	0cd8                	c.addi4spn	a4,sp,596
     c40:	8000                	0x8000
     c42:	0d00                	c.addi4spn	s0,sp,656
     c44:	8000                	0x8000
     c46:	3510                	c.fld	fa2,40(a0)
     c48:	0049b403          	0x49b403
     c4c:	0680                	c.addi4spn	s0,sp,832
     c4e:	0324                	c.addi4spn	s1,sp,392
     c50:	49b8                	c.lw	a4,80(a1)
     c52:	8000                	0x8000
     c54:	2206                	c.fldsp	ft4,64(sp)
     c56:	009f 0c07 000d      	0xd0c07009f
     c5c:	2080                	c.fld	fs0,0(s1)
     c5e:	000d                	c.addi	zero,3
     c60:	0280                	c.addi4spn	s0,sp,320
     c62:	9f30                	0x9f30
     c64:	0700                	c.addi4spn	s0,sp,896
     c66:	0d0c                	c.addi4spn	a1,sp,656
     c68:	8000                	0x8000
     c6a:	0d1c                	c.addi4spn	a5,sp,656
     c6c:	8000                	0x8000
     c6e:	0305                	c.addi	t1,1
     c70:	49b8                	c.lw	a4,80(a1)
     c72:	8000                	0x8000
     c74:	0700                	c.addi4spn	s0,sp,896
     c76:	0cc4                	c.addi4spn	s1,sp,596
     c78:	8000                	0x8000
     c7a:	0cd4                	c.addi4spn	a3,sp,596
     c7c:	8000                	0x8000
     c7e:	7a06                	c.flwsp	fs4,96(sp)
     c80:	0800                	c.addi4spn	s0,sp,16
     c82:	1aff                	0x1aff
     c84:	009f c407 000c      	0xcc407009f
     c8a:	d480                	c.sw	s0,40(s1)
     c8c:	000c                	0xc
     c8e:	0280                	c.addi4spn	s0,sp,320
     c90:	9f30                	0x9f30
     c92:	0700                	c.addi4spn	s0,sp,896
     c94:	0cc8                	c.addi4spn	a0,sp,596
     c96:	8000                	0x8000
     c98:	0cd4                	c.addi4spn	a3,sp,596
     c9a:	8000                	0x8000
     c9c:	0305                	c.addi	t1,1
     c9e:	49b8                	c.lw	a4,80(a1)
     ca0:	8000                	0x8000
     ca2:	0700                	c.addi4spn	s0,sp,896
     ca4:	0cc8                	c.addi4spn	a0,sp,596
     ca6:	8000                	0x8000
     ca8:	0cd4                	c.addi4spn	a3,sp,596
     caa:	8000                	0x8000
     cac:	7a06                	c.flwsp	fs4,96(sp)
     cae:	0800                	c.addi4spn	s0,sp,16
     cb0:	1aff                	0x1aff
     cb2:	009f 0805 0000      	0x805009f
     cb8:	0005                	c.addi	zero,1
     cba:	0004                	0x4
     cbc:	0000                	c.unimp
     cbe:	0000                	c.unimp
     cc0:	000ec407          	flq	fs0,0(t4)
     cc4:	2080                	c.fld	fs0,0(s1)
     cc6:	0180000f          	fence	w,i
     cca:	075a                	c.slli	a4,0x16
     ccc:	0f20                	c.addi4spn	s0,sp,920
     cce:	8000                	0x8000
     cd0:	0f54                	c.addi4spn	a3,sp,916
     cd2:	8000                	0x8000
     cd4:	6801                	0x6801
     cd6:	000f5407          	0xf5407
     cda:	fc80                	c.fsw	fs0,56(s1)
     cdc:	0014                	0x14
     cde:	0480                	c.addi4spn	s0,sp,576
     ce0:	9f5a01a3          	sb	s5,-1565(s4)
     ce4:	0700                	c.addi4spn	s0,sp,896
     ce6:	0f2c                	c.addi4spn	a1,sp,920
     ce8:	8000                	0x8000
     cea:	0f54                	c.addi4spn	a3,sp,916
     cec:	8000                	0x8000
     cee:	6501                	0x6501
     cf0:	00108c07          	0x108c07
     cf4:	9c80                	0x9c80
     cf6:	0010                	0x10
     cf8:	0780                	c.addi4spn	s0,sp,960
     cfa:	f491                	c.bnez	s1,c06 <__stack_size-0x1fff3fa>
     cfc:	067e                	c.slli	a2,0x1f
     cfe:	079f0423          	sb	s9,104(t5) # 7009068 <__stack_size+0x5009068>
     d02:	109c                	c.addi4spn	a5,sp,96
     d04:	8000                	0x8000
     d06:	10a4                	c.addi4spn	s1,sp,104
     d08:	8000                	0x8000
     d0a:	5f01                	c.li	t5,-32
     d0c:	0010a407          	flw	fs0,1(ra)
     d10:	a880                	c.fsd	fs0,16(s1)
     d12:	0010                	0x10
     d14:	0380                	c.addi4spn	s0,sp,448
     d16:	f491                	c.bnez	s1,c22 <__stack_size-0x1fff3de>
     d18:	077e                	c.slli	a4,0x1f
     d1a:	10d8                	c.addi4spn	a4,sp,100
     d1c:	8000                	0x8000
     d1e:	10f0                	c.addi4spn	a2,sp,108
     d20:	8000                	0x8000
     d22:	6501                	0x6501
     d24:	00110007          	0x110007
     d28:	0c80                	c.addi4spn	s0,sp,592
     d2a:	0012                	c.slli	zero,0x4
     d2c:	0180                	c.addi4spn	s0,sp,192
     d2e:	0765                	c.addi	a4,25
     d30:	1218                	c.addi4spn	a4,sp,288
     d32:	8000                	0x8000
     d34:	1228                	c.addi4spn	a0,sp,296
     d36:	8000                	0x8000
     d38:	7ef49107          	0x7ef49107
     d3c:	2306                	c.fldsp	ft6,64(sp)
     d3e:	9f04                	0x9f04
     d40:	00122807          	flw	fa6,1(tp) # ffff8001 <_sp+0x77ff8001>
     d44:	2c80                	c.fld	fs0,24(s1)
     d46:	0012                	c.slli	zero,0x4
     d48:	0180                	c.addi4spn	s0,sp,192
     d4a:	075f 13d0 8000      	0x800013d0075f
     d50:	13d4                	c.addi4spn	a3,sp,484
     d52:	8000                	0x8000
     d54:	9f087f03          	0x9f087f03
     d58:	0013d407          	0x13d407
     d5c:	dc80                	c.sw	s0,56(s1)
     d5e:	03800013          	addi	zero,zero,56
     d62:	047f                	0x47f
     d64:	079f 13e8 8000      	0x800013e8079f
     d6a:	13fc                	c.addi4spn	a5,sp,492
     d6c:	8000                	0x8000
     d6e:	7ef49107          	0x7ef49107
     d72:	2306                	c.fldsp	ft6,64(sp)
     d74:	9f04                	0x9f04
     d76:	0013fc07          	0x13fc07
     d7a:	0480                	c.addi4spn	s0,sp,576
     d7c:	0014                	0x14
     d7e:	0180                	c.addi4spn	s0,sp,192
     d80:	075f 1438 8000      	0x80001438075f
     d86:	1448                	c.addi4spn	a0,sp,548
     d88:	8000                	0x8000
     d8a:	6501                	0x6501
     d8c:	00145407          	0x145407
     d90:	7080                	c.flw	fs0,32(s1)
     d92:	0014                	0x14
     d94:	0180                	c.addi4spn	s0,sp,192
     d96:	0765                	c.addi	a4,25
     d98:	1490                	c.addi4spn	a2,sp,608
     d9a:	8000                	0x8000
     d9c:	14a4                	c.addi4spn	s1,sp,616
     d9e:	8000                	0x8000
     da0:	7ef49107          	0x7ef49107
     da4:	2306                	c.fldsp	ft6,64(sp)
     da6:	9f04                	0x9f04
     da8:	0014a407          	flw	fs0,1(s1)
     dac:	ac80                	c.fsd	fs0,24(s1)
     dae:	0014                	0x14
     db0:	0180                	c.addi4spn	s0,sp,192
     db2:	075f 14bc 8000      	0x800014bc075f
     db8:	14e8                	c.addi4spn	a0,sp,620
     dba:	8000                	0x8000
     dbc:	6501                	0x6501
     dbe:	0014e807          	0x14e807
     dc2:	f480                	c.fsw	fs0,40(s1)
     dc4:	0014                	0x14
     dc6:	0380                	c.addi4spn	s0,sp,448
     dc8:	f491                	c.bnez	s1,cd4 <__stack_size-0x1fff32c>
     dca:	007e                	c.slli	zero,0x1f
     dcc:	000f2c07          	flw	fs8,0(t5)
     dd0:	3c80                	c.fld	fs0,56(s1)
     dd2:	0380000f          	fence	rw,i
     dd6:	0188                	c.addi4spn	a0,sp,192
     dd8:	079f 0f3c 8000      	0x80000f3c079f
     dde:	0f6c                	c.addi4spn	a1,sp,924
     de0:	8000                	0x8000
     de2:	5d01                	c.li	s10,-32
     de4:	000f6c07          	0xf6c07
     de8:	7480                	c.flw	fs0,40(s1)
     dea:	0180000f          	fence	w,i
     dee:	0768                	c.addi4spn	a0,sp,908
     df0:	0f74                	c.addi4spn	a3,sp,924
     df2:	8000                	0x8000
     df4:	0f80                	c.addi4spn	s0,sp,976
     df6:	8000                	0x8000
     df8:	5d01                	c.li	s10,-32
     dfa:	000f8007          	0xf8007
     dfe:	9880                	0x9880
     e00:	0380000f          	fence	rw,i
     e04:	0288                	c.addi4spn	a0,sp,320
     e06:	079f 0f98 8000      	0x80000f98079f
     e0c:	0fc0                	c.addi4spn	s0,sp,980
     e0e:	8000                	0x8000
     e10:	6801                	0x6801
     e12:	000fc007          	flq	ft0,0(t6)
     e16:	cc80                	c.sw	s0,24(s1)
     e18:	0380000f          	fence	rw,i
     e1c:	7f88                	c.flw	fa0,56(a5)
     e1e:	079f 0fcc 8000      	0x80000fcc079f
     e24:	1028                	c.addi4spn	a0,sp,40
     e26:	8000                	0x8000
     e28:	6801                	0x6801
     e2a:	00102807          	flw	fa6,1(zero) # 1 <__stack_size-0x1ffffff>
     e2e:	2c80                	c.fld	fs0,24(s1)
     e30:	0010                	0x10
     e32:	0380                	c.addi4spn	s0,sp,448
     e34:	0188                	c.addi4spn	a0,sp,192
     e36:	079f 102c 8000      	0x8000102c079f
     e3c:	1030                	c.addi4spn	a2,sp,40
     e3e:	8000                	0x8000
     e40:	6801                	0x6801
     e42:	00106c07          	0x106c07
     e46:	0480                	c.addi4spn	s0,sp,576
     e48:	0014                	0x14
     e4a:	0180                	c.addi4spn	s0,sp,192
     e4c:	0768                	c.addi4spn	a0,sp,908
     e4e:	1404                	c.addi4spn	s1,sp,544
     e50:	8000                	0x8000
     e52:	1410                	c.addi4spn	a2,sp,544
     e54:	8000                	0x8000
     e56:	5d01                	c.li	s10,-32
     e58:	00141007          	0x141007
     e5c:	1880                	c.addi4spn	s0,sp,112
     e5e:	0014                	0x14
     e60:	0180                	c.addi4spn	s0,sp,192
     e62:	0768                	c.addi4spn	a0,sp,908
     e64:	1418                	c.addi4spn	a4,sp,544
     e66:	8000                	0x8000
     e68:	1424                	c.addi4spn	s1,sp,552
     e6a:	8000                	0x8000
     e6c:	9f038803          	lb	a6,-1552(t2)
     e70:	00142407          	flw	fs0,1(s0) # fffeb001 <_sp+0x77feb001>
     e74:	2880                	c.fld	fs0,16(s1)
     e76:	0014                	0x14
     e78:	0180                	c.addi4spn	s0,sp,192
     e7a:	0768                	c.addi4spn	a0,sp,908
     e7c:	1428                	c.addi4spn	a0,sp,552
     e7e:	8000                	0x8000
     e80:	1434                	c.addi4spn	a3,sp,552
     e82:	8000                	0x8000
     e84:	9f038803          	lb	a6,-1552(t2)
     e88:	00143407          	fld	fs0,1(s0)
     e8c:	fc80                	c.fsw	fs0,56(s1)
     e8e:	0014                	0x14
     e90:	0180                	c.addi4spn	s0,sp,192
     e92:	0068                	c.addi4spn	a0,sp,12
     e94:	00108407          	0x108407
     e98:	c880                	c.sw	s0,16(s1)
     e9a:	0010                	0x10
     e9c:	0280                	c.addi4spn	s0,sp,320
     e9e:	9f3a                	c.add	t5,a4
     ea0:	00120c07          	0x120c07
     ea4:	1880                	c.addi4spn	s0,sp,112
     ea6:	0012                	c.slli	zero,0x4
     ea8:	0280                	c.addi4spn	s0,sp,320
     eaa:	9f38                	0x9f38
     eac:	0013b407          	fld	fs0,1(t2)
     eb0:	dc80                	c.sw	s0,56(s1)
     eb2:	02800013          	addi	zero,zero,40
     eb6:	9f40                	0x9f40
     eb8:	0013dc07          	0x13dc07
     ebc:	0480                	c.addi4spn	s0,sp,576
     ebe:	0014                	0x14
     ec0:	0280                	c.addi4spn	s0,sp,320
     ec2:	9f32                	c.add	t5,a2
     ec4:	00147007          	0x147007
     ec8:	9080                	0x9080
     eca:	0014                	0x14
     ecc:	0280                	c.addi4spn	s0,sp,320
     ece:	9f3a                	c.add	t5,a4
     ed0:	00149007          	0x149007
     ed4:	ac80                	c.fsd	fs0,24(s1)
     ed6:	0014                	0x14
     ed8:	0280                	c.addi4spn	s0,sp,320
     eda:	9f38                	0x9f38
     edc:	0014e807          	0x14e807
     ee0:	fc80                	c.fsw	fs0,56(s1)
     ee2:	0014                	0x14
     ee4:	0280                	c.addi4spn	s0,sp,320
     ee6:	9f3a                	c.add	t5,a4
     ee8:	0700                	c.addi4spn	s0,sp,896
     eea:	122c                	c.addi4spn	a1,sp,296
     eec:	8000                	0x8000
     eee:	1250                	c.addi4spn	a2,sp,292
     ef0:	8000                	0x8000
     ef2:	3002                	c.fldsp	ft0,32(sp)
     ef4:	079f 1250 8000      	0x80001250079f
     efa:	1254                	c.addi4spn	a3,sp,292
     efc:	8000                	0x8000
     efe:	5801                	c.li	a6,-32
     f00:	00125407          	0x125407
     f04:	9080                	0x9080
     f06:	0012                	c.slli	zero,0x4
     f08:	0180                	c.addi4spn	s0,sp,192
     f0a:	1290076b          	0x1290076b
     f0e:	8000                	0x8000
     f10:	12b0                	c.addi4spn	a2,sp,360
     f12:	8000                	0x8000
     f14:	5801                	c.li	a6,-32
     f16:	0012b007          	fld	ft0,1(t0)
     f1a:	c880                	c.sw	s0,16(s1)
     f1c:	0012                	c.slli	zero,0x4
     f1e:	0380                	c.addi4spn	s0,sp,448
     f20:	079f028b          	0x79f028b
     f24:	12c8                	c.addi4spn	a0,sp,356
     f26:	8000                	0x8000
     f28:	1310                	c.addi4spn	a2,sp,416
     f2a:	8000                	0x8000
     f2c:	5801                	c.li	a6,-32
     f2e:	00131407          	0x131407
     f32:	2480                	c.fld	fs0,8(s1)
     f34:	08800013          	addi	zero,zero,136
     f38:	0078                	c.addi4spn	a4,sp,12
     f3a:	0091                	c.addi	ra,4
     f3c:	231c                	c.fld	fa5,0(a4)
     f3e:	24079f6f          	jal	t5,7a17e <__stack_size-0x1f85e82>
     f42:	28800013          	addi	zero,zero,648
     f46:	08800013          	addi	zero,zero,136
     f4a:	0078                	c.addi4spn	a4,sp,12
     f4c:	0091                	c.addi	ra,4
     f4e:	231c                	c.fld	fa5,0(a4)
     f50:	9f70                	0x9f70
     f52:	00132c07          	flw	fs8,1(t1)
     f56:	4080                	c.lw	s0,0(s1)
     f58:	08800013          	addi	zero,zero,136
     f5c:	0078                	c.addi4spn	a4,sp,12
     f5e:	0091                	c.addi	ra,4
     f60:	231c                	c.fld	fa5,0(a4)
     f62:	40079f6f          	jal	t5,7a362 <__stack_size-0x1f85c9e>
     f66:	48800013          	addi	zero,zero,1160
     f6a:	08800013          	addi	zero,zero,136
     f6e:	0078                	c.addi4spn	a4,sp,12
     f70:	0091                	c.addi	ra,4
     f72:	231c                	c.fld	fa5,0(a4)
     f74:	9f70                	0x9f70
     f76:	00138c07          	0x138c07
     f7a:	b480                	c.fsd	fs0,40(s1)
     f7c:	01800013          	addi	zero,zero,24
     f80:	0758                	c.addi4spn	a4,sp,900
     f82:	14ac                	c.addi4spn	a1,sp,616
     f84:	8000                	0x8000
     f86:	14bc                	c.addi4spn	a5,sp,616
     f88:	8000                	0x8000
     f8a:	5801                	c.li	a6,-32
     f8c:	0700                	c.addi4spn	s0,sp,896
     f8e:	1100                	c.addi4spn	s0,sp,160
     f90:	8000                	0x8000
     f92:	110c                	c.addi4spn	a1,sp,160
     f94:	8000                	0x8000
     f96:	3002                	c.fldsp	ft0,32(sp)
     f98:	079f 110c 8000      	0x8000110c079f
     f9e:	112c                	c.addi4spn	a1,sp,168
     fa0:	8000                	0x8000
     fa2:	5d01                	c.li	s10,-32
     fa4:	00112c07          	flw	fs8,1(sp)
     fa8:	3080                	c.fld	fs0,32(s1)
     faa:	0011                	c.addi	zero,4
     fac:	0380                	c.addi4spn	s0,sp,448
     fae:	017d                	c.addi	sp,31
     fb0:	079f 1138 8000      	0x80001138079f
     fb6:	114c                	c.addi4spn	a1,sp,164
     fb8:	8000                	0x8000
     fba:	6701                	0x6701
     fbc:	00114c07          	flq	fs8,1(sp)
     fc0:	5480                	c.lw	s0,40(s1)
     fc2:	0011                	c.addi	zero,4
     fc4:	0180                	c.addi4spn	s0,sp,192
     fc6:	075f 1154 8000      	0x80001154075f
     fcc:	1170                	c.addi4spn	a2,sp,172
     fce:	8000                	0x8000
     fd0:	6701                	0x6701
     fd2:	00117007          	0x117007
     fd6:	7880                	c.flw	fs0,48(s1)
     fd8:	0011                	c.addi	zero,4
     fda:	0180                	c.addi4spn	s0,sp,192
     fdc:	075f 118c 8000      	0x8000118c075f
     fe2:	1190                	c.addi4spn	a2,sp,224
     fe4:	8000                	0x8000
     fe6:	6901                	0x6901
     fe8:	00119007          	0x119007
     fec:	9880                	0x9880
     fee:	0011                	c.addi	zero,4
     ff0:	0380                	c.addi4spn	s0,sp,448
     ff2:	0189                	c.addi	gp,2
     ff4:	079f 1198 8000      	0x80001198079f
     ffa:	11ac                	c.addi4spn	a1,sp,232
     ffc:	8000                	0x8000
     ffe:	6701                	0x6701
    1000:	0011ac07          	flw	fs8,1(gp)
    1004:	b480                	c.fsd	fs0,40(s1)
    1006:	0011                	c.addi	zero,4
    1008:	0180                	c.addi4spn	s0,sp,192
    100a:	075f 11b4 8000      	0x800011b4075f
    1010:	11d0                	c.addi4spn	a2,sp,228
    1012:	8000                	0x8000
    1014:	6701                	0x6701
    1016:	0011d007          	0x11d007
    101a:	d480                	c.sw	s0,40(s1)
    101c:	0011                	c.addi	zero,4
    101e:	0180                	c.addi4spn	s0,sp,192
    1020:	075f 12c8 8000      	0x800012c8075f
    1026:	12e4                	c.addi4spn	s1,sp,364
    1028:	8000                	0x8000
    102a:	5801                	c.li	a6,-32
    102c:	0012e407          	0x12e407
    1030:	0c80                	c.addi4spn	s0,sp,592
    1032:	01800013          	addi	zero,zero,24
    1036:	0769                	c.addi	a4,26
    1038:	1314                	c.addi4spn	a3,sp,416
    103a:	8000                	0x8000
    103c:	134c                	c.addi4spn	a1,sp,420
    103e:	8000                	0x8000
    1040:	6701                	0x6701
    1042:	00134c07          	flq	fs8,1(t1)
    1046:	6880                	c.flw	fs0,16(s1)
    1048:	01800013          	addi	zero,zero,24
    104c:	0758                	c.addi4spn	a4,sp,900
    104e:	1368                	c.addi4spn	a0,sp,428
    1050:	8000                	0x8000
    1052:	1370                	c.addi4spn	a2,sp,428
    1054:	8000                	0x8000
    1056:	5f01                	c.li	t5,-32
    1058:	00137007          	0x137007
    105c:	8c80                	0x8c80
    105e:	01800013          	addi	zero,zero,24
    1062:	0758                	c.addi4spn	a4,sp,900
    1064:	138c                	c.addi4spn	a1,sp,480
    1066:	8000                	0x8000
    1068:	1390                	c.addi4spn	a2,sp,480
    106a:	8000                	0x8000
    106c:	6901                	0x6901
    106e:	00139007          	0x139007
    1072:	9880                	0x9880
    1074:	01800013          	addi	zero,zero,24
    1078:	075d                	c.addi	a4,23
    107a:	1468                	c.addi4spn	a0,sp,556
    107c:	8000                	0x8000
    107e:	1470                	c.addi4spn	a2,sp,556
    1080:	8000                	0x8000
    1082:	6901                	0x6901
    1084:	0014ac07          	flw	fs8,1(s1)
    1088:	b480                	c.fsd	fs0,40(s1)
    108a:	0014                	0x14
    108c:	0180                	c.addi4spn	s0,sp,192
    108e:	0758                	c.addi4spn	a4,sp,900
    1090:	14b4                	c.addi4spn	a3,sp,616
    1092:	8000                	0x8000
    1094:	14bc                	c.addi4spn	a5,sp,616
    1096:	8000                	0x8000
    1098:	6901                	0x6901
    109a:	0014bc07          	fld	fs8,1(s1)
    109e:	c080                	c.sw	s0,0(s1)
    10a0:	0014                	0x14
    10a2:	0280                	c.addi4spn	s0,sp,320
    10a4:	9f30                	0x9f30
    10a6:	0014c007          	flq	ft0,1(s1)
    10aa:	d080                	c.sw	s0,32(s1)
    10ac:	0014                	0x14
    10ae:	0280                	c.addi4spn	s0,sp,320
    10b0:	9f31                	0x9f31
    10b2:	0014d007          	0x14d007
    10b6:	dc80                	c.sw	s0,56(s1)
    10b8:	0014                	0x14
    10ba:	0180                	c.addi4spn	s0,sp,192
    10bc:	075d                	c.addi	a4,23
    10be:	14dc                	c.addi4spn	a5,sp,612
    10c0:	8000                	0x8000
    10c2:	14e8                	c.addi4spn	a0,sp,620
    10c4:	8000                	0x8000
    10c6:	3002                	c.fldsp	ft0,32(sp)
    10c8:	009f 9c07 000f      	0xf9c07009f
    10ce:	b080                	c.fsd	fs0,32(s1)
    10d0:	0280000f          	fence	r,i
    10d4:	9f30                	0x9f30
    10d6:	000fb007          	fld	ft0,0(t6)
    10da:	d880                	c.sw	s0,48(s1)
    10dc:	0180000f          	fence	w,i
    10e0:	0059                	c.addi	zero,22
    10e2:	000f8007          	0xf8007
    10e6:	9c80                	0x9c80
    10e8:	0280000f          	fence	r,i
    10ec:	9f30                	0x9f30
    10ee:	000f9c07          	0xf9c07
    10f2:	3080                	c.fld	fs0,32(s1)
    10f4:	0010                	0x10
    10f6:	0180                	c.addi4spn	s0,sp,192
    10f8:	106c0767          	jalr	a4,262(s8)
    10fc:	8000                	0x8000
    10fe:	10f8                	c.addi4spn	a4,sp,108
    1100:	8000                	0x8000
    1102:	6701                	0x6701
    1104:	00120c07          	0x120c07
    1108:	d480                	c.sw	s0,40(s1)
    110a:	0012                	c.slli	zero,0x4
    110c:	0180                	c.addi4spn	s0,sp,192
    110e:	13b40767          	jalr	a4,315(s0)
    1112:	8000                	0x8000
    1114:	1404                	c.addi4spn	s1,sp,544
    1116:	8000                	0x8000
    1118:	6701                	0x6701
    111a:	00141807          	0x141807
    111e:	2880                	c.fld	fs0,16(s1)
    1120:	0014                	0x14
    1122:	0280                	c.addi4spn	s0,sp,320
    1124:	9f31                	0x9f31
    1126:	00142807          	flw	fa6,1(s0)
    112a:	3880                	c.fld	fs0,48(s1)
    112c:	0014                	0x14
    112e:	0280                	c.addi4spn	s0,sp,320
    1130:	9f32                	c.add	t5,a2
    1132:	00143807          	fld	fa6,1(s0)
    1136:	5480                	c.lw	s0,40(s1)
    1138:	0014                	0x14
    113a:	0180                	c.addi4spn	s0,sp,192
    113c:	14700767          	jalr	a4,327(zero) # 0 <__stack_size-0x2000000>
    1140:	8000                	0x8000
    1142:	14ac                	c.addi4spn	a1,sp,616
    1144:	8000                	0x8000
    1146:	6701                	0x6701
    1148:	0014e807          	0x14e807
    114c:	fc80                	c.fsw	fs0,56(s1)
    114e:	0014                	0x14
    1150:	0180                	c.addi4spn	s0,sp,192
    1152:	a4070067          	jalr	zero,-1472(a4) # ffff8a40 <_sp+0x77ff8a40>
    1156:	0010                	0x10
    1158:	b880                	c.fsd	fs0,48(s1)
    115a:	0010                	0x10
    115c:	0180                	c.addi4spn	s0,sp,192
    115e:	075f 10b8 8000      	0x800010b8075f
    1164:	10c8                	c.addi4spn	a0,sp,100
    1166:	8000                	0x8000
    1168:	6501                	0x6501
    116a:	00122c07          	flw	fs8,1(tp) # 1 <__stack_size-0x1ffffff>
    116e:	7c80                	c.flw	fs0,56(s1)
    1170:	0012                	c.slli	zero,0x4
    1172:	0180                	c.addi4spn	s0,sp,192
    1174:	0765                	c.addi	a4,25
    1176:	127c                	c.addi4spn	a5,sp,300
    1178:	8000                	0x8000
    117a:	1294                	c.addi4spn	a3,sp,352
    117c:	8000                	0x8000
    117e:	5a01                	c.li	s4,-32
    1180:	00129407          	0x129407
    1184:	b480                	c.fsd	fs0,40(s1)
    1186:	01800013          	addi	zero,zero,24
    118a:	0765                	c.addi	a4,25
    118c:	13d0                	c.addi4spn	a2,sp,484
    118e:	8000                	0x8000
    1190:	13dc                	c.addi4spn	a5,sp,484
    1192:	8000                	0x8000
    1194:	6501                	0x6501
    1196:	0013f807          	0x13f807
    119a:	0480                	c.addi4spn	s0,sp,576
    119c:	0014                	0x14
    119e:	0180                	c.addi4spn	s0,sp,192
    11a0:	0765                	c.addi	a4,25
    11a2:	148c                	c.addi4spn	a1,sp,608
    11a4:	8000                	0x8000
    11a6:	1490                	c.addi4spn	a2,sp,608
    11a8:	8000                	0x8000
    11aa:	5f01                	c.li	t5,-32
    11ac:	0014a007          	flw	ft0,1(s1)
    11b0:	bc80                	c.fsd	fs0,56(s1)
    11b2:	0014                	0x14
    11b4:	0180                	c.addi4spn	s0,sp,192
    11b6:	0765                	c.addi	a4,25
    11b8:	14e8                	c.addi4spn	a0,sp,620
    11ba:	8000                	0x8000
    11bc:	14f4                	c.addi4spn	a3,sp,620
    11be:	8000                	0x8000
    11c0:	5f01                	c.li	t5,-32
    11c2:	0700                	c.addi4spn	s0,sp,896
    11c4:	0f2c                	c.addi4spn	a1,sp,920
    11c6:	8000                	0x8000
    11c8:	0f6c                	c.addi4spn	a1,sp,924
    11ca:	8000                	0x8000
    11cc:	5a01                	c.li	s4,-32
    11ce:	000f7407          	0xf7407
    11d2:	c880                	c.sw	s0,16(s1)
    11d4:	0180000f          	fence	w,i
    11d8:	075a                	c.slli	a4,0x16
    11da:	0fcc                	c.addi4spn	a1,sp,980
    11dc:	8000                	0x8000
    11de:	1024                	c.addi4spn	s1,sp,40
    11e0:	8000                	0x8000
    11e2:	5a01                	c.li	s4,-32
    11e4:	00102807          	flw	fa6,1(zero) # 1 <__stack_size-0x1ffffff>
    11e8:	d480                	c.sw	s0,40(s1)
    11ea:	0010                	0x10
    11ec:	0180                	c.addi4spn	s0,sp,192
    11ee:	075a                	c.slli	a4,0x16
    11f0:	10f0                	c.addi4spn	a2,sp,108
    11f2:	8000                	0x8000
    11f4:	1104                	c.addi4spn	s1,sp,160
    11f6:	8000                	0x8000
    11f8:	5a01                	c.li	s4,-32
    11fa:	00120c07          	0x120c07
    11fe:	5080                	c.lw	s0,32(s1)
    1200:	0012                	c.slli	zero,0x4
    1202:	0180                	c.addi4spn	s0,sp,192
    1204:	075a                	c.slli	a4,0x16
    1206:	13b4                	c.addi4spn	a3,sp,488
    1208:	8000                	0x8000
    120a:	1410                	c.addi4spn	a2,sp,544
    120c:	8000                	0x8000
    120e:	5a01                	c.li	s4,-32
    1210:	00141807          	0x141807
    1214:	3880                	c.fld	fs0,48(s1)
    1216:	0014                	0x14
    1218:	0180                	c.addi4spn	s0,sp,192
    121a:	075a                	c.slli	a4,0x16
    121c:	1448                	c.addi4spn	a0,sp,548
    121e:	8000                	0x8000
    1220:	1454                	c.addi4spn	a3,sp,548
    1222:	8000                	0x8000
    1224:	5a01                	c.li	s4,-32
    1226:	00147007          	0x147007
    122a:	ac80                	c.fsd	fs0,24(s1)
    122c:	0014                	0x14
    122e:	0180                	c.addi4spn	s0,sp,192
    1230:	075a                	c.slli	a4,0x16
    1232:	14e8                	c.addi4spn	a0,sp,620
    1234:	8000                	0x8000
    1236:	14fc                	c.addi4spn	a5,sp,620
    1238:	8000                	0x8000
    123a:	5a01                	c.li	s4,-32
    123c:	0700                	c.addi4spn	s0,sp,896
    123e:	0fe8                	c.addi4spn	a0,sp,988
    1240:	8000                	0x8000
    1242:	0ffc                	c.addi4spn	a5,sp,988
    1244:	8000                	0x8000
    1246:	5a01                	c.li	s4,-32
    1248:	000ffc07          	0xffc07
    124c:	2080                	c.fld	fs0,0(s1)
    124e:	0010                	0x10
    1250:	0180                	c.addi4spn	s0,sp,192
    1252:	075c                	c.addi4spn	a5,sp,900
    1254:	106c                	c.addi4spn	a1,sp,44
    1256:	8000                	0x8000
    1258:	110c                	c.addi4spn	a1,sp,160
    125a:	8000                	0x8000
    125c:	5c01                	c.li	s8,-32
    125e:	00120c07          	0x120c07
    1262:	5080                	c.lw	s0,32(s1)
    1264:	0012                	c.slli	zero,0x4
    1266:	0180                	c.addi4spn	s0,sp,192
    1268:	075c                	c.addi4spn	a5,sp,900
    126a:	1278                	c.addi4spn	a4,sp,300
    126c:	8000                	0x8000
    126e:	1288                	c.addi4spn	a0,sp,352
    1270:	8000                	0x8000
    1272:	5f01                	c.li	t5,-32
    1274:	00128807          	0x128807
    1278:	8c80                	0x8c80
    127a:	0012                	c.slli	zero,0x4
    127c:	0180                	c.addi4spn	s0,sp,192
    127e:	0758                	c.addi4spn	a4,sp,900
    1280:	128c                	c.addi4spn	a1,sp,352
    1282:	8000                	0x8000
    1284:	1298                	c.addi4spn	a4,sp,352
    1286:	8000                	0x8000
    1288:	5f01                	c.li	t5,-32
    128a:	0012dc07          	0x12dc07
    128e:	b480                	c.fsd	fs0,40(s1)
    1290:	01800013          	addi	zero,zero,24
    1294:	076a                	c.slli	a4,0x1a
    1296:	13b4                	c.addi4spn	a3,sp,488
    1298:	8000                	0x8000
    129a:	1404                	c.addi4spn	s1,sp,544
    129c:	8000                	0x8000
    129e:	5c01                	c.li	s8,-32
    12a0:	00143807          	fld	fa6,1(s0)
    12a4:	5480                	c.lw	s0,40(s1)
    12a6:	0014                	0x14
    12a8:	0180                	c.addi4spn	s0,sp,192
    12aa:	075c                	c.addi4spn	a5,sp,900
    12ac:	1470                	c.addi4spn	a2,sp,556
    12ae:	8000                	0x8000
    12b0:	14ac                	c.addi4spn	a1,sp,616
    12b2:	8000                	0x8000
    12b4:	5c01                	c.li	s8,-32
    12b6:	0014ac07          	flw	fs8,1(s1)
    12ba:	bc80                	c.fsd	fs0,56(s1)
    12bc:	0014                	0x14
    12be:	0180                	c.addi4spn	s0,sp,192
    12c0:	076a                	c.slli	a4,0x1a
    12c2:	14bc                	c.addi4spn	a5,sp,616
    12c4:	8000                	0x8000
    12c6:	14d0                	c.addi4spn	a2,sp,612
    12c8:	8000                	0x8000
    12ca:	5c01                	c.li	s8,-32
    12cc:	0014dc07          	0x14dc07
    12d0:	fc80                	c.fsw	fs0,56(s1)
    12d2:	0014                	0x14
    12d4:	0180                	c.addi4spn	s0,sp,192
    12d6:	005c                	c.addi4spn	a5,sp,4
    12d8:	00106c07          	0x106c07
    12dc:	8480                	0x8480
    12de:	0010                	0x10
    12e0:	0180                	c.addi4spn	s0,sp,192
    12e2:	075a                	c.slli	a4,0x16
    12e4:	1448                	c.addi4spn	a0,sp,548
    12e6:	8000                	0x8000
    12e8:	1454                	c.addi4spn	a3,sp,548
    12ea:	8000                	0x8000
    12ec:	5a01                	c.li	s4,-32
    12ee:	0700                	c.addi4spn	s0,sp,896
    12f0:	1448                	c.addi4spn	a0,sp,548
    12f2:	8000                	0x8000
    12f4:	1454                	c.addi4spn	a3,sp,548
    12f6:	8000                	0x8000
    12f8:	5a01                	c.li	s4,-32
    12fa:	0700                	c.addi4spn	s0,sp,896
    12fc:	0f54                	c.addi4spn	a3,sp,916
    12fe:	8000                	0x8000
    1300:	0f6c                	c.addi4spn	a1,sp,924
    1302:	8000                	0x8000
    1304:	5a01                	c.li	s4,-32
    1306:	00140407          	0x140407
    130a:	1080                	c.addi4spn	s0,sp,96
    130c:	0014                	0x14
    130e:	0180                	c.addi4spn	s0,sp,192
    1310:	005a                	c.slli	zero,0x16
    1312:	00140407          	0x140407
    1316:	1080                	c.addi4spn	s0,sp,96
    1318:	0014                	0x14
    131a:	0180                	c.addi4spn	s0,sp,192
    131c:	005a                	c.slli	zero,0x16
    131e:	0010d807          	0x10d807
    1322:	f080                	c.fsw	fs0,32(s1)
    1324:	0010                	0x10
    1326:	0180                	c.addi4spn	s0,sp,192
    1328:	075a                	c.slli	a4,0x16
    132a:	1438                	c.addi4spn	a4,sp,552
    132c:	8000                	0x8000
    132e:	1448                	c.addi4spn	a0,sp,548
    1330:	8000                	0x8000
    1332:	5a01                	c.li	s4,-32
    1334:	0700                	c.addi4spn	s0,sp,896
    1336:	1438                	c.addi4spn	a4,sp,552
    1338:	8000                	0x8000
    133a:	1448                	c.addi4spn	a0,sp,548
    133c:	8000                	0x8000
    133e:	5a01                	c.li	s4,-32
    1340:	0700                	c.addi4spn	s0,sp,896
    1342:	1138                	c.addi4spn	a4,sp,168
    1344:	8000                	0x8000
    1346:	1148                	c.addi4spn	a0,sp,164
    1348:	8000                	0x8000
    134a:	9f200803          	lb	a6,-1550(zero) # fffff9f2 <_sp+0x77fff9f2>
    134e:	00115407          	0x115407
    1352:	6c80                	c.flw	fs0,24(s1)
    1354:	0011                	c.addi	zero,4
    1356:	0380                	c.addi4spn	s0,sp,448
    1358:	2008                	c.fld	fa0,0(s0)
    135a:	009f 5c07 0011      	0x115c07009f
    1360:	6c80                	c.flw	fs0,24(s1)
    1362:	0011                	c.addi	zero,4
    1364:	0380                	c.addi4spn	s0,sp,448
    1366:	2008                	c.fld	fa0,0(s0)
    1368:	009f 8c07 0011      	0x118c07009f
    136e:	9080                	0x9080
    1370:	0011                	c.addi	zero,4
    1372:	0180                	c.addi4spn	s0,sp,192
    1374:	0758                	c.addi4spn	a4,sp,900
    1376:	11dc                	c.addi4spn	a5,sp,228
    1378:	8000                	0x8000
    137a:	120c                	c.addi4spn	a1,sp,288
    137c:	8000                	0x8000
    137e:	5801                	c.li	a6,-32
    1380:	00146807          	0x146807
    1384:	7080                	c.flw	fs0,32(s1)
    1386:	0014                	0x14
    1388:	0180                	c.addi4spn	s0,sp,192
    138a:	0058                	c.addi4spn	a4,sp,4
    138c:	0011dc07          	0x11dc07
    1390:	e880                	c.fsw	fs0,16(s1)
    1392:	0011                	c.addi	zero,4
    1394:	0180                	c.addi4spn	s0,sp,192
    1396:	075a                	c.slli	a4,0x16
    1398:	11f8                	c.addi4spn	a4,sp,236
    139a:	8000                	0x8000
    139c:	80001207          	0x80001207
    13a0:	5a01                	c.li	s4,-32
    13a2:	0700                	c.addi4spn	s0,sp,896
    13a4:	11fc                	c.addi4spn	a5,sp,236
    13a6:	8000                	0x8000
    13a8:	80001207          	0x80001207
    13ac:	5a01                	c.li	s4,-32
    13ae:	0700                	c.addi4spn	s0,sp,896
    13b0:	1198                	c.addi4spn	a4,sp,224
    13b2:	8000                	0x8000
    13b4:	11a8                	c.addi4spn	a0,sp,232
    13b6:	8000                	0x8000
    13b8:	9f200803          	lb	a6,-1550(zero) # fffff9f2 <_sp+0x77fff9f2>
    13bc:	0011b407          	fld	fs0,1(gp)
    13c0:	cc80                	c.sw	s0,24(s1)
    13c2:	0011                	c.addi	zero,4
    13c4:	0380                	c.addi4spn	s0,sp,448
    13c6:	2008                	c.fld	fa0,0(s0)
    13c8:	009f bc07 0011      	0x11bc07009f
    13ce:	cc80                	c.sw	s0,24(s1)
    13d0:	0011                	c.addi	zero,4
    13d2:	0380                	c.addi4spn	s0,sp,448
    13d4:	2008                	c.fld	fa0,0(s0)
    13d6:	009f ec07 0012      	0x12ec07009f
    13dc:	0480                	c.addi4spn	s0,sp,576
    13de:	01800013          	addi	zero,zero,24
    13e2:	006a                	c.slli	zero,0x1a
    13e4:	00139807          	0x139807
    13e8:	b480                	c.fsd	fs0,40(s1)
    13ea:	01800013          	addi	zero,zero,24
    13ee:	006a                	c.slli	zero,0x1a
    13f0:	00131407          	0x131407
    13f4:	2080                	c.fld	fs0,0(s1)
    13f6:	01800013          	addi	zero,zero,24
    13fa:	075a                	c.slli	a4,0x16
    13fc:	1330                	c.addi4spn	a2,sp,424
    13fe:	8000                	0x8000
    1400:	80001343          	fmadd.s	ft6,ft0,ft0,fa6,rtz
    1404:	5a01                	c.li	s4,-32
    1406:	0700                	c.addi4spn	s0,sp,896
    1408:	1334                	c.addi4spn	a3,sp,424
    140a:	8000                	0x8000
    140c:	80001343          	fmadd.s	ft6,ft0,ft0,fa6,rtz
    1410:	5a01                	c.li	s4,-32
    1412:	0700                	c.addi4spn	s0,sp,896
    1414:	1354                	c.addi4spn	a3,sp,420
    1416:	8000                	0x8000
    1418:	1364                	c.addi4spn	s1,sp,428
    141a:	8000                	0x8000
    141c:	9f200803          	lb	a6,-1550(zero) # fffff9f2 <_sp+0x77fff9f2>
    1420:	00137007          	0x137007
    1424:	8c80                	0x8c80
    1426:	03800013          	addi	zero,zero,56
    142a:	2008                	c.fld	fa0,0(s0)
    142c:	009f 7807 0013      	0x137807009f
    1432:	8c80                	0x8c80
    1434:	03800013          	addi	zero,zero,56
    1438:	2008                	c.fld	fa0,0(s0)
    143a:	009f 1c07 000e      	0xe1c07009f
    1440:	4780                	c.lw	s0,8(a5)
    1442:	000e                	c.slli	zero,0x3
    1444:	0180                	c.addi4spn	s0,sp,192
    1446:	075a                	c.slli	a4,0x16
    1448:	80000e47          	fmsub.s	ft8,ft0,ft0,fa6,rne
    144c:	0e48                	c.addi4spn	a0,sp,788
    144e:	8000                	0x8000
    1450:	a304                	c.fsd	fs1,0(a4)
    1452:	5a01                	c.li	s4,-32
    1454:	079f 0e48 8000      	0x80000e48079f
    145a:	0e4c                	c.addi4spn	a1,sp,788
    145c:	8000                	0x8000
    145e:	5a01                	c.li	s4,-32
    1460:	0700                	c.addi4spn	s0,sp,896
    1462:	0e38                	c.addi4spn	a4,sp,792
    1464:	8000                	0x8000
    1466:	80000e47          	fmsub.s	ft8,ft0,ft0,fa6,rne
    146a:	5a01                	c.li	s4,-32
    146c:	000e4807          	flq	fa6,0(t3) # 1a000 <__stack_size-0x1fe6000>
    1470:	4c80                	c.lw	s0,24(s1)
    1472:	000e                	c.slli	zero,0x3
    1474:	0180                	c.addi4spn	s0,sp,192
    1476:	005a                	c.slli	zero,0x16
    1478:	000e4c07          	flq	fs8,0(t3)
    147c:	6880                	c.flw	fs0,16(s1)
    147e:	000e                	c.slli	zero,0x3
    1480:	0180                	c.addi4spn	s0,sp,192
    1482:	075a                	c.slli	a4,0x16
    1484:	0e68                	c.addi4spn	a0,sp,796
    1486:	8000                	0x8000
    1488:	0eb4                	c.addi4spn	a3,sp,856
    148a:	8000                	0x8000
    148c:	5801                	c.li	a6,-32
    148e:	0700                	c.addi4spn	s0,sp,896
    1490:	0e78                	c.addi4spn	a4,sp,796
    1492:	8000                	0x8000
    1494:	0e80                	c.addi4spn	s0,sp,848
    1496:	8000                	0x8000
    1498:	5a01                	c.li	s4,-32
    149a:	000e9007          	0xe9007
    149e:	a380                	c.fsd	fs0,0(a5)
    14a0:	000e                	c.slli	zero,0x3
    14a2:	0180                	c.addi4spn	s0,sp,192
    14a4:	005a                	c.slli	zero,0x16
    14a6:	000e7807          	0xe7807
    14aa:	8080                	0x8080
    14ac:	000e                	c.slli	zero,0x3
    14ae:	0180                	c.addi4spn	s0,sp,192
    14b0:	075a                	c.slli	a4,0x16
    14b2:	0e88                	c.addi4spn	a0,sp,848
    14b4:	8000                	0x8000
    14b6:	80000ea3          	sb	zero,-2019(zero) # fffff81d <_sp+0x77fff81d>
    14ba:	5a01                	c.li	s4,-32
	...

Disassembly of section .debug_rnglists:

00000000 <.debug_rnglists>:
   0:	0330                	c.addi4spn	a2,sp,392
   2:	0000                	c.unimp
   4:	0005                	c.addi	zero,1
   6:	0004                	0x4
   8:	0000                	c.unimp
   a:	0000                	c.unimp
   c:	9806                	c.add	a6,ra
   e:	0009                	c.addi	zero,2
  10:	9880                	0x9880
  12:	0009                	c.addi	zero,2
  14:	0680                	c.addi4spn	s0,sp,832
  16:	099c                	c.addi4spn	a5,sp,208
  18:	8000                	0x8000
  1a:	09a8                	c.addi4spn	a0,sp,216
  1c:	8000                	0x8000
  1e:	0600                	c.addi4spn	s0,sp,768
  20:	0acc                	c.addi4spn	a1,sp,340
  22:	8000                	0x8000
  24:	0ae4                	c.addi4spn	s1,sp,348
  26:	8000                	0x8000
  28:	e806                	c.fswsp	ft1,16(sp)
  2a:	000a                	c.slli	zero,0x2
  2c:	ec80                	c.fsw	fs0,24(s1)
  2e:	000a                	c.slli	zero,0x2
  30:	0080                	c.addi4spn	s0,sp,64
  32:	d406                	c.swsp	ra,40(sp)
  34:	000a                	c.slli	zero,0x2
  36:	d880                	c.sw	s0,48(s1)
  38:	000a                	c.slli	zero,0x2
  3a:	0680                	c.addi4spn	s0,sp,832
  3c:	0adc                	c.addi4spn	a5,sp,340
  3e:	8000                	0x8000
  40:	0ae4                	c.addi4spn	s1,sp,348
  42:	8000                	0x8000
  44:	e806                	c.fswsp	ft1,16(sp)
  46:	000a                	c.slli	zero,0x2
  48:	ec80                	c.fsw	fs0,24(s1)
  4a:	000a                	c.slli	zero,0x2
  4c:	0080                	c.addi4spn	s0,sp,64
  4e:	8006                	c.mv	zero,ra
  50:	8480000b          	0x8480000b
  54:	0680000b          	0x680000b
  58:	0b88                	c.addi4spn	a0,sp,464
  5a:	8000                	0x8000
  5c:	0b88                	c.addi4spn	a0,sp,464
  5e:	8000                	0x8000
  60:	8c06                	c.mv	s8,ra
  62:	9080000b          	0x9080000b
  66:	0080000b          	0x80000b
  6a:	6006                	c.flwsp	ft0,64(sp)
  6c:	000c                	0xc
  6e:	7080                	c.flw	fs0,32(s1)
  70:	000c                	0xc
  72:	0680                	c.addi4spn	s0,sp,832
  74:	0c9c                	c.addi4spn	a5,sp,592
  76:	8000                	0x8000
  78:	0ca8                	c.addi4spn	a0,sp,600
  7a:	8000                	0x8000
  7c:	0600                	c.addi4spn	s0,sp,768
  7e:	0064                	c.addi4spn	s1,sp,12
  80:	8000                	0x8000
  82:	0088                	c.addi4spn	a0,sp,64
  84:	8000                	0x8000
  86:	9406                	c.add	s0,ra
  88:	0000                	c.unimp
  8a:	9880                	0x9880
  8c:	0000                	c.unimp
  8e:	0080                	c.addi4spn	s0,sp,64
  90:	9006                	c.add	zero,ra
  92:	0000                	c.unimp
  94:	9480                	0x9480
  96:	0000                	c.unimp
  98:	0680                	c.addi4spn	s0,sp,832
  9a:	0098                	c.addi4spn	a4,sp,64
  9c:	8000                	0x8000
  9e:	00b0                	c.addi4spn	a2,sp,72
  a0:	8000                	0x8000
  a2:	cc06                	c.swsp	ra,24(sp)
  a4:	0000                	c.unimp
  a6:	d080                	c.sw	s0,32(s1)
  a8:	0000                	c.unimp
  aa:	0680                	c.addi4spn	s0,sp,832
  ac:	00e4                	c.addi4spn	s1,sp,76
  ae:	8000                	0x8000
  b0:	00e8                	c.addi4spn	a0,sp,76
  b2:	8000                	0x8000
  b4:	0600                	c.addi4spn	s0,sp,768
  b6:	0208                	c.addi4spn	a0,sp,256
  b8:	8000                	0x8000
  ba:	0210                	c.addi4spn	a2,sp,256
  bc:	8000                	0x8000
  be:	5406                	c.lwsp	s0,96(sp)
  c0:	0002                	c.slli64	zero
  c2:	7080                	c.flw	fs0,32(s1)
  c4:	0002                	c.slli64	zero
  c6:	0680                	c.addi4spn	s0,sp,832
  c8:	0274                	c.addi4spn	a3,sp,268
  ca:	8000                	0x8000
  cc:	0278                	c.addi4spn	a4,sp,268
  ce:	8000                	0x8000
  d0:	1806                	c.slli	a6,0x21
  d2:	0009                	c.addi	zero,2
  d4:	2080                	c.fld	fs0,0(s1)
  d6:	0009                	c.addi	zero,2
  d8:	0080                	c.addi4spn	s0,sp,64
  da:	5406                	c.lwsp	s0,96(sp)
  dc:	0002                	c.slli64	zero
  de:	5880                	c.lw	s0,48(s1)
  e0:	0002                	c.slli64	zero
  e2:	0680                	c.addi4spn	s0,sp,832
  e4:	0258                	c.addi4spn	a4,sp,260
  e6:	8000                	0x8000
  e8:	0264                	c.addi4spn	s1,sp,268
  ea:	8000                	0x8000
  ec:	1806                	c.slli	a6,0x21
  ee:	0009                	c.addi	zero,2
  f0:	2080                	c.fld	fs0,0(s1)
  f2:	0009                	c.addi	zero,2
  f4:	0080                	c.addi4spn	s0,sp,64
  f6:	6406                	c.flwsp	fs0,64(sp)
  f8:	0002                	c.slli64	zero
  fa:	7080                	c.flw	fs0,32(s1)
  fc:	0002                	c.slli64	zero
  fe:	0680                	c.addi4spn	s0,sp,832
 100:	0274                	c.addi4spn	a3,sp,268
 102:	8000                	0x8000
 104:	0278                	c.addi4spn	a4,sp,268
 106:	8000                	0x8000
 108:	0600                	c.addi4spn	s0,sp,768
 10a:	0270                	c.addi4spn	a2,sp,268
 10c:	8000                	0x8000
 10e:	0274                	c.addi4spn	a3,sp,268
 110:	8000                	0x8000
 112:	7c06                	c.flwsp	fs8,96(sp)
 114:	0002                	c.slli64	zero
 116:	8880                	0x8880
 118:	0002                	c.slli64	zero
 11a:	0680                	c.addi4spn	s0,sp,832
 11c:	028c                	c.addi4spn	a1,sp,320
 11e:	8000                	0x8000
 120:	02a8                	c.addi4spn	a0,sp,328
 122:	8000                	0x8000
 124:	ac06                	c.fsdsp	ft1,24(sp)
 126:	0002                	c.slli64	zero
 128:	b480                	c.fsd	fs0,40(s1)
 12a:	0002                	c.slli64	zero
 12c:	0080                	c.addi4spn	s0,sp,64
 12e:	d806                	c.swsp	ra,48(sp)
 130:	0002                	c.slli64	zero
 132:	dc80                	c.sw	s0,56(s1)
 134:	0002                	c.slli64	zero
 136:	0680                	c.addi4spn	s0,sp,832
 138:	02e4                	c.addi4spn	s1,sp,332
 13a:	8000                	0x8000
 13c:	02e4                	c.addi4spn	s1,sp,332
 13e:	8000                	0x8000
 140:	e806                	c.fswsp	ft1,16(sp)
 142:	0002                	c.slli64	zero
 144:	f080                	c.fsw	fs0,32(s1)
 146:	0002                	c.slli64	zero
 148:	0680                	c.addi4spn	s0,sp,832
 14a:	0354                	c.addi4spn	a3,sp,388
 14c:	8000                	0x8000
 14e:	0354                	c.addi4spn	a3,sp,388
 150:	8000                	0x8000
 152:	0c06                	c.slli	s8,0x1
 154:	0009                	c.addi	zero,2
 156:	1880                	c.addi4spn	s0,sp,112
 158:	0009                	c.addi	zero,2
 15a:	0080                	c.addi4spn	s0,sp,64
 15c:	f006                	c.fswsp	ft1,32(sp)
 15e:	0002                	c.slli64	zero
 160:	f080                	c.fsw	fs0,32(s1)
 162:	0002                	c.slli64	zero
 164:	0680                	c.addi4spn	s0,sp,832
 166:	0350                	c.addi4spn	a2,sp,388
 168:	8000                	0x8000
 16a:	0354                	c.addi4spn	a3,sp,388
 16c:	8000                	0x8000
 16e:	0600                	c.addi4spn	s0,sp,768
 170:	03a4                	c.addi4spn	s1,sp,456
 172:	8000                	0x8000
 174:	03b8                	c.addi4spn	a4,sp,456
 176:	8000                	0x8000
 178:	2006                	c.fldsp	ft0,64(sp)
 17a:	0009                	c.addi	zero,2
 17c:	2c80                	c.fld	fs0,24(s1)
 17e:	0009                	c.addi	zero,2
 180:	0680                	c.addi4spn	s0,sp,832
 182:	0934                	c.addi4spn	a3,sp,152
 184:	8000                	0x8000
 186:	0944                	c.addi4spn	s1,sp,148
 188:	8000                	0x8000
 18a:	0600                	c.addi4spn	s0,sp,768
 18c:	03d4                	c.addi4spn	a3,sp,452
 18e:	8000                	0x8000
 190:	03d8                	c.addi4spn	a4,sp,452
 192:	8000                	0x8000
 194:	e006                	c.fswsp	ft1,0(sp)
 196:	e8800003          	lb	zero,-376(zero) # fffffe88 <_sp+0x77fffe88>
 19a:	06800003          	lb	zero,104(zero) # 68 <__stack_size-0x1ffff98>
 19e:	03f0                	c.addi4spn	a2,sp,460
 1a0:	8000                	0x8000
 1a2:	03fc                	c.addi4spn	a5,sp,460
 1a4:	8000                	0x8000
 1a6:	0600                	c.addi4spn	s0,sp,768
 1a8:	041c                	c.addi4spn	a5,sp,512
 1aa:	8000                	0x8000
 1ac:	0424                	c.addi4spn	s1,sp,520
 1ae:	8000                	0x8000
 1b0:	3406                	c.fldsp	fs0,96(sp)
 1b2:	0004                	0x4
 1b4:	3880                	c.fld	fs0,48(s1)
 1b6:	0004                	0x4
 1b8:	0080                	c.addi4spn	s0,sp,64
 1ba:	5806                	c.lwsp	a6,96(sp)
 1bc:	0004                	0x4
 1be:	6080                	c.flw	fs0,0(s1)
 1c0:	0004                	0x4
 1c2:	0680                	c.addi4spn	s0,sp,832
 1c4:	0470                	c.addi4spn	a2,sp,524
 1c6:	8000                	0x8000
 1c8:	0474                	c.addi4spn	a3,sp,524
 1ca:	8000                	0x8000
 1cc:	0600                	c.addi4spn	s0,sp,768
 1ce:	0494                	c.addi4spn	a3,sp,576
 1d0:	8000                	0x8000
 1d2:	049c                	c.addi4spn	a5,sp,576
 1d4:	8000                	0x8000
 1d6:	ac06                	c.fsdsp	ft1,24(sp)
 1d8:	0004                	0x4
 1da:	b080                	c.fsd	fs0,32(s1)
 1dc:	0004                	0x4
 1de:	0080                	c.addi4spn	s0,sp,64
 1e0:	d006                	c.swsp	ra,32(sp)
 1e2:	0004                	0x4
 1e4:	d880                	c.sw	s0,48(s1)
 1e6:	0004                	0x4
 1e8:	0680                	c.addi4spn	s0,sp,832
 1ea:	04e8                	c.addi4spn	a0,sp,588
 1ec:	8000                	0x8000
 1ee:	04ec                	c.addi4spn	a1,sp,588
 1f0:	8000                	0x8000
 1f2:	0600                	c.addi4spn	s0,sp,768
 1f4:	050c                	c.addi4spn	a1,sp,640
 1f6:	8000                	0x8000
 1f8:	0514                	c.addi4spn	a3,sp,640
 1fa:	8000                	0x8000
 1fc:	2406                	c.fldsp	fs0,64(sp)
 1fe:	0005                	c.addi	zero,1
 200:	2880                	c.fld	fs0,16(s1)
 202:	0005                	c.addi	zero,1
 204:	0080                	c.addi4spn	s0,sp,64
 206:	4806                	c.lwsp	a6,64(sp)
 208:	0005                	c.addi	zero,1
 20a:	4c80                	c.lw	s0,24(s1)
 20c:	0005                	c.addi	zero,1
 20e:	0680                	c.addi4spn	s0,sp,832
 210:	055c                	c.addi4spn	a5,sp,644
 212:	8000                	0x8000
 214:	0560                	c.addi4spn	s0,sp,652
 216:	8000                	0x8000
 218:	0600                	c.addi4spn	s0,sp,768
 21a:	0580                	c.addi4spn	s0,sp,704
 21c:	8000                	0x8000
 21e:	0584                	c.addi4spn	s1,sp,704
 220:	8000                	0x8000
 222:	8806                	c.mv	a6,ra
 224:	0005                	c.addi	zero,1
 226:	8c80                	0x8c80
 228:	0005                	c.addi	zero,1
 22a:	0680                	c.addi4spn	s0,sp,832
 22c:	059c                	c.addi4spn	a5,sp,704
 22e:	8000                	0x8000
 230:	05a0                	c.addi4spn	s0,sp,712
 232:	8000                	0x8000
 234:	0600                	c.addi4spn	s0,sp,768
 236:	05c0                	c.addi4spn	s0,sp,708
 238:	8000                	0x8000
 23a:	05c4                	c.addi4spn	s1,sp,708
 23c:	8000                	0x8000
 23e:	c806                	c.swsp	ra,16(sp)
 240:	0005                	c.addi	zero,1
 242:	cc80                	c.sw	s0,24(s1)
 244:	0005                	c.addi	zero,1
 246:	0680                	c.addi4spn	s0,sp,832
 248:	05dc                	c.addi4spn	a5,sp,708
 24a:	8000                	0x8000
 24c:	05e0                	c.addi4spn	s0,sp,716
 24e:	8000                	0x8000
 250:	0600                	c.addi4spn	s0,sp,768
 252:	061c                	c.addi4spn	a5,sp,768
 254:	8000                	0x8000
 256:	0628                	c.addi4spn	a0,sp,776
 258:	8000                	0x8000
 25a:	3406                	c.fldsp	fs0,96(sp)
 25c:	0006                	c.slli	zero,0x1
 25e:	3880                	c.fld	fs0,48(s1)
 260:	0006                	c.slli	zero,0x1
 262:	0080                	c.addi4spn	s0,sp,64
 264:	5c06                	c.lwsp	s8,96(sp)
 266:	0006                	c.slli	zero,0x1
 268:	6080                	c.flw	fs0,0(s1)
 26a:	0006                	c.slli	zero,0x1
 26c:	0680                	c.addi4spn	s0,sp,832
 26e:	0670                	c.addi4spn	a2,sp,780
 270:	8000                	0x8000
 272:	0674                	c.addi4spn	a3,sp,780
 274:	8000                	0x8000
 276:	0600                	c.addi4spn	s0,sp,768
 278:	0698                	c.addi4spn	a4,sp,832
 27a:	8000                	0x8000
 27c:	069c                	c.addi4spn	a5,sp,832
 27e:	8000                	0x8000
 280:	a006                	c.fsdsp	ft1,0(sp)
 282:	0006                	c.slli	zero,0x1
 284:	a480                	c.fsd	fs0,8(s1)
 286:	0006                	c.slli	zero,0x1
 288:	0680                	c.addi4spn	s0,sp,832
 28a:	06b4                	c.addi4spn	a3,sp,840
 28c:	8000                	0x8000
 28e:	06b8                	c.addi4spn	a4,sp,840
 290:	8000                	0x8000
 292:	0600                	c.addi4spn	s0,sp,768
 294:	06dc                	c.addi4spn	a5,sp,836
 296:	8000                	0x8000
 298:	06e0                	c.addi4spn	s0,sp,844
 29a:	8000                	0x8000
 29c:	e406                	c.fswsp	ft1,8(sp)
 29e:	0006                	c.slli	zero,0x1
 2a0:	e880                	c.fsw	fs0,16(s1)
 2a2:	0006                	c.slli	zero,0x1
 2a4:	0680                	c.addi4spn	s0,sp,832
 2a6:	06f8                	c.addi4spn	a4,sp,844
 2a8:	8000                	0x8000
 2aa:	06fc                	c.addi4spn	a5,sp,844
 2ac:	8000                	0x8000
 2ae:	0600                	c.addi4spn	s0,sp,768
 2b0:	073c                	c.addi4spn	a5,sp,904
 2b2:	8000                	0x8000
 2b4:	0748                	c.addi4spn	a0,sp,900
 2b6:	8000                	0x8000
 2b8:	5406                	c.lwsp	s0,96(sp)
 2ba:	58800007          	0x58800007
 2be:	00800007          	0x800007
 2c2:	7006                	c.flwsp	ft0,96(sp)
 2c4:	78800007          	0x78800007
 2c8:	06800007          	0x6800007
 2cc:	0788                	c.addi4spn	a0,sp,960
 2ce:	8000                	0x8000
 2d0:	078c                	c.addi4spn	a1,sp,960
 2d2:	8000                	0x8000
 2d4:	0600                	c.addi4spn	s0,sp,768
 2d6:	07a4                	c.addi4spn	s1,sp,968
 2d8:	8000                	0x8000
 2da:	07ac                	c.addi4spn	a1,sp,968
 2dc:	8000                	0x8000
 2de:	b806                	c.fsdsp	ft1,48(sp)
 2e0:	bc800007          	0xbc800007
 2e4:	00800007          	0x800007
 2e8:	d006                	c.swsp	ra,32(sp)
 2ea:	d4800007          	0xd4800007
 2ee:	06800007          	0x6800007
 2f2:	07e0                	c.addi4spn	s0,sp,972
 2f4:	8000                	0x8000
 2f6:	07e4                	c.addi4spn	s1,sp,972
 2f8:	8000                	0x8000
 2fa:	0600                	c.addi4spn	s0,sp,768
 2fc:	0808                	c.addi4spn	a0,sp,16
 2fe:	8000                	0x8000
 300:	080c                	c.addi4spn	a1,sp,16
 302:	8000                	0x8000
 304:	1806                	c.slli	a6,0x21
 306:	0008                	0x8
 308:	1c80                	c.addi4spn	s0,sp,624
 30a:	0008                	0x8
 30c:	0080                	c.addi4spn	s0,sp,64
 30e:	3c06                	c.fldsp	fs8,96(sp)
 310:	0008                	0x8
 312:	4080                	c.lw	s0,0(s1)
 314:	0008                	0x8
 316:	0680                	c.addi4spn	s0,sp,832
 318:	084c                	c.addi4spn	a1,sp,20
 31a:	8000                	0x8000
 31c:	0850                	c.addi4spn	a2,sp,20
 31e:	8000                	0x8000
 320:	0600                	c.addi4spn	s0,sp,768
 322:	0950                	c.addi4spn	a2,sp,148
 324:	8000                	0x8000
 326:	0cc4                	c.addi4spn	s1,sp,596
 328:	8000                	0x8000
 32a:	2806                	c.fldsp	fa6,64(sp)
 32c:	0000                	c.unimp
 32e:	5080                	c.lw	s0,32(s1)
 330:	0009                	c.addi	zero,2
 332:	0080                	c.addi4spn	s0,sp,64
 334:	00d8                	c.addi4spn	a4,sp,68
 336:	0000                	c.unimp
 338:	0005                	c.addi	zero,1
 33a:	0004                	0x4
 33c:	0000                	c.unimp
 33e:	0000                	c.unimp
 340:	c806                	c.swsp	ra,16(sp)
 342:	000c                	0xc
 344:	c880                	c.sw	s0,16(s1)
 346:	000c                	0xc
 348:	0680                	c.addi4spn	s0,sp,832
 34a:	0ccc                	c.addi4spn	a1,sp,596
 34c:	8000                	0x8000
 34e:	0cd4                	c.addi4spn	a3,sp,596
 350:	8000                	0x8000
 352:	0600                	c.addi4spn	s0,sp,768
 354:	0cd8                	c.addi4spn	a4,sp,596
 356:	8000                	0x8000
 358:	0cd8                	c.addi4spn	a4,sp,596
 35a:	8000                	0x8000
 35c:	e006                	c.fswsp	ft1,0(sp)
 35e:	000c                	0xc
 360:	e880                	c.fsw	fs0,16(s1)
 362:	000c                	0xc
 364:	0680                	c.addi4spn	s0,sp,832
 366:	0cf0                	c.addi4spn	a2,sp,604
 368:	8000                	0x8000
 36a:	0d04                	c.addi4spn	s1,sp,656
 36c:	8000                	0x8000
 36e:	0600                	c.addi4spn	s0,sp,768
 370:	0cd8                	c.addi4spn	a4,sp,596
 372:	8000                	0x8000
 374:	0cd8                	c.addi4spn	a4,sp,596
 376:	8000                	0x8000
 378:	f406                	c.fswsp	ft1,40(sp)
 37a:	000c                	0xc
 37c:	0080                	c.addi4spn	s0,sp,64
 37e:	000d                	c.addi	zero,3
 380:	0080                	c.addi4spn	s0,sp,64
 382:	4406                	c.lwsp	s0,64(sp)
 384:	000d                	c.addi	zero,3
 386:	4480                	c.lw	s0,8(s1)
 388:	000d                	c.addi	zero,3
 38a:	0680                	c.addi4spn	s0,sp,832
 38c:	0d48                	c.addi4spn	a0,sp,660
 38e:	8000                	0x8000
 390:	0d4c                	c.addi4spn	a1,sp,660
 392:	8000                	0x8000
 394:	5006                	0x5006
 396:	000d                	c.addi	zero,3
 398:	5480                	c.lw	s0,40(s1)
 39a:	000d                	c.addi	zero,3
 39c:	0080                	c.addi4spn	s0,sp,64
 39e:	6406                	c.flwsp	fs0,64(sp)
 3a0:	000d                	c.addi	zero,3
 3a2:	6480                	c.flw	fs0,8(s1)
 3a4:	000d                	c.addi	zero,3
 3a6:	0680                	c.addi4spn	s0,sp,832
 3a8:	0d6c                	c.addi4spn	a1,sp,668
 3aa:	8000                	0x8000
 3ac:	0d74                	c.addi4spn	a3,sp,668
 3ae:	8000                	0x8000
 3b0:	0600                	c.addi4spn	s0,sp,768
 3b2:	0d84                	c.addi4spn	s1,sp,720
 3b4:	8000                	0x8000
 3b6:	0d84                	c.addi4spn	s1,sp,720
 3b8:	8000                	0x8000
 3ba:	8c06                	c.mv	s8,ra
 3bc:	000d                	c.addi	zero,3
 3be:	9080                	0x9080
 3c0:	000d                	c.addi	zero,3
 3c2:	0080                	c.addi4spn	s0,sp,64
 3c4:	9c06                	c.add	s8,ra
 3c6:	000d                	c.addi	zero,3
 3c8:	9c80                	0x9c80
 3ca:	000d                	c.addi	zero,3
 3cc:	0680                	c.addi4spn	s0,sp,832
 3ce:	0da4                	c.addi4spn	s1,sp,728
 3d0:	8000                	0x8000
 3d2:	0dac                	c.addi4spn	a1,sp,728
 3d4:	8000                	0x8000
 3d6:	0600                	c.addi4spn	s0,sp,768
 3d8:	0dbc                	c.addi4spn	a5,sp,728
 3da:	8000                	0x8000
 3dc:	0dbc                	c.addi4spn	a5,sp,728
 3de:	8000                	0x8000
 3e0:	c406                	c.swsp	ra,8(sp)
 3e2:	000d                	c.addi	zero,3
 3e4:	cc80                	c.sw	s0,24(s1)
 3e6:	000d                	c.addi	zero,3
 3e8:	0080                	c.addi4spn	s0,sp,64
 3ea:	dc06                	c.swsp	ra,56(sp)
 3ec:	000d                	c.addi	zero,3
 3ee:	dc80                	c.sw	s0,56(s1)
 3f0:	000d                	c.addi	zero,3
 3f2:	0680                	c.addi4spn	s0,sp,832
 3f4:	0de4                	c.addi4spn	s1,sp,732
 3f6:	8000                	0x8000
 3f8:	0de8                	c.addi4spn	a0,sp,732
 3fa:	8000                	0x8000
 3fc:	0600                	c.addi4spn	s0,sp,768
 3fe:	0df8                	c.addi4spn	a4,sp,732
 400:	8000                	0x8000
 402:	0df8                	c.addi4spn	a4,sp,732
 404:	8000                	0x8000
 406:	0006                	c.slli	zero,0x1
 408:	000e                	c.slli	zero,0x3
 40a:	0480                	c.addi4spn	s0,sp,576
 40c:	000e                	c.slli	zero,0x3
 40e:	0080                	c.addi4spn	s0,sp,64
 410:	01d1                	c.addi	gp,20
 412:	0000                	c.unimp
 414:	0005                	c.addi	zero,1
 416:	0004                	0x4
 418:	0000                	c.unimp
 41a:	0000                	c.unimp
 41c:	7006                	c.flwsp	ft0,96(sp)
 41e:	000e                	c.slli	zero,0x3
 420:	8080                	0x8080
 422:	000e                	c.slli	zero,0x3
 424:	0680                	c.addi4spn	s0,sp,832
 426:	0e88                	c.addi4spn	a0,sp,848
 428:	8000                	0x8000
 42a:	0e8c                	c.addi4spn	a1,sp,848
 42c:	8000                	0x8000
 42e:	9006                	c.add	zero,ra
 430:	000e                	c.slli	zero,0x3
 432:	a480                	c.fsd	fs0,8(s1)
 434:	000e                	c.slli	zero,0x3
 436:	0080                	c.addi4spn	s0,sp,64
 438:	7006                	c.flwsp	ft0,96(sp)
 43a:	000e                	c.slli	zero,0x3
 43c:	7880                	c.flw	fs0,48(s1)
 43e:	000e                	c.slli	zero,0x3
 440:	0680                	c.addi4spn	s0,sp,832
 442:	0e88                	c.addi4spn	a0,sp,848
 444:	8000                	0x8000
 446:	0e88                	c.addi4spn	a0,sp,848
 448:	8000                	0x8000
 44a:	9806                	c.add	a6,ra
 44c:	000e                	c.slli	zero,0x3
 44e:	a480                	c.fsd	fs0,8(s1)
 450:	000e                	c.slli	zero,0x3
 452:	0080                	c.addi4spn	s0,sp,64
 454:	1c06                	c.slli	s8,0x21
 456:	2080000f          	0x2080000f
 45a:	0680000f          	fence	or,i
 45e:	0f2c                	c.addi4spn	a1,sp,920
 460:	8000                	0x8000
 462:	1030                	c.addi4spn	a2,sp,40
 464:	8000                	0x8000
 466:	6c06                	c.flwsp	fs8,64(sp)
 468:	0010                	0x10
 46a:	fc80                	c.fsw	fs0,56(s1)
 46c:	0014                	0x14
 46e:	0080                	c.addi4spn	s0,sp,64
 470:	3c06                	c.fldsp	fs8,96(sp)
 472:	4480000f          	0x4480000f
 476:	0680000f          	fence	or,i
 47a:	106c                	c.addi4spn	a1,sp,44
 47c:	8000                	0x8000
 47e:	1084                	c.addi4spn	s1,sp,96
 480:	8000                	0x8000
 482:	1006                	c.slli	zero,0x21
 484:	0014                	0x14
 486:	1880                	c.addi4spn	s0,sp,112
 488:	0014                	0x14
 48a:	0680                	c.addi4spn	s0,sp,832
 48c:	1448                	c.addi4spn	a0,sp,548
 48e:	8000                	0x8000
 490:	1454                	c.addi4spn	a3,sp,548
 492:	8000                	0x8000
 494:	0600                	c.addi4spn	s0,sp,768
 496:	0f40                	c.addi4spn	s0,sp,916
 498:	8000                	0x8000
 49a:	0f44                	c.addi4spn	s1,sp,916
 49c:	8000                	0x8000
 49e:	1006                	c.slli	zero,0x21
 4a0:	0014                	0x14
 4a2:	1880                	c.addi4spn	s0,sp,112
 4a4:	0014                	0x14
 4a6:	0680                	c.addi4spn	s0,sp,832
 4a8:	1448                	c.addi4spn	a0,sp,548
 4aa:	8000                	0x8000
 4ac:	1454                	c.addi4spn	a3,sp,548
 4ae:	8000                	0x8000
 4b0:	0600                	c.addi4spn	s0,sp,768
 4b2:	0f54                	c.addi4spn	a3,sp,916
 4b4:	8000                	0x8000
 4b6:	0f6c                	c.addi4spn	a1,sp,924
 4b8:	8000                	0x8000
 4ba:	d406                	c.swsp	ra,40(sp)
 4bc:	0012                	c.slli	zero,0x4
 4be:	d880                	c.sw	s0,48(s1)
 4c0:	0012                	c.slli	zero,0x4
 4c2:	0680                	c.addi4spn	s0,sp,832
 4c4:	1404                	c.addi4spn	s1,sp,544
 4c6:	8000                	0x8000
 4c8:	1410                	c.addi4spn	a2,sp,544
 4ca:	8000                	0x8000
 4cc:	0600                	c.addi4spn	s0,sp,768
 4ce:	10cc                	c.addi4spn	a1,sp,100
 4d0:	8000                	0x8000
 4d2:	10d0                	c.addi4spn	a2,sp,100
 4d4:	8000                	0x8000
 4d6:	d806                	c.swsp	ra,48(sp)
 4d8:	0010                	0x10
 4da:	e880                	c.fsw	fs0,16(s1)
 4dc:	0010                	0x10
 4de:	0680                	c.addi4spn	s0,sp,832
 4e0:	10ec                	c.addi4spn	a1,sp,108
 4e2:	8000                	0x8000
 4e4:	10f0                	c.addi4spn	a2,sp,108
 4e6:	8000                	0x8000
 4e8:	3806                	c.fldsp	fa6,96(sp)
 4ea:	0014                	0x14
 4ec:	3c80                	c.fld	fs0,56(s1)
 4ee:	0014                	0x14
 4f0:	0680                	c.addi4spn	s0,sp,832
 4f2:	1440                	c.addi4spn	s0,sp,548
 4f4:	8000                	0x8000
 4f6:	1448                	c.addi4spn	a0,sp,548
 4f8:	8000                	0x8000
 4fa:	0600                	c.addi4spn	s0,sp,768
 4fc:	1438                	c.addi4spn	a4,sp,552
 4fe:	8000                	0x8000
 500:	143c                	c.addi4spn	a5,sp,552
 502:	8000                	0x8000
 504:	4006                	0x4006
 506:	0014                	0x14
 508:	4880                	c.lw	s0,16(s1)
 50a:	0014                	0x14
 50c:	0080                	c.addi4spn	s0,sp,64
 50e:	3806                	c.fldsp	fa6,96(sp)
 510:	0011                	c.addi	zero,4
 512:	4880                	c.lw	s0,16(s1)
 514:	0011                	c.addi	zero,4
 516:	0680                	c.addi4spn	s0,sp,832
 518:	1154                	c.addi4spn	a3,sp,164
 51a:	8000                	0x8000
 51c:	116c                	c.addi4spn	a1,sp,172
 51e:	8000                	0x8000
 520:	0600                	c.addi4spn	s0,sp,768
 522:	117c                	c.addi4spn	a5,sp,172
 524:	8000                	0x8000
 526:	1180                	c.addi4spn	s0,sp,224
 528:	8000                	0x8000
 52a:	8c06                	c.mv	s8,ra
 52c:	0011                	c.addi	zero,4
 52e:	9080                	0x9080
 530:	0011                	c.addi	zero,4
 532:	0680                	c.addi4spn	s0,sp,832
 534:	11dc                	c.addi4spn	a5,sp,228
 536:	8000                	0x8000
 538:	120c                	c.addi4spn	a1,sp,288
 53a:	8000                	0x8000
 53c:	5406                	c.lwsp	s0,96(sp)
 53e:	0014                	0x14
 540:	5880                	c.lw	s0,48(s1)
 542:	0014                	0x14
 544:	0680                	c.addi4spn	s0,sp,832
 546:	1468                	c.addi4spn	a0,sp,556
 548:	8000                	0x8000
 54a:	1470                	c.addi4spn	a2,sp,556
 54c:	8000                	0x8000
 54e:	0600                	c.addi4spn	s0,sp,768
 550:	11dc                	c.addi4spn	a5,sp,228
 552:	8000                	0x8000
 554:	11e8                	c.addi4spn	a0,sp,236
 556:	8000                	0x8000
 558:	f006                	c.fswsp	ft1,32(sp)
 55a:	0011                	c.addi	zero,4
 55c:	f480                	c.fsw	fs0,40(s1)
 55e:	0011                	c.addi	zero,4
 560:	0680                	c.addi4spn	s0,sp,832
 562:	11f8                	c.addi4spn	a4,sp,236
 564:	8000                	0x8000
 566:	120c                	c.addi4spn	a1,sp,288
 568:	8000                	0x8000
 56a:	0600                	c.addi4spn	s0,sp,768
 56c:	1198                	c.addi4spn	a4,sp,224
 56e:	8000                	0x8000
 570:	11a8                	c.addi4spn	a0,sp,232
 572:	8000                	0x8000
 574:	b406                	c.fsdsp	ft1,40(sp)
 576:	0011                	c.addi	zero,4
 578:	cc80                	c.sw	s0,24(s1)
 57a:	0011                	c.addi	zero,4
 57c:	0080                	c.addi4spn	s0,sp,64
 57e:	ec06                	c.fswsp	ft1,24(sp)
 580:	0012                	c.slli	zero,0x4
 582:	0480                	c.addi4spn	s0,sp,576
 584:	06800013          	addi	zero,zero,104
 588:	1398                	c.addi4spn	a4,sp,480
 58a:	8000                	0x8000
 58c:	13a8                	c.addi4spn	a0,sp,488
 58e:	8000                	0x8000
 590:	0600                	c.addi4spn	s0,sp,768
 592:	1314                	c.addi4spn	a3,sp,416
 594:	8000                	0x8000
 596:	1320                	c.addi4spn	s0,sp,424
 598:	8000                	0x8000
 59a:	3006                	c.fldsp	ft0,96(sp)
 59c:	3c800013          	addi	zero,zero,968
 5a0:	06800013          	addi	zero,zero,104
 5a4:	1340                	c.addi4spn	s0,sp,420
 5a6:	8000                	0x8000
 5a8:	1344                	c.addi4spn	s1,sp,420
 5aa:	8000                	0x8000
 5ac:	a806                	c.fsdsp	ft1,16(sp)
 5ae:	b4800013          	addi	zero,zero,-1208
 5b2:	00800013          	addi	zero,zero,8
 5b6:	3406                	c.fldsp	fs0,96(sp)
 5b8:	3c800013          	addi	zero,zero,968
 5bc:	06800013          	addi	zero,zero,104
 5c0:	1340                	c.addi4spn	s0,sp,420
 5c2:	8000                	0x8000
 5c4:	1344                	c.addi4spn	s1,sp,420
 5c6:	8000                	0x8000
 5c8:	0600                	c.addi4spn	s0,sp,768
 5ca:	1328                	c.addi4spn	a0,sp,424
 5cc:	8000                	0x8000
 5ce:	132c                	c.addi4spn	a1,sp,424
 5d0:	8000                	0x8000
 5d2:	5406                	c.lwsp	s0,96(sp)
 5d4:	64800013          	addi	zero,zero,1608
 5d8:	06800013          	addi	zero,zero,104
 5dc:	1370                	c.addi4spn	a2,sp,428
 5de:	8000                	0x8000
 5e0:	138c                	c.addi4spn	a1,sp,480
 5e2:	8000                	0x8000
	...

Disassembly of section .debug_frame:

00000000 <.debug_frame>:
   0:	000c                	0xc
   2:	0000                	c.unimp
   4:	ffff                	0xffff
   6:	ffff                	0xffff
   8:	7c010003          	lb	zero,1984(sp)
   c:	0d01                	c.addi	s10,0
   e:	0002                	c.slli64	zero
  10:	000c                	0xc
  12:	0000                	c.unimp
  14:	0000                	c.unimp
  16:	0000                	c.unimp
  18:	0950                	c.addi4spn	a2,sp,148
  1a:	8000                	0x8000
  1c:	0030                	c.addi4spn	a2,sp,8
  1e:	0000                	c.unimp
  20:	000c                	0xc
  22:	0000                	c.unimp
  24:	0000                	c.unimp
  26:	0000                	c.unimp
  28:	0980                	c.addi4spn	s0,sp,208
  2a:	8000                	0x8000
  2c:	002c                	c.addi4spn	a1,sp,8
  2e:	0000                	c.unimp
  30:	000c                	0xc
  32:	0000                	c.unimp
  34:	0000                	c.unimp
  36:	0000                	c.unimp
  38:	09ac                	c.addi4spn	a1,sp,216
  3a:	8000                	0x8000
  3c:	0030                	c.addi4spn	a2,sp,8
  3e:	0000                	c.unimp
  40:	000c                	0xc
  42:	0000                	c.unimp
  44:	0000                	c.unimp
  46:	0000                	c.unimp
  48:	09dc                	c.addi4spn	a5,sp,212
  4a:	8000                	0x8000
  4c:	0018                	0x18
  4e:	0000                	c.unimp
  50:	000c                	0xc
  52:	0000                	c.unimp
  54:	0000                	c.unimp
  56:	0000                	c.unimp
  58:	09f4                	c.addi4spn	a3,sp,220
  5a:	8000                	0x8000
  5c:	0054                	c.addi4spn	a3,sp,4
  5e:	0000                	c.unimp
  60:	0030                	c.addi4spn	a2,sp,8
  62:	0000                	c.unimp
  64:	0000                	c.unimp
  66:	0000                	c.unimp
  68:	0a48                	c.addi4spn	a0,sp,276
  6a:	8000                	0x8000
  6c:	0158                	c.addi4spn	a4,sp,132
  6e:	0000                	c.unimp
  70:	0e4c                	c.addi4spn	a1,sp,788
  72:	4810                	c.lw	a2,16(s0)
  74:	0288                	c.addi4spn	a0,sp,320
  76:	8974                	0x8974
  78:	02018103          	lb	sp,32(gp)
  7c:	0a6c                	c.addi4spn	a1,sp,284
  7e:	44c1                	c.li	s1,16
  80:	02c8                	c.addi4spn	a0,sp,324
  82:	c964                	c.sw	s1,84(a0)
  84:	0e44                	c.addi4spn	s1,sp,788
  86:	4400                	c.lw	s0,8(s0)
  88:	48c1600b          	0x48c1600b
  8c:	44c8                	c.lw	a0,12(s1)
  8e:	44c9                	c.li	s1,18
  90:	000e                	c.slli	zero,0x3
  92:	0000                	c.unimp
  94:	000c                	0xc
  96:	0000                	c.unimp
  98:	0000                	c.unimp
  9a:	0000                	c.unimp
  9c:	0ba0                	c.addi4spn	s0,sp,472
  9e:	8000                	0x8000
  a0:	0010                	0x10
  a2:	0000                	c.unimp
  a4:	000c                	0xc
  a6:	0000                	c.unimp
  a8:	0000                	c.unimp
  aa:	0000                	c.unimp
  ac:	0bb0                	c.addi4spn	a2,sp,472
  ae:	8000                	0x8000
  b0:	0074                	c.addi4spn	a3,sp,12
  b2:	0000                	c.unimp
  b4:	000c                	0xc
  b6:	0000                	c.unimp
  b8:	0000                	c.unimp
  ba:	0000                	c.unimp
  bc:	0c24                	c.addi4spn	s1,sp,536
  be:	8000                	0x8000
  c0:	0024                	c.addi4spn	s1,sp,8
  c2:	0000                	c.unimp
  c4:	001c                	0x1c
  c6:	0000                	c.unimp
  c8:	0000                	c.unimp
  ca:	0000                	c.unimp
  cc:	0c48                	c.addi4spn	a0,sp,532
  ce:	8000                	0x8000
  d0:	0060                	c.addi4spn	s0,sp,12
  d2:	0000                	c.unimp
  d4:	0e44                	c.addi4spn	s1,sp,788
  d6:	4410                	c.lw	a2,8(s0)
  d8:	0181                	c.addi	gp,0
  da:	4002                	0x4002
  dc:	c10a                	c.swsp	sp,128(sp)
  de:	0e48                	c.addi4spn	a0,sp,788
  e0:	4400                	c.lw	s0,8(s0)
  e2:	000c000b          	0xc000b
  e6:	0000                	c.unimp
  e8:	0000                	c.unimp
  ea:	0000                	c.unimp
  ec:	0ca8                	c.addi4spn	a0,sp,600
  ee:	8000                	0x8000
  f0:	000c                	0xc
  f2:	0000                	c.unimp
  f4:	000c                	0xc
  f6:	0000                	c.unimp
  f8:	0000                	c.unimp
  fa:	0000                	c.unimp
  fc:	0cb4                	c.addi4spn	a3,sp,600
  fe:	8000                	0x8000
 100:	0010                	0x10
 102:	0000                	c.unimp
 104:	0050                	c.addi4spn	a2,sp,4
 106:	0000                	c.unimp
 108:	0000                	c.unimp
 10a:	0000                	c.unimp
 10c:	0028                	c.addi4spn	a0,sp,8
 10e:	8000                	0x8000
 110:	0928                	c.addi4spn	a0,sp,152
 112:	0000                	c.unimp
 114:	0e44                	c.addi4spn	s1,sp,788
 116:	01b0                	c.addi4spn	a2,sp,200
 118:	8174                	0x8174
 11a:	8801                	c.andi	s0,0
 11c:	8902                	c.jr	s2
 11e:	93049203          	lh	tp,-1744(s1)
 122:	9405                	c.srai	s0,0x21
 124:	9506                	c.add	a0,ra
 126:	97089607          	0x97089607
 12a:	9809                	c.andi	s0,-30
 12c:	990a                	c.add	s2,sp
 12e:	9b0c9a0b          	0x9b0c9a0b
 132:	030d                	c.addi	t1,3
 134:	0870                	c.addi4spn	a2,sp,28
 136:	c10a                	c.swsp	sp,128(sp)
 138:	c844                	c.sw	s1,20(s0)
 13a:	c944                	c.sw	s1,20(a0)
 13c:	d244                	c.sw	s1,36(a2)
 13e:	d344                	c.sw	s1,36(a4)
 140:	d444                	c.sw	s1,44(s0)
 142:	d544                	c.sw	s1,44(a0)
 144:	d644                	c.sw	s1,44(a2)
 146:	d744                	c.sw	s1,44(a4)
 148:	d844                	c.sw	s1,52(s0)
 14a:	d944                	c.sw	s1,52(a0)
 14c:	da44                	c.sw	s1,52(a2)
 14e:	db44                	c.sw	s1,52(a4)
 150:	0e48                	c.addi4spn	a0,sp,788
 152:	4400                	c.lw	s0,8(s0)
 154:	0000000b          	0xb
 158:	000c                	0xc
 15a:	0000                	c.unimp
 15c:	ffff                	0xffff
 15e:	ffff                	0xffff
 160:	7c010003          	lb	zero,1984(sp)
 164:	0d01                	c.addi	s10,0
 166:	0002                	c.slli64	zero
 168:	000c                	0xc
 16a:	0000                	c.unimp
 16c:	0158                	c.addi4spn	a4,sp,132
 16e:	0000                	c.unimp
 170:	0cc4                	c.addi4spn	s1,sp,596
 172:	8000                	0x8000
 174:	0014                	0x14
 176:	0000                	c.unimp
 178:	000c                	0xc
 17a:	0000                	c.unimp
 17c:	0158                	c.addi4spn	a4,sp,132
 17e:	0000                	c.unimp
 180:	0cd8                	c.addi4spn	a4,sp,596
 182:	8000                	0x8000
 184:	0054                	c.addi4spn	a3,sp,4
 186:	0000                	c.unimp
 188:	000c                	0xc
 18a:	0000                	c.unimp
 18c:	0158                	c.addi4spn	a4,sp,132
 18e:	0000                	c.unimp
 190:	0d2c                	c.addi4spn	a1,sp,664
 192:	8000                	0x8000
 194:	00f0                	c.addi4spn	a2,sp,76
 196:	0000                	c.unimp
 198:	000c                	0xc
 19a:	0000                	c.unimp
 19c:	ffff                	0xffff
 19e:	ffff                	0xffff
 1a0:	7c010003          	lb	zero,1984(sp)
 1a4:	0d01                	c.addi	s10,0
 1a6:	0002                	c.slli64	zero
 1a8:	000c                	0xc
 1aa:	0000                	c.unimp
 1ac:	0198                	c.addi4spn	a4,sp,192
 1ae:	0000                	c.unimp
 1b0:	0e1c                	c.addi4spn	a5,sp,784
 1b2:	8000                	0x8000
 1b4:	0030                	c.addi4spn	a2,sp,8
 1b6:	0000                	c.unimp
 1b8:	0024                	c.addi4spn	s1,sp,8
 1ba:	0000                	c.unimp
 1bc:	0198                	c.addi4spn	a4,sp,192
 1be:	0000                	c.unimp
 1c0:	0e4c                	c.addi4spn	a1,sp,788
 1c2:	8000                	0x8000
 1c4:	0078                	c.addi4spn	a4,sp,12
 1c6:	0000                	c.unimp
 1c8:	0e44                	c.addi4spn	s1,sp,788
 1ca:	5010                	c.lw	a2,32(s0)
 1cc:	0288                	c.addi4spn	a0,sp,320
 1ce:	0181                	c.addi	gp,0
 1d0:	0389                	c.addi	t2,2
 1d2:	0492                	c.slli	s1,0x4
 1d4:	5002                	0x5002
 1d6:	44c1                	c.li	s1,16
 1d8:	44c8                	c.lw	a0,12(s1)
 1da:	44c9                	c.li	s1,18
 1dc:	44d2                	c.lwsp	s1,20(sp)
 1de:	000e                	c.slli	zero,0x3
 1e0:	0050                	c.addi4spn	a2,sp,4
 1e2:	0000                	c.unimp
 1e4:	0198                	c.addi4spn	a4,sp,192
 1e6:	0000                	c.unimp
 1e8:	0ec4                	c.addi4spn	s1,sp,852
 1ea:	8000                	0x8000
 1ec:	0638                	c.addi4spn	a4,sp,776
 1ee:	0000                	c.unimp
 1f0:	0e44                	c.addi4spn	s1,sp,788
 1f2:	0190                	c.addi4spn	a2,sp,192
 1f4:	9574                	0x9574
 1f6:	8112980f          	0x8112980f
 1fa:	8809                	c.andi	s0,2
 1fc:	890a                	c.mv	s2,sp
 1fe:	930c920b          	0x930c920b
 202:	940d                	c.srai	s0,0x23
 204:	960e                	c.add	a2,gp
 206:	9710                	0x9710
 208:	9911                	c.andi	a0,-28
 20a:	9b149a13          	0x9b149a13
 20e:	0315                	c.addi	t1,5
 210:	0138                	c.addi4spn	a4,sp,136
 212:	c10a                	c.swsp	sp,128(sp)
 214:	c844                	c.sw	s1,20(s0)
 216:	c944                	c.sw	s1,20(a0)
 218:	d244                	c.sw	s1,36(a2)
 21a:	d344                	c.sw	s1,36(a4)
 21c:	d444                	c.sw	s1,44(s0)
 21e:	d544                	c.sw	s1,44(a0)
 220:	d644                	c.sw	s1,44(a2)
 222:	d744                	c.sw	s1,44(a4)
 224:	d844                	c.sw	s1,52(s0)
 226:	d944                	c.sw	s1,52(a0)
 228:	da44                	c.sw	s1,52(a2)
 22a:	db44                	c.sw	s1,52(a4)
 22c:	0e44                	c.addi4spn	s1,sp,788
 22e:	4400                	c.lw	s0,8(s0)
 230:	0000000b          	0xb
