
dry:     file format elf32-littleriscv
dry


Disassembly of section .init:

80000000 <_start>:
_start():
/home/tututu/qimeng/simulator/baremetal/benchmarks/coremark/../../start.S:9
    .type _start,@function


_start:

  la gp, __global_pointer
80000000:	00005197          	auipc	gp,0x5
80000004:	e5018193          	addi	gp,gp,-432 # 80004e50 <__global_pointer>
/home/tututu/qimeng/simulator/baremetal/benchmarks/coremark/../../start.S:10
  la sp, _sp
80000008:	08000117          	auipc	sp,0x8000
8000000c:	ff810113          	addi	sp,sp,-8 # 88000000 <_sp>
/home/tututu/qimeng/simulator/baremetal/benchmarks/coremark/../../start.S:12

  call main
80000010:	00c000ef          	jal	ra,8000001c <main>
/home/tututu/qimeng/simulator/baremetal/benchmarks/coremark/../../start.S:13
  ebreak
80000014:	00100073          	ebreak

80000018 <loop>:
loop():
/home/tututu/qimeng/simulator/baremetal/benchmarks/coremark/../../start.S:16

loop:
    j loop
80000018:	0000006f          	jal	zero,80000018 <loop>

Disassembly of section .text:

8000001c <main>:
myalloc():
/home/tututu/qimeng/simulator/baremetal/benchmarks/dhrystone/dry.c:446

static char memory[1024];
static char *free_mem = &memory[0];

static char *myalloc(size_t size) {
  while ((unsigned long)free_mem % 4 != 0)
8000001c:	800046b7          	lui	a3,0x80004
80000020:	6546a783          	lw	a5,1620(a3) # 80004654 <free_mem>
main():
/home/tututu/qimeng/simulator/baremetal/benchmarks/dhrystone/dry.c:725
int main()
/*****/

/* main program, corresponds to procedures        */
/* Main and Proc_0 in the Ada version             */
{
80000024:	f5010113          	addi	sp,sp,-176
80000028:	0a112623          	sw	ra,172(sp)
8000002c:	0a812423          	sw	s0,168(sp)
80000030:	0a912223          	sw	s1,164(sp)
80000034:	0b212023          	sw	s2,160(sp)
80000038:	09312e23          	sw	s3,156(sp)
8000003c:	09412c23          	sw	s4,152(sp)
80000040:	09512a23          	sw	s5,148(sp)
80000044:	09612823          	sw	s6,144(sp)
80000048:	09712623          	sw	s7,140(sp)
8000004c:	09812423          	sw	s8,136(sp)
80000050:	09912223          	sw	s9,132(sp)
80000054:	09a12023          	sw	s10,128(sp)
80000058:	07b12e23          	sw	s11,124(sp)
myalloc():
/home/tututu/qimeng/simulator/baremetal/benchmarks/dhrystone/dry.c:446
  while ((unsigned long)free_mem % 4 != 0)
8000005c:	0037f713          	andi	a4,a5,3
80000060:	00070c63          	beq	a4,zero,80000078 <main+0x5c>
80000064:	00178713          	addi	a4,a5,1
80000068:	00377613          	andi	a2,a4,3
/home/tututu/qimeng/simulator/baremetal/benchmarks/dhrystone/dry.c:447
    free_mem++;
8000006c:	00070793          	addi	a5,a4,0
/home/tututu/qimeng/simulator/baremetal/benchmarks/dhrystone/dry.c:446
  while ((unsigned long)free_mem % 4 != 0)
80000070:	00170713          	addi	a4,a4,1
80000074:	fe061ae3          	bne	a2,zero,80000068 <main+0x4c>
main():
/home/tututu/qimeng/simulator/baremetal/benchmarks/dhrystone/dry.c:742

  Number_Of_Runs = NUMBER_OF_RUNS;

  /* Initializations */

  Next_Ptr_Glob = (Rec_Pointer)myalloc(sizeof(Rec_Type));
80000078:	80004737          	lui	a4,0x80004
8000007c:	62f72e23          	sw	a5,1596(a4) # 8000463c <Next_Ptr_Glob>
myalloc():
/home/tututu/qimeng/simulator/baremetal/benchmarks/dhrystone/dry.c:446
  while ((unsigned long)free_mem % 4 != 0)
80000080:	0037f713          	andi	a4,a5,3
/home/tututu/qimeng/simulator/baremetal/benchmarks/dhrystone/dry.c:449
  free_mem += size;
80000084:	03078a13          	addi	s4,a5,48
/home/tututu/qimeng/simulator/baremetal/benchmarks/dhrystone/dry.c:446
  while ((unsigned long)free_mem % 4 != 0)
80000088:	00070c63          	beq	a4,zero,800000a0 <main+0x84>
8000008c:	03178713          	addi	a4,a5,49
80000090:	00377613          	andi	a2,a4,3
/home/tututu/qimeng/simulator/baremetal/benchmarks/dhrystone/dry.c:447
    free_mem++;
80000094:	00070a13          	addi	s4,a4,0
/home/tututu/qimeng/simulator/baremetal/benchmarks/dhrystone/dry.c:446
  while ((unsigned long)free_mem % 4 != 0)
80000098:	00170713          	addi	a4,a4,1
8000009c:	fe061ae3          	bne	a2,zero,80000090 <main+0x74>
main():
/home/tututu/qimeng/simulator/baremetal/benchmarks/dhrystone/dry.c:743
  Ptr_Glob = (Rec_Pointer)myalloc(sizeof(Rec_Type));
800000a0:	80004737          	lui	a4,0x80004
800000a4:	65472023          	sw	s4,1600(a4) # 80004640 <Ptr_Glob>
/home/tututu/qimeng/simulator/baremetal/benchmarks/dhrystone/dry.c:745

  Ptr_Glob->Ptr_Comp = Next_Ptr_Glob;
800000a8:	00fa2023          	sw	a5,0(s4)
/home/tututu/qimeng/simulator/baremetal/benchmarks/dhrystone/dry.c:747
  Ptr_Glob->Discr = Ident_1;
  Ptr_Glob->variant.var_1.Enum_Comp = Ident_3;
800000ac:	00200793          	addi	a5,zero,2
800000b0:	00fa2423          	sw	a5,8(s4)
/home/tututu/qimeng/simulator/baremetal/benchmarks/dhrystone/dry.c:748
  Ptr_Glob->variant.var_1.Int_Comp = 40;
800000b4:	02800793          	addi	a5,zero,40
800000b8:	00fa2623          	sw	a5,12(s4)
/home/tututu/qimeng/simulator/baremetal/benchmarks/dhrystone/dry.c:749
  strcpy(Ptr_Glob->variant.var_1.Str_Comp, "DHRYSTONE PROGRAM, SOME STRING");
800000bc:	800017b7          	lui	a5,0x80001
myalloc():
/home/tututu/qimeng/simulator/baremetal/benchmarks/dhrystone/dry.c:449
  free_mem += size;
800000c0:	030a0713          	addi	a4,s4,48
main():
/home/tututu/qimeng/simulator/baremetal/benchmarks/dhrystone/dry.c:749
  strcpy(Ptr_Glob->variant.var_1.Str_Comp, "DHRYSTONE PROGRAM, SOME STRING");
800000c4:	5ec78593          	addi	a1,a5,1516 # 800015ec <strcmp+0x17c>
800000c8:	01f00613          	addi	a2,zero,31
/home/tututu/qimeng/simulator/baremetal/benchmarks/dhrystone/dry.c:746
  Ptr_Glob->Discr = Ident_1;
800000cc:	000a2223          	sw	zero,4(s4)
/home/tututu/qimeng/simulator/baremetal/benchmarks/dhrystone/dry.c:749
  strcpy(Ptr_Glob->variant.var_1.Str_Comp, "DHRYSTONE PROGRAM, SOME STRING");
800000d0:	010a0513          	addi	a0,s4,16
myalloc():
/home/tututu/qimeng/simulator/baremetal/benchmarks/dhrystone/dry.c:449
  free_mem += size;
800000d4:	64e6aa23          	sw	a4,1620(a3)
main():
/home/tututu/qimeng/simulator/baremetal/benchmarks/dhrystone/dry.c:749
  strcpy(Ptr_Glob->variant.var_1.Str_Comp, "DHRYSTONE PROGRAM, SOME STRING");
800000d8:	270010ef          	jal	ra,80001348 <memcpy>
/home/tututu/qimeng/simulator/baremetal/benchmarks/dhrystone/dry.c:750
  strcpy(Str_1_Loc, "DHRYSTONE PROGRAM, 1'ST STRING");
800000dc:	800027b7          	lui	a5,0x80002
800000e0:	8d878713          	addi	a4,a5,-1832 # 800018d8 <strcmp+0x468>
800000e4:	800027b7          	lui	a5,0x80002
800000e8:	94c78793          	addi	a5,a5,-1716 # 8000194c <strcmp+0x4dc>
/home/tututu/qimeng/simulator/baremetal/benchmarks/dhrystone/dry.c:776
      Proc_5();
      Proc_4();
      /* Ch_1_Glob == 'A', Ch_2_Glob == 'B', Bool_Glob == true */
      Int_1_Loc = 2;
      Int_2_Loc = 3;
      strcpy(Str_2_Loc, "DHRYSTONE PROGRAM, 2'ND STRING");
800000ec:	0007ae83          	lw	t4,0(a5)
/home/tututu/qimeng/simulator/baremetal/benchmarks/dhrystone/dry.c:750
  strcpy(Str_1_Loc, "DHRYSTONE PROGRAM, 1'ST STRING");
800000f0:	00072e03          	lw	t3,0(a4)
800000f4:	00472303          	lw	t1,4(a4)
/home/tututu/qimeng/simulator/baremetal/benchmarks/dhrystone/dry.c:776
      strcpy(Str_2_Loc, "DHRYSTONE PROGRAM, 2'ND STRING");
800000f8:	01d12623          	sw	t4,12(sp)
800000fc:	0047ae83          	lw	t4,4(a5)
/home/tututu/qimeng/simulator/baremetal/benchmarks/dhrystone/dry.c:750
  strcpy(Str_1_Loc, "DHRYSTONE PROGRAM, 1'ST STRING");
80000100:	00872883          	lw	a7,8(a4)
80000104:	00c72803          	lw	a6,12(a4)
/home/tututu/qimeng/simulator/baremetal/benchmarks/dhrystone/dry.c:776
      strcpy(Str_2_Loc, "DHRYSTONE PROGRAM, 2'ND STRING");
80000108:	01d12823          	sw	t4,16(sp)
8000010c:	0087ae83          	lw	t4,8(a5)
/home/tututu/qimeng/simulator/baremetal/benchmarks/dhrystone/dry.c:750
  strcpy(Str_1_Loc, "DHRYSTONE PROGRAM, 1'ST STRING");
80000110:	01072503          	lw	a0,16(a4)
80000114:	01872603          	lw	a2,24(a4)
/home/tututu/qimeng/simulator/baremetal/benchmarks/dhrystone/dry.c:776
      strcpy(Str_2_Loc, "DHRYSTONE PROGRAM, 2'ND STRING");
80000118:	01d12a23          	sw	t4,20(sp)
8000011c:	00c7ae83          	lw	t4,12(a5)
/home/tututu/qimeng/simulator/baremetal/benchmarks/dhrystone/dry.c:750
  strcpy(Str_1_Loc, "DHRYSTONE PROGRAM, 1'ST STRING");
80000120:	01472583          	lw	a1,20(a4)
80000124:	01c75683          	lhu	a3,28(a4)
/home/tututu/qimeng/simulator/baremetal/benchmarks/dhrystone/dry.c:776
      strcpy(Str_2_Loc, "DHRYSTONE PROGRAM, 2'ND STRING");
80000128:	01d12c23          	sw	t4,24(sp)
8000012c:	0107ae83          	lw	t4,16(a5)
/home/tututu/qimeng/simulator/baremetal/benchmarks/dhrystone/dry.c:750
  strcpy(Str_1_Loc, "DHRYSTONE PROGRAM, 1'ST STRING");
80000130:	01e74703          	lbu	a4,30(a4)
80000134:	03c12823          	sw	t3,48(sp)
/home/tututu/qimeng/simulator/baremetal/benchmarks/dhrystone/dry.c:776
      strcpy(Str_2_Loc, "DHRYSTONE PROGRAM, 2'ND STRING");
80000138:	01d12e23          	sw	t4,28(sp)
8000013c:	0147ae83          	lw	t4,20(a5)
/home/tututu/qimeng/simulator/baremetal/benchmarks/dhrystone/dry.c:750
  strcpy(Str_1_Loc, "DHRYSTONE PROGRAM, 1'ST STRING");
80000140:	02612a23          	sw	t1,52(sp)
80000144:	03112c23          	sw	a7,56(sp)
/home/tututu/qimeng/simulator/baremetal/benchmarks/dhrystone/dry.c:776
      strcpy(Str_2_Loc, "DHRYSTONE PROGRAM, 2'ND STRING");
80000148:	03d12023          	sw	t4,32(sp)
8000014c:	0187ae83          	lw	t4,24(a5)
/home/tututu/qimeng/simulator/baremetal/benchmarks/dhrystone/dry.c:750
  strcpy(Str_1_Loc, "DHRYSTONE PROGRAM, 1'ST STRING");
80000150:	03012e23          	sw	a6,60(sp)
80000154:	04a12023          	sw	a0,64(sp)
/home/tututu/qimeng/simulator/baremetal/benchmarks/dhrystone/dry.c:776
      strcpy(Str_2_Loc, "DHRYSTONE PROGRAM, 2'ND STRING");
80000158:	03d12223          	sw	t4,36(sp)
8000015c:	01c7de83          	lhu	t4,28(a5)
80000160:	01e7c783          	lbu	a5,30(a5)
80000164:	80002937          	lui	s2,0x80002
80000168:	03d12423          	sw	t4,40(sp)
8000016c:	02f12623          	sw	a5,44(sp)
/home/tututu/qimeng/simulator/baremetal/benchmarks/dhrystone/dry.c:750
  strcpy(Str_1_Loc, "DHRYSTONE PROGRAM, 1'ST STRING");
80000170:	04b12223          	sw	a1,68(sp)
/home/tututu/qimeng/simulator/baremetal/benchmarks/dhrystone/dry.c:760
  Done = false;
80000174:	800047b7          	lui	a5,0x80004
/home/tututu/qimeng/simulator/baremetal/benchmarks/dhrystone/dry.c:750
  strcpy(Str_1_Loc, "DHRYSTONE PROGRAM, 1'ST STRING");
80000178:	04c12423          	sw	a2,72(sp)
8000017c:	80002437          	lui	s0,0x80002
80000180:	80003c37          	lui	s8,0x80003
/home/tututu/qimeng/simulator/baremetal/benchmarks/dhrystone/dry.c:799
      {
        if (Enum_Loc == Func_1(Ch_Index, 'C'))
        /* then, not executed */
        {
          Proc_6(Ident_1, &Enum_Loc);
          strcpy(Str_2_Loc, "DHRYSTONE PROGRAM, 3'RD STRING");
80000184:	80002637          	lui	a2,0x80002
/home/tututu/qimeng/simulator/baremetal/benchmarks/dhrystone/dry.c:750
  strcpy(Str_1_Loc, "DHRYSTONE PROGRAM, 1'ST STRING");
80000188:	04e10723          	sb	a4,78(sp)
8000018c:	04d11623          	sh	a3,76(sp)
/home/tututu/qimeng/simulator/baremetal/benchmarks/dhrystone/dry.c:760
  Done = false;
80000190:	6207a423          	sw	zero,1576(a5) # 80004628 <Done>
80000194:	00a00493          	addi	s1,zero,10
80000198:	05200713          	addi	a4,zero,82
/home/tututu/qimeng/simulator/baremetal/benchmarks/dhrystone/dry.c:769
    for (Run_Index = 1; Run_Index <= Number_Of_Runs; ++Run_Index) {
8000019c:	00100993          	addi	s3,zero,1
800001a0:	80004bb7          	lui	s7,0x80004
800001a4:	80004ab7          	lui	s5,0x80004
800001a8:	80004cb7          	lui	s9,0x80004
800001ac:	a3c90913          	addi	s2,s2,-1476 # 80001a3c <Arr_1_Glob>
800001b0:	f0440413          	addi	s0,s0,-252 # 80001f04 <Arr_2_Glob>
800001b4:	f04c0c13          	addi	s8,s8,-252 # 80002f04 <Arr_2_Glob+0x1000>
800001b8:	80004b37          	lui	s6,0x80004
/home/tututu/qimeng/simulator/baremetal/benchmarks/dhrystone/dry.c:799
          strcpy(Str_2_Loc, "DHRYSTONE PROGRAM, 3'RD STRING");
800001bc:	9c060d93          	addi	s11,a2,-1600 # 800019c0 <strcmp+0x550>
Proc_5():
/home/tututu/qimeng/simulator/baremetal/benchmarks/dhrystone/dry.c:542
  Ch_1_Glob = 'A';
800001c0:	04100793          	addi	a5,zero,65
800001c4:	62fb88a3          	sb	a5,1585(s7) # 80004631 <Ch_1_Glob>
Proc_4():
/home/tututu/qimeng/simulator/baremetal/benchmarks/dhrystone/dry.c:535
  Ch_2_Glob = 'B';
800001c8:	04200793          	addi	a5,zero,66
800001cc:	62fa8823          	sb	a5,1584(s5) # 80004630 <Ch_2_Glob>
main():
/home/tututu/qimeng/simulator/baremetal/benchmarks/dhrystone/dry.c:776
      strcpy(Str_2_Loc, "DHRYSTONE PROGRAM, 2'ND STRING");
800001d0:	00c12783          	lw	a5,12(sp)
800001d4:	00000693          	addi	a3,zero,0
800001d8:	04f12823          	sw	a5,80(sp)
800001dc:	01012783          	lw	a5,16(sp)
800001e0:	04f12a23          	sw	a5,84(sp)
800001e4:	01412783          	lw	a5,20(sp)
800001e8:	04f12c23          	sw	a5,88(sp)
800001ec:	01812783          	lw	a5,24(sp)
800001f0:	04f12e23          	sw	a5,92(sp)
800001f4:	01c12783          	lw	a5,28(sp)
800001f8:	06f12023          	sw	a5,96(sp)
800001fc:	02012783          	lw	a5,32(sp)
80000200:	06f12223          	sw	a5,100(sp)
80000204:	02412783          	lw	a5,36(sp)
80000208:	06f12423          	sw	a5,104(sp)
8000020c:	02812783          	lw	a5,40(sp)
80000210:	06f11623          	sh	a5,108(sp)
80000214:	02c12783          	lw	a5,44(sp)
80000218:	06f10723          	sb	a5,110(sp)
Func_1():
/home/tututu/qimeng/simulator/baremetal/benchmarks/dhrystone/dry.c:651
  if (Ch_2_Loc != Ch_2_Par_Val)
8000021c:	05900793          	addi	a5,zero,89
80000220:	18f70063          	beq	a4,a5,800003a0 <main+0x384>
80000224:	00068463          	beq	a3,zero,8000022c <main+0x210>
80000228:	62fb88a3          	sb	a5,1585(s7)
Func_2():
/home/tututu/qimeng/simulator/baremetal/benchmarks/dhrystone/dry.c:689
    if (strcmp(Str_1_Par_Ref, Str_2_Par_Ref) > 0) {
8000022c:	05010593          	addi	a1,sp,80
80000230:	03010513          	addi	a0,sp,48
80000234:	23c010ef          	jal	ra,80001470 <strcmp>
Proc_8():
/home/tututu/qimeng/simulator/baremetal/benchmarks/dhrystone/dry.c:628
  Arr_1_Par_Ref[Int_Loc + 30] = Int_Loc;
80000238:	00800713          	addi	a4,zero,8
/home/tututu/qimeng/simulator/baremetal/benchmarks/dhrystone/dry.c:626
  Arr_1_Par_Ref[Int_Loc] = Int_2_Par_Val;
8000023c:	00700793          	addi	a5,zero,7
/home/tututu/qimeng/simulator/baremetal/benchmarks/dhrystone/dry.c:631
  Arr_2_Par_Ref[Int_Loc][Int_Loc - 1] += 1;
80000240:	00148493          	addi	s1,s1,1
main():
/home/tututu/qimeng/simulator/baremetal/benchmarks/dhrystone/dry.c:778
      Bool_Glob = !Func_2(Str_1_Loc, Str_2_Loc);
80000244:	00152693          	slti	a3,a0,1
Proc_8():
/home/tututu/qimeng/simulator/baremetal/benchmarks/dhrystone/dry.c:626
  Arr_1_Par_Ref[Int_Loc] = Int_2_Par_Val;
80000248:	02f92023          	sw	a5,32(s2)
/home/tututu/qimeng/simulator/baremetal/benchmarks/dhrystone/dry.c:627
  Arr_1_Par_Ref[Int_Loc + 1] = Arr_1_Par_Ref[Int_Loc];
8000024c:	02f92223          	sw	a5,36(s2)
/home/tututu/qimeng/simulator/baremetal/benchmarks/dhrystone/dry.c:630
    Arr_2_Par_Ref[Int_Loc][Int_Index] = Int_Loc;
80000250:	66e42023          	sw	a4,1632(s0)
80000254:	66e42223          	sw	a4,1636(s0)
/home/tututu/qimeng/simulator/baremetal/benchmarks/dhrystone/dry.c:632
  Arr_2_Par_Ref[Int_Loc + 20][Int_Loc] = Arr_1_Par_Ref[Int_Loc];
80000258:	60fc2023          	sw	a5,1536(s8)
main():
/home/tututu/qimeng/simulator/baremetal/benchmarks/dhrystone/dry.c:791
      Proc_1(Ptr_Glob);
8000025c:	000a0513          	addi	a0,s4,0
Proc_8():
/home/tututu/qimeng/simulator/baremetal/benchmarks/dhrystone/dry.c:633
  Int_Glob = 5;
80000260:	00500793          	addi	a5,zero,5
/home/tututu/qimeng/simulator/baremetal/benchmarks/dhrystone/dry.c:631
  Arr_2_Par_Ref[Int_Loc][Int_Loc - 1] += 1;
80000264:	64942e23          	sw	s1,1628(s0)
/home/tututu/qimeng/simulator/baremetal/benchmarks/dhrystone/dry.c:628
  Arr_1_Par_Ref[Int_Loc + 30] = Int_Loc;
80000268:	08e92c23          	sw	a4,152(s2)
/home/tututu/qimeng/simulator/baremetal/benchmarks/dhrystone/dry.c:633
  Int_Glob = 5;
8000026c:	62fb2c23          	sw	a5,1592(s6) # 80004638 <Int_Glob>
main():
/home/tututu/qimeng/simulator/baremetal/benchmarks/dhrystone/dry.c:778
      Bool_Glob = !Func_2(Str_1_Loc, Str_2_Loc);
80000270:	62dcaa23          	sw	a3,1588(s9) # 80004634 <Bool_Glob>
/home/tututu/qimeng/simulator/baremetal/benchmarks/dhrystone/dry.c:791
      Proc_1(Ptr_Glob);
80000274:	6c4000ef          	jal	ra,80000938 <Proc_1>
/home/tututu/qimeng/simulator/baremetal/benchmarks/dhrystone/dry.c:792
      for (Ch_Index = 'A'; Ch_Index <= Ch_2_Glob; ++Ch_Index)
80000278:	630ac703          	lbu	a4,1584(s5)
8000027c:	04000793          	addi	a5,zero,64
80000280:	12e7f463          	bgeu	a5,a4,800003a8 <main+0x38c>
80000284:	00000813          	addi	a6,zero,0
80000288:	04100793          	addi	a5,zero,65
8000028c:	00000513          	addi	a0,zero,0
/home/tututu/qimeng/simulator/baremetal/benchmarks/dhrystone/dry.c:777
      Enum_Loc = Ident_2;
80000290:	00100493          	addi	s1,zero,1
/home/tututu/qimeng/simulator/baremetal/benchmarks/dhrystone/dry.c:775
      Int_2_Loc = 3;
80000294:	00300593          	addi	a1,zero,3
Func_1():
/home/tututu/qimeng/simulator/baremetal/benchmarks/dhrystone/dry.c:651
  if (Ch_2_Loc != Ch_2_Par_Val)
80000298:	04300613          	addi	a2,zero,67
main():
/home/tututu/qimeng/simulator/baremetal/benchmarks/dhrystone/dry.c:792 (discriminator 2)
      for (Ch_Index = 'A'; Ch_Index <= Ch_2_Glob; ++Ch_Index)
8000029c:	00178793          	addi	a5,a5,1
800002a0:	0ff7f793          	andi	a5,a5,255
800002a4:	06f76a63          	bltu	a4,a5,80000318 <main+0x2fc>
Func_1():
/home/tututu/qimeng/simulator/baremetal/benchmarks/dhrystone/dry.c:653
    return (Ident_1);
800002a8:	00000693          	addi	a3,zero,0
/home/tututu/qimeng/simulator/baremetal/benchmarks/dhrystone/dry.c:651
  if (Ch_2_Loc != Ch_2_Par_Val)
800002ac:	0ec78463          	beq	a5,a2,80000394 <main+0x378>
main():
/home/tututu/qimeng/simulator/baremetal/benchmarks/dhrystone/dry.c:795
        if (Enum_Loc == Func_1(Ch_Index, 'C'))
800002b0:	fed496e3          	bne	s1,a3,8000029c <main+0x280>
/home/tututu/qimeng/simulator/baremetal/benchmarks/dhrystone/dry.c:799
          strcpy(Str_2_Loc, "DHRYSTONE PROGRAM, 3'RD STRING");
800002b4:	018da503          	lw	a0,24(s11)
800002b8:	01cdd583          	lhu	a1,28(s11)
800002bc:	000daf83          	lw	t6,0(s11)
800002c0:	004daf03          	lw	t5,4(s11)
800002c4:	008dae83          	lw	t4,8(s11)
800002c8:	00cdae03          	lw	t3,12(s11)
800002cc:	010da303          	lw	t1,16(s11)
800002d0:	014da883          	lw	a7,20(s11)
800002d4:	01edc683          	lbu	a3,30(s11)
/home/tututu/qimeng/simulator/baremetal/benchmarks/dhrystone/dry.c:792
      for (Ch_Index = 'A'; Ch_Index <= Ch_2_Glob; ++Ch_Index)
800002d8:	00178793          	addi	a5,a5,1
/home/tututu/qimeng/simulator/baremetal/benchmarks/dhrystone/dry.c:799
          strcpy(Str_2_Loc, "DHRYSTONE PROGRAM, 3'RD STRING");
800002dc:	06a12423          	sw	a0,104(sp)
800002e0:	06b11623          	sh	a1,108(sp)
800002e4:	05f12823          	sw	t6,80(sp)
800002e8:	05e12a23          	sw	t5,84(sp)
800002ec:	05d12c23          	sw	t4,88(sp)
800002f0:	05c12e23          	sw	t3,92(sp)
800002f4:	06612023          	sw	t1,96(sp)
800002f8:	07112223          	sw	a7,100(sp)
800002fc:	06d10723          	sb	a3,110(sp)
/home/tututu/qimeng/simulator/baremetal/benchmarks/dhrystone/dry.c:792
      for (Ch_Index = 'A'; Ch_Index <= Ch_2_Glob; ++Ch_Index)
80000300:	0ff7f793          	andi	a5,a5,255
/home/tututu/qimeng/simulator/baremetal/benchmarks/dhrystone/dry.c:801
          Int_2_Loc = Run_Index;
          Int_Glob = Run_Index;
80000304:	00098d13          	addi	s10,s3,0
/home/tututu/qimeng/simulator/baremetal/benchmarks/dhrystone/dry.c:799
          strcpy(Str_2_Loc, "DHRYSTONE PROGRAM, 3'RD STRING");
80000308:	00098593          	addi	a1,s3,0
8000030c:	00100513          	addi	a0,zero,1
Proc_6():
/home/tututu/qimeng/simulator/baremetal/benchmarks/dhrystone/dry.c:584
    *Enum_Ref_Par = Ident_1;
80000310:	00000493          	addi	s1,zero,0
main():
/home/tututu/qimeng/simulator/baremetal/benchmarks/dhrystone/dry.c:792
      for (Ch_Index = 'A'; Ch_Index <= Ch_2_Glob; ++Ch_Index)
80000314:	f8f77ae3          	bgeu	a4,a5,800002a8 <main+0x28c>
80000318:	00050463          	beq	a0,zero,80000320 <main+0x304>
8000031c:	63ab2c23          	sw	s10,1592(s6)
80000320:	08080e63          	beq	a6,zero,800003bc <main+0x3a0>
80000324:	04300793          	addi	a5,zero,67
80000328:	62fb88a3          	sb	a5,1585(s7)
/home/tututu/qimeng/simulator/baremetal/benchmarks/dhrystone/dry.c:775
      Int_2_Loc = 3;
8000032c:	04300713          	addi	a4,zero,67
/home/tututu/qimeng/simulator/baremetal/benchmarks/dhrystone/dry.c:805
        }
      }
      /* Int_1_Loc == 3, Int_2_Loc == 3, Int_3_Loc == 7 */
      Int_2_Loc = Int_2_Loc * Int_1_Loc;
80000330:	00159a13          	slli	s4,a1,0x1
80000334:	00ba0a33          	add	s4,s4,a1
/home/tututu/qimeng/simulator/baremetal/benchmarks/dhrystone/dry.c:806
      Int_1_Loc = Int_2_Loc / Int_3_Loc;
80000338:	000a0513          	addi	a0,s4,0
8000033c:	00700593          	addi	a1,zero,7
80000340:	00e12423          	sw	a4,8(sp)
/home/tututu/qimeng/simulator/baremetal/benchmarks/dhrystone/dry.c:807
      Int_2_Loc = 7 * (Int_2_Loc - Int_3_Loc) - Int_1_Loc;
80000344:	ff9a0a13          	addi	s4,s4,-7
/home/tututu/qimeng/simulator/baremetal/benchmarks/dhrystone/dry.c:806
      Int_1_Loc = Int_2_Loc / Int_3_Loc;
80000348:	74d000ef          	jal	ra,80001294 <__divsi3>
/home/tututu/qimeng/simulator/baremetal/benchmarks/dhrystone/dry.c:807
      Int_2_Loc = 7 * (Int_2_Loc - Int_3_Loc) - Int_1_Loc;
8000034c:	003a1793          	slli	a5,s4,0x3
80000350:	00812703          	lw	a4,8(sp)
80000354:	414787b3          	sub	a5,a5,s4
80000358:	40a787b3          	sub	a5,a5,a0
Proc_2():
/home/tututu/qimeng/simulator/baremetal/benchmarks/dhrystone/dry.c:503 (discriminator 2)
    if (Ch_1_Glob == 'A')
8000035c:	04100693          	addi	a3,zero,65
80000360:	00d71863          	bne	a4,a3,80000370 <main+0x354>
/home/tututu/qimeng/simulator/baremetal/benchmarks/dhrystone/dry.c:507
      *Int_Par_Ref = Int_Loc - Int_Glob;
80000364:	638b2703          	lw	a4,1592(s6)
/home/tututu/qimeng/simulator/baremetal/benchmarks/dhrystone/dry.c:506
      Int_Loc -= 1;
80000368:	00950513          	addi	a0,a0,9
/home/tututu/qimeng/simulator/baremetal/benchmarks/dhrystone/dry.c:507
      *Int_Par_Ref = Int_Loc - Int_Glob;
8000036c:	40e50533          	sub	a0,a0,a4
main():
/home/tututu/qimeng/simulator/baremetal/benchmarks/dhrystone/dry.c:769
    for (Run_Index = 1; Run_Index <= Number_Of_Runs; ++Run_Index) {
80000370:	00002737          	lui	a4,0x2
80000374:	00198993          	addi	s3,s3,1
80000378:	71170713          	addi	a4,a4,1809 # 2711 <__stack_size-0x1ffd8ef>
8000037c:	04e98463          	beq	s3,a4,800003c4 <main+0x3a8>
/home/tututu/qimeng/simulator/baremetal/benchmarks/dhrystone/dry.c:791
      Proc_1(Ptr_Glob);
80000380:	800047b7          	lui	a5,0x80004
80000384:	6407aa03          	lw	s4,1600(a5) # 80004640 <Ptr_Glob>
Func_2():
/home/tututu/qimeng/simulator/baremetal/benchmarks/dhrystone/dry.c:675
    if (Func_1(Str_1_Par_Ref[Int_Loc], Str_2_Par_Ref[Int_Loc + 1]) == Ident_1)
80000388:	03214703          	lbu	a4,50(sp)
Proc_8():
/home/tututu/qimeng/simulator/baremetal/benchmarks/dhrystone/dry.c:631
  Arr_2_Par_Ref[Int_Loc][Int_Loc - 1] += 1;
8000038c:	65c42483          	lw	s1,1628(s0)
80000390:	e31ff06f          	jal	zero,800001c0 <main+0x1a4>
Func_1():
/home/tututu/qimeng/simulator/baremetal/benchmarks/dhrystone/dry.c:657
    return (Ident_2);
80000394:	00100693          	addi	a3,zero,1
80000398:	00100813          	addi	a6,zero,1
8000039c:	f15ff06f          	jal	zero,800002b0 <main+0x294>
800003a0:	00100693          	addi	a3,zero,1
800003a4:	e7dff06f          	jal	zero,80000220 <main+0x204>
Proc_2():
/home/tututu/qimeng/simulator/baremetal/benchmarks/dhrystone/dry.c:503
    if (Ch_1_Glob == 'A')
800003a8:	631bc703          	lbu	a4,1585(s7)
800003ac:	00d00793          	addi	a5,zero,13
800003b0:	00100513          	addi	a0,zero,1
main():
/home/tututu/qimeng/simulator/baremetal/benchmarks/dhrystone/dry.c:777
      Enum_Loc = Ident_2;
800003b4:	00100493          	addi	s1,zero,1
800003b8:	fa5ff06f          	jal	zero,8000035c <main+0x340>
Proc_2():
/home/tututu/qimeng/simulator/baremetal/benchmarks/dhrystone/dry.c:503
    if (Ch_1_Glob == 'A')
800003bc:	631bc703          	lbu	a4,1585(s7)
800003c0:	f71ff06f          	jal	zero,80000330 <main+0x314>
main():
/home/tututu/qimeng/simulator/baremetal/benchmarks/dhrystone/dry.c:821
    /**************/

    Done = true;
  }

  if (!check(Int_Glob == 5)) {
800003c4:	638b2583          	lw	a1,1592(s6)
/home/tututu/qimeng/simulator/baremetal/benchmarks/dhrystone/dry.c:818
    Done = true;
800003c8:	00100713          	addi	a4,zero,1
800003cc:	800046b7          	lui	a3,0x80004
800003d0:	62e6a423          	sw	a4,1576(a3) # 80004628 <Done>
check():
/home/tututu/qimeng/simulator/baremetal/benchmarks/dhrystone/dry.c:716
  if (!cond)
800003d4:	00500713          	addi	a4,zero,5
main():
/home/tututu/qimeng/simulator/baremetal/benchmarks/dhrystone/dry.c:821
  if (!check(Int_Glob == 5)) {
800003d8:	00078a13          	addi	s4,a5,0
800003dc:	00050793          	addi	a5,a0,0
check():
/home/tututu/qimeng/simulator/baremetal/benchmarks/dhrystone/dry.c:716
  if (!cond)
800003e0:	44e58c63          	beq	a1,a4,80000838 <main+0x81c>
800003e4:	00a12423          	sw	a0,8(sp)
main():
/home/tututu/qimeng/simulator/baremetal/benchmarks/dhrystone/dry.c:822
    xprintf("Int_Glob:            %d\n", Int_Glob);
800003e8:	80001537          	lui	a0,0x80001
800003ec:	61050513          	addi	a0,a0,1552 # 80001610 <strcmp+0x1a0>
check():
/home/tututu/qimeng/simulator/baremetal/benchmarks/dhrystone/dry.c:717
    pass = false;
800003f0:	800049b7          	lui	s3,0x80004
800003f4:	6409a823          	sw	zero,1616(s3) # 80004650 <pass>
main():
/home/tututu/qimeng/simulator/baremetal/benchmarks/dhrystone/dry.c:822
    xprintf("Int_Glob:            %d\n", Int_Glob);
800003f8:	065000ef          	jal	ra,80000c5c <xprintf>
/home/tututu/qimeng/simulator/baremetal/benchmarks/dhrystone/dry.c:823
    xprintf("        should be:   %d\n", 5);
800003fc:	80001537          	lui	a0,0x80001
80000400:	00500593          	addi	a1,zero,5
80000404:	62c50513          	addi	a0,a0,1580 # 8000162c <strcmp+0x1bc>
80000408:	055000ef          	jal	ra,80000c5c <xprintf>
8000040c:	00812783          	lw	a5,8(sp)
/home/tututu/qimeng/simulator/baremetal/benchmarks/dhrystone/dry.c:825
  }
  if (!check(Bool_Glob == 1)) {
80000410:	634ca583          	lw	a1,1588(s9)
check():
/home/tututu/qimeng/simulator/baremetal/benchmarks/dhrystone/dry.c:716
  if (!cond)
80000414:	00100713          	addi	a4,zero,1
80000418:	02e58663          	beq	a1,a4,80000444 <main+0x428>
main():
/home/tututu/qimeng/simulator/baremetal/benchmarks/dhrystone/dry.c:826
    xprintf("Bool_Glob:           %d\n", Bool_Glob);
8000041c:	80001537          	lui	a0,0x80001
80000420:	64850513          	addi	a0,a0,1608 # 80001648 <strcmp+0x1d8>
80000424:	00f12423          	sw	a5,8(sp)
check():
/home/tututu/qimeng/simulator/baremetal/benchmarks/dhrystone/dry.c:717
    pass = false;
80000428:	6409a823          	sw	zero,1616(s3)
main():
/home/tututu/qimeng/simulator/baremetal/benchmarks/dhrystone/dry.c:826
    xprintf("Bool_Glob:           %d\n", Bool_Glob);
8000042c:	031000ef          	jal	ra,80000c5c <xprintf>
/home/tututu/qimeng/simulator/baremetal/benchmarks/dhrystone/dry.c:827
    xprintf("        should be:   %d\n", 1);
80000430:	80001537          	lui	a0,0x80001
80000434:	00100593          	addi	a1,zero,1
80000438:	62c50513          	addi	a0,a0,1580 # 8000162c <strcmp+0x1bc>
8000043c:	021000ef          	jal	ra,80000c5c <xprintf>
80000440:	00812783          	lw	a5,8(sp)
/home/tututu/qimeng/simulator/baremetal/benchmarks/dhrystone/dry.c:829
  }
  if (!check(Ch_1_Glob == 'A')) {
80000444:	631bc583          	lbu	a1,1585(s7)
check():
/home/tututu/qimeng/simulator/baremetal/benchmarks/dhrystone/dry.c:716
  if (!cond)
80000448:	04100713          	addi	a4,zero,65
8000044c:	02e58663          	beq	a1,a4,80000478 <main+0x45c>
main():
/home/tututu/qimeng/simulator/baremetal/benchmarks/dhrystone/dry.c:830
    xprintf("Ch_1_Glob:           %c\n", Ch_1_Glob);
80000450:	80001537          	lui	a0,0x80001
80000454:	66450513          	addi	a0,a0,1636 # 80001664 <strcmp+0x1f4>
80000458:	00f12423          	sw	a5,8(sp)
check():
/home/tututu/qimeng/simulator/baremetal/benchmarks/dhrystone/dry.c:717
    pass = false;
8000045c:	6409a823          	sw	zero,1616(s3)
main():
/home/tututu/qimeng/simulator/baremetal/benchmarks/dhrystone/dry.c:830
    xprintf("Ch_1_Glob:           %c\n", Ch_1_Glob);
80000460:	7fc000ef          	jal	ra,80000c5c <xprintf>
/home/tututu/qimeng/simulator/baremetal/benchmarks/dhrystone/dry.c:831
    xprintf("        should be:   %c\n", 'A');
80000464:	80001537          	lui	a0,0x80001
80000468:	04100593          	addi	a1,zero,65
8000046c:	68050513          	addi	a0,a0,1664 # 80001680 <strcmp+0x210>
80000470:	7ec000ef          	jal	ra,80000c5c <xprintf>
80000474:	00812783          	lw	a5,8(sp)
/home/tututu/qimeng/simulator/baremetal/benchmarks/dhrystone/dry.c:833
  }
  if (!check(Ch_2_Glob == 'B')) {
80000478:	630ac583          	lbu	a1,1584(s5)
check():
/home/tututu/qimeng/simulator/baremetal/benchmarks/dhrystone/dry.c:716
  if (!cond)
8000047c:	04200713          	addi	a4,zero,66
80000480:	02e58663          	beq	a1,a4,800004ac <main+0x490>
main():
/home/tututu/qimeng/simulator/baremetal/benchmarks/dhrystone/dry.c:834
    xprintf("Ch_2_Glob:           %c\n", Ch_2_Glob);
80000484:	80001537          	lui	a0,0x80001
80000488:	69c50513          	addi	a0,a0,1692 # 8000169c <strcmp+0x22c>
8000048c:	00f12423          	sw	a5,8(sp)
check():
/home/tututu/qimeng/simulator/baremetal/benchmarks/dhrystone/dry.c:717
    pass = false;
80000490:	6409a823          	sw	zero,1616(s3)
main():
/home/tututu/qimeng/simulator/baremetal/benchmarks/dhrystone/dry.c:834
    xprintf("Ch_2_Glob:           %c\n", Ch_2_Glob);
80000494:	7c8000ef          	jal	ra,80000c5c <xprintf>
/home/tututu/qimeng/simulator/baremetal/benchmarks/dhrystone/dry.c:835
    xprintf("        should be:   %c\n", 'B');
80000498:	80001537          	lui	a0,0x80001
8000049c:	04200593          	addi	a1,zero,66
800004a0:	68050513          	addi	a0,a0,1664 # 80001680 <strcmp+0x210>
800004a4:	7b8000ef          	jal	ra,80000c5c <xprintf>
800004a8:	00812783          	lw	a5,8(sp)
/home/tututu/qimeng/simulator/baremetal/benchmarks/dhrystone/dry.c:837
  }
  if (!check(Arr_1_Glob[8] == 7)) {
800004ac:	02092583          	lw	a1,32(s2)
check():
/home/tututu/qimeng/simulator/baremetal/benchmarks/dhrystone/dry.c:716
  if (!cond)
800004b0:	00700713          	addi	a4,zero,7
800004b4:	02e58663          	beq	a1,a4,800004e0 <main+0x4c4>
main():
/home/tututu/qimeng/simulator/baremetal/benchmarks/dhrystone/dry.c:838
    xprintf("Arr_1_Glob[8]:       %d\n", Arr_1_Glob[8]);
800004b8:	80001537          	lui	a0,0x80001
800004bc:	6b850513          	addi	a0,a0,1720 # 800016b8 <strcmp+0x248>
800004c0:	00f12423          	sw	a5,8(sp)
check():
/home/tututu/qimeng/simulator/baremetal/benchmarks/dhrystone/dry.c:717
    pass = false;
800004c4:	6409a823          	sw	zero,1616(s3)
main():
/home/tututu/qimeng/simulator/baremetal/benchmarks/dhrystone/dry.c:838
    xprintf("Arr_1_Glob[8]:       %d\n", Arr_1_Glob[8]);
800004c8:	794000ef          	jal	ra,80000c5c <xprintf>
/home/tututu/qimeng/simulator/baremetal/benchmarks/dhrystone/dry.c:839
    xprintf("        should be:   %d\n", 7);
800004cc:	80001537          	lui	a0,0x80001
800004d0:	00700593          	addi	a1,zero,7
800004d4:	62c50513          	addi	a0,a0,1580 # 8000162c <strcmp+0x1bc>
800004d8:	784000ef          	jal	ra,80000c5c <xprintf>
800004dc:	00812783          	lw	a5,8(sp)
/home/tututu/qimeng/simulator/baremetal/benchmarks/dhrystone/dry.c:841
  }
  if (!check(Arr_2_Glob[8][7] == Number_Of_Runs + 10)) {
800004e0:	65c42583          	lw	a1,1628(s0)
check():
/home/tututu/qimeng/simulator/baremetal/benchmarks/dhrystone/dry.c:716
  if (!cond)
800004e4:	00002737          	lui	a4,0x2
800004e8:	71a70713          	addi	a4,a4,1818 # 271a <__stack_size-0x1ffd8e6>
800004ec:	02e58463          	beq	a1,a4,80000514 <main+0x4f8>
main():
/home/tututu/qimeng/simulator/baremetal/benchmarks/dhrystone/dry.c:842
    xprintf("Arr_2_Glob[8][7]:    %d\n", Arr_2_Glob[8][7]);
800004f0:	80001537          	lui	a0,0x80001
800004f4:	6d450513          	addi	a0,a0,1748 # 800016d4 <strcmp+0x264>
800004f8:	00f12423          	sw	a5,8(sp)
check():
/home/tututu/qimeng/simulator/baremetal/benchmarks/dhrystone/dry.c:717
    pass = false;
800004fc:	6409a823          	sw	zero,1616(s3)
main():
/home/tututu/qimeng/simulator/baremetal/benchmarks/dhrystone/dry.c:842
    xprintf("Arr_2_Glob[8][7]:    %d\n", Arr_2_Glob[8][7]);
80000500:	75c000ef          	jal	ra,80000c5c <xprintf>
/home/tututu/qimeng/simulator/baremetal/benchmarks/dhrystone/dry.c:843
    xprintf("        should be:   Number_Of_Runs + 10\n");
80000504:	80001537          	lui	a0,0x80001
80000508:	6f050513          	addi	a0,a0,1776 # 800016f0 <strcmp+0x280>
8000050c:	750000ef          	jal	ra,80000c5c <xprintf>
80000510:	00812783          	lw	a5,8(sp)
/home/tututu/qimeng/simulator/baremetal/benchmarks/dhrystone/dry.c:846
  }

  if (!check((int)Ptr_Glob->Discr == 0)) {
80000514:	80004737          	lui	a4,0x80004
80000518:	64072703          	lw	a4,1600(a4) # 80004640 <Ptr_Glob>
8000051c:	00472583          	lw	a1,4(a4)
check():
/home/tututu/qimeng/simulator/baremetal/benchmarks/dhrystone/dry.c:716
  if (!cond)
80000520:	02058663          	beq	a1,zero,8000054c <main+0x530>
main():
/home/tututu/qimeng/simulator/baremetal/benchmarks/dhrystone/dry.c:847
    xprintf("Ptr_Glob->Discr:             %d\n", Ptr_Glob->Discr);
80000524:	80001537          	lui	a0,0x80001
80000528:	71c50513          	addi	a0,a0,1820 # 8000171c <strcmp+0x2ac>
8000052c:	00f12423          	sw	a5,8(sp)
check():
/home/tututu/qimeng/simulator/baremetal/benchmarks/dhrystone/dry.c:717
    pass = false;
80000530:	6409a823          	sw	zero,1616(s3)
main():
/home/tututu/qimeng/simulator/baremetal/benchmarks/dhrystone/dry.c:847
    xprintf("Ptr_Glob->Discr:             %d\n", Ptr_Glob->Discr);
80000534:	728000ef          	jal	ra,80000c5c <xprintf>
/home/tututu/qimeng/simulator/baremetal/benchmarks/dhrystone/dry.c:848
    xprintf("        should be:   %d\n", 0);
80000538:	80001537          	lui	a0,0x80001
8000053c:	00000593          	addi	a1,zero,0
80000540:	62c50513          	addi	a0,a0,1580 # 8000162c <strcmp+0x1bc>
80000544:	718000ef          	jal	ra,80000c5c <xprintf>
80000548:	00812783          	lw	a5,8(sp)
/home/tututu/qimeng/simulator/baremetal/benchmarks/dhrystone/dry.c:850
  }
  if (!check(Ptr_Glob->variant.var_1.Enum_Comp == 2)) {
8000054c:	80004737          	lui	a4,0x80004
80000550:	64072683          	lw	a3,1600(a4) # 80004640 <Ptr_Glob>
check():
/home/tututu/qimeng/simulator/baremetal/benchmarks/dhrystone/dry.c:716
  if (!cond)
80000554:	00200713          	addi	a4,zero,2
main():
/home/tututu/qimeng/simulator/baremetal/benchmarks/dhrystone/dry.c:850
  if (!check(Ptr_Glob->variant.var_1.Enum_Comp == 2)) {
80000558:	0086a583          	lw	a1,8(a3)
check():
/home/tututu/qimeng/simulator/baremetal/benchmarks/dhrystone/dry.c:716
  if (!cond)
8000055c:	02e58663          	beq	a1,a4,80000588 <main+0x56c>
main():
/home/tututu/qimeng/simulator/baremetal/benchmarks/dhrystone/dry.c:851
    xprintf("Ptr_Glob->Enum_Comp:         %d\n",
80000560:	80001537          	lui	a0,0x80001
80000564:	74050513          	addi	a0,a0,1856 # 80001740 <strcmp+0x2d0>
80000568:	00f12423          	sw	a5,8(sp)
check():
/home/tututu/qimeng/simulator/baremetal/benchmarks/dhrystone/dry.c:717
    pass = false;
8000056c:	6409a823          	sw	zero,1616(s3)
main():
/home/tututu/qimeng/simulator/baremetal/benchmarks/dhrystone/dry.c:851
    xprintf("Ptr_Glob->Enum_Comp:         %d\n",
80000570:	6ec000ef          	jal	ra,80000c5c <xprintf>
/home/tututu/qimeng/simulator/baremetal/benchmarks/dhrystone/dry.c:853
            Ptr_Glob->variant.var_1.Enum_Comp);
    xprintf("        should be:   %d\n", 2);
80000574:	80001537          	lui	a0,0x80001
80000578:	00200593          	addi	a1,zero,2
8000057c:	62c50513          	addi	a0,a0,1580 # 8000162c <strcmp+0x1bc>
80000580:	6dc000ef          	jal	ra,80000c5c <xprintf>
80000584:	00812783          	lw	a5,8(sp)
/home/tututu/qimeng/simulator/baremetal/benchmarks/dhrystone/dry.c:855
  }
  if (!check(Ptr_Glob->variant.var_1.Int_Comp == 17)) {
80000588:	80004737          	lui	a4,0x80004
8000058c:	64072683          	lw	a3,1600(a4) # 80004640 <Ptr_Glob>
check():
/home/tututu/qimeng/simulator/baremetal/benchmarks/dhrystone/dry.c:716
  if (!cond)
80000590:	01100713          	addi	a4,zero,17
main():
/home/tututu/qimeng/simulator/baremetal/benchmarks/dhrystone/dry.c:855
  if (!check(Ptr_Glob->variant.var_1.Int_Comp == 17)) {
80000594:	00c6a583          	lw	a1,12(a3)
check():
/home/tututu/qimeng/simulator/baremetal/benchmarks/dhrystone/dry.c:716
  if (!cond)
80000598:	02e58663          	beq	a1,a4,800005c4 <main+0x5a8>
main():
/home/tututu/qimeng/simulator/baremetal/benchmarks/dhrystone/dry.c:856
    xprintf("Ptr_Glob->Int_Comp:          %d\n",
8000059c:	80001537          	lui	a0,0x80001
800005a0:	76450513          	addi	a0,a0,1892 # 80001764 <strcmp+0x2f4>
800005a4:	00f12423          	sw	a5,8(sp)
check():
/home/tututu/qimeng/simulator/baremetal/benchmarks/dhrystone/dry.c:717
    pass = false;
800005a8:	6409a823          	sw	zero,1616(s3)
main():
/home/tututu/qimeng/simulator/baremetal/benchmarks/dhrystone/dry.c:856
    xprintf("Ptr_Glob->Int_Comp:          %d\n",
800005ac:	6b0000ef          	jal	ra,80000c5c <xprintf>
/home/tututu/qimeng/simulator/baremetal/benchmarks/dhrystone/dry.c:858
            Ptr_Glob->variant.var_1.Int_Comp);
    xprintf("        should be:   %d\n", 17);
800005b0:	80001537          	lui	a0,0x80001
800005b4:	01100593          	addi	a1,zero,17
800005b8:	62c50513          	addi	a0,a0,1580 # 8000162c <strcmp+0x1bc>
800005bc:	6a0000ef          	jal	ra,80000c5c <xprintf>
800005c0:	00812783          	lw	a5,8(sp)
/home/tututu/qimeng/simulator/baremetal/benchmarks/dhrystone/dry.c:860
  }
  if (!check(strcmp(Ptr_Glob->variant.var_1.Str_Comp,
800005c4:	00f12423          	sw	a5,8(sp)
800005c8:	800047b7          	lui	a5,0x80004
800005cc:	6407a403          	lw	s0,1600(a5) # 80004640 <Ptr_Glob>
800005d0:	800017b7          	lui	a5,0x80001
800005d4:	5ec78593          	addi	a1,a5,1516 # 800015ec <strcmp+0x17c>
800005d8:	01040413          	addi	s0,s0,16
800005dc:	00040513          	addi	a0,s0,0
800005e0:	691000ef          	jal	ra,80001470 <strcmp>
check():
/home/tututu/qimeng/simulator/baremetal/benchmarks/dhrystone/dry.c:716
  if (!cond)
800005e4:	00812783          	lw	a5,8(sp)
800005e8:	02050463          	beq	a0,zero,80000610 <main+0x5f4>
main():
/home/tututu/qimeng/simulator/baremetal/benchmarks/dhrystone/dry.c:862
                    "DHRYSTONE PROGRAM, SOME STRING") == 0)) {
    xprintf("Ptr_Glob->Str_Comp:          %s\n",
800005ec:	80001537          	lui	a0,0x80001
800005f0:	78850513          	addi	a0,a0,1928 # 80001788 <strcmp+0x318>
800005f4:	00040593          	addi	a1,s0,0
check():
/home/tututu/qimeng/simulator/baremetal/benchmarks/dhrystone/dry.c:717
    pass = false;
800005f8:	6409a823          	sw	zero,1616(s3)
main():
/home/tututu/qimeng/simulator/baremetal/benchmarks/dhrystone/dry.c:862
    xprintf("Ptr_Glob->Str_Comp:          %s\n",
800005fc:	660000ef          	jal	ra,80000c5c <xprintf>
/home/tututu/qimeng/simulator/baremetal/benchmarks/dhrystone/dry.c:864
            Ptr_Glob->variant.var_1.Str_Comp);
    xprintf("        should be:   DHRYSTONE PROGRAM, SOME STRING\n");
80000600:	80001537          	lui	a0,0x80001
80000604:	7ac50513          	addi	a0,a0,1964 # 800017ac <strcmp+0x33c>
80000608:	654000ef          	jal	ra,80000c5c <xprintf>
8000060c:	00812783          	lw	a5,8(sp)
/home/tututu/qimeng/simulator/baremetal/benchmarks/dhrystone/dry.c:867
  }

  if (!check((int)Next_Ptr_Glob->Discr == 0)) {
80000610:	80004737          	lui	a4,0x80004
80000614:	63c72703          	lw	a4,1596(a4) # 8000463c <Next_Ptr_Glob>
80000618:	00472583          	lw	a1,4(a4)
check():
/home/tututu/qimeng/simulator/baremetal/benchmarks/dhrystone/dry.c:716
  if (!cond)
8000061c:	02058663          	beq	a1,zero,80000648 <main+0x62c>
main():
/home/tututu/qimeng/simulator/baremetal/benchmarks/dhrystone/dry.c:868
    xprintf("Next_Ptr_Glob->Discr:             %d\n", Next_Ptr_Glob->Discr);
80000620:	80001537          	lui	a0,0x80001
80000624:	7e450513          	addi	a0,a0,2020 # 800017e4 <strcmp+0x374>
80000628:	00f12423          	sw	a5,8(sp)
check():
/home/tututu/qimeng/simulator/baremetal/benchmarks/dhrystone/dry.c:717
    pass = false;
8000062c:	6409a823          	sw	zero,1616(s3)
main():
/home/tututu/qimeng/simulator/baremetal/benchmarks/dhrystone/dry.c:868
    xprintf("Next_Ptr_Glob->Discr:             %d\n", Next_Ptr_Glob->Discr);
80000630:	62c000ef          	jal	ra,80000c5c <xprintf>
/home/tututu/qimeng/simulator/baremetal/benchmarks/dhrystone/dry.c:869
    xprintf("        should be:   %d\n", 0);
80000634:	80001537          	lui	a0,0x80001
80000638:	00000593          	addi	a1,zero,0
8000063c:	62c50513          	addi	a0,a0,1580 # 8000162c <strcmp+0x1bc>
80000640:	61c000ef          	jal	ra,80000c5c <xprintf>
80000644:	00812783          	lw	a5,8(sp)
/home/tututu/qimeng/simulator/baremetal/benchmarks/dhrystone/dry.c:871
  }
  if (!check(Next_Ptr_Glob->variant.var_1.Enum_Comp == 1)) {
80000648:	80004737          	lui	a4,0x80004
8000064c:	63c72683          	lw	a3,1596(a4) # 8000463c <Next_Ptr_Glob>
check():
/home/tututu/qimeng/simulator/baremetal/benchmarks/dhrystone/dry.c:716
  if (!cond)
80000650:	00100713          	addi	a4,zero,1
main():
/home/tututu/qimeng/simulator/baremetal/benchmarks/dhrystone/dry.c:871
  if (!check(Next_Ptr_Glob->variant.var_1.Enum_Comp == 1)) {
80000654:	0086a583          	lw	a1,8(a3)
check():
/home/tututu/qimeng/simulator/baremetal/benchmarks/dhrystone/dry.c:716
  if (!cond)
80000658:	02e58663          	beq	a1,a4,80000684 <main+0x668>
main():
/home/tututu/qimeng/simulator/baremetal/benchmarks/dhrystone/dry.c:872
    xprintf("Next_Ptr_Glob->Enum_Comp:         %d\n",
8000065c:	80002537          	lui	a0,0x80002
80000660:	80c50513          	addi	a0,a0,-2036 # 8000180c <strcmp+0x39c>
80000664:	00f12423          	sw	a5,8(sp)
check():
/home/tututu/qimeng/simulator/baremetal/benchmarks/dhrystone/dry.c:717
    pass = false;
80000668:	6409a823          	sw	zero,1616(s3)
main():
/home/tututu/qimeng/simulator/baremetal/benchmarks/dhrystone/dry.c:872
    xprintf("Next_Ptr_Glob->Enum_Comp:         %d\n",
8000066c:	5f0000ef          	jal	ra,80000c5c <xprintf>
/home/tututu/qimeng/simulator/baremetal/benchmarks/dhrystone/dry.c:874
            Next_Ptr_Glob->variant.var_1.Enum_Comp);
    xprintf("        should be:   %d\n", 1);
80000670:	80001537          	lui	a0,0x80001
80000674:	00100593          	addi	a1,zero,1
80000678:	62c50513          	addi	a0,a0,1580 # 8000162c <strcmp+0x1bc>
8000067c:	5e0000ef          	jal	ra,80000c5c <xprintf>
80000680:	00812783          	lw	a5,8(sp)
/home/tututu/qimeng/simulator/baremetal/benchmarks/dhrystone/dry.c:876
  }
  if (!check(Next_Ptr_Glob->variant.var_1.Int_Comp == 18)) {
80000684:	80004737          	lui	a4,0x80004
80000688:	63c72683          	lw	a3,1596(a4) # 8000463c <Next_Ptr_Glob>
check():
/home/tututu/qimeng/simulator/baremetal/benchmarks/dhrystone/dry.c:716
  if (!cond)
8000068c:	01200713          	addi	a4,zero,18
main():
/home/tututu/qimeng/simulator/baremetal/benchmarks/dhrystone/dry.c:876
  if (!check(Next_Ptr_Glob->variant.var_1.Int_Comp == 18)) {
80000690:	00c6a583          	lw	a1,12(a3)
check():
/home/tututu/qimeng/simulator/baremetal/benchmarks/dhrystone/dry.c:716
  if (!cond)
80000694:	02e58663          	beq	a1,a4,800006c0 <main+0x6a4>
main():
/home/tututu/qimeng/simulator/baremetal/benchmarks/dhrystone/dry.c:877
    xprintf("Next_Ptr_Glob->Int_Comp:          %d\n",
80000698:	80002537          	lui	a0,0x80002
8000069c:	83450513          	addi	a0,a0,-1996 # 80001834 <strcmp+0x3c4>
800006a0:	00f12423          	sw	a5,8(sp)
check():
/home/tututu/qimeng/simulator/baremetal/benchmarks/dhrystone/dry.c:717
    pass = false;
800006a4:	6409a823          	sw	zero,1616(s3)
main():
/home/tututu/qimeng/simulator/baremetal/benchmarks/dhrystone/dry.c:877
    xprintf("Next_Ptr_Glob->Int_Comp:          %d\n",
800006a8:	5b4000ef          	jal	ra,80000c5c <xprintf>
/home/tututu/qimeng/simulator/baremetal/benchmarks/dhrystone/dry.c:879
            Next_Ptr_Glob->variant.var_1.Int_Comp);
    xprintf("        should be:   %d\n", 18);
800006ac:	80001537          	lui	a0,0x80001
800006b0:	01200593          	addi	a1,zero,18
800006b4:	62c50513          	addi	a0,a0,1580 # 8000162c <strcmp+0x1bc>
800006b8:	5a4000ef          	jal	ra,80000c5c <xprintf>
800006bc:	00812783          	lw	a5,8(sp)
/home/tututu/qimeng/simulator/baremetal/benchmarks/dhrystone/dry.c:881
  }
  if (!check(strcmp(Next_Ptr_Glob->variant.var_1.Str_Comp,
800006c0:	00f12423          	sw	a5,8(sp)
800006c4:	800047b7          	lui	a5,0x80004
800006c8:	63c7a403          	lw	s0,1596(a5) # 8000463c <Next_Ptr_Glob>
800006cc:	800017b7          	lui	a5,0x80001
800006d0:	5ec78593          	addi	a1,a5,1516 # 800015ec <strcmp+0x17c>
800006d4:	01040413          	addi	s0,s0,16
800006d8:	00040513          	addi	a0,s0,0
800006dc:	595000ef          	jal	ra,80001470 <strcmp>
check():
/home/tututu/qimeng/simulator/baremetal/benchmarks/dhrystone/dry.c:716
  if (!cond)
800006e0:	00812783          	lw	a5,8(sp)
800006e4:	02050463          	beq	a0,zero,8000070c <main+0x6f0>
main():
/home/tututu/qimeng/simulator/baremetal/benchmarks/dhrystone/dry.c:883
                    "DHRYSTONE PROGRAM, SOME STRING") == 0)) {
    xprintf("Next_Ptr_Glob->Str_Comp:          %s\n",
800006e8:	80002537          	lui	a0,0x80002
800006ec:	85c50513          	addi	a0,a0,-1956 # 8000185c <strcmp+0x3ec>
800006f0:	00040593          	addi	a1,s0,0
check():
/home/tututu/qimeng/simulator/baremetal/benchmarks/dhrystone/dry.c:717
    pass = false;
800006f4:	6409a823          	sw	zero,1616(s3)
main():
/home/tututu/qimeng/simulator/baremetal/benchmarks/dhrystone/dry.c:883
    xprintf("Next_Ptr_Glob->Str_Comp:          %s\n",
800006f8:	564000ef          	jal	ra,80000c5c <xprintf>
/home/tututu/qimeng/simulator/baremetal/benchmarks/dhrystone/dry.c:885
            Next_Ptr_Glob->variant.var_1.Str_Comp);
    xprintf("        should be:   DHRYSTONE PROGRAM, SOME STRING\n");
800006fc:	80001537          	lui	a0,0x80001
80000700:	7ac50513          	addi	a0,a0,1964 # 800017ac <strcmp+0x33c>
80000704:	558000ef          	jal	ra,80000c5c <xprintf>
80000708:	00812783          	lw	a5,8(sp)
check():
/home/tututu/qimeng/simulator/baremetal/benchmarks/dhrystone/dry.c:716
  if (!cond)
8000070c:	00500713          	addi	a4,zero,5
80000710:	02e78463          	beq	a5,a4,80000738 <main+0x71c>
main():
/home/tututu/qimeng/simulator/baremetal/benchmarks/dhrystone/dry.c:889
  }

  if (!check(Int_1_Loc == 5)) {
    xprintf("Int_1_Loc:           %d\n", Int_1_Loc);
80000714:	80002537          	lui	a0,0x80002
80000718:	00078593          	addi	a1,a5,0
8000071c:	88450513          	addi	a0,a0,-1916 # 80001884 <strcmp+0x414>
check():
/home/tututu/qimeng/simulator/baremetal/benchmarks/dhrystone/dry.c:717
    pass = false;
80000720:	6409a823          	sw	zero,1616(s3)
main():
/home/tututu/qimeng/simulator/baremetal/benchmarks/dhrystone/dry.c:889
    xprintf("Int_1_Loc:           %d\n", Int_1_Loc);
80000724:	538000ef          	jal	ra,80000c5c <xprintf>
/home/tututu/qimeng/simulator/baremetal/benchmarks/dhrystone/dry.c:890
    xprintf("        should be:   %d\n", 5);
80000728:	80001537          	lui	a0,0x80001
8000072c:	00500593          	addi	a1,zero,5
80000730:	62c50513          	addi	a0,a0,1580 # 8000162c <strcmp+0x1bc>
80000734:	528000ef          	jal	ra,80000c5c <xprintf>
check():
/home/tututu/qimeng/simulator/baremetal/benchmarks/dhrystone/dry.c:716
  if (!cond)
80000738:	00d00793          	addi	a5,zero,13
8000073c:	02fa0463          	beq	s4,a5,80000764 <main+0x748>
main():
/home/tututu/qimeng/simulator/baremetal/benchmarks/dhrystone/dry.c:893
  }
  if (!check(Int_2_Loc == 13)) {
    xprintf("Int_2_Loc:           %d\n", Int_2_Loc);
80000740:	80002537          	lui	a0,0x80002
80000744:	000a0593          	addi	a1,s4,0
80000748:	8a050513          	addi	a0,a0,-1888 # 800018a0 <strcmp+0x430>
check():
/home/tututu/qimeng/simulator/baremetal/benchmarks/dhrystone/dry.c:717
    pass = false;
8000074c:	6409a823          	sw	zero,1616(s3)
main():
/home/tututu/qimeng/simulator/baremetal/benchmarks/dhrystone/dry.c:893
    xprintf("Int_2_Loc:           %d\n", Int_2_Loc);
80000750:	50c000ef          	jal	ra,80000c5c <xprintf>
/home/tututu/qimeng/simulator/baremetal/benchmarks/dhrystone/dry.c:894
    xprintf("        should be:   %d\n", 13);
80000754:	80001537          	lui	a0,0x80001
80000758:	00d00593          	addi	a1,zero,13
8000075c:	62c50513          	addi	a0,a0,1580 # 8000162c <strcmp+0x1bc>
80000760:	4fc000ef          	jal	ra,80000c5c <xprintf>
check():
/home/tututu/qimeng/simulator/baremetal/benchmarks/dhrystone/dry.c:716
  if (!cond)
80000764:	02049463          	bne	s1,zero,8000078c <main+0x770>
main():
/home/tututu/qimeng/simulator/baremetal/benchmarks/dhrystone/dry.c:901
  if (!check(Int_3_Loc == 7)) {
    xprintf("Int_3_Loc:           %d\n", Int_3_Loc);
    xprintf("        should be:   %d\n", 7);
  }
  if (!check(Enum_Loc == 1)) {
    xprintf("Enum_Loc:            %d\n", Enum_Loc);
80000768:	80002537          	lui	a0,0x80002
8000076c:	00000593          	addi	a1,zero,0
80000770:	8bc50513          	addi	a0,a0,-1860 # 800018bc <strcmp+0x44c>
check():
/home/tututu/qimeng/simulator/baremetal/benchmarks/dhrystone/dry.c:717
    pass = false;
80000774:	6409a823          	sw	zero,1616(s3)
main():
/home/tututu/qimeng/simulator/baremetal/benchmarks/dhrystone/dry.c:901
    xprintf("Enum_Loc:            %d\n", Enum_Loc);
80000778:	4e4000ef          	jal	ra,80000c5c <xprintf>
/home/tututu/qimeng/simulator/baremetal/benchmarks/dhrystone/dry.c:902
    xprintf("        should be:   %d\n", 1);
8000077c:	80001537          	lui	a0,0x80001
80000780:	00100593          	addi	a1,zero,1
80000784:	62c50513          	addi	a0,a0,1580 # 8000162c <strcmp+0x1bc>
80000788:	4d4000ef          	jal	ra,80000c5c <xprintf>
/home/tututu/qimeng/simulator/baremetal/benchmarks/dhrystone/dry.c:905
  }

  if (!check(strcmp(Str_1_Loc, "DHRYSTONE PROGRAM, 1'ST STRING") == 0)) {
8000078c:	800027b7          	lui	a5,0x80002
80000790:	8d878593          	addi	a1,a5,-1832 # 800018d8 <strcmp+0x468>
80000794:	03010513          	addi	a0,sp,48
80000798:	4d9000ef          	jal	ra,80001470 <strcmp>
check():
/home/tututu/qimeng/simulator/baremetal/benchmarks/dhrystone/dry.c:716
  if (!cond)
8000079c:	02050263          	beq	a0,zero,800007c0 <main+0x7a4>
main():
/home/tututu/qimeng/simulator/baremetal/benchmarks/dhrystone/dry.c:906
    xprintf("Str_1_Loc:           %s\n", Str_1_Loc);
800007a0:	80002537          	lui	a0,0x80002
800007a4:	8f850513          	addi	a0,a0,-1800 # 800018f8 <strcmp+0x488>
800007a8:	03010593          	addi	a1,sp,48
check():
/home/tututu/qimeng/simulator/baremetal/benchmarks/dhrystone/dry.c:717
    pass = false;
800007ac:	6409a823          	sw	zero,1616(s3)
main():
/home/tututu/qimeng/simulator/baremetal/benchmarks/dhrystone/dry.c:906
    xprintf("Str_1_Loc:           %s\n", Str_1_Loc);
800007b0:	4ac000ef          	jal	ra,80000c5c <xprintf>
/home/tututu/qimeng/simulator/baremetal/benchmarks/dhrystone/dry.c:907
    xprintf("        should be:   DHRYSTONE PROGRAM, 1'ST STRING\n");
800007b4:	80002537          	lui	a0,0x80002
800007b8:	91450513          	addi	a0,a0,-1772 # 80001914 <strcmp+0x4a4>
800007bc:	4a0000ef          	jal	ra,80000c5c <xprintf>
/home/tututu/qimeng/simulator/baremetal/benchmarks/dhrystone/dry.c:909
  }
  if (!check(strcmp(Str_2_Loc, "DHRYSTONE PROGRAM, 2'ND STRING") == 0)) {
800007c0:	800027b7          	lui	a5,0x80002
800007c4:	94c78593          	addi	a1,a5,-1716 # 8000194c <strcmp+0x4dc>
800007c8:	05010513          	addi	a0,sp,80
800007cc:	4a5000ef          	jal	ra,80001470 <strcmp>
check():
/home/tututu/qimeng/simulator/baremetal/benchmarks/dhrystone/dry.c:716
  if (!cond)
800007d0:	02050263          	beq	a0,zero,800007f4 <main+0x7d8>
main():
/home/tututu/qimeng/simulator/baremetal/benchmarks/dhrystone/dry.c:910
    xprintf("Str_2_Loc:           %s\n", Str_2_Loc);
800007d4:	80002537          	lui	a0,0x80002
800007d8:	96c50513          	addi	a0,a0,-1684 # 8000196c <strcmp+0x4fc>
800007dc:	05010593          	addi	a1,sp,80
check():
/home/tututu/qimeng/simulator/baremetal/benchmarks/dhrystone/dry.c:717
    pass = false;
800007e0:	6409a823          	sw	zero,1616(s3)
main():
/home/tututu/qimeng/simulator/baremetal/benchmarks/dhrystone/dry.c:910
    xprintf("Str_2_Loc:           %s\n", Str_2_Loc);
800007e4:	478000ef          	jal	ra,80000c5c <xprintf>
/home/tututu/qimeng/simulator/baremetal/benchmarks/dhrystone/dry.c:911
    xprintf("        should be:   DHRYSTONE PROGRAM, 2'ND STRING\n");
800007e8:	80002537          	lui	a0,0x80002
800007ec:	98850513          	addi	a0,a0,-1656 # 80001988 <strcmp+0x518>
800007f0:	46c000ef          	jal	ra,80000c5c <xprintf>
/home/tututu/qimeng/simulator/baremetal/benchmarks/dhrystone/dry.c:920
  // xprintf("==================================================\n");
  // xprintf("Dhrystone %s         %d Marks\n", pass ? "PASS" : "FAIL",
  //         880900 / (int)User_Time * NUMBER_OF_RUNS / 500000);
  // xprintf("                   vs. 100000 Marks (i7-7700K @ 4.20GHz)\n");

  return (pass ? 0 : 1);
800007f4:	6509a503          	lw	a0,1616(s3)
/home/tututu/qimeng/simulator/baremetal/benchmarks/dhrystone/dry.c:921
}
800007f8:	0ac12083          	lw	ra,172(sp)
800007fc:	0a812403          	lw	s0,168(sp)
80000800:	0a412483          	lw	s1,164(sp)
80000804:	0a012903          	lw	s2,160(sp)
80000808:	09c12983          	lw	s3,156(sp)
8000080c:	09812a03          	lw	s4,152(sp)
80000810:	09412a83          	lw	s5,148(sp)
80000814:	09012b03          	lw	s6,144(sp)
80000818:	08c12b83          	lw	s7,140(sp)
8000081c:	08812c03          	lw	s8,136(sp)
80000820:	08412c83          	lw	s9,132(sp)
80000824:	08012d03          	lw	s10,128(sp)
80000828:	07c12d83          	lw	s11,124(sp)
8000082c:	00153513          	sltiu	a0,a0,1
80000830:	0b010113          	addi	sp,sp,176
80000834:	00008067          	jalr	zero,0(ra)
80000838:	800049b7          	lui	s3,0x80004
8000083c:	bd5ff06f          	jal	zero,80000410 <main+0x3f4>

80000840 <Proc_2>:
Proc_2():
/home/tututu/qimeng/simulator/baremetal/benchmarks/dhrystone/dry.c:503
    if (Ch_1_Glob == 'A')
80000840:	800047b7          	lui	a5,0x80004
80000844:	6317c703          	lbu	a4,1585(a5) # 80004631 <Ch_1_Glob>
80000848:	04100793          	addi	a5,zero,65
8000084c:	00f70463          	beq	a4,a5,80000854 <Proc_2+0x14>
/home/tututu/qimeng/simulator/baremetal/benchmarks/dhrystone/dry.c:511
} /* Proc_2 */
80000850:	00008067          	jalr	zero,0(ra)
/home/tututu/qimeng/simulator/baremetal/benchmarks/dhrystone/dry.c:506
      Int_Loc -= 1;
80000854:	00052783          	lw	a5,0(a0)
/home/tututu/qimeng/simulator/baremetal/benchmarks/dhrystone/dry.c:507
      *Int_Par_Ref = Int_Loc - Int_Glob;
80000858:	80004737          	lui	a4,0x80004
8000085c:	63872703          	lw	a4,1592(a4) # 80004638 <Int_Glob>
/home/tututu/qimeng/simulator/baremetal/benchmarks/dhrystone/dry.c:506
      Int_Loc -= 1;
80000860:	00978793          	addi	a5,a5,9
/home/tututu/qimeng/simulator/baremetal/benchmarks/dhrystone/dry.c:507
      *Int_Par_Ref = Int_Loc - Int_Glob;
80000864:	40e787b3          	sub	a5,a5,a4
80000868:	00f52023          	sw	a5,0(a0)
/home/tututu/qimeng/simulator/baremetal/benchmarks/dhrystone/dry.c:511
} /* Proc_2 */
8000086c:	00008067          	jalr	zero,0(ra)

80000870 <Proc_3>:
Proc_3():
/home/tututu/qimeng/simulator/baremetal/benchmarks/dhrystone/dry.c:521
  if (Ptr_Glob != Null)
80000870:	80004737          	lui	a4,0x80004
80000874:	64072783          	lw	a5,1600(a4) # 80004640 <Ptr_Glob>
80000878:	00078863          	beq	a5,zero,80000888 <Proc_3+0x18>
/home/tututu/qimeng/simulator/baremetal/benchmarks/dhrystone/dry.c:523
    *Ptr_Ref_Par = Ptr_Glob->Ptr_Comp;
8000087c:	0007a783          	lw	a5,0(a5)
80000880:	00f52023          	sw	a5,0(a0)
/home/tututu/qimeng/simulator/baremetal/benchmarks/dhrystone/dry.c:524
  Proc_7(10, Int_Glob, &Ptr_Glob->variant.var_1.Int_Comp);
80000884:	64072783          	lw	a5,1600(a4)
80000888:	80004737          	lui	a4,0x80004
Proc_7():
/home/tututu/qimeng/simulator/baremetal/benchmarks/dhrystone/dry.c:609
  *Int_Par_Ref = Int_2_Par_Val + Int_Loc;
8000088c:	63872703          	lw	a4,1592(a4) # 80004638 <Int_Glob>
80000890:	00c70713          	addi	a4,a4,12
80000894:	00e7a623          	sw	a4,12(a5)
Proc_3():
/home/tututu/qimeng/simulator/baremetal/benchmarks/dhrystone/dry.c:525
} /* Proc_3 */
80000898:	00008067          	jalr	zero,0(ra)

8000089c <Proc_4>:
Proc_4():
/home/tututu/qimeng/simulator/baremetal/benchmarks/dhrystone/dry.c:533
  Bool_Loc = Ch_1_Glob == 'A';
8000089c:	800047b7          	lui	a5,0x80004
800008a0:	6317c783          	lbu	a5,1585(a5) # 80004631 <Ch_1_Glob>
/home/tututu/qimeng/simulator/baremetal/benchmarks/dhrystone/dry.c:534
  Bool_Glob = Bool_Loc | Bool_Glob;
800008a4:	80004737          	lui	a4,0x80004
800008a8:	63472683          	lw	a3,1588(a4) # 80004634 <Bool_Glob>
/home/tututu/qimeng/simulator/baremetal/benchmarks/dhrystone/dry.c:533
  Bool_Loc = Ch_1_Glob == 'A';
800008ac:	fbf78793          	addi	a5,a5,-65
800008b0:	0017b793          	sltiu	a5,a5,1
/home/tututu/qimeng/simulator/baremetal/benchmarks/dhrystone/dry.c:534
  Bool_Glob = Bool_Loc | Bool_Glob;
800008b4:	00d7e7b3          	or	a5,a5,a3
800008b8:	62f72a23          	sw	a5,1588(a4)
/home/tututu/qimeng/simulator/baremetal/benchmarks/dhrystone/dry.c:535
  Ch_2_Glob = 'B';
800008bc:	800047b7          	lui	a5,0x80004
800008c0:	04200713          	addi	a4,zero,66
800008c4:	62e78823          	sb	a4,1584(a5) # 80004630 <Ch_2_Glob>
/home/tututu/qimeng/simulator/baremetal/benchmarks/dhrystone/dry.c:536
} /* Proc_4 */
800008c8:	00008067          	jalr	zero,0(ra)

800008cc <Proc_5>:
Proc_5():
/home/tututu/qimeng/simulator/baremetal/benchmarks/dhrystone/dry.c:542
  Ch_1_Glob = 'A';
800008cc:	800047b7          	lui	a5,0x80004
800008d0:	04100713          	addi	a4,zero,65
800008d4:	62e788a3          	sb	a4,1585(a5) # 80004631 <Ch_1_Glob>
/home/tututu/qimeng/simulator/baremetal/benchmarks/dhrystone/dry.c:543
  Bool_Glob = false;
800008d8:	800047b7          	lui	a5,0x80004
800008dc:	6207aa23          	sw	zero,1588(a5) # 80004634 <Bool_Glob>
/home/tututu/qimeng/simulator/baremetal/benchmarks/dhrystone/dry.c:544
} /* Proc_5 */
800008e0:	00008067          	jalr	zero,0(ra)

800008e4 <Proc_6>:
Func_3():
/home/tututu/qimeng/simulator/baremetal/benchmarks/dhrystone/dry.c:707
  if (Enum_Loc == Ident_3)
800008e4:	00200713          	addi	a4,zero,2
800008e8:	04e50263          	beq	a0,a4,8000092c <Proc_6+0x48>
Proc_6():
/home/tututu/qimeng/simulator/baremetal/benchmarks/dhrystone/dry.c:581
    *Enum_Ref_Par = Ident_4;
800008ec:	00300793          	addi	a5,zero,3
800008f0:	00f5a023          	sw	a5,0(a1)
/home/tututu/qimeng/simulator/baremetal/benchmarks/dhrystone/dry.c:582
  switch (Enum_Val_Par) {
800008f4:	00100793          	addi	a5,zero,1
800008f8:	00f50c63          	beq	a0,a5,80000910 <Proc_6+0x2c>
800008fc:	02a7f263          	bgeu	a5,a0,80000920 <Proc_6+0x3c>
80000900:	00400793          	addi	a5,zero,4
80000904:	02f51263          	bne	a0,a5,80000928 <Proc_6+0x44>
/home/tututu/qimeng/simulator/baremetal/benchmarks/dhrystone/dry.c:599
    *Enum_Ref_Par = Ident_3;
80000908:	00e5a023          	sw	a4,0(a1)
/home/tututu/qimeng/simulator/baremetal/benchmarks/dhrystone/dry.c:602
} /* Proc_6 */
8000090c:	00008067          	jalr	zero,0(ra)
/home/tututu/qimeng/simulator/baremetal/benchmarks/dhrystone/dry.c:587
    if (Int_Glob > 100)
80000910:	800047b7          	lui	a5,0x80004
80000914:	6387a703          	lw	a4,1592(a5) # 80004638 <Int_Glob>
80000918:	06400793          	addi	a5,zero,100
8000091c:	fee7d8e3          	bge	a5,a4,8000090c <Proc_6+0x28>
/home/tututu/qimeng/simulator/baremetal/benchmarks/dhrystone/dry.c:589
      *Enum_Ref_Par = Ident_1;
80000920:	0005a023          	sw	zero,0(a1)
80000924:	00008067          	jalr	zero,0(ra)
80000928:	00008067          	jalr	zero,0(ra)
/home/tututu/qimeng/simulator/baremetal/benchmarks/dhrystone/dry.c:594
    *Enum_Ref_Par = Ident_2;
8000092c:	00100793          	addi	a5,zero,1
80000930:	00f5a023          	sw	a5,0(a1)
/home/tututu/qimeng/simulator/baremetal/benchmarks/dhrystone/dry.c:595
    break;
80000934:	00008067          	jalr	zero,0(ra)

80000938 <Proc_1>:
Proc_1():
/home/tututu/qimeng/simulator/baremetal/benchmarks/dhrystone/dry.c:471
  structassign(*Ptr_Val_Par->Ptr_Comp, *Ptr_Glob);
80000938:	800046b7          	lui	a3,0x80004
8000093c:	6406a783          	lw	a5,1600(a3) # 80004640 <Ptr_Glob>
/home/tututu/qimeng/simulator/baremetal/benchmarks/dhrystone/dry.c:465
{
80000940:	ff010113          	addi	sp,sp,-16
80000944:	00812423          	sw	s0,8(sp)
/home/tututu/qimeng/simulator/baremetal/benchmarks/dhrystone/dry.c:471
  structassign(*Ptr_Val_Par->Ptr_Comp, *Ptr_Glob);
80000948:	0007a603          	lw	a2,0(a5)
/home/tututu/qimeng/simulator/baremetal/benchmarks/dhrystone/dry.c:466
  REG Rec_Pointer Next_Record = Ptr_Val_Par->Ptr_Comp;
8000094c:	00052403          	lw	s0,0(a0)
/home/tututu/qimeng/simulator/baremetal/benchmarks/dhrystone/dry.c:471
  structassign(*Ptr_Val_Par->Ptr_Comp, *Ptr_Glob);
80000950:	02c7a703          	lw	a4,44(a5)
80000954:	0047a283          	lw	t0,4(a5)
80000958:	0087af83          	lw	t6,8(a5)
8000095c:	0107af03          	lw	t5,16(a5)
80000960:	0147ae83          	lw	t4,20(a5)
80000964:	0187ae03          	lw	t3,24(a5)
80000968:	01c7a303          	lw	t1,28(a5)
8000096c:	0207a883          	lw	a7,32(a5)
80000970:	0247a803          	lw	a6,36(a5)
80000974:	0287a583          	lw	a1,40(a5)
/home/tututu/qimeng/simulator/baremetal/benchmarks/dhrystone/dry.c:465
{
80000978:	00912223          	sw	s1,4(sp)
8000097c:	00112623          	sw	ra,12(sp)
/home/tututu/qimeng/simulator/baremetal/benchmarks/dhrystone/dry.c:471
  structassign(*Ptr_Val_Par->Ptr_Comp, *Ptr_Glob);
80000980:	00c42023          	sw	a2,0(s0)
/home/tututu/qimeng/simulator/baremetal/benchmarks/dhrystone/dry.c:474
  Next_Record->Ptr_Comp = Ptr_Val_Par->Ptr_Comp;
80000984:	00052603          	lw	a2,0(a0)
/home/tututu/qimeng/simulator/baremetal/benchmarks/dhrystone/dry.c:471
  structassign(*Ptr_Val_Par->Ptr_Comp, *Ptr_Glob);
80000988:	02e42623          	sw	a4,44(s0)
8000098c:	00542223          	sw	t0,4(s0)
80000990:	01f42423          	sw	t6,8(s0)
80000994:	01e42823          	sw	t5,16(s0)
80000998:	01d42a23          	sw	t4,20(s0)
8000099c:	01c42c23          	sw	t3,24(s0)
800009a0:	00642e23          	sw	t1,28(s0)
800009a4:	03142023          	sw	a7,32(s0)
800009a8:	03042223          	sw	a6,36(s0)
800009ac:	02b42423          	sw	a1,40(s0)
/home/tututu/qimeng/simulator/baremetal/benchmarks/dhrystone/dry.c:472
  Ptr_Val_Par->variant.var_1.Int_Comp = 5;
800009b0:	00500713          	addi	a4,zero,5
800009b4:	00e52623          	sw	a4,12(a0)
/home/tututu/qimeng/simulator/baremetal/benchmarks/dhrystone/dry.c:474
  Next_Record->Ptr_Comp = Ptr_Val_Par->Ptr_Comp;
800009b8:	00c42023          	sw	a2,0(s0)
Proc_3():
/home/tututu/qimeng/simulator/baremetal/benchmarks/dhrystone/dry.c:523
    *Ptr_Ref_Par = Ptr_Glob->Ptr_Comp;
800009bc:	0007a483          	lw	s1,0(a5)
/home/tututu/qimeng/simulator/baremetal/benchmarks/dhrystone/dry.c:524
  Proc_7(10, Int_Glob, &Ptr_Glob->variant.var_1.Int_Comp);
800009c0:	800047b7          	lui	a5,0x80004
Proc_7():
/home/tututu/qimeng/simulator/baremetal/benchmarks/dhrystone/dry.c:609
  *Int_Par_Ref = Int_2_Par_Val + Int_Loc;
800009c4:	6387a783          	lw	a5,1592(a5) # 80004638 <Int_Glob>
Proc_3():
/home/tututu/qimeng/simulator/baremetal/benchmarks/dhrystone/dry.c:523
    *Ptr_Ref_Par = Ptr_Glob->Ptr_Comp;
800009c8:	00942023          	sw	s1,0(s0)
Proc_7():
/home/tututu/qimeng/simulator/baremetal/benchmarks/dhrystone/dry.c:609
  *Int_Par_Ref = Int_2_Par_Val + Int_Loc;
800009cc:	6406a683          	lw	a3,1600(a3)
800009d0:	00c78793          	addi	a5,a5,12
Proc_1():
/home/tututu/qimeng/simulator/baremetal/benchmarks/dhrystone/dry.c:473
  Next_Record->variant.var_1.Int_Comp = Ptr_Val_Par->variant.var_1.Int_Comp;
800009d4:	00e42623          	sw	a4,12(s0)
Proc_7():
/home/tututu/qimeng/simulator/baremetal/benchmarks/dhrystone/dry.c:609
  *Int_Par_Ref = Int_2_Par_Val + Int_Loc;
800009d8:	00f6a623          	sw	a5,12(a3)
Proc_1():
/home/tututu/qimeng/simulator/baremetal/benchmarks/dhrystone/dry.c:478
  if (Next_Record->Discr == Ident_1)
800009dc:	00442783          	lw	a5,4(s0)
800009e0:	06078e63          	beq	a5,zero,80000a5c <Proc_1+0x124>
/home/tututu/qimeng/simulator/baremetal/benchmarks/dhrystone/dry.c:488
    structassign(*Ptr_Val_Par, *Ptr_Val_Par->Ptr_Comp);
800009e4:	00052783          	lw	a5,0(a0)
/home/tututu/qimeng/simulator/baremetal/benchmarks/dhrystone/dry.c:489
} /* Proc_1 */
800009e8:	00c12083          	lw	ra,12(sp)
800009ec:	00812403          	lw	s0,8(sp)
/home/tututu/qimeng/simulator/baremetal/benchmarks/dhrystone/dry.c:488
    structassign(*Ptr_Val_Par, *Ptr_Val_Par->Ptr_Comp);
800009f0:	0007af83          	lw	t6,0(a5)
800009f4:	0047af03          	lw	t5,4(a5)
800009f8:	0087ae83          	lw	t4,8(a5)
800009fc:	00c7ae03          	lw	t3,12(a5)
80000a00:	0107a303          	lw	t1,16(a5)
80000a04:	0147a883          	lw	a7,20(a5)
80000a08:	0187a803          	lw	a6,24(a5)
80000a0c:	01c7a583          	lw	a1,28(a5)
80000a10:	0207a603          	lw	a2,32(a5)
80000a14:	0247a683          	lw	a3,36(a5)
80000a18:	0287a703          	lw	a4,40(a5)
80000a1c:	02c7a783          	lw	a5,44(a5)
80000a20:	01f52023          	sw	t6,0(a0)
80000a24:	01e52223          	sw	t5,4(a0)
80000a28:	01d52423          	sw	t4,8(a0)
80000a2c:	01c52623          	sw	t3,12(a0)
80000a30:	00652823          	sw	t1,16(a0)
80000a34:	01152a23          	sw	a7,20(a0)
80000a38:	01052c23          	sw	a6,24(a0)
80000a3c:	00b52e23          	sw	a1,28(a0)
80000a40:	02c52023          	sw	a2,32(a0)
80000a44:	02d52223          	sw	a3,36(a0)
80000a48:	02e52423          	sw	a4,40(a0)
80000a4c:	02f52623          	sw	a5,44(a0)
/home/tututu/qimeng/simulator/baremetal/benchmarks/dhrystone/dry.c:489
} /* Proc_1 */
80000a50:	00412483          	lw	s1,4(sp)
80000a54:	01010113          	addi	sp,sp,16
80000a58:	00008067          	jalr	zero,0(ra)
/home/tututu/qimeng/simulator/baremetal/benchmarks/dhrystone/dry.c:482
    Proc_6(Ptr_Val_Par->variant.var_1.Enum_Comp,
80000a5c:	00852503          	lw	a0,8(a0)
/home/tututu/qimeng/simulator/baremetal/benchmarks/dhrystone/dry.c:481
    Next_Record->variant.var_1.Int_Comp = 6;
80000a60:	00600793          	addi	a5,zero,6
80000a64:	00f42623          	sw	a5,12(s0)
/home/tututu/qimeng/simulator/baremetal/benchmarks/dhrystone/dry.c:482
    Proc_6(Ptr_Val_Par->variant.var_1.Enum_Comp,
80000a68:	00840593          	addi	a1,s0,8
80000a6c:	e79ff0ef          	jal	ra,800008e4 <Proc_6>
Proc_7():
/home/tututu/qimeng/simulator/baremetal/benchmarks/dhrystone/dry.c:609
  *Int_Par_Ref = Int_2_Par_Val + Int_Loc;
80000a70:	01200793          	addi	a5,zero,18
Proc_1():
/home/tututu/qimeng/simulator/baremetal/benchmarks/dhrystone/dry.c:484
    Next_Record->Ptr_Comp = Ptr_Glob->Ptr_Comp;
80000a74:	00942023          	sw	s1,0(s0)
/home/tututu/qimeng/simulator/baremetal/benchmarks/dhrystone/dry.c:489
} /* Proc_1 */
80000a78:	00c12083          	lw	ra,12(sp)
Proc_7():
/home/tututu/qimeng/simulator/baremetal/benchmarks/dhrystone/dry.c:609
  *Int_Par_Ref = Int_2_Par_Val + Int_Loc;
80000a7c:	00f42623          	sw	a5,12(s0)
Proc_1():
/home/tututu/qimeng/simulator/baremetal/benchmarks/dhrystone/dry.c:489
} /* Proc_1 */
80000a80:	00812403          	lw	s0,8(sp)
80000a84:	00412483          	lw	s1,4(sp)
80000a88:	01010113          	addi	sp,sp,16
80000a8c:	00008067          	jalr	zero,0(ra)

80000a90 <Proc_7>:
Proc_7():
/home/tututu/qimeng/simulator/baremetal/benchmarks/dhrystone/dry.c:608
  Int_Loc = Int_1_Par_Val + 2;
80000a90:	00250513          	addi	a0,a0,2
/home/tututu/qimeng/simulator/baremetal/benchmarks/dhrystone/dry.c:609
  *Int_Par_Ref = Int_2_Par_Val + Int_Loc;
80000a94:	00b50533          	add	a0,a0,a1
80000a98:	00a62023          	sw	a0,0(a2)
/home/tututu/qimeng/simulator/baremetal/benchmarks/dhrystone/dry.c:610
} /* Proc_7 */
80000a9c:	00008067          	jalr	zero,0(ra)

80000aa0 <Proc_8>:
Proc_8():
/home/tututu/qimeng/simulator/baremetal/benchmarks/dhrystone/dry.c:625
  Int_Loc = Int_1_Par_Val + 5;
80000aa0:	00560713          	addi	a4,a2,5
/home/tututu/qimeng/simulator/baremetal/benchmarks/dhrystone/dry.c:630
    Arr_2_Par_Ref[Int_Loc][Int_Index] = Int_Loc;
80000aa4:	00171793          	slli	a5,a4,0x1
80000aa8:	00e787b3          	add	a5,a5,a4
80000aac:	00379793          	slli	a5,a5,0x3
80000ab0:	00e787b3          	add	a5,a5,a4
80000ab4:	00379793          	slli	a5,a5,0x3
/home/tututu/qimeng/simulator/baremetal/benchmarks/dhrystone/dry.c:626
  Arr_1_Par_Ref[Int_Loc] = Int_2_Par_Val;
80000ab8:	00271813          	slli	a6,a4,0x2
80000abc:	00261613          	slli	a2,a2,0x2
80000ac0:	01050533          	add	a0,a0,a6
80000ac4:	00c78833          	add	a6,a5,a2
80000ac8:	00d52023          	sw	a3,0(a0)
/home/tututu/qimeng/simulator/baremetal/benchmarks/dhrystone/dry.c:627
  Arr_1_Par_Ref[Int_Loc + 1] = Arr_1_Par_Ref[Int_Loc];
80000acc:	00d52223          	sw	a3,4(a0)
/home/tututu/qimeng/simulator/baremetal/benchmarks/dhrystone/dry.c:628
  Arr_1_Par_Ref[Int_Loc + 30] = Int_Loc;
80000ad0:	06e52c23          	sw	a4,120(a0)
/home/tututu/qimeng/simulator/baremetal/benchmarks/dhrystone/dry.c:630
    Arr_2_Par_Ref[Int_Loc][Int_Index] = Int_Loc;
80000ad4:	010586b3          	add	a3,a1,a6
/home/tututu/qimeng/simulator/baremetal/benchmarks/dhrystone/dry.c:631
  Arr_2_Par_Ref[Int_Loc][Int_Loc - 1] += 1;
80000ad8:	0106a803          	lw	a6,16(a3)
/home/tututu/qimeng/simulator/baremetal/benchmarks/dhrystone/dry.c:630
    Arr_2_Par_Ref[Int_Loc][Int_Index] = Int_Loc;
80000adc:	00e6aa23          	sw	a4,20(a3)
80000ae0:	00e6ac23          	sw	a4,24(a3)
/home/tututu/qimeng/simulator/baremetal/benchmarks/dhrystone/dry.c:631
  Arr_2_Par_Ref[Int_Loc][Int_Loc - 1] += 1;
80000ae4:	00180713          	addi	a4,a6,1
80000ae8:	00e6a823          	sw	a4,16(a3)
/home/tututu/qimeng/simulator/baremetal/benchmarks/dhrystone/dry.c:632
  Arr_2_Par_Ref[Int_Loc + 20][Int_Loc] = Arr_1_Par_Ref[Int_Loc];
80000aec:	00052703          	lw	a4,0(a0)
80000af0:	00f585b3          	add	a1,a1,a5
80000af4:	00c585b3          	add	a1,a1,a2
80000af8:	000017b7          	lui	a5,0x1
80000afc:	00b787b3          	add	a5,a5,a1
80000b00:	fae7aa23          	sw	a4,-76(a5) # fb4 <__stack_size-0x1fff04c>
/home/tututu/qimeng/simulator/baremetal/benchmarks/dhrystone/dry.c:633
  Int_Glob = 5;
80000b04:	800047b7          	lui	a5,0x80004
80000b08:	00500713          	addi	a4,zero,5
80000b0c:	62e7ac23          	sw	a4,1592(a5) # 80004638 <Int_Glob>
/home/tututu/qimeng/simulator/baremetal/benchmarks/dhrystone/dry.c:634
} /* Proc_8 */
80000b10:	00008067          	jalr	zero,0(ra)

80000b14 <Func_1>:
Func_1():
/home/tututu/qimeng/simulator/baremetal/benchmarks/dhrystone/dry.c:645
{
80000b14:	0ff57513          	andi	a0,a0,255
80000b18:	0ff5f593          	andi	a1,a1,255
/home/tututu/qimeng/simulator/baremetal/benchmarks/dhrystone/dry.c:651
  if (Ch_2_Loc != Ch_2_Par_Val)
80000b1c:	00b50663          	beq	a0,a1,80000b28 <Func_1+0x14>
/home/tututu/qimeng/simulator/baremetal/benchmarks/dhrystone/dry.c:653
    return (Ident_1);
80000b20:	00000513          	addi	a0,zero,0
/home/tututu/qimeng/simulator/baremetal/benchmarks/dhrystone/dry.c:659
} /* Func_1 */
80000b24:	00008067          	jalr	zero,0(ra)
/home/tututu/qimeng/simulator/baremetal/benchmarks/dhrystone/dry.c:656
    Ch_1_Glob = Ch_1_Loc;
80000b28:	800047b7          	lui	a5,0x80004
80000b2c:	62a788a3          	sb	a0,1585(a5) # 80004631 <Ch_1_Glob>
/home/tututu/qimeng/simulator/baremetal/benchmarks/dhrystone/dry.c:657
    return (Ident_2);
80000b30:	00100513          	addi	a0,zero,1
80000b34:	00008067          	jalr	zero,0(ra)

80000b38 <Func_2>:
Func_2():
/home/tututu/qimeng/simulator/baremetal/benchmarks/dhrystone/dry.c:669
{
80000b38:	ff010113          	addi	sp,sp,-16
80000b3c:	00112623          	sw	ra,12(sp)
/home/tututu/qimeng/simulator/baremetal/benchmarks/dhrystone/dry.c:675
    if (Func_1(Str_1_Par_Ref[Int_Loc], Str_2_Par_Ref[Int_Loc + 1]) == Ident_1)
80000b40:	00254783          	lbu	a5,2(a0)
80000b44:	0035c703          	lbu	a4,3(a1)
/home/tututu/qimeng/simulator/baremetal/benchmarks/dhrystone/dry.c:669
{
80000b48:	00000613          	addi	a2,zero,0
/home/tututu/qimeng/simulator/baremetal/benchmarks/dhrystone/dry.c:675
    if (Func_1(Str_1_Par_Ref[Int_Loc], Str_2_Par_Ref[Int_Loc + 1]) == Ident_1)
80000b4c:	00000693          	addi	a3,zero,0
Func_1():
/home/tututu/qimeng/simulator/baremetal/benchmarks/dhrystone/dry.c:651
  if (Ch_2_Loc != Ch_2_Par_Val)
80000b50:	02e78e63          	beq	a5,a4,80000b8c <Func_2+0x54>
80000b54:	00068663          	beq	a3,zero,80000b60 <Func_2+0x28>
80000b58:	800047b7          	lui	a5,0x80004
80000b5c:	62c788a3          	sb	a2,1585(a5) # 80004631 <Ch_1_Glob>
Func_2():
/home/tututu/qimeng/simulator/baremetal/benchmarks/dhrystone/dry.c:689
    if (strcmp(Str_1_Par_Ref, Str_2_Par_Ref) > 0) {
80000b60:	111000ef          	jal	ra,80001470 <strcmp>
/home/tututu/qimeng/simulator/baremetal/benchmarks/dhrystone/dry.c:694
      return (false);
80000b64:	00000793          	addi	a5,zero,0
/home/tututu/qimeng/simulator/baremetal/benchmarks/dhrystone/dry.c:689
    if (strcmp(Str_1_Par_Ref, Str_2_Par_Ref) > 0) {
80000b68:	00a05a63          	bge	zero,a0,80000b7c <Func_2+0x44>
/home/tututu/qimeng/simulator/baremetal/benchmarks/dhrystone/dry.c:691
      Int_Glob = Int_Loc;
80000b6c:	800047b7          	lui	a5,0x80004
80000b70:	00a00713          	addi	a4,zero,10
80000b74:	62e7ac23          	sw	a4,1592(a5) # 80004638 <Int_Glob>
/home/tututu/qimeng/simulator/baremetal/benchmarks/dhrystone/dry.c:692
      return (true);
80000b78:	00100793          	addi	a5,zero,1
/home/tututu/qimeng/simulator/baremetal/benchmarks/dhrystone/dry.c:696
} /* Func_2 */
80000b7c:	00c12083          	lw	ra,12(sp)
80000b80:	00078513          	addi	a0,a5,0
80000b84:	01010113          	addi	sp,sp,16
80000b88:	00008067          	jalr	zero,0(ra)
Func_1():
/home/tututu/qimeng/simulator/baremetal/benchmarks/dhrystone/dry.c:696
80000b8c:	00100693          	addi	a3,zero,1
80000b90:	00078613          	addi	a2,a5,0
80000b94:	fbdff06f          	jal	zero,80000b50 <Func_2+0x18>

80000b98 <Func_3>:
Func_3():
/home/tututu/qimeng/simulator/baremetal/benchmarks/dhrystone/dry.c:707
  if (Enum_Loc == Ident_3)
80000b98:	ffe50513          	addi	a0,a0,-2
/home/tututu/qimeng/simulator/baremetal/benchmarks/dhrystone/dry.c:712
} /* Func_3 */
80000b9c:	00153513          	sltiu	a0,a0,1
80000ba0:	00008067          	jalr	zero,0(ra)

80000ba4 <check>:
check():
/home/tututu/qimeng/simulator/baremetal/benchmarks/dhrystone/dry.c:716
  if (!cond)
80000ba4:	00051663          	bne	a0,zero,80000bb0 <check+0xc>
/home/tututu/qimeng/simulator/baremetal/benchmarks/dhrystone/dry.c:717
    pass = false;
80000ba8:	800047b7          	lui	a5,0x80004
80000bac:	6407a823          	sw	zero,1616(a5) # 80004650 <pass>
/home/tututu/qimeng/simulator/baremetal/benchmarks/dhrystone/dry.c:719
}
80000bb0:	00008067          	jalr	zero,0(ra)

80000bb4 <xputc>:
xputc():
/home/tututu/qimeng/simulator/baremetal/benchmarks/coremark/../../lib/xprintf.c:30

void xputc (char c)
{
	if (_CR_CRLF && c == '\n') xputc('\r');		/* CR -> CRLF */

	if (outptr) {
80000bb4:	800046b7          	lui	a3,0x80004
80000bb8:	6446a703          	lw	a4,1604(a3) # 80004644 <outptr>
80000bbc:	00070a63          	beq	a4,zero,80000bd0 <xputc+0x1c>
/home/tututu/qimeng/simulator/baremetal/benchmarks/coremark/../../lib/xprintf.c:31
		*outptr++ = (unsigned char)c;
80000bc0:	00170613          	addi	a2,a4,1
80000bc4:	64c6a223          	sw	a2,1604(a3)
80000bc8:	00a70023          	sb	a0,0(a4)
/home/tututu/qimeng/simulator/baremetal/benchmarks/coremark/../../lib/xprintf.c:32
		return;
80000bcc:	00008067          	jalr	zero,0(ra)
/home/tututu/qimeng/simulator/baremetal/benchmarks/coremark/../../lib/xprintf.c:35
	}

	if (xfunc_out) xfunc_out((unsigned char)c);
80000bd0:	800047b7          	lui	a5,0x80004
80000bd4:	6487a783          	lw	a5,1608(a5) # 80004648 <xfunc_out>
80000bd8:	00078463          	beq	a5,zero,80000be0 <xputc+0x2c>
80000bdc:	00078067          	jalr	zero,0(a5)
/home/tututu/qimeng/simulator/baremetal/benchmarks/coremark/../../lib/xprintf.c:36
}
80000be0:	00008067          	jalr	zero,0(ra)

80000be4 <xputs>:
xputs():
/home/tututu/qimeng/simulator/baremetal/benchmarks/coremark/../../lib/xprintf.c:46
/*----------------------------------------------*/

void xputs (					/* Put a string to the default device */
	const char* str				/* Pointer to the string */
)
{
80000be4:	ff010113          	addi	sp,sp,-16
80000be8:	00812423          	sw	s0,8(sp)
80000bec:	00112623          	sw	ra,12(sp)
80000bf0:	00912223          	sw	s1,4(sp)
80000bf4:	01212023          	sw	s2,0(sp)
80000bf8:	00050413          	addi	s0,a0,0
/home/tututu/qimeng/simulator/baremetal/benchmarks/coremark/../../lib/xprintf.c:47
	while (*str)
80000bfc:	00054503          	lbu	a0,0(a0)
80000c00:	04050263          	beq	a0,zero,80000c44 <xputs+0x60>
80000c04:	800044b7          	lui	s1,0x80004
xputc():
/home/tututu/qimeng/simulator/baremetal/benchmarks/coremark/../../lib/xprintf.c:35
	if (xfunc_out) xfunc_out((unsigned char)c);
80000c08:	80004937          	lui	s2,0x80004
80000c0c:	0140006f          	jal	zero,80000c20 <xputs+0x3c>
/home/tututu/qimeng/simulator/baremetal/benchmarks/coremark/../../lib/xprintf.c:31
		*outptr++ = (unsigned char)c;
80000c10:	64e4a223          	sw	a4,1604(s1) # 80004644 <outptr>
80000c14:	00a78023          	sb	a0,0(a5)
xputs():
/home/tututu/qimeng/simulator/baremetal/benchmarks/coremark/../../lib/xprintf.c:47
	while (*str)
80000c18:	00044503          	lbu	a0,0(s0)
80000c1c:	02050463          	beq	a0,zero,80000c44 <xputs+0x60>
xputc():
/home/tututu/qimeng/simulator/baremetal/benchmarks/coremark/../../lib/xprintf.c:30
	if (outptr) {
80000c20:	6444a783          	lw	a5,1604(s1)
xputs():
/home/tututu/qimeng/simulator/baremetal/benchmarks/coremark/../../lib/xprintf.c:48
		xputc(*str++);
80000c24:	00140413          	addi	s0,s0,1
xputc():
/home/tututu/qimeng/simulator/baremetal/benchmarks/coremark/../../lib/xprintf.c:31
		*outptr++ = (unsigned char)c;
80000c28:	00178713          	addi	a4,a5,1
/home/tututu/qimeng/simulator/baremetal/benchmarks/coremark/../../lib/xprintf.c:30
	if (outptr) {
80000c2c:	fe0792e3          	bne	a5,zero,80000c10 <xputs+0x2c>
/home/tututu/qimeng/simulator/baremetal/benchmarks/coremark/../../lib/xprintf.c:35
	if (xfunc_out) xfunc_out((unsigned char)c);
80000c30:	64892783          	lw	a5,1608(s2) # 80004648 <xfunc_out>
80000c34:	fe0782e3          	beq	a5,zero,80000c18 <xputs+0x34>
80000c38:	000780e7          	jalr	ra,0(a5)
xputs():
/home/tututu/qimeng/simulator/baremetal/benchmarks/coremark/../../lib/xprintf.c:47
	while (*str)
80000c3c:	00044503          	lbu	a0,0(s0)
80000c40:	fe0510e3          	bne	a0,zero,80000c20 <xputs+0x3c>
/home/tututu/qimeng/simulator/baremetal/benchmarks/coremark/../../lib/xprintf.c:49
}
80000c44:	00c12083          	lw	ra,12(sp)
80000c48:	00812403          	lw	s0,8(sp)
80000c4c:	00412483          	lw	s1,4(sp)
80000c50:	00012903          	lw	s2,0(sp)
80000c54:	01010113          	addi	sp,sp,16
80000c58:	00008067          	jalr	zero,0(ra)

80000c5c <xprintf>:
xprintf():
/home/tututu/qimeng/simulator/baremetal/benchmarks/coremark/../../lib/xprintf.c:150

void xprintf (			/* Put a formatted string to the default device */
	const char*	fmt,	/* Pointer to the format string */
	...					/* Optional arguments */
)
{
80000c5c:	f7010113          	addi	sp,sp,-144
80000c60:	05512a23          	sw	s5,84(sp)
80000c64:	05812423          	sw	s8,72(sp)
80000c68:	06112623          	sw	ra,108(sp)
80000c6c:	06812423          	sw	s0,104(sp)
80000c70:	06912223          	sw	s1,100(sp)
80000c74:	07212023          	sw	s2,96(sp)
80000c78:	05312e23          	sw	s3,92(sp)
80000c7c:	05412c23          	sw	s4,88(sp)
80000c80:	05612823          	sw	s6,80(sp)
80000c84:	05712623          	sw	s7,76(sp)
80000c88:	05912223          	sw	s9,68(sp)
80000c8c:	05a12023          	sw	s10,64(sp)
80000c90:	03b12e23          	sw	s11,60(sp)
80000c94:	06b12a23          	sw	a1,116(sp)
80000c98:	06c12c23          	sw	a2,120(sp)
80000c9c:	06d12e23          	sw	a3,124(sp)
80000ca0:	08e12023          	sw	a4,128(sp)
80000ca4:	08f12223          	sw	a5,132(sp)
80000ca8:	09012423          	sw	a6,136(sp)
80000cac:	09112623          	sw	a7,140(sp)
80000cb0:	00050c13          	addi	s8,a0,0
xvprintf():
/home/tututu/qimeng/simulator/baremetal/benchmarks/coremark/../../lib/xprintf.c:81
		c = *fmt++;					/* Get a char */
80000cb4:	00054503          	lbu	a0,0(a0)
xprintf():
/home/tututu/qimeng/simulator/baremetal/benchmarks/coremark/../../lib/xprintf.c:154
	va_list arp;


	va_start(arp, fmt);
80000cb8:	07410a93          	addi	s5,sp,116
80000cbc:	01512e23          	sw	s5,28(sp)
/home/tututu/qimeng/simulator/baremetal/benchmarks/coremark/../../lib/xprintf.c:155
	xvprintf(fmt, arp);
80000cc0:	01512223          	sw	s5,4(sp)
xvprintf():
/home/tututu/qimeng/simulator/baremetal/benchmarks/coremark/../../lib/xprintf.c:82
		if (!c) break;				/* End of format? */
80000cc4:	10050263          	beq	a0,zero,80000dc8 <xprintf+0x16c>
/home/tututu/qimeng/simulator/baremetal/benchmarks/coremark/../../lib/xprintf.c:103
		switch (d) {				/* Type is... */
80000cc8:	800027b7          	lui	a5,0x80002
80000ccc:	9e078793          	addi	a5,a5,-1568 # 800019e0 <strcmp+0x570>
80000cd0:	001c0693          	addi	a3,s8,1
xputc():
/home/tututu/qimeng/simulator/baremetal/benchmarks/coremark/../../lib/xprintf.c:30
	if (outptr) {
80000cd4:	80004b37          	lui	s6,0x80004
/home/tututu/qimeng/simulator/baremetal/benchmarks/coremark/../../lib/xprintf.c:35
	if (xfunc_out) xfunc_out((unsigned char)c);
80000cd8:	800049b7          	lui	s3,0x80004
xvprintf():
/home/tututu/qimeng/simulator/baremetal/benchmarks/coremark/../../lib/xprintf.c:103
		switch (d) {				/* Type is... */
80000cdc:	00f12623          	sw	a5,12(sp)
/home/tututu/qimeng/simulator/baremetal/benchmarks/coremark/../../lib/xprintf.c:121
			r = 16; break;
80000ce0:	01000a13          	addi	s4,zero,16
80000ce4:	02010913          	addi	s2,sp,32
80000ce8:	0280006f          	jal	zero,80000d10 <xprintf+0xb4>
xputc():
/home/tututu/qimeng/simulator/baremetal/benchmarks/coremark/../../lib/xprintf.c:30
	if (outptr) {
80000cec:	644b2783          	lw	a5,1604(s6) # 80004644 <outptr>
80000cf0:	4a078663          	beq	a5,zero,8000119c <xprintf+0x540>
/home/tututu/qimeng/simulator/baremetal/benchmarks/coremark/../../lib/xprintf.c:31
		*outptr++ = (unsigned char)c;
80000cf4:	00178613          	addi	a2,a5,1
80000cf8:	64cb2223          	sw	a2,1604(s6)
80000cfc:	00a78023          	sb	a0,0(a5)
/home/tututu/qimeng/simulator/baremetal/benchmarks/coremark/../../lib/xprintf.c:32
		return;
80000d00:	00068c13          	addi	s8,a3,0
xvprintf():
/home/tututu/qimeng/simulator/baremetal/benchmarks/coremark/../../lib/xprintf.c:81
		c = *fmt++;					/* Get a char */
80000d04:	000c4503          	lbu	a0,0(s8)
80000d08:	001c0693          	addi	a3,s8,1
/home/tututu/qimeng/simulator/baremetal/benchmarks/coremark/../../lib/xprintf.c:82
		if (!c) break;				/* End of format? */
80000d0c:	0a050e63          	beq	a0,zero,80000dc8 <xprintf+0x16c>
/home/tututu/qimeng/simulator/baremetal/benchmarks/coremark/../../lib/xprintf.c:83
		if (c != '%') {				/* Pass through it if not a % sequense */
80000d10:	02500793          	addi	a5,zero,37
80000d14:	fcf51ce3          	bne	a0,a5,80000cec <xprintf+0x90>
/home/tututu/qimeng/simulator/baremetal/benchmarks/coremark/../../lib/xprintf.c:87
		c = *fmt++;					/* Get first char of the sequense */
80000d18:	001c4503          	lbu	a0,1(s8)
/home/tututu/qimeng/simulator/baremetal/benchmarks/coremark/../../lib/xprintf.c:88
		if (c == '0') {				/* Flag: '0' padded */
80000d1c:	03000793          	addi	a5,zero,48
80000d20:	48f50863          	beq	a0,a5,800011b0 <xprintf+0x554>
/home/tututu/qimeng/simulator/baremetal/benchmarks/coremark/../../lib/xprintf.c:91
			if (c == '-') {			/* Flag: left justified */
80000d24:	02d00793          	addi	a5,zero,45
80000d28:	48f50c63          	beq	a0,a5,800011c0 <xprintf+0x564>
/home/tututu/qimeng/simulator/baremetal/benchmarks/coremark/../../lib/xprintf.c:87
		c = *fmt++;					/* Get first char of the sequense */
80000d2c:	002c0c13          	addi	s8,s8,2
/home/tututu/qimeng/simulator/baremetal/benchmarks/coremark/../../lib/xprintf.c:86
		f = 0;
80000d30:	00000b93          	addi	s7,zero,0
/home/tututu/qimeng/simulator/baremetal/benchmarks/coremark/../../lib/xprintf.c:95
		for (w = 0; c >= '0' && c <= '9'; c = *fmt++)	/* Minimum width */
80000d34:	fd050793          	addi	a5,a0,-48
80000d38:	0ff7f793          	andi	a5,a5,255
80000d3c:	00900693          	addi	a3,zero,9
80000d40:	00000493          	addi	s1,zero,0
80000d44:	02f6e663          	bltu	a3,a5,80000d70 <xprintf+0x114>
/home/tututu/qimeng/simulator/baremetal/benchmarks/coremark/../../lib/xprintf.c:96
			w = w * 10 + c - '0';
80000d48:	00249793          	slli	a5,s1,0x2
80000d4c:	009787b3          	add	a5,a5,s1
80000d50:	00179793          	slli	a5,a5,0x1
/home/tututu/qimeng/simulator/baremetal/benchmarks/coremark/../../lib/xprintf.c:95
		for (w = 0; c >= '0' && c <= '9'; c = *fmt++)	/* Minimum width */
80000d54:	001c0c13          	addi	s8,s8,1
/home/tututu/qimeng/simulator/baremetal/benchmarks/coremark/../../lib/xprintf.c:96
			w = w * 10 + c - '0';
80000d58:	00a787b3          	add	a5,a5,a0
/home/tututu/qimeng/simulator/baremetal/benchmarks/coremark/../../lib/xprintf.c:95
		for (w = 0; c >= '0' && c <= '9'; c = *fmt++)	/* Minimum width */
80000d5c:	fffc4503          	lbu	a0,-1(s8)
/home/tututu/qimeng/simulator/baremetal/benchmarks/coremark/../../lib/xprintf.c:96
			w = w * 10 + c - '0';
80000d60:	fd078493          	addi	s1,a5,-48
/home/tututu/qimeng/simulator/baremetal/benchmarks/coremark/../../lib/xprintf.c:95
		for (w = 0; c >= '0' && c <= '9'; c = *fmt++)	/* Minimum width */
80000d64:	fd050793          	addi	a5,a0,-48
80000d68:	0ff7f793          	andi	a5,a5,255
80000d6c:	fcf6fee3          	bgeu	a3,a5,80000d48 <xprintf+0xec>
/home/tututu/qimeng/simulator/baremetal/benchmarks/coremark/../../lib/xprintf.c:97
		if (c == 'l' || c == 'L') {	/* Prefix: Size is long int */
80000d70:	0df57793          	andi	a5,a0,223
80000d74:	04c00693          	addi	a3,zero,76
80000d78:	04d78063          	beq	a5,a3,80000db8 <xprintf+0x15c>
/home/tututu/qimeng/simulator/baremetal/benchmarks/coremark/../../lib/xprintf.c:100
		if (!c) break;				/* End of format? */
80000d7c:	04050663          	beq	a0,zero,80000dc8 <xprintf+0x16c>
/home/tututu/qimeng/simulator/baremetal/benchmarks/coremark/../../lib/xprintf.c:102
		if (d >= 'a') d -= 0x20;
80000d80:	06000793          	addi	a5,zero,96
80000d84:	00050613          	addi	a2,a0,0
80000d88:	00a7f663          	bgeu	a5,a0,80000d94 <xprintf+0x138>
80000d8c:	fe050613          	addi	a2,a0,-32
80000d90:	0ff67613          	andi	a2,a2,255
/home/tututu/qimeng/simulator/baremetal/benchmarks/coremark/../../lib/xprintf.c:103
		switch (d) {				/* Type is... */
80000d94:	fbe60793          	addi	a5,a2,-66
80000d98:	0ff7f793          	andi	a5,a5,255
80000d9c:	01600693          	addi	a3,zero,22
80000da0:	06f6e263          	bltu	a3,a5,80000e04 <xprintf+0x1a8>
80000da4:	00c12703          	lw	a4,12(sp)
80000da8:	00279793          	slli	a5,a5,0x2
80000dac:	00e787b3          	add	a5,a5,a4
80000db0:	0007a783          	lw	a5,0(a5)
80000db4:	00078067          	jalr	zero,0(a5)
/home/tututu/qimeng/simulator/baremetal/benchmarks/coremark/../../lib/xprintf.c:98
			f |= 4; c = *fmt++;
80000db8:	000c4503          	lbu	a0,0(s8)
80000dbc:	004beb93          	ori	s7,s7,4
80000dc0:	001c0c13          	addi	s8,s8,1
/home/tututu/qimeng/simulator/baremetal/benchmarks/coremark/../../lib/xprintf.c:100
		if (!c) break;				/* End of format? */
80000dc4:	fa051ee3          	bne	a0,zero,80000d80 <xprintf+0x124>
xprintf():
/home/tututu/qimeng/simulator/baremetal/benchmarks/coremark/../../lib/xprintf.c:157
	va_end(arp);
}
80000dc8:	06c12083          	lw	ra,108(sp)
80000dcc:	06812403          	lw	s0,104(sp)
80000dd0:	06412483          	lw	s1,100(sp)
80000dd4:	06012903          	lw	s2,96(sp)
80000dd8:	05c12983          	lw	s3,92(sp)
80000ddc:	05812a03          	lw	s4,88(sp)
80000de0:	05412a83          	lw	s5,84(sp)
80000de4:	05012b03          	lw	s6,80(sp)
80000de8:	04c12b83          	lw	s7,76(sp)
80000dec:	04812c03          	lw	s8,72(sp)
80000df0:	04412c83          	lw	s9,68(sp)
80000df4:	04012d03          	lw	s10,64(sp)
80000df8:	03c12d83          	lw	s11,60(sp)
80000dfc:	09010113          	addi	sp,sp,144
80000e00:	00008067          	jalr	zero,0(ra)
xputc():
/home/tututu/qimeng/simulator/baremetal/benchmarks/coremark/../../lib/xprintf.c:30
	if (outptr) {
80000e04:	644b2783          	lw	a5,1604(s6)
80000e08:	3c078c63          	beq	a5,zero,800011e0 <xprintf+0x584>
/home/tututu/qimeng/simulator/baremetal/benchmarks/coremark/../../lib/xprintf.c:31
		*outptr++ = (unsigned char)c;
80000e0c:	00178693          	addi	a3,a5,1
80000e10:	64db2223          	sw	a3,1604(s6)
80000e14:	00a78023          	sb	a0,0(a5)
/home/tututu/qimeng/simulator/baremetal/benchmarks/coremark/../../lib/xprintf.c:32
		return;
80000e18:	eedff06f          	jal	zero,80000d04 <xprintf+0xa8>
xvprintf():
/home/tututu/qimeng/simulator/baremetal/benchmarks/coremark/../../lib/xprintf.c:127
		v = (f & 4) ? va_arg(arp, long) : ((d == 'D') ? (long)va_arg(arp, int) : (long)va_arg(arp, unsigned int));
80000e1c:	004bf793          	andi	a5,s7,4
80000e20:	3e078463          	beq	a5,zero,80001208 <xprintf+0x5ac>
80000e24:	00412783          	lw	a5,4(sp)
/home/tututu/qimeng/simulator/baremetal/benchmarks/coremark/../../lib/xprintf.c:128
		if (d == 'D' && (v & 0x80000000)) {
80000e28:	04400593          	addi	a1,zero,68
/home/tututu/qimeng/simulator/baremetal/benchmarks/coremark/../../lib/xprintf.c:127
		v = (f & 4) ? va_arg(arp, long) : ((d == 'D') ? (long)va_arg(arp, int) : (long)va_arg(arp, unsigned int));
80000e2c:	0007aa83          	lw	s5,0(a5)
80000e30:	00478793          	addi	a5,a5,4
80000e34:	00f12223          	sw	a5,4(sp)
80000e38:	000a8793          	addi	a5,s5,0
/home/tututu/qimeng/simulator/baremetal/benchmarks/coremark/../../lib/xprintf.c:128
		if (d == 'D' && (v & 0x80000000)) {
80000e3c:	44b61263          	bne	a2,a1,80001280 <xprintf+0x624>
80000e40:	00012423          	sw	zero,8(sp)
80000e44:	00a00d13          	addi	s10,zero,10
80000e48:	1607de63          	bge	a5,zero,80000fc4 <xprintf+0x368>
/home/tututu/qimeng/simulator/baremetal/benchmarks/coremark/../../lib/xprintf.c:130
			f |= 8;
80000e4c:	00800793          	addi	a5,zero,8
/home/tututu/qimeng/simulator/baremetal/benchmarks/coremark/../../lib/xprintf.c:129
			v = 0 - v;
80000e50:	41500ab3          	sub	s5,zero,s5
/home/tututu/qimeng/simulator/baremetal/benchmarks/coremark/../../lib/xprintf.c:130
			f |= 8;
80000e54:	008beb93          	ori	s7,s7,8
80000e58:	00f12423          	sw	a5,8(sp)
80000e5c:	1680006f          	jal	zero,80000fc4 <xprintf+0x368>
/home/tututu/qimeng/simulator/baremetal/benchmarks/coremark/../../lib/xprintf.c:112
			xputc((char)va_arg(arp, int)); continue;
80000e60:	00412703          	lw	a4,4(sp)
xputc():
/home/tututu/qimeng/simulator/baremetal/benchmarks/coremark/../../lib/xprintf.c:30
	if (outptr) {
80000e64:	644b2783          	lw	a5,1604(s6)
xvprintf():
/home/tututu/qimeng/simulator/baremetal/benchmarks/coremark/../../lib/xprintf.c:112
			xputc((char)va_arg(arp, int)); continue;
80000e68:	00074503          	lbu	a0,0(a4)
80000e6c:	00470a93          	addi	s5,a4,4
xputc():
/home/tututu/qimeng/simulator/baremetal/benchmarks/coremark/../../lib/xprintf.c:30
	if (outptr) {
80000e70:	36078063          	beq	a5,zero,800011d0 <xprintf+0x574>
/home/tututu/qimeng/simulator/baremetal/benchmarks/coremark/../../lib/xprintf.c:31
		*outptr++ = (unsigned char)c;
80000e74:	00178693          	addi	a3,a5,1
80000e78:	64db2223          	sw	a3,1604(s6)
80000e7c:	00a78023          	sb	a0,0(a5)
xvprintf():
/home/tututu/qimeng/simulator/baremetal/benchmarks/coremark/../../lib/xprintf.c:112
			xputc((char)va_arg(arp, int)); continue;
80000e80:	01512223          	sw	s5,4(sp)
xputc():
/home/tututu/qimeng/simulator/baremetal/benchmarks/coremark/../../lib/xprintf.c:32
		return;
80000e84:	e81ff06f          	jal	zero,80000d04 <xprintf+0xa8>
xvprintf():
/home/tututu/qimeng/simulator/baremetal/benchmarks/coremark/../../lib/xprintf.c:105
			p = va_arg(arp, char*);
80000e88:	00412783          	lw	a5,4(sp)
/home/tututu/qimeng/simulator/baremetal/benchmarks/coremark/../../lib/xprintf.c:107
			while (!(f & 2) && j++ < w) xputc(' ');
80000e8c:	002bfb93          	andi	s7,s7,2
/home/tututu/qimeng/simulator/baremetal/benchmarks/coremark/../../lib/xprintf.c:105
			p = va_arg(arp, char*);
80000e90:	0007a403          	lw	s0,0(a5)
80000e94:	00478a93          	addi	s5,a5,4
/home/tututu/qimeng/simulator/baremetal/benchmarks/coremark/../../lib/xprintf.c:106
			for (j = 0; p[j]; j++) ;
80000e98:	00044503          	lbu	a0,0(s0)
80000e9c:	3a050c63          	beq	a0,zero,80001254 <xprintf+0x5f8>
80000ea0:	00000693          	addi	a3,zero,0
80000ea4:	00068793          	addi	a5,a3,0
80000ea8:	00168693          	addi	a3,a3,1
80000eac:	00d40633          	add	a2,s0,a3
80000eb0:	00064603          	lbu	a2,0(a2)
80000eb4:	fe0618e3          	bne	a2,zero,80000ea4 <xprintf+0x248>
/home/tututu/qimeng/simulator/baremetal/benchmarks/coremark/../../lib/xprintf.c:107
			while (!(f & 2) && j++ < w) xputc(' ');
80000eb8:	00278c93          	addi	s9,a5,2
80000ebc:	3a0b9663          	bne	s7,zero,80001268 <xprintf+0x60c>
80000ec0:	00378b93          	addi	s7,a5,3
80000ec4:	0c96f263          	bgeu	a3,s1,80000f88 <xprintf+0x32c>
80000ec8:	000c8b93          	addi	s7,s9,0
80000ecc:	0200006f          	jal	zero,80000eec <xprintf+0x290>
xputc():
/home/tututu/qimeng/simulator/baremetal/benchmarks/coremark/../../lib/xprintf.c:31
		*outptr++ = (unsigned char)c;
80000ed0:	00178693          	addi	a3,a5,1
80000ed4:	64db2223          	sw	a3,1604(s6)
80000ed8:	02000693          	addi	a3,zero,32
80000edc:	00d78023          	sb	a3,0(a5)
xvprintf():
/home/tututu/qimeng/simulator/baremetal/benchmarks/coremark/../../lib/xprintf.c:107
			while (!(f & 2) && j++ < w) xputc(' ');
80000ee0:	001b8793          	addi	a5,s7,1
80000ee4:	029bf463          	bgeu	s7,s1,80000f0c <xprintf+0x2b0>
80000ee8:	00078b93          	addi	s7,a5,0
xputc():
/home/tututu/qimeng/simulator/baremetal/benchmarks/coremark/../../lib/xprintf.c:30
	if (outptr) {
80000eec:	644b2783          	lw	a5,1604(s6)
80000ef0:	fe0790e3          	bne	a5,zero,80000ed0 <xprintf+0x274>
/home/tututu/qimeng/simulator/baremetal/benchmarks/coremark/../../lib/xprintf.c:35
	if (xfunc_out) xfunc_out((unsigned char)c);
80000ef4:	6489a783          	lw	a5,1608(s3) # 80004648 <xfunc_out>
80000ef8:	fe0784e3          	beq	a5,zero,80000ee0 <xprintf+0x284>
80000efc:	02000513          	addi	a0,zero,32
80000f00:	000780e7          	jalr	ra,0(a5)
xvprintf():
/home/tututu/qimeng/simulator/baremetal/benchmarks/coremark/../../lib/xprintf.c:107
			while (!(f & 2) && j++ < w) xputc(' ');
80000f04:	001b8793          	addi	a5,s7,1
80000f08:	fe9be0e3          	bltu	s7,s1,80000ee8 <xprintf+0x28c>
80000f0c:	00000793          	addi	a5,zero,0
80000f10:	2d94fe63          	bgeu	s1,s9,800011ec <xprintf+0x590>
xputs():
/home/tututu/qimeng/simulator/baremetal/benchmarks/coremark/../../lib/xprintf.c:47
	while (*str)
80000f14:	00044503          	lbu	a0,0(s0)
xvprintf():
/home/tututu/qimeng/simulator/baremetal/benchmarks/coremark/../../lib/xprintf.c:107
			while (!(f & 2) && j++ < w) xputc(' ');
80000f18:	001c8c93          	addi	s9,s9,1
80000f1c:	01978cb3          	add	s9,a5,s9
/home/tututu/qimeng/simulator/baremetal/benchmarks/coremark/../../lib/xprintf.c:109
			while (j++ < w) xputc(' ');
80000f20:	001c8b93          	addi	s7,s9,1
xputs():
/home/tututu/qimeng/simulator/baremetal/benchmarks/coremark/../../lib/xprintf.c:47
	while (*str)
80000f24:	06051263          	bne	a0,zero,80000f88 <xprintf+0x32c>
xvprintf():
/home/tututu/qimeng/simulator/baremetal/benchmarks/coremark/../../lib/xprintf.c:109
			while (j++ < w) xputc(' ');
80000f28:	029ce263          	bltu	s9,s1,80000f4c <xprintf+0x2f0>
80000f2c:	0400006f          	jal	zero,80000f6c <xprintf+0x310>
xputc():
/home/tututu/qimeng/simulator/baremetal/benchmarks/coremark/../../lib/xprintf.c:31
		*outptr++ = (unsigned char)c;
80000f30:	00178693          	addi	a3,a5,1
80000f34:	64db2223          	sw	a3,1604(s6)
80000f38:	02000693          	addi	a3,zero,32
80000f3c:	00d78023          	sb	a3,0(a5)
xvprintf():
/home/tututu/qimeng/simulator/baremetal/benchmarks/coremark/../../lib/xprintf.c:109
			while (j++ < w) xputc(' ');
80000f40:	001b8793          	addi	a5,s7,1
80000f44:	029bf463          	bgeu	s7,s1,80000f6c <xprintf+0x310>
80000f48:	00078b93          	addi	s7,a5,0
xputc():
/home/tututu/qimeng/simulator/baremetal/benchmarks/coremark/../../lib/xprintf.c:30
	if (outptr) {
80000f4c:	644b2783          	lw	a5,1604(s6)
80000f50:	fe0790e3          	bne	a5,zero,80000f30 <xprintf+0x2d4>
/home/tututu/qimeng/simulator/baremetal/benchmarks/coremark/../../lib/xprintf.c:35
	if (xfunc_out) xfunc_out((unsigned char)c);
80000f54:	6489a783          	lw	a5,1608(s3)
80000f58:	fe0784e3          	beq	a5,zero,80000f40 <xprintf+0x2e4>
80000f5c:	02000513          	addi	a0,zero,32
80000f60:	000780e7          	jalr	ra,0(a5)
xvprintf():
/home/tututu/qimeng/simulator/baremetal/benchmarks/coremark/../../lib/xprintf.c:109
			while (j++ < w) xputc(' ');
80000f64:	001b8793          	addi	a5,s7,1
80000f68:	fe9be0e3          	bltu	s7,s1,80000f48 <xprintf+0x2ec>
/home/tututu/qimeng/simulator/baremetal/benchmarks/coremark/../../lib/xprintf.c:105
			p = va_arg(arp, char*);
80000f6c:	01512223          	sw	s5,4(sp)
80000f70:	d95ff06f          	jal	zero,80000d04 <xprintf+0xa8>
xputc():
/home/tututu/qimeng/simulator/baremetal/benchmarks/coremark/../../lib/xprintf.c:31
		*outptr++ = (unsigned char)c;
80000f74:	00178693          	addi	a3,a5,1
80000f78:	64db2223          	sw	a3,1604(s6)
80000f7c:	00a78023          	sb	a0,0(a5)
xputs():
/home/tututu/qimeng/simulator/baremetal/benchmarks/coremark/../../lib/xprintf.c:47
	while (*str)
80000f80:	00044503          	lbu	a0,0(s0)
80000f84:	fa0502e3          	beq	a0,zero,80000f28 <xprintf+0x2cc>
xputc():
/home/tututu/qimeng/simulator/baremetal/benchmarks/coremark/../../lib/xprintf.c:30
	if (outptr) {
80000f88:	644b2783          	lw	a5,1604(s6)
xputs():
/home/tututu/qimeng/simulator/baremetal/benchmarks/coremark/../../lib/xprintf.c:48
		xputc(*str++);
80000f8c:	00140413          	addi	s0,s0,1
xputc():
/home/tututu/qimeng/simulator/baremetal/benchmarks/coremark/../../lib/xprintf.c:30
	if (outptr) {
80000f90:	fe0792e3          	bne	a5,zero,80000f74 <xprintf+0x318>
/home/tututu/qimeng/simulator/baremetal/benchmarks/coremark/../../lib/xprintf.c:35
	if (xfunc_out) xfunc_out((unsigned char)c);
80000f94:	6489a783          	lw	a5,1608(s3)
80000f98:	fe0784e3          	beq	a5,zero,80000f80 <xprintf+0x324>
80000f9c:	000780e7          	jalr	ra,0(a5)
80000fa0:	fe1ff06f          	jal	zero,80000f80 <xprintf+0x324>
xvprintf():
/home/tututu/qimeng/simulator/baremetal/benchmarks/coremark/../../lib/xprintf.c:127
		v = (f & 4) ? va_arg(arp, long) : ((d == 'D') ? (long)va_arg(arp, int) : (long)va_arg(arp, unsigned int));
80000fa4:	004bf793          	andi	a5,s7,4
/home/tututu/qimeng/simulator/baremetal/benchmarks/coremark/../../lib/xprintf.c:116
			r = 8; break;
80000fa8:	00800d13          	addi	s10,zero,8
/home/tututu/qimeng/simulator/baremetal/benchmarks/coremark/../../lib/xprintf.c:127
		v = (f & 4) ? va_arg(arp, long) : ((d == 'D') ? (long)va_arg(arp, int) : (long)va_arg(arp, unsigned int));
80000fac:	26079e63          	bne	a5,zero,80001228 <xprintf+0x5cc>
80000fb0:	00412783          	lw	a5,4(sp)
80000fb4:	00012423          	sw	zero,8(sp)
80000fb8:	0007aa83          	lw	s5,0(a5)
80000fbc:	00478793          	addi	a5,a5,4
80000fc0:	00f12223          	sw	a5,4(sp)
/home/tututu/qimeng/simulator/baremetal/benchmarks/coremark/../../lib/xprintf.c:132
		i = 0;
80000fc4:	07800793          	addi	a5,zero,120
80000fc8:	00700d93          	addi	s11,zero,7
80000fcc:	00f51463          	bne	a0,a5,80000fd4 <xprintf+0x378>
80000fd0:	02700d93          	addi	s11,zero,39
80000fd4:	0ffdf793          	andi	a5,s11,255
80000fd8:	00f12023          	sw	a5,0(sp)
80000fdc:	00000d93          	addi	s11,zero,0
/home/tututu/qimeng/simulator/baremetal/benchmarks/coremark/../../lib/xprintf.c:135
			if (d > 9) d += (c == 'x') ? 0x27 : 0x07;
80000fe0:	00900c93          	addi	s9,zero,9
80000fe4:	0080006f          	jal	zero,80000fec <xprintf+0x390>
80000fe8:	00040d93          	addi	s11,s0,0
/home/tututu/qimeng/simulator/baremetal/benchmarks/coremark/../../lib/xprintf.c:134
			d = (char)(v % r); v /= r;
80000fec:	000d0593          	addi	a1,s10,0
80000ff0:	000a8513          	addi	a0,s5,0
80000ff4:	2f0000ef          	jal	ra,800012e4 <__umodsi3>
80000ff8:	00050413          	addi	s0,a0,0
80000ffc:	000d0593          	addi	a1,s10,0
80001000:	000a8513          	addi	a0,s5,0
80001004:	298000ef          	jal	ra,8000129c <__hidden___udivsi3>
80001008:	000a8813          	addi	a6,s5,0
8000100c:	0ff47793          	andi	a5,s0,255
80001010:	00050a93          	addi	s5,a0,0
/home/tututu/qimeng/simulator/baremetal/benchmarks/coremark/../../lib/xprintf.c:135
			if (d > 9) d += (c == 'x') ? 0x27 : 0x07;
80001014:	008cf863          	bgeu	s9,s0,80001024 <xprintf+0x3c8>
80001018:	00012703          	lw	a4,0(sp)
8000101c:	00e787b3          	add	a5,a5,a4
80001020:	0ff7f793          	andi	a5,a5,255
/home/tututu/qimeng/simulator/baremetal/benchmarks/coremark/../../lib/xprintf.c:136
			s[i++] = d + '0';
80001024:	001d8413          	addi	s0,s11,1
80001028:	00890533          	add	a0,s2,s0
8000102c:	03078793          	addi	a5,a5,48
80001030:	fef50fa3          	sb	a5,-1(a0)
/home/tututu/qimeng/simulator/baremetal/benchmarks/coremark/../../lib/xprintf.c:137
		} while (v && i < sizeof(s));
80001034:	01a86663          	bltu	a6,s10,80001040 <xprintf+0x3e4>
80001038:	fb4418e3          	bne	s0,s4,80000fe8 <xprintf+0x38c>
8000103c:	00f00d93          	addi	s11,zero,15
/home/tututu/qimeng/simulator/baremetal/benchmarks/coremark/../../lib/xprintf.c:138
		if (f & 8) s[i++] = '-';
80001040:	00812783          	lw	a5,8(sp)
80001044:	00078e63          	beq	a5,zero,80001060 <xprintf+0x404>
80001048:	02040793          	addi	a5,s0,32
8000104c:	01010713          	addi	a4,sp,16
80001050:	00e78433          	add	s0,a5,a4
80001054:	02d00793          	addi	a5,zero,45
80001058:	fef40823          	sb	a5,-16(s0)
8000105c:	002d8413          	addi	s0,s11,2
/home/tututu/qimeng/simulator/baremetal/benchmarks/coremark/../../lib/xprintf.c:139
		j = i; d = (f & 1) ? '0' : ' ';
80001060:	001bfd13          	andi	s10,s7,1
80001064:	004d1d13          	slli	s10,s10,0x4
/home/tututu/qimeng/simulator/baremetal/benchmarks/coremark/../../lib/xprintf.c:140
		while (!(f & 2) && j++ < w) xputc(d);
80001068:	002bfb93          	andi	s7,s7,2
xputc():
/home/tututu/qimeng/simulator/baremetal/benchmarks/coremark/../../lib/xprintf.c:30
	if (outptr) {
8000106c:	644b2783          	lw	a5,1604(s6)
xvprintf():
/home/tututu/qimeng/simulator/baremetal/benchmarks/coremark/../../lib/xprintf.c:139
		j = i; d = (f & 1) ? '0' : ' ';
80001070:	020d0d13          	addi	s10,s10,32
/home/tututu/qimeng/simulator/baremetal/benchmarks/coremark/../../lib/xprintf.c:140
		while (!(f & 2) && j++ < w) xputc(d);
80001074:	00140c93          	addi	s9,s0,1
80001078:	1c0b9663          	bne	s7,zero,80001244 <xprintf+0x5e8>
8000107c:	1c947863          	bgeu	s0,s1,8000124c <xprintf+0x5f0>
80001080:	00148b93          	addi	s7,s1,1
xputc():
/home/tututu/qimeng/simulator/baremetal/benchmarks/coremark/../../lib/xprintf.c:30
	if (outptr) {
80001084:	0a078663          	beq	a5,zero,80001130 <xprintf+0x4d4>
/home/tututu/qimeng/simulator/baremetal/benchmarks/coremark/../../lib/xprintf.c:31
		*outptr++ = (unsigned char)c;
80001088:	00178613          	addi	a2,a5,1
8000108c:	01a78023          	sb	s10,0(a5)
80001090:	64cb2223          	sw	a2,1604(s6)
/home/tututu/qimeng/simulator/baremetal/benchmarks/coremark/../../lib/xprintf.c:32
		return;
80001094:	000c8693          	addi	a3,s9,0
80001098:	00060793          	addi	a5,a2,0
xvprintf():
/home/tututu/qimeng/simulator/baremetal/benchmarks/coremark/../../lib/xprintf.c:140
		while (!(f & 2) && j++ < w) xputc(d);
8000109c:	001c8c93          	addi	s9,s9,1
800010a0:	fe9692e3          	bne	a3,s1,80001084 <xprintf+0x428>
800010a4:	00890433          	add	s0,s2,s0
800010a8:	01c0006f          	jal	zero,800010c4 <xprintf+0x468>
xputc():
/home/tututu/qimeng/simulator/baremetal/benchmarks/coremark/../../lib/xprintf.c:31
		*outptr++ = (unsigned char)c;
800010ac:	00178693          	addi	a3,a5,1
800010b0:	64db2223          	sw	a3,1604(s6)
800010b4:	00a78023          	sb	a0,0(a5)
xvprintf():
/home/tututu/qimeng/simulator/baremetal/benchmarks/coremark/../../lib/xprintf.c:141
		do xputc(s[--i]); while(i);
800010b8:	fff40413          	addi	s0,s0,-1
800010bc:	02890263          	beq	s2,s0,800010e0 <xprintf+0x484>
xputc():
/home/tututu/qimeng/simulator/baremetal/benchmarks/coremark/../../lib/xprintf.c:30
	if (outptr) {
800010c0:	644b2783          	lw	a5,1604(s6)
xvprintf():
/home/tututu/qimeng/simulator/baremetal/benchmarks/coremark/../../lib/xprintf.c:141
		do xputc(s[--i]); while(i);
800010c4:	fff44503          	lbu	a0,-1(s0)
xputc():
/home/tututu/qimeng/simulator/baremetal/benchmarks/coremark/../../lib/xprintf.c:30
	if (outptr) {
800010c8:	fe0792e3          	bne	a5,zero,800010ac <xprintf+0x450>
/home/tututu/qimeng/simulator/baremetal/benchmarks/coremark/../../lib/xprintf.c:35
	if (xfunc_out) xfunc_out((unsigned char)c);
800010cc:	6489a783          	lw	a5,1608(s3)
800010d0:	fe0784e3          	beq	a5,zero,800010b8 <xprintf+0x45c>
xvprintf():
/home/tututu/qimeng/simulator/baremetal/benchmarks/coremark/../../lib/xprintf.c:141
		do xputc(s[--i]); while(i);
800010d4:	fff40413          	addi	s0,s0,-1
xputc():
/home/tututu/qimeng/simulator/baremetal/benchmarks/coremark/../../lib/xprintf.c:35
	if (xfunc_out) xfunc_out((unsigned char)c);
800010d8:	000780e7          	jalr	ra,0(a5)
xvprintf():
/home/tututu/qimeng/simulator/baremetal/benchmarks/coremark/../../lib/xprintf.c:141
		do xputc(s[--i]); while(i);
800010dc:	fe8912e3          	bne	s2,s0,800010c0 <xprintf+0x464>
/home/tututu/qimeng/simulator/baremetal/benchmarks/coremark/../../lib/xprintf.c:142
		while (j++ < w) xputc(' ');
800010e0:	001b8413          	addi	s0,s7,1
800010e4:	029be263          	bltu	s7,s1,80001108 <xprintf+0x4ac>
800010e8:	c1dff06f          	jal	zero,80000d04 <xprintf+0xa8>
xputc():
/home/tututu/qimeng/simulator/baremetal/benchmarks/coremark/../../lib/xprintf.c:31
		*outptr++ = (unsigned char)c;
800010ec:	00178693          	addi	a3,a5,1
800010f0:	64db2223          	sw	a3,1604(s6)
800010f4:	02000693          	addi	a3,zero,32
800010f8:	00d78023          	sb	a3,0(a5)
xvprintf():
/home/tututu/qimeng/simulator/baremetal/benchmarks/coremark/../../lib/xprintf.c:142
		while (j++ < w) xputc(' ');
800010fc:	00140793          	addi	a5,s0,1
80001100:	c08482e3          	beq	s1,s0,80000d04 <xprintf+0xa8>
80001104:	00078413          	addi	s0,a5,0
xputc():
/home/tututu/qimeng/simulator/baremetal/benchmarks/coremark/../../lib/xprintf.c:30
	if (outptr) {
80001108:	644b2783          	lw	a5,1604(s6)
8000110c:	fe0790e3          	bne	a5,zero,800010ec <xprintf+0x490>
/home/tututu/qimeng/simulator/baremetal/benchmarks/coremark/../../lib/xprintf.c:35
	if (xfunc_out) xfunc_out((unsigned char)c);
80001110:	6489a783          	lw	a5,1608(s3)
80001114:	fe0784e3          	beq	a5,zero,800010fc <xprintf+0x4a0>
80001118:	02000513          	addi	a0,zero,32
8000111c:	000780e7          	jalr	ra,0(a5)
80001120:	fddff06f          	jal	zero,800010fc <xprintf+0x4a0>
xvprintf():
/home/tututu/qimeng/simulator/baremetal/benchmarks/coremark/../../lib/xprintf.c:140
		while (!(f & 2) && j++ < w) xputc(d);
80001124:	001c8693          	addi	a3,s9,1
80001128:	f69c8ee3          	beq	s9,s1,800010a4 <xprintf+0x448>
8000112c:	00068c93          	addi	s9,a3,0
xputc():
/home/tututu/qimeng/simulator/baremetal/benchmarks/coremark/../../lib/xprintf.c:35
	if (xfunc_out) xfunc_out((unsigned char)c);
80001130:	6489a683          	lw	a3,1608(s3)
80001134:	fe0688e3          	beq	a3,zero,80001124 <xprintf+0x4c8>
80001138:	000d0513          	addi	a0,s10,0
8000113c:	000680e7          	jalr	ra,0(a3)
/home/tututu/qimeng/simulator/baremetal/benchmarks/coremark/../../lib/xprintf.c:30
	if (outptr) {
80001140:	644b2783          	lw	a5,1604(s6)
80001144:	000c8693          	addi	a3,s9,0
80001148:	f55ff06f          	jal	zero,8000109c <xprintf+0x440>
xvprintf():
/home/tututu/qimeng/simulator/baremetal/benchmarks/coremark/../../lib/xprintf.c:127
		v = (f & 4) ? va_arg(arp, long) : ((d == 'D') ? (long)va_arg(arp, int) : (long)va_arg(arp, unsigned int));
8000114c:	004bf793          	andi	a5,s7,4
/home/tututu/qimeng/simulator/baremetal/benchmarks/coremark/../../lib/xprintf.c:121
			r = 16; break;
80001150:	01000d13          	addi	s10,zero,16
/home/tututu/qimeng/simulator/baremetal/benchmarks/coremark/../../lib/xprintf.c:127
		v = (f & 4) ? va_arg(arp, long) : ((d == 'D') ? (long)va_arg(arp, int) : (long)va_arg(arp, unsigned int));
80001154:	e4078ee3          	beq	a5,zero,80000fb0 <xprintf+0x354>
80001158:	00412783          	lw	a5,4(sp)
8000115c:	00012423          	sw	zero,8(sp)
/home/tututu/qimeng/simulator/baremetal/benchmarks/coremark/../../lib/xprintf.c:121
			r = 16; break;
80001160:	01000d13          	addi	s10,zero,16
/home/tututu/qimeng/simulator/baremetal/benchmarks/coremark/../../lib/xprintf.c:127
		v = (f & 4) ? va_arg(arp, long) : ((d == 'D') ? (long)va_arg(arp, int) : (long)va_arg(arp, unsigned int));
80001164:	0007aa83          	lw	s5,0(a5)
80001168:	00478793          	addi	a5,a5,4
8000116c:	00f12223          	sw	a5,4(sp)
80001170:	e55ff06f          	jal	zero,80000fc4 <xprintf+0x368>
80001174:	004bf793          	andi	a5,s7,4
/home/tututu/qimeng/simulator/baremetal/benchmarks/coremark/../../lib/xprintf.c:114
			r = 2; break;
80001178:	00200d13          	addi	s10,zero,2
/home/tututu/qimeng/simulator/baremetal/benchmarks/coremark/../../lib/xprintf.c:127
		v = (f & 4) ? va_arg(arp, long) : ((d == 'D') ? (long)va_arg(arp, int) : (long)va_arg(arp, unsigned int));
8000117c:	e2078ae3          	beq	a5,zero,80000fb0 <xprintf+0x354>
80001180:	00412783          	lw	a5,4(sp)
/home/tututu/qimeng/simulator/baremetal/benchmarks/coremark/../../lib/xprintf.c:114
			r = 2; break;
80001184:	00200d13          	addi	s10,zero,2
/home/tututu/qimeng/simulator/baremetal/benchmarks/coremark/../../lib/xprintf.c:127
		v = (f & 4) ? va_arg(arp, long) : ((d == 'D') ? (long)va_arg(arp, int) : (long)va_arg(arp, unsigned int));
80001188:	00012423          	sw	zero,8(sp)
8000118c:	0007aa83          	lw	s5,0(a5)
80001190:	00478793          	addi	a5,a5,4
80001194:	00f12223          	sw	a5,4(sp)
80001198:	e2dff06f          	jal	zero,80000fc4 <xprintf+0x368>
xputc():
/home/tututu/qimeng/simulator/baremetal/benchmarks/coremark/../../lib/xprintf.c:35
	if (xfunc_out) xfunc_out((unsigned char)c);
8000119c:	6489a783          	lw	a5,1608(s3)
800011a0:	00068c13          	addi	s8,a3,0
800011a4:	b60780e3          	beq	a5,zero,80000d04 <xprintf+0xa8>
800011a8:	000780e7          	jalr	ra,0(a5)
800011ac:	b59ff06f          	jal	zero,80000d04 <xprintf+0xa8>
xvprintf():
/home/tututu/qimeng/simulator/baremetal/benchmarks/coremark/../../lib/xprintf.c:89
			f = 1; c = *fmt++;
800011b0:	002c4503          	lbu	a0,2(s8)
800011b4:	00100b93          	addi	s7,zero,1
800011b8:	003c0c13          	addi	s8,s8,3
800011bc:	b79ff06f          	jal	zero,80000d34 <xprintf+0xd8>
/home/tututu/qimeng/simulator/baremetal/benchmarks/coremark/../../lib/xprintf.c:92
				f = 2; c = *fmt++;
800011c0:	002c4503          	lbu	a0,2(s8)
800011c4:	00200b93          	addi	s7,zero,2
800011c8:	003c0c13          	addi	s8,s8,3
800011cc:	b69ff06f          	jal	zero,80000d34 <xprintf+0xd8>
xputc():
/home/tututu/qimeng/simulator/baremetal/benchmarks/coremark/../../lib/xprintf.c:35
	if (xfunc_out) xfunc_out((unsigned char)c);
800011d0:	6489a783          	lw	a5,1608(s3)
xvprintf():
/home/tututu/qimeng/simulator/baremetal/benchmarks/coremark/../../lib/xprintf.c:112
			xputc((char)va_arg(arp, int)); continue;
800011d4:	01512223          	sw	s5,4(sp)
xputc():
/home/tututu/qimeng/simulator/baremetal/benchmarks/coremark/../../lib/xprintf.c:35
	if (xfunc_out) xfunc_out((unsigned char)c);
800011d8:	fc0798e3          	bne	a5,zero,800011a8 <xprintf+0x54c>
800011dc:	b29ff06f          	jal	zero,80000d04 <xprintf+0xa8>
800011e0:	6489a783          	lw	a5,1608(s3)
800011e4:	fc0792e3          	bne	a5,zero,800011a8 <xprintf+0x54c>
800011e8:	b1dff06f          	jal	zero,80000d04 <xprintf+0xa8>
xputs():
/home/tututu/qimeng/simulator/baremetal/benchmarks/coremark/../../lib/xprintf.c:47
	while (*str)
800011ec:	00044503          	lbu	a0,0(s0)
xvprintf():
/home/tututu/qimeng/simulator/baremetal/benchmarks/coremark/../../lib/xprintf.c:107
			while (!(f & 2) && j++ < w) xputc(' ');
800011f0:	419487b3          	sub	a5,s1,s9
800011f4:	001c8c93          	addi	s9,s9,1
800011f8:	01978cb3          	add	s9,a5,s9
/home/tututu/qimeng/simulator/baremetal/benchmarks/coremark/../../lib/xprintf.c:109
			while (j++ < w) xputc(' ');
800011fc:	001c8b93          	addi	s7,s9,1
xputs():
/home/tututu/qimeng/simulator/baremetal/benchmarks/coremark/../../lib/xprintf.c:47
	while (*str)
80001200:	d80514e3          	bne	a0,zero,80000f88 <xprintf+0x32c>
80001204:	d25ff06f          	jal	zero,80000f28 <xprintf+0x2cc>
xvprintf():
/home/tututu/qimeng/simulator/baremetal/benchmarks/coremark/../../lib/xprintf.c:127
		v = (f & 4) ? va_arg(arp, long) : ((d == 'D') ? (long)va_arg(arp, int) : (long)va_arg(arp, unsigned int));
80001208:	04400793          	addi	a5,zero,68
8000120c:	08f61063          	bne	a2,a5,8000128c <xprintf+0x630>
/home/tututu/qimeng/simulator/baremetal/benchmarks/coremark/../../lib/xprintf.c:105
			p = va_arg(arp, char*);
80001210:	00412703          	lw	a4,4(sp)
80001214:	00072783          	lw	a5,0(a4)
/home/tututu/qimeng/simulator/baremetal/benchmarks/coremark/../../lib/xprintf.c:127
		v = (f & 4) ? va_arg(arp, long) : ((d == 'D') ? (long)va_arg(arp, int) : (long)va_arg(arp, unsigned int));
80001218:	00470713          	addi	a4,a4,4
8000121c:	00e12223          	sw	a4,4(sp)
80001220:	00078a93          	addi	s5,a5,0
/home/tututu/qimeng/simulator/baremetal/benchmarks/coremark/../../lib/xprintf.c:128
		if (d == 'D' && (v & 0x80000000)) {
80001224:	c1dff06f          	jal	zero,80000e40 <xprintf+0x1e4>
/home/tututu/qimeng/simulator/baremetal/benchmarks/coremark/../../lib/xprintf.c:127
		v = (f & 4) ? va_arg(arp, long) : ((d == 'D') ? (long)va_arg(arp, int) : (long)va_arg(arp, unsigned int));
80001228:	00412783          	lw	a5,4(sp)
/home/tututu/qimeng/simulator/baremetal/benchmarks/coremark/../../lib/xprintf.c:116
			r = 8; break;
8000122c:	00800d13          	addi	s10,zero,8
/home/tututu/qimeng/simulator/baremetal/benchmarks/coremark/../../lib/xprintf.c:127
		v = (f & 4) ? va_arg(arp, long) : ((d == 'D') ? (long)va_arg(arp, int) : (long)va_arg(arp, unsigned int));
80001230:	00012423          	sw	zero,8(sp)
80001234:	0007aa83          	lw	s5,0(a5)
80001238:	00478793          	addi	a5,a5,4
8000123c:	00f12223          	sw	a5,4(sp)
80001240:	d85ff06f          	jal	zero,80000fc4 <xprintf+0x368>
/home/tututu/qimeng/simulator/baremetal/benchmarks/coremark/../../lib/xprintf.c:140
		while (!(f & 2) && j++ < w) xputc(d);
80001244:	00040b93          	addi	s7,s0,0
80001248:	e5dff06f          	jal	zero,800010a4 <xprintf+0x448>
8000124c:	000c8b93          	addi	s7,s9,0
80001250:	e55ff06f          	jal	zero,800010a4 <xprintf+0x448>
/home/tututu/qimeng/simulator/baremetal/benchmarks/coremark/../../lib/xprintf.c:107
			while (!(f & 2) && j++ < w) xputc(' ');
80001254:	020b9063          	bne	s7,zero,80001274 <xprintf+0x618>
80001258:	00100c93          	addi	s9,zero,1
8000125c:	c60496e3          	bne	s1,zero,80000ec8 <xprintf+0x26c>
/home/tututu/qimeng/simulator/baremetal/benchmarks/coremark/../../lib/xprintf.c:105
			p = va_arg(arp, char*);
80001260:	01512223          	sw	s5,4(sp)
80001264:	aa1ff06f          	jal	zero,80000d04 <xprintf+0xa8>
/home/tututu/qimeng/simulator/baremetal/benchmarks/coremark/../../lib/xprintf.c:107
			while (!(f & 2) && j++ < w) xputc(' ');
80001268:	000c8b93          	addi	s7,s9,0
/home/tututu/qimeng/simulator/baremetal/benchmarks/coremark/../../lib/xprintf.c:106
			for (j = 0; p[j]; j++) ;
8000126c:	00068c93          	addi	s9,a3,0
80001270:	d19ff06f          	jal	zero,80000f88 <xprintf+0x32c>
/home/tututu/qimeng/simulator/baremetal/benchmarks/coremark/../../lib/xprintf.c:107
			while (!(f & 2) && j++ < w) xputc(' ');
80001274:	00100b93          	addi	s7,zero,1
/home/tututu/qimeng/simulator/baremetal/benchmarks/coremark/../../lib/xprintf.c:106
			for (j = 0; p[j]; j++) ;
80001278:	00000c93          	addi	s9,zero,0
8000127c:	cadff06f          	jal	zero,80000f28 <xprintf+0x2cc>
80001280:	00a00d13          	addi	s10,zero,10
/home/tututu/qimeng/simulator/baremetal/benchmarks/coremark/../../lib/xprintf.c:127
		v = (f & 4) ? va_arg(arp, long) : ((d == 'D') ? (long)va_arg(arp, int) : (long)va_arg(arp, unsigned int));
80001284:	00012423          	sw	zero,8(sp)
80001288:	d3dff06f          	jal	zero,80000fc4 <xprintf+0x368>
8000128c:	00a00d13          	addi	s10,zero,10
80001290:	d21ff06f          	jal	zero,80000fb0 <xprintf+0x354>

80001294 <__divsi3>:
__divsi3():
/home/tututu/riscv-gnu-toolchain/build-gcc-newlib-stage2/riscv32-unknown-elf/libgcc/../../.././gcc/libgcc/config/riscv/div.S:69
80001294:	06054063          	blt	a0,zero,800012f4 <__umodsi3+0x10>
/home/tututu/riscv-gnu-toolchain/build-gcc-newlib-stage2/riscv32-unknown-elf/libgcc/../../.././gcc/libgcc/config/riscv/div.S:70
80001298:	0605c663          	blt	a1,zero,80001304 <__umodsi3+0x20>

8000129c <__hidden___udivsi3>:
__hidden___udivsi3():
/home/tututu/riscv-gnu-toolchain/build-gcc-newlib-stage2/riscv32-unknown-elf/libgcc/../../.././gcc/libgcc/config/riscv/div.S:74
8000129c:	00058613          	addi	a2,a1,0
/home/tututu/riscv-gnu-toolchain/build-gcc-newlib-stage2/riscv32-unknown-elf/libgcc/../../.././gcc/libgcc/config/riscv/div.S:75
800012a0:	00050593          	addi	a1,a0,0
/home/tututu/riscv-gnu-toolchain/build-gcc-newlib-stage2/riscv32-unknown-elf/libgcc/../../.././gcc/libgcc/config/riscv/div.S:76
800012a4:	fff00513          	addi	a0,zero,-1
/home/tututu/riscv-gnu-toolchain/build-gcc-newlib-stage2/riscv32-unknown-elf/libgcc/../../.././gcc/libgcc/config/riscv/div.S:77
800012a8:	02060c63          	beq	a2,zero,800012e0 <__hidden___udivsi3+0x44>
/home/tututu/riscv-gnu-toolchain/build-gcc-newlib-stage2/riscv32-unknown-elf/libgcc/../../.././gcc/libgcc/config/riscv/div.S:78
800012ac:	00100693          	addi	a3,zero,1
/home/tututu/riscv-gnu-toolchain/build-gcc-newlib-stage2/riscv32-unknown-elf/libgcc/../../.././gcc/libgcc/config/riscv/div.S:79
800012b0:	00b67a63          	bgeu	a2,a1,800012c4 <__hidden___udivsi3+0x28>
/home/tututu/riscv-gnu-toolchain/build-gcc-newlib-stage2/riscv32-unknown-elf/libgcc/../../.././gcc/libgcc/config/riscv/div.S:81
800012b4:	00c05863          	bge	zero,a2,800012c4 <__hidden___udivsi3+0x28>
/home/tututu/riscv-gnu-toolchain/build-gcc-newlib-stage2/riscv32-unknown-elf/libgcc/../../.././gcc/libgcc/config/riscv/div.S:82
800012b8:	00161613          	slli	a2,a2,0x1
/home/tututu/riscv-gnu-toolchain/build-gcc-newlib-stage2/riscv32-unknown-elf/libgcc/../../.././gcc/libgcc/config/riscv/div.S:83
800012bc:	00169693          	slli	a3,a3,0x1
/home/tututu/riscv-gnu-toolchain/build-gcc-newlib-stage2/riscv32-unknown-elf/libgcc/../../.././gcc/libgcc/config/riscv/div.S:84
800012c0:	feb66ae3          	bltu	a2,a1,800012b4 <__hidden___udivsi3+0x18>
/home/tututu/riscv-gnu-toolchain/build-gcc-newlib-stage2/riscv32-unknown-elf/libgcc/../../.././gcc/libgcc/config/riscv/div.S:86
800012c4:	00000513          	addi	a0,zero,0
/home/tututu/riscv-gnu-toolchain/build-gcc-newlib-stage2/riscv32-unknown-elf/libgcc/../../.././gcc/libgcc/config/riscv/div.S:88
800012c8:	00c5e663          	bltu	a1,a2,800012d4 <__hidden___udivsi3+0x38>
/home/tututu/riscv-gnu-toolchain/build-gcc-newlib-stage2/riscv32-unknown-elf/libgcc/../../.././gcc/libgcc/config/riscv/div.S:89
800012cc:	40c585b3          	sub	a1,a1,a2
/home/tututu/riscv-gnu-toolchain/build-gcc-newlib-stage2/riscv32-unknown-elf/libgcc/../../.././gcc/libgcc/config/riscv/div.S:90
800012d0:	00d56533          	or	a0,a0,a3
/home/tututu/riscv-gnu-toolchain/build-gcc-newlib-stage2/riscv32-unknown-elf/libgcc/../../.././gcc/libgcc/config/riscv/div.S:92
800012d4:	0016d693          	srli	a3,a3,0x1
/home/tututu/riscv-gnu-toolchain/build-gcc-newlib-stage2/riscv32-unknown-elf/libgcc/../../.././gcc/libgcc/config/riscv/div.S:93
800012d8:	00165613          	srli	a2,a2,0x1
/home/tututu/riscv-gnu-toolchain/build-gcc-newlib-stage2/riscv32-unknown-elf/libgcc/../../.././gcc/libgcc/config/riscv/div.S:94
800012dc:	fe0696e3          	bne	a3,zero,800012c8 <__hidden___udivsi3+0x2c>
/home/tututu/riscv-gnu-toolchain/build-gcc-newlib-stage2/riscv32-unknown-elf/libgcc/../../.././gcc/libgcc/config/riscv/div.S:96
800012e0:	00008067          	jalr	zero,0(ra)

800012e4 <__umodsi3>:
__umodsi3():
/home/tututu/riscv-gnu-toolchain/build-gcc-newlib-stage2/riscv32-unknown-elf/libgcc/../../.././gcc/libgcc/config/riscv/div.S:102
800012e4:	00008293          	addi	t0,ra,0
/home/tututu/riscv-gnu-toolchain/build-gcc-newlib-stage2/riscv32-unknown-elf/libgcc/../../.././gcc/libgcc/config/riscv/div.S:103
800012e8:	fb5ff0ef          	jal	ra,8000129c <__hidden___udivsi3>
/home/tututu/riscv-gnu-toolchain/build-gcc-newlib-stage2/riscv32-unknown-elf/libgcc/../../.././gcc/libgcc/config/riscv/div.S:104
800012ec:	00058513          	addi	a0,a1,0
/home/tututu/riscv-gnu-toolchain/build-gcc-newlib-stage2/riscv32-unknown-elf/libgcc/../../.././gcc/libgcc/config/riscv/div.S:105
800012f0:	00028067          	jalr	zero,0(t0)
__divsi3():
/home/tututu/riscv-gnu-toolchain/build-gcc-newlib-stage2/riscv32-unknown-elf/libgcc/../../.././gcc/libgcc/config/riscv/div.S:110
800012f4:	40a00533          	sub	a0,zero,a0
/home/tututu/riscv-gnu-toolchain/build-gcc-newlib-stage2/riscv32-unknown-elf/libgcc/../../.././gcc/libgcc/config/riscv/div.S:112
800012f8:	00b04863          	blt	zero,a1,80001308 <__umodsi3+0x24>
/home/tututu/riscv-gnu-toolchain/build-gcc-newlib-stage2/riscv32-unknown-elf/libgcc/../../.././gcc/libgcc/config/riscv/div.S:114
800012fc:	40b005b3          	sub	a1,zero,a1
/home/tututu/riscv-gnu-toolchain/build-gcc-newlib-stage2/riscv32-unknown-elf/libgcc/../../.././gcc/libgcc/config/riscv/div.S:115
80001300:	f9dff06f          	jal	zero,8000129c <__hidden___udivsi3>
/home/tututu/riscv-gnu-toolchain/build-gcc-newlib-stage2/riscv32-unknown-elf/libgcc/../../.././gcc/libgcc/config/riscv/div.S:117
80001304:	40b005b3          	sub	a1,zero,a1
/home/tututu/riscv-gnu-toolchain/build-gcc-newlib-stage2/riscv32-unknown-elf/libgcc/../../.././gcc/libgcc/config/riscv/div.S:119
80001308:	00008293          	addi	t0,ra,0
/home/tututu/riscv-gnu-toolchain/build-gcc-newlib-stage2/riscv32-unknown-elf/libgcc/../../.././gcc/libgcc/config/riscv/div.S:120
8000130c:	f91ff0ef          	jal	ra,8000129c <__hidden___udivsi3>
/home/tututu/riscv-gnu-toolchain/build-gcc-newlib-stage2/riscv32-unknown-elf/libgcc/../../.././gcc/libgcc/config/riscv/div.S:121
80001310:	40a00533          	sub	a0,zero,a0
/home/tututu/riscv-gnu-toolchain/build-gcc-newlib-stage2/riscv32-unknown-elf/libgcc/../../.././gcc/libgcc/config/riscv/div.S:122
80001314:	00028067          	jalr	zero,0(t0)

80001318 <__modsi3>:
__modsi3():
/home/tututu/riscv-gnu-toolchain/build-gcc-newlib-stage2/riscv32-unknown-elf/libgcc/../../.././gcc/libgcc/config/riscv/div.S:126
80001318:	00008293          	addi	t0,ra,0
/home/tututu/riscv-gnu-toolchain/build-gcc-newlib-stage2/riscv32-unknown-elf/libgcc/../../.././gcc/libgcc/config/riscv/div.S:127
8000131c:	0005ca63          	blt	a1,zero,80001330 <__modsi3+0x18>
/home/tututu/riscv-gnu-toolchain/build-gcc-newlib-stage2/riscv32-unknown-elf/libgcc/../../.././gcc/libgcc/config/riscv/div.S:128
80001320:	00054c63          	blt	a0,zero,80001338 <__modsi3+0x20>
/home/tututu/riscv-gnu-toolchain/build-gcc-newlib-stage2/riscv32-unknown-elf/libgcc/../../.././gcc/libgcc/config/riscv/div.S:130
80001324:	f79ff0ef          	jal	ra,8000129c <__hidden___udivsi3>
/home/tututu/riscv-gnu-toolchain/build-gcc-newlib-stage2/riscv32-unknown-elf/libgcc/../../.././gcc/libgcc/config/riscv/div.S:131
80001328:	00058513          	addi	a0,a1,0
/home/tututu/riscv-gnu-toolchain/build-gcc-newlib-stage2/riscv32-unknown-elf/libgcc/../../.././gcc/libgcc/config/riscv/div.S:132
8000132c:	00028067          	jalr	zero,0(t0)
/home/tututu/riscv-gnu-toolchain/build-gcc-newlib-stage2/riscv32-unknown-elf/libgcc/../../.././gcc/libgcc/config/riscv/div.S:134
80001330:	40b005b3          	sub	a1,zero,a1
/home/tututu/riscv-gnu-toolchain/build-gcc-newlib-stage2/riscv32-unknown-elf/libgcc/../../.././gcc/libgcc/config/riscv/div.S:135
80001334:	fe0558e3          	bge	a0,zero,80001324 <__modsi3+0xc>
/home/tututu/riscv-gnu-toolchain/build-gcc-newlib-stage2/riscv32-unknown-elf/libgcc/../../.././gcc/libgcc/config/riscv/div.S:137
80001338:	40a00533          	sub	a0,zero,a0
/home/tututu/riscv-gnu-toolchain/build-gcc-newlib-stage2/riscv32-unknown-elf/libgcc/../../.././gcc/libgcc/config/riscv/div.S:138
8000133c:	f61ff0ef          	jal	ra,8000129c <__hidden___udivsi3>
/home/tututu/riscv-gnu-toolchain/build-gcc-newlib-stage2/riscv32-unknown-elf/libgcc/../../.././gcc/libgcc/config/riscv/div.S:139
80001340:	40b00533          	sub	a0,zero,a1
/home/tututu/riscv-gnu-toolchain/build-gcc-newlib-stage2/riscv32-unknown-elf/libgcc/../../.././gcc/libgcc/config/riscv/div.S:140
80001344:	00028067          	jalr	zero,0(t0)

80001348 <memcpy>:
memcpy():
80001348:	00a5c7b3          	xor	a5,a1,a0
8000134c:	0037f793          	andi	a5,a5,3
80001350:	00c508b3          	add	a7,a0,a2
80001354:	06079663          	bne	a5,zero,800013c0 <memcpy+0x78>
80001358:	00463613          	sltiu	a2,a2,4
8000135c:	06061263          	bne	a2,zero,800013c0 <memcpy+0x78>
80001360:	00357793          	andi	a5,a0,3
80001364:	00050713          	addi	a4,a0,0
80001368:	0c079a63          	bne	a5,zero,8000143c <memcpy+0xf4>
8000136c:	ffc8f613          	andi	a2,a7,-4
80001370:	40e606b3          	sub	a3,a2,a4
80001374:	02000793          	addi	a5,zero,32
80001378:	06d7c463          	blt	a5,a3,800013e0 <memcpy+0x98>
8000137c:	00058693          	addi	a3,a1,0
80001380:	00070793          	addi	a5,a4,0
80001384:	02c77a63          	bgeu	a4,a2,800013b8 <memcpy+0x70>
80001388:	0006a803          	lw	a6,0(a3)
8000138c:	00478793          	addi	a5,a5,4
80001390:	00468693          	addi	a3,a3,4
80001394:	ff07ae23          	sw	a6,-4(a5)
80001398:	fec7e8e3          	bltu	a5,a2,80001388 <memcpy+0x40>
8000139c:	fff60613          	addi	a2,a2,-1
800013a0:	40e60633          	sub	a2,a2,a4
800013a4:	ffc67613          	andi	a2,a2,-4
800013a8:	00458593          	addi	a1,a1,4
800013ac:	00470713          	addi	a4,a4,4
800013b0:	00c585b3          	add	a1,a1,a2
800013b4:	00c70733          	add	a4,a4,a2
800013b8:	01176863          	bltu	a4,a7,800013c8 <memcpy+0x80>
800013bc:	00008067          	jalr	zero,0(ra)
800013c0:	00050713          	addi	a4,a0,0
800013c4:	ff157ce3          	bgeu	a0,a7,800013bc <memcpy+0x74>
800013c8:	0005c783          	lbu	a5,0(a1)
800013cc:	00170713          	addi	a4,a4,1
800013d0:	00158593          	addi	a1,a1,1
800013d4:	fef70fa3          	sb	a5,-1(a4)
800013d8:	fee898e3          	bne	a7,a4,800013c8 <memcpy+0x80>
800013dc:	00008067          	jalr	zero,0(ra)
800013e0:	0005a683          	lw	a3,0(a1)
800013e4:	0045a283          	lw	t0,4(a1)
800013e8:	0085af83          	lw	t6,8(a1)
800013ec:	00c5af03          	lw	t5,12(a1)
800013f0:	0105ae83          	lw	t4,16(a1)
800013f4:	0145ae03          	lw	t3,20(a1)
800013f8:	0185a303          	lw	t1,24(a1)
800013fc:	01c5a803          	lw	a6,28(a1)
80001400:	00d72023          	sw	a3,0(a4)
80001404:	0205a683          	lw	a3,32(a1)
80001408:	02470713          	addi	a4,a4,36
8000140c:	fe572023          	sw	t0,-32(a4)
80001410:	fed72e23          	sw	a3,-4(a4)
80001414:	fff72223          	sw	t6,-28(a4)
80001418:	40e606b3          	sub	a3,a2,a4
8000141c:	ffe72423          	sw	t5,-24(a4)
80001420:	ffd72623          	sw	t4,-20(a4)
80001424:	ffc72823          	sw	t3,-16(a4)
80001428:	fe672a23          	sw	t1,-12(a4)
8000142c:	ff072c23          	sw	a6,-8(a4)
80001430:	02458593          	addi	a1,a1,36
80001434:	fad7c6e3          	blt	a5,a3,800013e0 <memcpy+0x98>
80001438:	f45ff06f          	jal	zero,8000137c <memcpy+0x34>
8000143c:	0005c683          	lbu	a3,0(a1)
80001440:	00170713          	addi	a4,a4,1
80001444:	00377793          	andi	a5,a4,3
80001448:	fed70fa3          	sb	a3,-1(a4)
8000144c:	00158593          	addi	a1,a1,1
80001450:	f0078ee3          	beq	a5,zero,8000136c <memcpy+0x24>
80001454:	0005c683          	lbu	a3,0(a1)
80001458:	00170713          	addi	a4,a4,1
8000145c:	00377793          	andi	a5,a4,3
80001460:	fed70fa3          	sb	a3,-1(a4)
80001464:	00158593          	addi	a1,a1,1
80001468:	fc079ae3          	bne	a5,zero,8000143c <memcpy+0xf4>
8000146c:	f01ff06f          	jal	zero,8000136c <memcpy+0x24>

80001470 <strcmp>:
strcmp():
80001470:	00b56733          	or	a4,a0,a1
80001474:	fff00393          	addi	t2,zero,-1
80001478:	00377713          	andi	a4,a4,3
8000147c:	10071063          	bne	a4,zero,8000157c <strcmp+0x10c>
80001480:	7f7f87b7          	lui	a5,0x7f7f8
80001484:	f7f78793          	addi	a5,a5,-129 # 7f7f7f7f <__stack_size+0x7d7f7f7f>
80001488:	00052603          	lw	a2,0(a0)
8000148c:	0005a683          	lw	a3,0(a1)
80001490:	00f672b3          	and	t0,a2,a5
80001494:	00f66333          	or	t1,a2,a5
80001498:	00f282b3          	add	t0,t0,a5
8000149c:	0062e2b3          	or	t0,t0,t1
800014a0:	10729263          	bne	t0,t2,800015a4 <strcmp+0x134>
800014a4:	08d61663          	bne	a2,a3,80001530 <strcmp+0xc0>
800014a8:	00452603          	lw	a2,4(a0)
800014ac:	0045a683          	lw	a3,4(a1)
800014b0:	00f672b3          	and	t0,a2,a5
800014b4:	00f66333          	or	t1,a2,a5
800014b8:	00f282b3          	add	t0,t0,a5
800014bc:	0062e2b3          	or	t0,t0,t1
800014c0:	0c729e63          	bne	t0,t2,8000159c <strcmp+0x12c>
800014c4:	06d61663          	bne	a2,a3,80001530 <strcmp+0xc0>
800014c8:	00852603          	lw	a2,8(a0)
800014cc:	0085a683          	lw	a3,8(a1)
800014d0:	00f672b3          	and	t0,a2,a5
800014d4:	00f66333          	or	t1,a2,a5
800014d8:	00f282b3          	add	t0,t0,a5
800014dc:	0062e2b3          	or	t0,t0,t1
800014e0:	0c729863          	bne	t0,t2,800015b0 <strcmp+0x140>
800014e4:	04d61663          	bne	a2,a3,80001530 <strcmp+0xc0>
800014e8:	00c52603          	lw	a2,12(a0)
800014ec:	00c5a683          	lw	a3,12(a1)
800014f0:	00f672b3          	and	t0,a2,a5
800014f4:	00f66333          	or	t1,a2,a5
800014f8:	00f282b3          	add	t0,t0,a5
800014fc:	0062e2b3          	or	t0,t0,t1
80001500:	0c729263          	bne	t0,t2,800015c4 <strcmp+0x154>
80001504:	02d61663          	bne	a2,a3,80001530 <strcmp+0xc0>
80001508:	01052603          	lw	a2,16(a0)
8000150c:	0105a683          	lw	a3,16(a1)
80001510:	00f672b3          	and	t0,a2,a5
80001514:	00f66333          	or	t1,a2,a5
80001518:	00f282b3          	add	t0,t0,a5
8000151c:	0062e2b3          	or	t0,t0,t1
80001520:	0a729c63          	bne	t0,t2,800015d8 <strcmp+0x168>
80001524:	01450513          	addi	a0,a0,20
80001528:	01458593          	addi	a1,a1,20
8000152c:	f4d60ee3          	beq	a2,a3,80001488 <strcmp+0x18>
80001530:	01061713          	slli	a4,a2,0x10
80001534:	01069793          	slli	a5,a3,0x10
80001538:	00f71e63          	bne	a4,a5,80001554 <strcmp+0xe4>
8000153c:	01065713          	srli	a4,a2,0x10
80001540:	0106d793          	srli	a5,a3,0x10
80001544:	40f70533          	sub	a0,a4,a5
80001548:	0ff57593          	andi	a1,a0,255
8000154c:	02059063          	bne	a1,zero,8000156c <strcmp+0xfc>
80001550:	00008067          	jalr	zero,0(ra)
80001554:	01075713          	srli	a4,a4,0x10
80001558:	0107d793          	srli	a5,a5,0x10
8000155c:	40f70533          	sub	a0,a4,a5
80001560:	0ff57593          	andi	a1,a0,255
80001564:	00059463          	bne	a1,zero,8000156c <strcmp+0xfc>
80001568:	00008067          	jalr	zero,0(ra)
8000156c:	0ff77713          	andi	a4,a4,255
80001570:	0ff7f793          	andi	a5,a5,255
80001574:	40f70533          	sub	a0,a4,a5
80001578:	00008067          	jalr	zero,0(ra)
8000157c:	00054603          	lbu	a2,0(a0)
80001580:	0005c683          	lbu	a3,0(a1)
80001584:	00150513          	addi	a0,a0,1
80001588:	00158593          	addi	a1,a1,1
8000158c:	00d61463          	bne	a2,a3,80001594 <strcmp+0x124>
80001590:	fe0616e3          	bne	a2,zero,8000157c <strcmp+0x10c>
80001594:	40d60533          	sub	a0,a2,a3
80001598:	00008067          	jalr	zero,0(ra)
8000159c:	00450513          	addi	a0,a0,4
800015a0:	00458593          	addi	a1,a1,4
800015a4:	fcd61ce3          	bne	a2,a3,8000157c <strcmp+0x10c>
800015a8:	00000513          	addi	a0,zero,0
800015ac:	00008067          	jalr	zero,0(ra)
800015b0:	00850513          	addi	a0,a0,8
800015b4:	00858593          	addi	a1,a1,8
800015b8:	fcd612e3          	bne	a2,a3,8000157c <strcmp+0x10c>
800015bc:	00000513          	addi	a0,zero,0
800015c0:	00008067          	jalr	zero,0(ra)
800015c4:	00c50513          	addi	a0,a0,12
800015c8:	00c58593          	addi	a1,a1,12
800015cc:	fad618e3          	bne	a2,a3,8000157c <strcmp+0x10c>
800015d0:	00000513          	addi	a0,zero,0
800015d4:	00008067          	jalr	zero,0(ra)
800015d8:	01050513          	addi	a0,a0,16
800015dc:	01058593          	addi	a1,a1,16
800015e0:	f8d61ee3          	bne	a2,a3,8000157c <strcmp+0x10c>
800015e4:	00000513          	addi	a0,zero,0
800015e8:	00008067          	jalr	zero,0(ra)

Disassembly of section .rodata.str1.4:

800015ec <.rodata.str1.4>:
800015ec:	4844                	.insn	2, 0x4844
800015ee:	5952                	.insn	2, 0x5952
800015f0:	4e4f5453          	.insn	4, 0x4e4f5453
800015f4:	2045                	.insn	2, 0x2045
800015f6:	5250                	.insn	2, 0x5250
800015f8:	4152474f          	.insn	4, 0x4152474f
800015fc:	2c4d                	.insn	2, 0x2c4d
800015fe:	5320                	.insn	2, 0x5320
80001600:	20454d4f          	.insn	4, 0x20454d4f
80001604:	49525453          	.insn	4, 0x49525453
80001608:	474e                	.insn	2, 0x474e
8000160a:	0000                	.insn	2, 0x0000
8000160c:	0000                	.insn	2, 0x0000
8000160e:	0000                	.insn	2, 0x0000
80001610:	6e49                	.insn	2, 0x6e49
80001612:	5f74                	.insn	2, 0x5f74
80001614:	626f6c47          	.insn	4, 0x626f6c47
80001618:	203a                	.insn	2, 0x203a
8000161a:	2020                	.insn	2, 0x2020
8000161c:	2020                	.insn	2, 0x2020
8000161e:	2020                	.insn	2, 0x2020
80001620:	2020                	.insn	2, 0x2020
80001622:	2020                	.insn	2, 0x2020
80001624:	2520                	.insn	2, 0x2520
80001626:	0a64                	.insn	2, 0x0a64
80001628:	0000                	.insn	2, 0x0000
8000162a:	0000                	.insn	2, 0x0000
8000162c:	2020                	.insn	2, 0x2020
8000162e:	2020                	.insn	2, 0x2020
80001630:	2020                	.insn	2, 0x2020
80001632:	2020                	.insn	2, 0x2020
80001634:	756f6873          	.insn	4, 0x756f6873
80001638:	646c                	.insn	2, 0x646c
8000163a:	6220                	.insn	2, 0x6220
8000163c:	3a65                	.insn	2, 0x3a65
8000163e:	2020                	.insn	2, 0x2020
80001640:	2520                	.insn	2, 0x2520
80001642:	0a64                	.insn	2, 0x0a64
80001644:	0000                	.insn	2, 0x0000
80001646:	0000                	.insn	2, 0x0000
80001648:	6f42                	.insn	2, 0x6f42
8000164a:	475f6c6f          	jal	s8,800f82be <__global_pointer+0xf346e>
8000164e:	6f6c                	.insn	2, 0x6f6c
80001650:	3a62                	.insn	2, 0x3a62
80001652:	2020                	.insn	2, 0x2020
80001654:	2020                	.insn	2, 0x2020
80001656:	2020                	.insn	2, 0x2020
80001658:	2020                	.insn	2, 0x2020
8000165a:	2020                	.insn	2, 0x2020
8000165c:	2520                	.insn	2, 0x2520
8000165e:	0a64                	.insn	2, 0x0a64
80001660:	0000                	.insn	2, 0x0000
80001662:	0000                	.insn	2, 0x0000
80001664:	315f6843          	.insn	4, 0x315f6843
80001668:	475f 6f6c 3a62      	.insn	6, 0x3a626f6c475f
8000166e:	2020                	.insn	2, 0x2020
80001670:	2020                	.insn	2, 0x2020
80001672:	2020                	.insn	2, 0x2020
80001674:	2020                	.insn	2, 0x2020
80001676:	2020                	.insn	2, 0x2020
80001678:	2520                	.insn	2, 0x2520
8000167a:	00000a63          	beq	zero,zero,8000168e <strcmp+0x21e>
8000167e:	0000                	.insn	2, 0x0000
80001680:	2020                	.insn	2, 0x2020
80001682:	2020                	.insn	2, 0x2020
80001684:	2020                	.insn	2, 0x2020
80001686:	2020                	.insn	2, 0x2020
80001688:	756f6873          	.insn	4, 0x756f6873
8000168c:	646c                	.insn	2, 0x646c
8000168e:	6220                	.insn	2, 0x6220
80001690:	3a65                	.insn	2, 0x3a65
80001692:	2020                	.insn	2, 0x2020
80001694:	2520                	.insn	2, 0x2520
80001696:	00000a63          	beq	zero,zero,800016aa <strcmp+0x23a>
8000169a:	0000                	.insn	2, 0x0000
8000169c:	325f6843          	.insn	4, 0x325f6843
800016a0:	475f 6f6c 3a62      	.insn	6, 0x3a626f6c475f
800016a6:	2020                	.insn	2, 0x2020
800016a8:	2020                	.insn	2, 0x2020
800016aa:	2020                	.insn	2, 0x2020
800016ac:	2020                	.insn	2, 0x2020
800016ae:	2020                	.insn	2, 0x2020
800016b0:	2520                	.insn	2, 0x2520
800016b2:	00000a63          	beq	zero,zero,800016c6 <strcmp+0x256>
800016b6:	0000                	.insn	2, 0x0000
800016b8:	7241                	.insn	2, 0x7241
800016ba:	5f72                	.insn	2, 0x5f72
800016bc:	5f31                	.insn	2, 0x5f31
800016be:	626f6c47          	.insn	4, 0x626f6c47
800016c2:	3a5d385b          	.insn	4, 0x3a5d385b
800016c6:	2020                	.insn	2, 0x2020
800016c8:	2020                	.insn	2, 0x2020
800016ca:	2020                	.insn	2, 0x2020
800016cc:	2520                	.insn	2, 0x2520
800016ce:	0a64                	.insn	2, 0x0a64
800016d0:	0000                	.insn	2, 0x0000
800016d2:	0000                	.insn	2, 0x0000
800016d4:	7241                	.insn	2, 0x7241
800016d6:	5f72                	.insn	2, 0x5f72
800016d8:	5f32                	.insn	2, 0x5f32
800016da:	626f6c47          	.insn	4, 0x626f6c47
800016de:	5b5d385b          	.insn	4, 0x5b5d385b
800016e2:	203a5d37          	lui	s10,0x203a5
800016e6:	2020                	.insn	2, 0x2020
800016e8:	2520                	.insn	2, 0x2520
800016ea:	0a64                	.insn	2, 0x0a64
800016ec:	0000                	.insn	2, 0x0000
800016ee:	0000                	.insn	2, 0x0000
800016f0:	2020                	.insn	2, 0x2020
800016f2:	2020                	.insn	2, 0x2020
800016f4:	2020                	.insn	2, 0x2020
800016f6:	2020                	.insn	2, 0x2020
800016f8:	756f6873          	.insn	4, 0x756f6873
800016fc:	646c                	.insn	2, 0x646c
800016fe:	6220                	.insn	2, 0x6220
80001700:	3a65                	.insn	2, 0x3a65
80001702:	2020                	.insn	2, 0x2020
80001704:	4e20                	.insn	2, 0x4e20
80001706:	6d75                	.insn	2, 0x6d75
80001708:	6562                	.insn	2, 0x6562
8000170a:	5f72                	.insn	2, 0x5f72
8000170c:	525f664f          	.insn	4, 0x525f664f
80001710:	6e75                	.insn	2, 0x6e75
80001712:	202b2073          	.insn	4, 0x202b2073
80001716:	3031                	.insn	2, 0x3031
80001718:	000a                	.insn	2, 0x000a
8000171a:	0000                	.insn	2, 0x0000
8000171c:	7450                	.insn	2, 0x7450
8000171e:	5f72                	.insn	2, 0x5f72
80001720:	626f6c47          	.insn	4, 0x626f6c47
80001724:	3e2d                	.insn	2, 0x3e2d
80001726:	6944                	.insn	2, 0x6944
80001728:	3a726373          	.insn	4, 0x3a726373
8000172c:	2020                	.insn	2, 0x2020
8000172e:	2020                	.insn	2, 0x2020
80001730:	2020                	.insn	2, 0x2020
80001732:	2020                	.insn	2, 0x2020
80001734:	2020                	.insn	2, 0x2020
80001736:	2020                	.insn	2, 0x2020
80001738:	2520                	.insn	2, 0x2520
8000173a:	0a64                	.insn	2, 0x0a64
8000173c:	0000                	.insn	2, 0x0000
8000173e:	0000                	.insn	2, 0x0000
80001740:	7450                	.insn	2, 0x7450
80001742:	5f72                	.insn	2, 0x5f72
80001744:	626f6c47          	.insn	4, 0x626f6c47
80001748:	3e2d                	.insn	2, 0x3e2d
8000174a:	6e45                	.insn	2, 0x6e45
8000174c:	6d75                	.insn	2, 0x6d75
8000174e:	435f 6d6f 3a70      	.insn	6, 0x3a706d6f435f
80001754:	2020                	.insn	2, 0x2020
80001756:	2020                	.insn	2, 0x2020
80001758:	2020                	.insn	2, 0x2020
8000175a:	2020                	.insn	2, 0x2020
8000175c:	2520                	.insn	2, 0x2520
8000175e:	0a64                	.insn	2, 0x0a64
80001760:	0000                	.insn	2, 0x0000
80001762:	0000                	.insn	2, 0x0000
80001764:	7450                	.insn	2, 0x7450
80001766:	5f72                	.insn	2, 0x5f72
80001768:	626f6c47          	.insn	4, 0x626f6c47
8000176c:	3e2d                	.insn	2, 0x3e2d
8000176e:	6e49                	.insn	2, 0x6e49
80001770:	5f74                	.insn	2, 0x5f74
80001772:	706d6f43          	.insn	4, 0x706d6f43
80001776:	203a                	.insn	2, 0x203a
80001778:	2020                	.insn	2, 0x2020
8000177a:	2020                	.insn	2, 0x2020
8000177c:	2020                	.insn	2, 0x2020
8000177e:	2020                	.insn	2, 0x2020
80001780:	2520                	.insn	2, 0x2520
80001782:	0a64                	.insn	2, 0x0a64
80001784:	0000                	.insn	2, 0x0000
80001786:	0000                	.insn	2, 0x0000
80001788:	7450                	.insn	2, 0x7450
8000178a:	5f72                	.insn	2, 0x5f72
8000178c:	626f6c47          	.insn	4, 0x626f6c47
80001790:	3e2d                	.insn	2, 0x3e2d
80001792:	5f727453          	.insn	4, 0x5f727453
80001796:	706d6f43          	.insn	4, 0x706d6f43
8000179a:	203a                	.insn	2, 0x203a
8000179c:	2020                	.insn	2, 0x2020
8000179e:	2020                	.insn	2, 0x2020
800017a0:	2020                	.insn	2, 0x2020
800017a2:	2020                	.insn	2, 0x2020
800017a4:	2520                	.insn	2, 0x2520
800017a6:	00000a73          	.insn	4, 0x0a73
800017aa:	0000                	.insn	2, 0x0000
800017ac:	2020                	.insn	2, 0x2020
800017ae:	2020                	.insn	2, 0x2020
800017b0:	2020                	.insn	2, 0x2020
800017b2:	2020                	.insn	2, 0x2020
800017b4:	756f6873          	.insn	4, 0x756f6873
800017b8:	646c                	.insn	2, 0x646c
800017ba:	6220                	.insn	2, 0x6220
800017bc:	3a65                	.insn	2, 0x3a65
800017be:	2020                	.insn	2, 0x2020
800017c0:	4420                	.insn	2, 0x4420
800017c2:	5248                	.insn	2, 0x5248
800017c4:	5359                	.insn	2, 0x5359
800017c6:	4f54                	.insn	2, 0x4f54
800017c8:	454e                	.insn	2, 0x454e
800017ca:	5020                	.insn	2, 0x5020
800017cc:	4f52                	.insn	2, 0x4f52
800017ce:	4d415247          	.insn	4, 0x4d415247
800017d2:	202c                	.insn	2, 0x202c
800017d4:	454d4f53          	.insn	4, 0x454d4f53
800017d8:	5320                	.insn	2, 0x5320
800017da:	5254                	.insn	2, 0x5254
800017dc:	4e49                	.insn	2, 0x4e49
800017de:	00000a47          	.insn	4, 0x0a47
800017e2:	0000                	.insn	2, 0x0000
800017e4:	654e                	.insn	2, 0x654e
800017e6:	7478                	.insn	2, 0x7478
800017e8:	505f 7274 475f      	.insn	6, 0x475f7274505f
800017ee:	6f6c                	.insn	2, 0x6f6c
800017f0:	2d62                	.insn	2, 0x2d62
800017f2:	443e                	.insn	2, 0x443e
800017f4:	7369                	.insn	2, 0x7369
800017f6:	203a7263          	bgeu	s4,gp,800019fa <strcmp+0x58a>
800017fa:	2020                	.insn	2, 0x2020
800017fc:	2020                	.insn	2, 0x2020
800017fe:	2020                	.insn	2, 0x2020
80001800:	2020                	.insn	2, 0x2020
80001802:	2020                	.insn	2, 0x2020
80001804:	2020                	.insn	2, 0x2020
80001806:	6425                	.insn	2, 0x6425
80001808:	000a                	.insn	2, 0x000a
8000180a:	0000                	.insn	2, 0x0000
8000180c:	654e                	.insn	2, 0x654e
8000180e:	7478                	.insn	2, 0x7478
80001810:	505f 7274 475f      	.insn	6, 0x475f7274505f
80001816:	6f6c                	.insn	2, 0x6f6c
80001818:	2d62                	.insn	2, 0x2d62
8000181a:	453e                	.insn	2, 0x453e
8000181c:	756e                	.insn	2, 0x756e
8000181e:	5f6d                	.insn	2, 0x5f6d
80001820:	706d6f43          	.insn	4, 0x706d6f43
80001824:	203a                	.insn	2, 0x203a
80001826:	2020                	.insn	2, 0x2020
80001828:	2020                	.insn	2, 0x2020
8000182a:	2020                	.insn	2, 0x2020
8000182c:	2020                	.insn	2, 0x2020
8000182e:	6425                	.insn	2, 0x6425
80001830:	000a                	.insn	2, 0x000a
80001832:	0000                	.insn	2, 0x0000
80001834:	654e                	.insn	2, 0x654e
80001836:	7478                	.insn	2, 0x7478
80001838:	505f 7274 475f      	.insn	6, 0x475f7274505f
8000183e:	6f6c                	.insn	2, 0x6f6c
80001840:	2d62                	.insn	2, 0x2d62
80001842:	493e                	.insn	2, 0x493e
80001844:	746e                	.insn	2, 0x746e
80001846:	435f 6d6f 3a70      	.insn	6, 0x3a706d6f435f
8000184c:	2020                	.insn	2, 0x2020
8000184e:	2020                	.insn	2, 0x2020
80001850:	2020                	.insn	2, 0x2020
80001852:	2020                	.insn	2, 0x2020
80001854:	2020                	.insn	2, 0x2020
80001856:	6425                	.insn	2, 0x6425
80001858:	000a                	.insn	2, 0x000a
8000185a:	0000                	.insn	2, 0x0000
8000185c:	654e                	.insn	2, 0x654e
8000185e:	7478                	.insn	2, 0x7478
80001860:	505f 7274 475f      	.insn	6, 0x475f7274505f
80001866:	6f6c                	.insn	2, 0x6f6c
80001868:	2d62                	.insn	2, 0x2d62
8000186a:	533e                	.insn	2, 0x533e
8000186c:	7274                	.insn	2, 0x7274
8000186e:	435f 6d6f 3a70      	.insn	6, 0x3a706d6f435f
80001874:	2020                	.insn	2, 0x2020
80001876:	2020                	.insn	2, 0x2020
80001878:	2020                	.insn	2, 0x2020
8000187a:	2020                	.insn	2, 0x2020
8000187c:	2020                	.insn	2, 0x2020
8000187e:	7325                	.insn	2, 0x7325
80001880:	000a                	.insn	2, 0x000a
80001882:	0000                	.insn	2, 0x0000
80001884:	6e49                	.insn	2, 0x6e49
80001886:	5f74                	.insn	2, 0x5f74
80001888:	5f31                	.insn	2, 0x5f31
8000188a:	6f4c                	.insn	2, 0x6f4c
8000188c:	20203a63          	.insn	4, 0x20203a63
80001890:	2020                	.insn	2, 0x2020
80001892:	2020                	.insn	2, 0x2020
80001894:	2020                	.insn	2, 0x2020
80001896:	2020                	.insn	2, 0x2020
80001898:	2520                	.insn	2, 0x2520
8000189a:	0a64                	.insn	2, 0x0a64
8000189c:	0000                	.insn	2, 0x0000
8000189e:	0000                	.insn	2, 0x0000
800018a0:	6e49                	.insn	2, 0x6e49
800018a2:	5f74                	.insn	2, 0x5f74
800018a4:	5f32                	.insn	2, 0x5f32
800018a6:	6f4c                	.insn	2, 0x6f4c
800018a8:	20203a63          	.insn	4, 0x20203a63
800018ac:	2020                	.insn	2, 0x2020
800018ae:	2020                	.insn	2, 0x2020
800018b0:	2020                	.insn	2, 0x2020
800018b2:	2020                	.insn	2, 0x2020
800018b4:	2520                	.insn	2, 0x2520
800018b6:	0a64                	.insn	2, 0x0a64
800018b8:	0000                	.insn	2, 0x0000
800018ba:	0000                	.insn	2, 0x0000
800018bc:	6e45                	.insn	2, 0x6e45
800018be:	6d75                	.insn	2, 0x6d75
800018c0:	4c5f 636f 203a      	.insn	6, 0x203a636f4c5f
800018c6:	2020                	.insn	2, 0x2020
800018c8:	2020                	.insn	2, 0x2020
800018ca:	2020                	.insn	2, 0x2020
800018cc:	2020                	.insn	2, 0x2020
800018ce:	2020                	.insn	2, 0x2020
800018d0:	2520                	.insn	2, 0x2520
800018d2:	0a64                	.insn	2, 0x0a64
800018d4:	0000                	.insn	2, 0x0000
800018d6:	0000                	.insn	2, 0x0000
800018d8:	4844                	.insn	2, 0x4844
800018da:	5952                	.insn	2, 0x5952
800018dc:	4e4f5453          	.insn	4, 0x4e4f5453
800018e0:	2045                	.insn	2, 0x2045
800018e2:	5250                	.insn	2, 0x5250
800018e4:	4152474f          	.insn	4, 0x4152474f
800018e8:	2c4d                	.insn	2, 0x2c4d
800018ea:	3120                	.insn	2, 0x3120
800018ec:	20545327          	.insn	4, 0x20545327
800018f0:	49525453          	.insn	4, 0x49525453
800018f4:	474e                	.insn	2, 0x474e
800018f6:	0000                	.insn	2, 0x0000
800018f8:	5f727453          	.insn	4, 0x5f727453
800018fc:	5f31                	.insn	2, 0x5f31
800018fe:	6f4c                	.insn	2, 0x6f4c
80001900:	20203a63          	.insn	4, 0x20203a63
80001904:	2020                	.insn	2, 0x2020
80001906:	2020                	.insn	2, 0x2020
80001908:	2020                	.insn	2, 0x2020
8000190a:	2020                	.insn	2, 0x2020
8000190c:	2520                	.insn	2, 0x2520
8000190e:	00000a73          	.insn	4, 0x0a73
80001912:	0000                	.insn	2, 0x0000
80001914:	2020                	.insn	2, 0x2020
80001916:	2020                	.insn	2, 0x2020
80001918:	2020                	.insn	2, 0x2020
8000191a:	2020                	.insn	2, 0x2020
8000191c:	756f6873          	.insn	4, 0x756f6873
80001920:	646c                	.insn	2, 0x646c
80001922:	6220                	.insn	2, 0x6220
80001924:	3a65                	.insn	2, 0x3a65
80001926:	2020                	.insn	2, 0x2020
80001928:	4420                	.insn	2, 0x4420
8000192a:	5248                	.insn	2, 0x5248
8000192c:	5359                	.insn	2, 0x5359
8000192e:	4f54                	.insn	2, 0x4f54
80001930:	454e                	.insn	2, 0x454e
80001932:	5020                	.insn	2, 0x5020
80001934:	4f52                	.insn	2, 0x4f52
80001936:	4d415247          	.insn	4, 0x4d415247
8000193a:	202c                	.insn	2, 0x202c
8000193c:	2731                	.insn	2, 0x2731
8000193e:	53205453          	.insn	4, 0x53205453
80001942:	5254                	.insn	2, 0x5254
80001944:	4e49                	.insn	2, 0x4e49
80001946:	00000a47          	.insn	4, 0x0a47
8000194a:	0000                	.insn	2, 0x0000
8000194c:	4844                	.insn	2, 0x4844
8000194e:	5952                	.insn	2, 0x5952
80001950:	4e4f5453          	.insn	4, 0x4e4f5453
80001954:	2045                	.insn	2, 0x2045
80001956:	5250                	.insn	2, 0x5250
80001958:	4152474f          	.insn	4, 0x4152474f
8000195c:	2c4d                	.insn	2, 0x2c4d
8000195e:	3220                	.insn	2, 0x3220
80001960:	20444e27          	.insn	4, 0x20444e27
80001964:	49525453          	.insn	4, 0x49525453
80001968:	474e                	.insn	2, 0x474e
8000196a:	0000                	.insn	2, 0x0000
8000196c:	5f727453          	.insn	4, 0x5f727453
80001970:	5f32                	.insn	2, 0x5f32
80001972:	6f4c                	.insn	2, 0x6f4c
80001974:	20203a63          	.insn	4, 0x20203a63
80001978:	2020                	.insn	2, 0x2020
8000197a:	2020                	.insn	2, 0x2020
8000197c:	2020                	.insn	2, 0x2020
8000197e:	2020                	.insn	2, 0x2020
80001980:	2520                	.insn	2, 0x2520
80001982:	00000a73          	.insn	4, 0x0a73
80001986:	0000                	.insn	2, 0x0000
80001988:	2020                	.insn	2, 0x2020
8000198a:	2020                	.insn	2, 0x2020
8000198c:	2020                	.insn	2, 0x2020
8000198e:	2020                	.insn	2, 0x2020
80001990:	756f6873          	.insn	4, 0x756f6873
80001994:	646c                	.insn	2, 0x646c
80001996:	6220                	.insn	2, 0x6220
80001998:	3a65                	.insn	2, 0x3a65
8000199a:	2020                	.insn	2, 0x2020
8000199c:	4420                	.insn	2, 0x4420
8000199e:	5248                	.insn	2, 0x5248
800019a0:	5359                	.insn	2, 0x5359
800019a2:	4f54                	.insn	2, 0x4f54
800019a4:	454e                	.insn	2, 0x454e
800019a6:	5020                	.insn	2, 0x5020
800019a8:	4f52                	.insn	2, 0x4f52
800019aa:	4d415247          	.insn	4, 0x4d415247
800019ae:	202c                	.insn	2, 0x202c
800019b0:	2732                	.insn	2, 0x2732
800019b2:	444e                	.insn	2, 0x444e
800019b4:	5320                	.insn	2, 0x5320
800019b6:	5254                	.insn	2, 0x5254
800019b8:	4e49                	.insn	2, 0x4e49
800019ba:	00000a47          	.insn	4, 0x0a47
800019be:	0000                	.insn	2, 0x0000
800019c0:	4844                	.insn	2, 0x4844
800019c2:	5952                	.insn	2, 0x5952
800019c4:	4e4f5453          	.insn	4, 0x4e4f5453
800019c8:	2045                	.insn	2, 0x2045
800019ca:	5250                	.insn	2, 0x5250
800019cc:	4152474f          	.insn	4, 0x4152474f
800019d0:	2c4d                	.insn	2, 0x2c4d
800019d2:	3320                	.insn	2, 0x3320
800019d4:	20445227          	.insn	4, 0x20445227
800019d8:	49525453          	.insn	4, 0x49525453
800019dc:	474e                	.insn	2, 0x474e
	...

Disassembly of section .rodata:

800019e0 <.rodata>:
800019e0:	1174                	.insn	2, 0x1174
800019e2:	8000                	.insn	2, 0x8000
800019e4:	0e60                	.insn	2, 0x0e60
800019e6:	8000                	.insn	2, 0x8000
800019e8:	0e1c                	.insn	2, 0x0e1c
800019ea:	8000                	.insn	2, 0x8000
800019ec:	0e04                	.insn	2, 0x0e04
800019ee:	8000                	.insn	2, 0x8000
800019f0:	0e04                	.insn	2, 0x0e04
800019f2:	8000                	.insn	2, 0x8000
800019f4:	0e04                	.insn	2, 0x0e04
800019f6:	8000                	.insn	2, 0x8000
800019f8:	0e04                	.insn	2, 0x0e04
800019fa:	8000                	.insn	2, 0x8000
800019fc:	0e04                	.insn	2, 0x0e04
800019fe:	8000                	.insn	2, 0x8000
80001a00:	0e04                	.insn	2, 0x0e04
80001a02:	8000                	.insn	2, 0x8000
80001a04:	0e04                	.insn	2, 0x0e04
80001a06:	8000                	.insn	2, 0x8000
80001a08:	0e04                	.insn	2, 0x0e04
80001a0a:	8000                	.insn	2, 0x8000
80001a0c:	0e04                	.insn	2, 0x0e04
80001a0e:	8000                	.insn	2, 0x8000
80001a10:	0e04                	.insn	2, 0x0e04
80001a12:	8000                	.insn	2, 0x8000
80001a14:	0fa4                	.insn	2, 0x0fa4
80001a16:	8000                	.insn	2, 0x8000
80001a18:	0e04                	.insn	2, 0x0e04
80001a1a:	8000                	.insn	2, 0x8000
80001a1c:	0e04                	.insn	2, 0x0e04
80001a1e:	8000                	.insn	2, 0x8000
80001a20:	0e04                	.insn	2, 0x0e04
80001a22:	8000                	.insn	2, 0x8000
80001a24:	0e88                	.insn	2, 0x0e88
80001a26:	8000                	.insn	2, 0x8000
80001a28:	0e04                	.insn	2, 0x0e04
80001a2a:	8000                	.insn	2, 0x8000
80001a2c:	0e1c                	.insn	2, 0x0e1c
80001a2e:	8000                	.insn	2, 0x8000
80001a30:	0e04                	.insn	2, 0x0e04
80001a32:	8000                	.insn	2, 0x8000
80001a34:	0e04                	.insn	2, 0x0e04
80001a36:	8000                	.insn	2, 0x8000
80001a38:	114c                	.insn	2, 0x114c
80001a3a:	8000                	.insn	2, 0x8000

Disassembly of section .sdata:

80004650 <pass>:
/home/tututu/qimeng/simulator/baremetal/benchmarks/dhrystone/dry.c:714
Boolean pass = true;
80004650:	0001                	.insn	2, 0x0001
	...

80004654 <free_mem>:
/home/tututu/qimeng/simulator/baremetal/benchmarks/dhrystone/dry.c:443
static char *free_mem = &memory[0];
80004654:	1b04                	.insn	2, 0x1b04
80004656:	8000                	.insn	2, 0x8000

Disassembly of section .riscv.attributes:

00000000 <.riscv.attributes>:
   0:	4541                	.insn	2, 0x4541
   2:	0000                	.insn	2, 0x0000
   4:	7200                	.insn	2, 0x7200
   6:	7369                	.insn	2, 0x7369
   8:	01007663          	bgeu	zero,a6,14 <__stack_size-0x1ffffec>
   c:	0000003b          	.insn	4, 0x003b
  10:	1004                	.insn	2, 0x1004
  12:	7205                	.insn	2, 0x7205
  14:	3376                	.insn	2, 0x3376
  16:	6932                	.insn	2, 0x6932
  18:	7032                	.insn	2, 0x7032
  1a:	5f31                	.insn	2, 0x5f31
  1c:	326d                	.insn	2, 0x326d
  1e:	3070                	.insn	2, 0x3070
  20:	615f 7032 5f31      	.insn	6, 0x5f317032615f
  26:	6d7a                	.insn	2, 0x6d7a
  28:	756d                	.insn	2, 0x756d
  2a:	316c                	.insn	2, 0x316c
  2c:	3070                	.insn	2, 0x3070
  2e:	7a5f 6161 6f6d      	.insn	6, 0x6f6d61617a5f
  34:	7031                	.insn	2, 0x7031
  36:	5f30                	.insn	2, 0x5f30
  38:	617a                	.insn	2, 0x617a
  3a:	726c                	.insn	2, 0x726c
  3c:	70316373          	.insn	4, 0x70316373
  40:	0030                	.insn	2, 0x0030
  42:	0108                	.insn	2, 0x0108
  44:	0b0a                	.insn	2, 0x0b0a

Disassembly of section .comment:

00000000 <.comment>:
   0:	3a434347          	.insn	4, 0x3a434347
   4:	2820                	.insn	2, 0x2820
   6:	29554e47          	.insn	4, 0x29554e47
   a:	3120                	.insn	2, 0x3120
   c:	2e31                	.insn	2, 0x2e31
   e:	2e31                	.insn	2, 0x2e31
  10:	0030                	.insn	2, 0x0030
  12:	3a434347          	.insn	4, 0x3a434347
  16:	2820                	.insn	2, 0x2820
  18:	29554e47          	.insn	4, 0x29554e47
  1c:	3120                	.insn	2, 0x3120
  1e:	2e35                	.insn	2, 0x2e35
  20:	2e31                	.insn	2, 0x2e31
  22:	0030                	.insn	2, 0x0030

Disassembly of section .debug_line:

00000000 <.debug_line>:
       0:	005c                	.insn	2, 0x005c
       2:	0000                	.insn	2, 0x0000
       4:	0005                	.insn	2, 0x0005
       6:	0004                	.insn	2, 0x0004
       8:	002e                	.insn	2, 0x002e
       a:	0000                	.insn	2, 0x0000
       c:	0101                	.insn	2, 0x0101
       e:	fb01                	.insn	2, 0xfb01
      10:	0d0e                	.insn	2, 0x0d0e
      12:	0100                	.insn	2, 0x0100
      14:	0101                	.insn	2, 0x0101
      16:	0001                	.insn	2, 0x0001
      18:	0000                	.insn	2, 0x0000
      1a:	0001                	.insn	2, 0x0001
      1c:	0100                	.insn	2, 0x0100
      1e:	0101                	.insn	2, 0x0101
      20:	021f 0000 0000      	.insn	6, 0x021f
      26:	0000                	.insn	2, 0x0000
      28:	0000                	.insn	2, 0x0000
      2a:	0102                	.insn	2, 0x0102
      2c:	021f 020f 0006      	.insn	6, 0x0006020f021f
      32:	0000                	.insn	2, 0x0000
      34:	0600                	.insn	2, 0x0600
      36:	0000                	.insn	2, 0x0000
      38:	0100                	.insn	2, 0x0100
      3a:	0500                	.insn	2, 0x0500
      3c:	0002                	.insn	2, 0x0002
      3e:	0000                	.insn	2, 0x0000
      40:	1a80                	.insn	2, 0x1a80
      42:	08090103          	lb	sp,128(s2)
      46:	0100                	.insn	2, 0x0100
      48:	08090203          	lb	tp,128(s2)
      4c:	0100                	.insn	2, 0x0100
      4e:	04090103          	lb	sp,64(s2)
      52:	0100                	.insn	2, 0x0100
      54:	04090303          	lb	t1,64(s2)
      58:	0100                	.insn	2, 0x0100
      5a:	0409                	.insn	2, 0x0409
      5c:	0000                	.insn	2, 0x0000
      5e:	0101                	.insn	2, 0x0101
      60:	15bd                	.insn	2, 0x15bd
      62:	0000                	.insn	2, 0x0000
      64:	0005                	.insn	2, 0x0005
      66:	0004                	.insn	2, 0x0004
      68:	0038                	.insn	2, 0x0038
      6a:	0000                	.insn	2, 0x0000
      6c:	0101                	.insn	2, 0x0101
      6e:	fb01                	.insn	2, 0xfb01
      70:	0d0e                	.insn	2, 0x0d0e
      72:	0100                	.insn	2, 0x0100
      74:	0101                	.insn	2, 0x0101
      76:	0001                	.insn	2, 0x0001
      78:	0000                	.insn	2, 0x0000
      7a:	0001                	.insn	2, 0x0001
      7c:	0100                	.insn	2, 0x0100
      7e:	0101                	.insn	2, 0x0101
      80:	021f 0014 0000      	.insn	6, 0x0014021f
      86:	0051                	.insn	2, 0x0051
      88:	0000                	.insn	2, 0x0000
      8a:	0102                	.insn	2, 0x0102
      8c:	021f 040f 000e      	.insn	6, 0x000e040f021f
      92:	0000                	.insn	2, 0x0000
      94:	0e00                	.insn	2, 0x0e00
      96:	0000                	.insn	2, 0x0000
      98:	0000                	.insn	2, 0x0000
      9a:	005f 0000 6901      	.insn	6, 0x69010000005f
      a0:	0000                	.insn	2, 0x0000
      a2:	0000                	.insn	2, 0x0000
      a4:	0105                	.insn	2, 0x0105
      a6:	0500                	.insn	2, 0x0500
      a8:	4002                	.insn	2, 0x4002
      aa:	0008                	.insn	2, 0x0008
      ac:	0380                	.insn	2, 0x0380
      ae:	03f0                	.insn	2, 0x03f0
      b0:	0501                	.insn	2, 0x0501
      b2:	09010303          	lb	t1,144(sp)
      b6:	0000                	.insn	2, 0x0000
      b8:	0301                	.insn	2, 0x0301
      ba:	0901                	.insn	2, 0x0901
      bc:	0000                	.insn	2, 0x0000
      be:	0301                	.insn	2, 0x0301
      c0:	0902                	.insn	2, 0x0902
      c2:	0000                	.insn	2, 0x0000
      c4:	0501                	.insn	2, 0x0501
      c6:	02030613          	addi	a2,t1,32
      ca:	0009                	.insn	2, 0x0009
      cc:	0100                	.insn	2, 0x0100
      ce:	0805                	.insn	2, 0x0805
      d0:	04090003          	lb	zero,64(s2)
      d4:	0100                	.insn	2, 0x0100
      d6:	0305                	.insn	2, 0x0305
      d8:	0306                	.insn	2, 0x0306
      da:	097f 0008 0501 0305 	.insn	10, 0x0901030505010008097f
      e2:	0901 
      e4:	0000                	.insn	2, 0x0000
      e6:	0501                	.insn	2, 0x0501
      e8:	0608                	.insn	2, 0x0608
      ea:	00090003          	lb	zero,0(s2)
      ee:	0100                	.insn	2, 0x0100
      f0:	0105                	.insn	2, 0x0105
      f2:	04090803          	lb	a6,64(s2)
      f6:	0100                	.insn	2, 0x0100
      f8:	0705                	.insn	2, 0x0705
      fa:	0306                	.insn	2, 0x0306
      fc:	0004097b          	.insn	4, 0x0004097b
     100:	0301                	.insn	2, 0x0301
     102:	0901                	.insn	2, 0x0901
     104:	0000                	.insn	2, 0x0000
     106:	0501                	.insn	2, 0x0501
     108:	7f03060f          	.insn	4, 0x7f03060f
     10c:	0009                	.insn	2, 0x0009
     10e:	0100                	.insn	2, 0x0100
     110:	1e05                	.insn	2, 0x1e05
     112:	04090103          	lb	sp,64(s2)
     116:	0100                	.insn	2, 0x0100
     118:	0f05                	.insn	2, 0x0f05
     11a:	08097f03          	.insn	4, 0x08097f03
     11e:	0100                	.insn	2, 0x0100
     120:	1e05                	.insn	2, 0x1e05
     122:	04090103          	lb	sp,64(s2)
     126:	0100                	.insn	2, 0x0100
     128:	1405                	.insn	2, 0x1405
     12a:	04090003          	lb	zero,64(s2)
     12e:	0100                	.insn	2, 0x0100
     130:	0705                	.insn	2, 0x0705
     132:	0306                	.insn	2, 0x0306
     134:	0901                	.insn	2, 0x0901
     136:	0004                	.insn	2, 0x0004
     138:	0501                	.insn	2, 0x0501
     13a:	09020313          	addi	t1,tp,144 # 90 <__stack_size-0x1ffff70>
     13e:	0000                	.insn	2, 0x0000
     140:	0501                	.insn	2, 0x0501
     142:	0601                	.insn	2, 0x0601
     144:	00090103          	lb	sp,0(s2)
     148:	0100                	.insn	2, 0x0100
     14a:	0306                	.insn	2, 0x0306
     14c:	0909                	.insn	2, 0x0909
     14e:	0004                	.insn	2, 0x0004
     150:	0501                	.insn	2, 0x0501
     152:	09010303          	lb	t1,144(sp)
     156:	0000                	.insn	2, 0x0000
     158:	0501                	.insn	2, 0x0501
     15a:	0610                	.insn	2, 0x0610
     15c:	00090003          	lb	zero,0(s2)
     160:	0100                	.insn	2, 0x0100
     162:	0605                	.insn	2, 0x0605
     164:	08090003          	lb	zero,128(s2)
     168:	0100                	.insn	2, 0x0100
     16a:	0505                	.insn	2, 0x0505
     16c:	0306                	.insn	2, 0x0306
     16e:	0902                	.insn	2, 0x0902
     170:	0004                	.insn	2, 0x0004
     172:	0501                	.insn	2, 0x0501
     174:	061c                	.insn	2, 0x061c
     176:	00090003          	lb	zero,0(s2)
     17a:	0100                	.insn	2, 0x0100
     17c:	1205                	.insn	2, 0x1205
     17e:	04090003          	lb	zero,64(s2)
     182:	0100                	.insn	2, 0x0100
     184:	2105                	.insn	2, 0x2105
     186:	04090103          	lb	sp,64(s2)
     18a:	0100                	.insn	2, 0x0100
     18c:	0305                	.insn	2, 0x0305
     18e:	0306                	.insn	2, 0x0306
     190:	0900                	.insn	2, 0x0900
     192:	0004                	.insn	2, 0x0004
     194:	0301                	.insn	2, 0x0301
     196:	00d2                	.insn	2, 0x00d2
     198:	0009                	.insn	2, 0x0009
     19a:	0100                	.insn	2, 0x0100
     19c:	00090203          	lb	tp,0(s2)
     1a0:	0100                	.insn	2, 0x0100
     1a2:	00090103          	lb	sp,0(s2)
     1a6:	0100                	.insn	2, 0x0100
     1a8:	0306                	.insn	2, 0x0306
     1aa:	00097fab          	.insn	4, 0x00097fab
     1ae:	0100                	.insn	2, 0x0100
     1b0:	2005                	.insn	2, 0x2005
     1b2:	0900d503          	lhu	a0,144(ra)
     1b6:	0004                	.insn	2, 0x0004
     1b8:	0501                	.insn	2, 0x0501
     1ba:	0310                	.insn	2, 0x0310
     1bc:	0900                	.insn	2, 0x0900
     1be:	0008                	.insn	2, 0x0008
     1c0:	0501                	.insn	2, 0x0501
     1c2:	0301                	.insn	2, 0x0301
     1c4:	7fac                	.insn	2, 0x7fac
     1c6:	0409                	.insn	2, 0x0409
     1c8:	0100                	.insn	2, 0x0100
     1ca:	0306                	.insn	2, 0x0306
     1cc:	0905                	.insn	2, 0x0905
     1ce:	0004                	.insn	2, 0x0004
     1d0:	0501                	.insn	2, 0x0501
     1d2:	09010303          	lb	t1,144(sp)
     1d6:	0000                	.insn	2, 0x0000
     1d8:	0301                	.insn	2, 0x0301
     1da:	0902                	.insn	2, 0x0902
     1dc:	0000                	.insn	2, 0x0000
     1de:	0301                	.insn	2, 0x0301
     1e0:	0901                	.insn	2, 0x0901
     1e2:	0000                	.insn	2, 0x0000
     1e4:	0501                	.insn	2, 0x0501
     1e6:	0618                	.insn	2, 0x0618
     1e8:	00097f03          	.insn	4, 0x00097f03
     1ec:	0100                	.insn	2, 0x0100
     1ee:	0d05                	.insn	2, 0x0d05
     1f0:	08090103          	lb	sp,128(s2)
     1f4:	0100                	.insn	2, 0x0100
     1f6:	1805                	.insn	2, 0x1805
     1f8:	04090003          	lb	zero,64(s2)
     1fc:	0100                	.insn	2, 0x0100
     1fe:	04097f03          	.insn	4, 0x04097f03
     202:	0100                	.insn	2, 0x0100
     204:	08090103          	lb	sp,128(s2)
     208:	0100                	.insn	2, 0x0100
     20a:	0d05                	.insn	2, 0x0d05
     20c:	04090003          	lb	zero,64(s2)
     210:	0100                	.insn	2, 0x0100
     212:	0305                	.insn	2, 0x0305
     214:	0306                	.insn	2, 0x0306
     216:	0901                	.insn	2, 0x0901
     218:	0004                	.insn	2, 0x0004
     21a:	0501                	.insn	2, 0x0501
     21c:	060d                	.insn	2, 0x060d
     21e:	00090003          	lb	zero,0(s2)
     222:	0100                	.insn	2, 0x0100
     224:	0105                	.insn	2, 0x0105
     226:	0c090103          	lb	sp,192(s2)
     22a:	0100                	.insn	2, 0x0100
     22c:	0306                	.insn	2, 0x0306
     22e:	0905                	.insn	2, 0x0905
     230:	0004                	.insn	2, 0x0004
     232:	0501                	.insn	2, 0x0501
     234:	09010303          	lb	t1,144(sp)
     238:	0000                	.insn	2, 0x0000
     23a:	0501                	.insn	2, 0x0501
     23c:	060d                	.insn	2, 0x060d
     23e:	00090003          	lb	zero,0(s2)
     242:	0100                	.insn	2, 0x0100
     244:	0305                	.insn	2, 0x0305
     246:	0306                	.insn	2, 0x0306
     248:	0901                	.insn	2, 0x0901
     24a:	000c                	.insn	2, 0x000c
     24c:	0501                	.insn	2, 0x0501
     24e:	060d                	.insn	2, 0x060d
     250:	00090003          	lb	zero,0(s2)
     254:	0100                	.insn	2, 0x0100
     256:	0105                	.insn	2, 0x0105
     258:	08090103          	lb	sp,128(s2)
     25c:	0100                	.insn	2, 0x0100
     25e:	0306                	.insn	2, 0x0306
     260:	0921                	.insn	2, 0x0921
     262:	0004                	.insn	2, 0x0004
     264:	0501                	.insn	2, 0x0501
     266:	09010303          	lb	t1,144(sp)
     26a:	0000                	.insn	2, 0x0000
     26c:	0301                	.insn	2, 0x0301
     26e:	0901                	.insn	2, 0x0901
     270:	0000                	.insn	2, 0x0000
     272:	0301                	.insn	2, 0x0301
     274:	00fd                	.insn	2, 0x00fd
     276:	0009                	.insn	2, 0x0009
     278:	0100                	.insn	2, 0x0100
     27a:	00090203          	lb	tp,0(s2)
     27e:	0100                	.insn	2, 0x0100
     280:	00090103          	lb	sp,0(s2)
     284:	0100                	.insn	2, 0x0100
     286:	0605                	.insn	2, 0x0605
     288:	0306                	.insn	2, 0x0306
     28a:	0900                	.insn	2, 0x0900
     28c:	0000                	.insn	2, 0x0000
     28e:	0501                	.insn	2, 0x0501
     290:	0605                	.insn	2, 0x0605
     292:	08090403          	lb	s0,128(s2)
     296:	0100                	.insn	2, 0x0100
     298:	097efe03          	.insn	4, 0x097efe03
     29c:	0000                	.insn	2, 0x0000
     29e:	0501                	.insn	2, 0x0501
     2a0:	00030613          	addi	a2,t1,0
     2a4:	0009                	.insn	2, 0x0009
     2a6:	0100                	.insn	2, 0x0100
     2a8:	0305                	.insn	2, 0x0305
     2aa:	0306                	.insn	2, 0x0306
     2ac:	0901                	.insn	2, 0x0901
     2ae:	0008                	.insn	2, 0x0008
     2b0:	0501                	.insn	2, 0x0501
     2b2:	0305                	.insn	2, 0x0305
     2b4:	0911                	.insn	2, 0x0911
     2b6:	0014                	.insn	2, 0x0014
     2b8:	0501                	.insn	2, 0x0501
     2ba:	00030613          	addi	a2,t1,0
     2be:	0009                	.insn	2, 0x0009
     2c0:	0100                	.insn	2, 0x0100
     2c2:	0505                	.insn	2, 0x0505
     2c4:	0306                	.insn	2, 0x0306
     2c6:	0901                	.insn	2, 0x0901
     2c8:	0004                	.insn	2, 0x0004
     2ca:	0501                	.insn	2, 0x0501
     2cc:	0601                	.insn	2, 0x0601
     2ce:	00090203          	lb	tp,0(s2)
     2d2:	0100                	.insn	2, 0x0100
     2d4:	0505                	.insn	2, 0x0505
     2d6:	0306                	.insn	2, 0x0306
     2d8:	0971                	.insn	2, 0x0971
     2da:	0004                	.insn	2, 0x0004
     2dc:	0501                	.insn	2, 0x0501
     2de:	0612                	.insn	2, 0x0612
     2e0:	00090003          	lb	zero,0(s2)
     2e4:	0100                	.insn	2, 0x0100
     2e6:	0805                	.insn	2, 0x0805
     2e8:	04090003          	lb	zero,64(s2)
     2ec:	0100                	.insn	2, 0x0100
     2ee:	0705                	.insn	2, 0x0705
     2f0:	0306                	.insn	2, 0x0306
     2f2:	0902                	.insn	2, 0x0902
     2f4:	000c                	.insn	2, 0x000c
     2f6:	0501                	.insn	2, 0x0501
     2f8:	0615                	.insn	2, 0x0615
     2fa:	00090003          	lb	zero,0(s2)
     2fe:	0100                	.insn	2, 0x0100
     300:	0505                	.insn	2, 0x0505
     302:	0306                	.insn	2, 0x0306
     304:	0905                	.insn	2, 0x0905
     306:	000c                	.insn	2, 0x000c
     308:	0501                	.insn	2, 0x0501
     30a:	00030613          	addi	a2,t1,0
     30e:	0009                	.insn	2, 0x0009
     310:	0100                	.insn	2, 0x0100
     312:	0505                	.insn	2, 0x0505
     314:	0306                	.insn	2, 0x0306
     316:	0901                	.insn	2, 0x0901
     318:	0008                	.insn	2, 0x0008
     31a:	0501                	.insn	2, 0x0501
     31c:	0301                	.insn	2, 0x0301
     31e:	7efe                	.insn	2, 0x7efe
     320:	0409                	.insn	2, 0x0409
     322:	0100                	.insn	2, 0x0100
     324:	0705                	.insn	2, 0x0705
     326:	00090103          	lb	sp,0(s2)
     32a:	0100                	.insn	2, 0x0100
     32c:	0305                	.insn	2, 0x0305
     32e:	0306                	.insn	2, 0x0306
     330:	0905                	.insn	2, 0x0905
     332:	0000                	.insn	2, 0x0000
     334:	0501                	.insn	2, 0x0501
     336:	0301                	.insn	2, 0x0301
     338:	097a                	.insn	2, 0x097a
     33a:	0008                	.insn	2, 0x0008
     33c:	0501                	.insn	2, 0x0501
     33e:	09060303          	lb	t1,144(a2)
     342:	0008                	.insn	2, 0x0008
     344:	0501                	.insn	2, 0x0501
     346:	097b0313          	addi	t1,s6,151
     34a:	0004                	.insn	2, 0x0004
     34c:	0501                	.insn	2, 0x0501
     34e:	05030603          	lb	a2,80(t1)
     352:	0409                	.insn	2, 0x0409
     354:	0100                	.insn	2, 0x0100
     356:	0105                	.insn	2, 0x0105
     358:	0306                	.insn	2, 0x0306
     35a:	097a                	.insn	2, 0x097a
     35c:	0028                	.insn	2, 0x0028
     35e:	0501                	.insn	2, 0x0501
     360:	09060303          	lb	t1,144(a2)
     364:	0008                	.insn	2, 0x0008
     366:	0501                	.insn	2, 0x0501
     368:	0326                	.insn	2, 0x0326
     36a:	00040903          	lb	s2,0(s0)
     36e:	0501                	.insn	2, 0x0501
     370:	097d0303          	lb	t1,151(s10) # 203a5097 <__stack_size+0x1e3a5097>
     374:	0004                	.insn	2, 0x0004
     376:	0601                	.insn	2, 0x0601
     378:	04090103          	lb	sp,64(s2)
     37c:	0100                	.insn	2, 0x0100
     37e:	0306                	.insn	2, 0x0306
     380:	097f 0000 0501 0327 	.insn	10, 0x0901032705010000097f
     388:	0901 
     38a:	0024                	.insn	2, 0x0024
     38c:	0501                	.insn	2, 0x0501
     38e:	01030603          	lb	a2,16(t1)
     392:	0809                	.insn	2, 0x0809
     394:	0100                	.insn	2, 0x0100
     396:	1905                	.insn	2, 0x1905
     398:	0306                	.insn	2, 0x0306
     39a:	0901                	.insn	2, 0x0901
     39c:	0000                	.insn	2, 0x0000
     39e:	0501                	.insn	2, 0x0501
     3a0:	031c                	.insn	2, 0x031c
     3a2:	0931                	.insn	2, 0x0931
     3a4:	0004                	.insn	2, 0x0004
     3a6:	0501                	.insn	2, 0x0501
     3a8:	09010303          	lb	t1,144(sp)
     3ac:	0004                	.insn	2, 0x0004
     3ae:	0501                	.insn	2, 0x0501
     3b0:	0320                	.insn	2, 0x0320
     3b2:	00d5                	.insn	2, 0x00d5
     3b4:	0409                	.insn	2, 0x0409
     3b6:	0100                	.insn	2, 0x0100
     3b8:	1205                	.insn	2, 0x1205
     3ba:	097faa03          	lw	s4,151(t6)
     3be:	0004                	.insn	2, 0x0004
     3c0:	0501                	.insn	2, 0x0501
     3c2:	0310                	.insn	2, 0x0310
     3c4:	00d6                	.insn	2, 0x00d6
     3c6:	0409                	.insn	2, 0x0409
     3c8:	0100                	.insn	2, 0x0100
     3ca:	2005                	.insn	2, 0x2005
     3cc:	04090003          	lb	zero,64(s2)
     3d0:	0100                	.insn	2, 0x0100
     3d2:	2705                	.insn	2, 0x2705
     3d4:	097ef803          	.insn	4, 0x097ef803
     3d8:	0004                	.insn	2, 0x0004
     3da:	0501                	.insn	2, 0x0501
     3dc:	01030603          	lb	a2,16(t1)
     3e0:	0409                	.insn	2, 0x0409
     3e2:	0100                	.insn	2, 0x0100
     3e4:	00090103          	lb	sp,0(s2)
     3e8:	0100                	.insn	2, 0x0100
     3ea:	00092e03          	lw	t3,0(s2)
     3ee:	0100                	.insn	2, 0x0100
     3f0:	0505                	.insn	2, 0x0505
     3f2:	00090203          	lb	tp,0(s2)
     3f6:	0100                	.insn	2, 0x0100
     3f8:	0305                	.insn	2, 0x0305
     3fa:	00090103          	lb	sp,0(s2)
     3fe:	0100                	.insn	2, 0x0100
     400:	0900d203          	lhu	tp,144(ra)
     404:	0000                	.insn	2, 0x0000
     406:	0301                	.insn	2, 0x0301
     408:	0902                	.insn	2, 0x0902
     40a:	0000                	.insn	2, 0x0000
     40c:	0301                	.insn	2, 0x0301
     40e:	0901                	.insn	2, 0x0901
     410:	0000                	.insn	2, 0x0000
     412:	0501                	.insn	2, 0x0501
     414:	0610                	.insn	2, 0x0610
     416:	00090003          	lb	zero,0(s2)
     41a:	0100                	.insn	2, 0x0100
     41c:	0305                	.insn	2, 0x0305
     41e:	0306                	.insn	2, 0x0306
     420:	7efd                	.insn	2, 0x7efd
     422:	0409                	.insn	2, 0x0409
     424:	0100                	.insn	2, 0x0100
     426:	0605                	.insn	2, 0x0605
     428:	0306                	.insn	2, 0x0306
     42a:	0900                	.insn	2, 0x0900
     42c:	0000                	.insn	2, 0x0000
     42e:	0501                	.insn	2, 0x0501
     430:	0605                	.insn	2, 0x0605
     432:	08090a03          	lb	s4,128(s2)
     436:	0100                	.insn	2, 0x0100
     438:	0105                	.insn	2, 0x0105
     43a:	0306                	.insn	2, 0x0306
     43c:	0901                	.insn	2, 0x0901
     43e:	0004                	.insn	2, 0x0004
     440:	0501                	.insn	2, 0x0501
     442:	0305                	.insn	2, 0x0305
     444:	097f 0008 0501 0301 	.insn	10, 0x0901030105010008097f
     44c:	0901 
     44e:	0060                	.insn	2, 0x0060
     450:	0501                	.insn	2, 0x0501
     452:	0605                	.insn	2, 0x0605
     454:	0c097803          	.insn	4, 0x0c097803
     458:	0100                	.insn	2, 0x0100
     45a:	0306                	.insn	2, 0x0306
     45c:	0901                	.insn	2, 0x0901
     45e:	0000                	.insn	2, 0x0000
     460:	0501                	.insn	2, 0x0501
     462:	0329                	.insn	2, 0x0329
     464:	097f 0004 0501 0605 	.insn	10, 0x0103060505010004097f
     46c:	0103 
     46e:	0809                	.insn	2, 0x0809
     470:	0100                	.insn	2, 0x0100
     472:	08090203          	lb	tp,128(s2)
     476:	0100                	.insn	2, 0x0100
     478:	1005                	.insn	2, 0x1005
     47a:	0306                	.insn	2, 0x0306
     47c:	00fd                	.insn	2, 0x00fd
     47e:	0009                	.insn	2, 0x0009
     480:	0100                	.insn	2, 0x0100
     482:	1b05                	.insn	2, 0x1b05
     484:	097f8303          	lb	t1,151(t6)
     488:	0004                	.insn	2, 0x0004
     48a:	0501                	.insn	2, 0x0501
     48c:	0605                	.insn	2, 0x0605
     48e:	04090103          	lb	sp,64(s2)
     492:	0100                	.insn	2, 0x0100
     494:	0305                	.insn	2, 0x0305
     496:	0900f903          	.insn	4, 0x0900f903
     49a:	0000                	.insn	2, 0x0000
     49c:	0301                	.insn	2, 0x0301
     49e:	0902                	.insn	2, 0x0902
     4a0:	0000                	.insn	2, 0x0000
     4a2:	0301                	.insn	2, 0x0301
     4a4:	0901                	.insn	2, 0x0901
     4a6:	0000                	.insn	2, 0x0000
     4a8:	0501                	.insn	2, 0x0501
     4aa:	0601                	.insn	2, 0x0601
     4ac:	097f8803          	lb	a6,151(t6)
     4b0:	0000                	.insn	2, 0x0000
     4b2:	0501                	.insn	2, 0x0501
     4b4:	0310                	.insn	2, 0x0310
     4b6:	00f8                	.insn	2, 0x00f8
     4b8:	0409                	.insn	2, 0x0409
     4ba:	0100                	.insn	2, 0x0100
     4bc:	0105                	.insn	2, 0x0105
     4be:	097f8803          	lb	a6,151(t6)
     4c2:	0004                	.insn	2, 0x0004
     4c4:	0501                	.insn	2, 0x0501
     4c6:	0625                	.insn	2, 0x0625
     4c8:	0900f403          	.insn	4, 0x0900f403
     4cc:	0010                	.insn	2, 0x0010
     4ce:	0501                	.insn	2, 0x0501
     4d0:	09010303          	lb	t1,144(sp)
     4d4:	0000                	.insn	2, 0x0000
     4d6:	0301                	.insn	2, 0x0301
     4d8:	0902                	.insn	2, 0x0902
     4da:	0000                	.insn	2, 0x0000
     4dc:	0301                	.insn	2, 0x0301
     4de:	0901                	.insn	2, 0x0901
     4e0:	0000                	.insn	2, 0x0000
     4e2:	0501                	.insn	2, 0x0501
     4e4:	7f03060b          	.insn	4, 0x7f03060b
     4e8:	0009                	.insn	2, 0x0009
     4ea:	0100                	.insn	2, 0x0100
     4ec:	2005                	.insn	2, 0x2005
     4ee:	04090103          	lb	sp,64(s2)
     4f2:	0100                	.insn	2, 0x0100
     4f4:	1005                	.insn	2, 0x1005
     4f6:	04090003          	lb	zero,64(s2)
     4fa:	0100                	.insn	2, 0x0100
     4fc:	0105                	.insn	2, 0x0105
     4fe:	04090103          	lb	sp,64(s2)
     502:	0100                	.insn	2, 0x0100
     504:	0306                	.insn	2, 0x0306
     506:	0004090b          	.insn	4, 0x0004090b
     50a:	0501                	.insn	2, 0x0501
     50c:	09010303          	lb	t1,144(sp)
     510:	0000                	.insn	2, 0x0000
     512:	0301                	.insn	2, 0x0301
     514:	0901                	.insn	2, 0x0901
     516:	0000                	.insn	2, 0x0000
     518:	0301                	.insn	2, 0x0301
     51a:	0902                	.insn	2, 0x0902
     51c:	0000                	.insn	2, 0x0000
     51e:	0501                	.insn	2, 0x0501
     520:	0003060b          	.insn	4, 0x0003060b
     524:	0009                	.insn	2, 0x0009
     526:	0100                	.insn	2, 0x0100
     528:	0305                	.insn	2, 0x0305
     52a:	0306                	.insn	2, 0x0306
     52c:	0901                	.insn	2, 0x0901
     52e:	0004                	.insn	2, 0x0004
     530:	0501                	.insn	2, 0x0501
     532:	0612                	.insn	2, 0x0612
     534:	00090403          	lb	s0,0(s2)
     538:	0100                	.insn	2, 0x0100
     53a:	1005                	.insn	2, 0x1005
     53c:	14097c03          	.insn	4, 0x14097c03
     540:	0100                	.insn	2, 0x0100
     542:	1a05                	.insn	2, 0x1a05
     544:	10090003          	lb	zero,256(s2)
     548:	0100                	.insn	2, 0x0100
     54a:	0305                	.insn	2, 0x0305
     54c:	0306                	.insn	2, 0x0306
     54e:	0901                	.insn	2, 0x0901
     550:	0004                	.insn	2, 0x0004
     552:	0501                	.insn	2, 0x0501
     554:	061e                	.insn	2, 0x061e
     556:	00090003          	lb	zero,0(s2)
     55a:	0100                	.insn	2, 0x0100
     55c:	0305                	.insn	2, 0x0305
     55e:	0306                	.insn	2, 0x0306
     560:	0901                	.insn	2, 0x0901
     562:	0004                	.insn	2, 0x0004
     564:	0501                	.insn	2, 0x0501
     566:	061f 0003 0009      	.insn	6, 0x00090003061f
     56c:	0100                	.insn	2, 0x0100
     56e:	0305                	.insn	2, 0x0305
     570:	0306                	.insn	2, 0x0306
     572:	0901                	.insn	2, 0x0901
     574:	0004                	.insn	2, 0x0004
     576:	0501                	.insn	2, 0x0501
     578:	09000327          	.insn	4, 0x09000327
     57c:	0000                	.insn	2, 0x0000
     57e:	0501                	.insn	2, 0x0501
     580:	0305                	.insn	2, 0x0305
     582:	0901                	.insn	2, 0x0901
     584:	0000                	.insn	2, 0x0000
     586:	0501                	.insn	2, 0x0501
     588:	01030627          	.insn	4, 0x01030627
     58c:	0409                	.insn	2, 0x0409
     58e:	0100                	.insn	2, 0x0100
     590:	04097f03          	.insn	4, 0x04097f03
     594:	0100                	.insn	2, 0x0100
     596:	3705                	.insn	2, 0x3705
     598:	0306                	.insn	2, 0x0306
     59a:	097f 0004 0501 0327 	.insn	10, 0x0900032705010004097f
     5a2:	0900 
     5a4:	0000                	.insn	2, 0x0000
     5a6:	0501                	.insn	2, 0x0501
     5a8:	0305                	.insn	2, 0x0305
     5aa:	0901                	.insn	2, 0x0901
     5ac:	0000                	.insn	2, 0x0000
     5ae:	0501                	.insn	2, 0x0501
     5b0:	00030627          	.insn	4, 0x00030627
     5b4:	0009                	.insn	2, 0x0009
     5b6:	0100                	.insn	2, 0x0100
     5b8:	3705                	.insn	2, 0x3705
     5ba:	0306                	.insn	2, 0x0306
     5bc:	097f 0004 0501 0327 	.insn	10, 0x0900032705010004097f
     5c4:	0900 
     5c6:	0000                	.insn	2, 0x0000
     5c8:	0501                	.insn	2, 0x0501
     5ca:	09020303          	lb	t1,144(tp) # 90 <__stack_size-0x1ffff70>
     5ce:	0000                	.insn	2, 0x0000
     5d0:	0501                	.insn	2, 0x0501
     5d2:	00030627          	.insn	4, 0x00030627
     5d6:	0009                	.insn	2, 0x0009
     5d8:	0100                	.insn	2, 0x0100
     5da:	0305                	.insn	2, 0x0305
     5dc:	0306                	.insn	2, 0x0306
     5de:	0901                	.insn	2, 0x0901
     5e0:	0008                	.insn	2, 0x0008
     5e2:	0501                	.insn	2, 0x0501
     5e4:	00030637          	lui	a2,0x30
     5e8:	0009                	.insn	2, 0x0009
     5ea:	0100                	.insn	2, 0x0100
     5ec:	2805                	.insn	2, 0x2805
     5ee:	04090003          	lb	zero,64(s2)
     5f2:	0100                	.insn	2, 0x0100
     5f4:	0305                	.insn	2, 0x0305
     5f6:	0306                	.insn	2, 0x0306
     5f8:	0901                	.insn	2, 0x0901
     5fa:	0014                	.insn	2, 0x0014
     5fc:	0501                	.insn	2, 0x0501
     5fe:	060c                	.insn	2, 0x060c
     600:	00090003          	lb	zero,0(s2)
     604:	0100                	.insn	2, 0x0100
     606:	0105                	.insn	2, 0x0105
     608:	0c090103          	lb	sp,192(s2)
     60c:	0100                	.insn	2, 0x0100
     60e:	0306                	.insn	2, 0x0306
     610:	0004090b          	.insn	4, 0x0004090b
     614:	0501                	.insn	2, 0x0501
     616:	09010303          	lb	t1,144(sp)
     61a:	0000                	.insn	2, 0x0000
     61c:	0301                	.insn	2, 0x0301
     61e:	0901                	.insn	2, 0x0901
     620:	0000                	.insn	2, 0x0000
     622:	0301                	.insn	2, 0x0301
     624:	0902                	.insn	2, 0x0902
     626:	0000                	.insn	2, 0x0000
     628:	0501                	.insn	2, 0x0501
     62a:	0601                	.insn	2, 0x0601
     62c:	00097c03          	.insn	4, 0x00097c03
     630:	0100                	.insn	2, 0x0100
     632:	0305                	.insn	2, 0x0305
     634:	0306                	.insn	2, 0x0306
     636:	0905                	.insn	2, 0x0905
     638:	0004                	.insn	2, 0x0004
     63a:	0301                	.insn	2, 0x0301
     63c:	0901                	.insn	2, 0x0901
     63e:	0000                	.insn	2, 0x0000
     640:	0501                	.insn	2, 0x0501
     642:	0601                	.insn	2, 0x0601
     644:	00097a03          	.insn	4, 0x00097a03
     648:	0100                	.insn	2, 0x0100
     64a:	0605                	.insn	2, 0x0605
     64c:	04090603          	lb	a2,64(s2)
     650:	0100                	.insn	2, 0x0100
     652:	0c05                	.insn	2, 0x0c05
     654:	04090203          	lb	tp,64(s2)
     658:	0100                	.insn	2, 0x0100
     65a:	0105                	.insn	2, 0x0105
     65c:	04090603          	lb	a2,64(s2)
     660:	0100                	.insn	2, 0x0100
     662:	0505                	.insn	2, 0x0505
     664:	0306                	.insn	2, 0x0306
     666:	097d                	.insn	2, 0x097d
     668:	0004                	.insn	2, 0x0004
     66a:	0501                	.insn	2, 0x0501
     66c:	0003060f          	.insn	4, 0x0003060f
     670:	0009                	.insn	2, 0x0009
     672:	0100                	.insn	2, 0x0100
     674:	0505                	.insn	2, 0x0505
     676:	0306                	.insn	2, 0x0306
     678:	0901                	.insn	2, 0x0901
     67a:	0008                	.insn	2, 0x0008
     67c:	0501                	.insn	2, 0x0501
     67e:	060c                	.insn	2, 0x060c
     680:	00090003          	lb	zero,0(s2)
     684:	0100                	.insn	2, 0x0100
     686:	0105                	.insn	2, 0x0105
     688:	0306                	.insn	2, 0x0306
     68a:	090c                	.insn	2, 0x090c
     68c:	0008                	.insn	2, 0x0008
     68e:	0501                	.insn	2, 0x0501
     690:	09010303          	lb	t1,144(sp)
     694:	0000                	.insn	2, 0x0000
     696:	0301                	.insn	2, 0x0301
     698:	0901                	.insn	2, 0x0901
     69a:	0000                	.insn	2, 0x0000
     69c:	0301                	.insn	2, 0x0301
     69e:	0902                	.insn	2, 0x0902
     6a0:	0000                	.insn	2, 0x0000
     6a2:	0301                	.insn	2, 0x0301
     6a4:	0901                	.insn	2, 0x0901
     6a6:	0000                	.insn	2, 0x0000
     6a8:	0501                	.insn	2, 0x0501
     6aa:	0312                	.insn	2, 0x0312
     6ac:	0900                	.insn	2, 0x0900
     6ae:	0000                	.insn	2, 0x0000
     6b0:	0501                	.insn	2, 0x0501
     6b2:	0601                	.insn	2, 0x0601
     6b4:	00097b03          	.insn	4, 0x00097b03
     6b8:	0100                	.insn	2, 0x0100
     6ba:	1d05                	.insn	2, 0x1d05
     6bc:	08090603          	lb	a2,128(s2)
     6c0:	0100                	.insn	2, 0x0100
     6c2:	3505                	.insn	2, 0x3505
     6c4:	04090003          	lb	zero,64(s2)
     6c8:	0100                	.insn	2, 0x0100
     6ca:	0105                	.insn	2, 0x0105
     6cc:	04097a03          	.insn	4, 0x04097a03
     6d0:	0100                	.insn	2, 0x0100
     6d2:	3505                	.insn	2, 0x3505
     6d4:	04090603          	lb	a2,64(s2)
     6d8:	0100                	.insn	2, 0x0100
     6da:	0505                	.insn	2, 0x0505
     6dc:	0306                	.insn	2, 0x0306
     6de:	0900                	.insn	2, 0x0900
     6e0:	0004                	.insn	2, 0x0004
     6e2:	0501                	.insn	2, 0x0501
     6e4:	09630303          	lb	t1,150(t1)
     6e8:	0000                	.insn	2, 0x0000
     6ea:	0301                	.insn	2, 0x0301
     6ec:	0901                	.insn	2, 0x0901
     6ee:	0000                	.insn	2, 0x0000
     6f0:	0301                	.insn	2, 0x0301
     6f2:	0902                	.insn	2, 0x0902
     6f4:	0000                	.insn	2, 0x0000
     6f6:	0301                	.insn	2, 0x0301
     6f8:	0901                	.insn	2, 0x0901
     6fa:	0000                	.insn	2, 0x0000
     6fc:	0301                	.insn	2, 0x0301
     6fe:	0901                	.insn	2, 0x0901
     700:	0000                	.insn	2, 0x0000
     702:	0501                	.insn	2, 0x0501
     704:	0606                	.insn	2, 0x0606
     706:	00090003          	lb	zero,0(s2)
     70a:	0100                	.insn	2, 0x0100
     70c:	1205                	.insn	2, 0x1205
     70e:	0306                	.insn	2, 0x0306
     710:	00100917          	auipc	s2,0x100
     714:	0501                	.insn	2, 0x0501
     716:	09070303          	lb	t1,144(a4)
     71a:	0000                	.insn	2, 0x0000
     71c:	0301                	.insn	2, 0x0301
     71e:	00000903          	lb	s2,0(zero) # 0 <__stack_size-0x2000000>
     722:	0501                	.insn	2, 0x0501
     724:	0305                	.insn	2, 0x0305
     726:	0905                	.insn	2, 0x0905
     728:	0000                	.insn	2, 0x0000
     72a:	0501                	.insn	2, 0x0501
     72c:	0609                	.insn	2, 0x0609
     72e:	00090003          	lb	zero,0(s2) # 100710 <__stack_size-0x1eff8f0>
     732:	0100                	.insn	2, 0x0100
     734:	0e05                	.insn	2, 0x0e05
     736:	04090503          	lb	a0,64(s2)
     73a:	0100                	.insn	2, 0x0100
     73c:	0805                	.insn	2, 0x0805
     73e:	04097b03          	.insn	4, 0x04097b03
     742:	0100                	.insn	2, 0x0100
     744:	0705                	.insn	2, 0x0705
     746:	0306                	.insn	2, 0x0306
     748:	0901                	.insn	2, 0x0901
     74a:	0004                	.insn	2, 0x0004
     74c:	0301                	.insn	2, 0x0301
     74e:	0901                	.insn	2, 0x0901
     750:	0000                	.insn	2, 0x0000
     752:	0501                	.insn	2, 0x0501
     754:	0610                	.insn	2, 0x0610
     756:	00090003          	lb	zero,0(s2)
     75a:	0100                	.insn	2, 0x0100
     75c:	0705                	.insn	2, 0x0705
     75e:	0306                	.insn	2, 0x0306
     760:	0901                	.insn	2, 0x0901
     762:	000c                	.insn	2, 0x000c
     764:	0501                	.insn	2, 0x0501
     766:	060e                	.insn	2, 0x060e
     768:	00090003          	lb	zero,0(s2)
     76c:	0100                	.insn	2, 0x0100
     76e:	0105                	.insn	2, 0x0105
     770:	04090403          	lb	s0,64(s2)
     774:	0100                	.insn	2, 0x0100
     776:	0306                	.insn	2, 0x0306
     778:	001c0907          	.insn	4, 0x001c0907
     77c:	0501                	.insn	2, 0x0501
     77e:	09010303          	lb	t1,144(sp)
     782:	0000                	.insn	2, 0x0000
     784:	0301                	.insn	2, 0x0301
     786:	0902                	.insn	2, 0x0902
     788:	0000                	.insn	2, 0x0000
     78a:	0301                	.insn	2, 0x0301
     78c:	0901                	.insn	2, 0x0901
     78e:	0000                	.insn	2, 0x0000
     790:	0501                	.insn	2, 0x0501
     792:	0606                	.insn	2, 0x0606
     794:	00090003          	lb	zero,0(s2)
     798:	0100                	.insn	2, 0x0100
     79a:	0105                	.insn	2, 0x0105
     79c:	04090503          	lb	a0,64(s2)
     7a0:	0100                	.insn	2, 0x0100
     7a2:	1905                	.insn	2, 0x1905
     7a4:	0306                	.insn	2, 0x0306
     7a6:	00080903          	lb	s2,0(a6)
     7aa:	0501                	.insn	2, 0x0501
     7ac:	09010303          	lb	t1,144(sp)
     7b0:	0000                	.insn	2, 0x0000
     7b2:	0501                	.insn	2, 0x0501
     7b4:	0606                	.insn	2, 0x0606
     7b6:	00090003          	lb	zero,0(s2)
     7ba:	0100                	.insn	2, 0x0100
     7bc:	0505                	.insn	2, 0x0505
     7be:	0306                	.insn	2, 0x0306
     7c0:	0901                	.insn	2, 0x0901
     7c2:	0004                	.insn	2, 0x0004
     7c4:	0501                	.insn	2, 0x0501
     7c6:	060a                	.insn	2, 0x060a
     7c8:	00090003          	lb	zero,0(s2)
     7cc:	0100                	.insn	2, 0x0100
     7ce:	0305                	.insn	2, 0x0305
     7d0:	0306                	.insn	2, 0x0306
     7d2:	0901                	.insn	2, 0x0901
     7d4:	0008                	.insn	2, 0x0008
     7d6:	0501                	.insn	2, 0x0501
     7d8:	0601                	.insn	2, 0x0601
     7da:	00090103          	lb	sp,0(s2)
     7de:	0100                	.insn	2, 0x0100
     7e0:	0409                	.insn	2, 0x0409
     7e2:	0000                	.insn	2, 0x0000
     7e4:	0101                	.insn	2, 0x0101
     7e6:	0105                	.insn	2, 0x0105
     7e8:	0500                	.insn	2, 0x0500
     7ea:	1c02                	.insn	2, 0x1c02
     7ec:	0000                	.insn	2, 0x0000
     7ee:	0380                	.insn	2, 0x0380
     7f0:	05d4                	.insn	2, 0x05d4
     7f2:	0501                	.insn	2, 0x0501
     7f4:	09030303          	lb	t1,144(t1)
     7f8:	0000                	.insn	2, 0x0000
     7fa:	0301                	.insn	2, 0x0301
     7fc:	0901                	.insn	2, 0x0901
     7fe:	0000                	.insn	2, 0x0000
     800:	0301                	.insn	2, 0x0301
     802:	0901                	.insn	2, 0x0901
     804:	0000                	.insn	2, 0x0000
     806:	0301                	.insn	2, 0x0301
     808:	0901                	.insn	2, 0x0901
     80a:	0000                	.insn	2, 0x0000
     80c:	0301                	.insn	2, 0x0301
     80e:	0901                	.insn	2, 0x0901
     810:	0000                	.insn	2, 0x0000
     812:	0301                	.insn	2, 0x0301
     814:	0901                	.insn	2, 0x0901
     816:	0000                	.insn	2, 0x0000
     818:	0301                	.insn	2, 0x0301
     81a:	0901                	.insn	2, 0x0901
     81c:	0000                	.insn	2, 0x0000
     81e:	0301                	.insn	2, 0x0301
     820:	0901                	.insn	2, 0x0901
     822:	0000                	.insn	2, 0x0000
     824:	0301                	.insn	2, 0x0301
     826:	0901                	.insn	2, 0x0901
     828:	0000                	.insn	2, 0x0000
     82a:	0301                	.insn	2, 0x0301
     82c:	0902                	.insn	2, 0x0902
     82e:	0000                	.insn	2, 0x0000
     830:	0301                	.insn	2, 0x0301
     832:	0904                	.insn	2, 0x0904
     834:	0000                	.insn	2, 0x0000
     836:	0301                	.insn	2, 0x0301
     838:	7dd8                	.insn	2, 0x7dd8
     83a:	0009                	.insn	2, 0x0009
     83c:	0100                	.insn	2, 0x0100
     83e:	2605                	.insn	2, 0x2605
     840:	00090003          	lb	zero,0(s2)
     844:	0100                	.insn	2, 0x0100
     846:	0a05                	.insn	2, 0x0a05
     848:	0306                	.insn	2, 0x0306
     84a:	0900                	.insn	2, 0x0900
     84c:	0000                	.insn	2, 0x0000
     84e:	0501                	.insn	2, 0x0501
     850:	0301                	.insn	2, 0x0301
     852:	08090297          	auipc	t0,0x8090
     856:	0100                	.insn	2, 0x0100
     858:	2205                	.insn	2, 0x2205
     85a:	097de903          	.insn	4, 0x097de903
     85e:	0038                	.insn	2, 0x0038
     860:	0501                	.insn	2, 0x0501
     862:	0326                	.insn	2, 0x0326
     864:	0900                	.insn	2, 0x0900
     866:	0004                	.insn	2, 0x0004
     868:	0501                	.insn	2, 0x0501
     86a:	0605                	.insn	2, 0x0605
     86c:	08090103          	lb	sp,128(s2)
     870:	0100                	.insn	2, 0x0100
     872:	2205                	.insn	2, 0x2205
     874:	0306                	.insn	2, 0x0306
     876:	097f 0000 0501 030d 	.insn	10, 0x0901030d05010000097f
     87e:	0901 
     880:	0004                	.insn	2, 0x0004
     882:	0501                	.insn	2, 0x0501
     884:	0626                	.insn	2, 0x0626
     886:	04097f03          	.insn	4, 0x04097f03
     88a:	0100                	.insn	2, 0x0100
     88c:	0305                	.insn	2, 0x0305
     88e:	08090203          	lb	tp,128(s2)
     892:	0100                	.insn	2, 0x0100
     894:	00090103          	lb	sp,0(s2)
     898:	0100                	.insn	2, 0x0100
     89a:	1105                	.insn	2, 0x1105
     89c:	0306                	.insn	2, 0x0306
     89e:	02a5                	.insn	2, 0x02a5
     8a0:	0009                	.insn	2, 0x0009
     8a2:	0100                	.insn	2, 0x0100
     8a4:	2205                	.insn	2, 0x2205
     8a6:	097dd803          	lhu	a6,151(s11)
     8aa:	0008                	.insn	2, 0x0008
     8ac:	0501                	.insn	2, 0x0501
     8ae:	030c                	.insn	2, 0x030c
     8b0:	00040903          	lb	s2,0(s0)
     8b4:	0501                	.insn	2, 0x0501
     8b6:	01030603          	lb	a2,16(t1)
     8ba:	0409                	.insn	2, 0x0409
     8bc:	0100                	.insn	2, 0x0100
     8be:	0902a503          	lw	a0,144(t0) # 80908e2 <__stack_size+0x60908e2>
     8c2:	0000                	.insn	2, 0x0000
     8c4:	0501                	.insn	2, 0x0501
     8c6:	0326                	.insn	2, 0x0326
     8c8:	00097dd7          	.insn	4, 0x00097dd7
     8cc:	0100                	.insn	2, 0x0100
     8ce:	0505                	.insn	2, 0x0505
     8d0:	08090103          	lb	sp,128(s2)
     8d4:	0100                	.insn	2, 0x0100
     8d6:	2205                	.insn	2, 0x2205
     8d8:	0306                	.insn	2, 0x0306
     8da:	097f 0000 0501 030d 	.insn	10, 0x0901030d05010000097f
     8e2:	0901 
     8e4:	0004                	.insn	2, 0x0004
     8e6:	0501                	.insn	2, 0x0501
     8e8:	0626                	.insn	2, 0x0626
     8ea:	04097f03          	.insn	4, 0x04097f03
     8ee:	0100                	.insn	2, 0x0100
     8f0:	0305                	.insn	2, 0x0305
     8f2:	08090203          	lb	tp,128(s2)
     8f6:	0100                	.insn	2, 0x0100
     8f8:	00090103          	lb	sp,0(s2)
     8fc:	0100                	.insn	2, 0x0100
     8fe:	0c05                	.insn	2, 0x0c05
     900:	0306                	.insn	2, 0x0306
     902:	02a6                	.insn	2, 0x02a6
     904:	0009                	.insn	2, 0x0009
     906:	0100                	.insn	2, 0x0100
     908:	1605                	.insn	2, 0x1605
     90a:	08090203          	lb	tp,128(s2)
     90e:	0100                	.insn	2, 0x0100
     910:	2505                	.insn	2, 0x2505
     912:	04090203          	lb	tp,64(s2)
     916:	0100                	.insn	2, 0x0100
     918:	2405                	.insn	2, 0x2405
     91a:	08090103          	lb	sp,128(s2)
     91e:	0100                	.insn	2, 0x0100
     920:	0305                	.insn	2, 0x0305
     922:	08090103          	lb	sp,128(s2)
     926:	0100                	.insn	2, 0x0100
     928:	0c05                	.insn	2, 0x0c05
     92a:	097dd403          	lhu	s0,151(s11)
     92e:	0004                	.insn	2, 0x0004
     930:	0501                	.insn	2, 0x0501
     932:	02ac0303          	lb	t1,42(s8)
     936:	0409                	.insn	2, 0x0409
     938:	0100                	.insn	2, 0x0100
     93a:	1305                	.insn	2, 0x1305
     93c:	08097d03          	.insn	4, 0x08097d03
     940:	0100                	.insn	2, 0x0100
     942:	0305                	.insn	2, 0x0305
     944:	04090303          	lb	t1,64(s2)
     948:	0100                	.insn	2, 0x0100
     94a:	0c05                	.insn	2, 0x0c05
     94c:	097dd403          	lhu	s0,151(s11)
     950:	0004                	.insn	2, 0x0004
     952:	0501                	.insn	2, 0x0501
     954:	01030603          	lb	a2,16(t1)
     958:	0409                	.insn	2, 0x0409
     95a:	0100                	.insn	2, 0x0100
     95c:	0902a703          	lw	a4,144(t0)
     960:	0000                	.insn	2, 0x0000
     962:	0301                	.insn	2, 0x0301
     964:	0901                	.insn	2, 0x0901
     966:	0000                	.insn	2, 0x0000
     968:	0301                	.insn	2, 0x0301
     96a:	0901                	.insn	2, 0x0901
     96c:	0000                	.insn	2, 0x0000
     96e:	0301                	.insn	2, 0x0301
     970:	0901                	.insn	2, 0x0901
     972:	0000                	.insn	2, 0x0000
     974:	0301                	.insn	2, 0x0301
     976:	0901                	.insn	2, 0x0901
     978:	0000                	.insn	2, 0x0000
     97a:	0301                	.insn	2, 0x0301
     97c:	0901                	.insn	2, 0x0901
     97e:	0004                	.insn	2, 0x0004
     980:	0501                	.insn	2, 0x0501
     982:	1a030607          	.insn	4, 0x1a030607
     986:	1009                	.insn	2, 0x1009
     988:	0100                	.insn	2, 0x0100
     98a:	0305                	.insn	2, 0x0305
     98c:	04096603          	.insn	4, 0x04096603
     990:	0100                	.insn	2, 0x0100
     992:	0705                	.insn	2, 0x0705
     994:	08091a03          	lh	s4,128(s2)
     998:	0100                	.insn	2, 0x0100
     99a:	0305                	.insn	2, 0x0305
     99c:	08096603          	.insn	4, 0x08096603
     9a0:	0100                	.insn	2, 0x0100
     9a2:	0705                	.insn	2, 0x0705
     9a4:	08091a03          	lh	s4,128(s2)
     9a8:	0100                	.insn	2, 0x0100
     9aa:	0305                	.insn	2, 0x0305
     9ac:	08096603          	.insn	4, 0x08096603
     9b0:	0100                	.insn	2, 0x0100
     9b2:	0705                	.insn	2, 0x0705
     9b4:	08091a03          	lh	s4,128(s2)
     9b8:	0100                	.insn	2, 0x0100
     9ba:	0305                	.insn	2, 0x0305
     9bc:	08096603          	.insn	4, 0x08096603
     9c0:	0100                	.insn	2, 0x0100
     9c2:	0705                	.insn	2, 0x0705
     9c4:	08091a03          	lh	s4,128(s2)
     9c8:	0100                	.insn	2, 0x0100
     9ca:	0305                	.insn	2, 0x0305
     9cc:	08096603          	.insn	4, 0x08096603
     9d0:	0100                	.insn	2, 0x0100
     9d2:	0705                	.insn	2, 0x0705
     9d4:	08091a03          	lh	s4,128(s2)
     9d8:	0100                	.insn	2, 0x0100
     9da:	0305                	.insn	2, 0x0305
     9dc:	08096603          	.insn	4, 0x08096603
     9e0:	0100                	.insn	2, 0x0100
     9e2:	0705                	.insn	2, 0x0705
     9e4:	08091a03          	lh	s4,128(s2)
     9e8:	0100                	.insn	2, 0x0100
     9ea:	0305                	.insn	2, 0x0305
     9ec:	08096603          	.insn	4, 0x08096603
     9f0:	0100                	.insn	2, 0x0100
     9f2:	0705                	.insn	2, 0x0705
     9f4:	08091a03          	lh	s4,128(s2)
     9f8:	0100                	.insn	2, 0x0100
     9fa:	0305                	.insn	2, 0x0305
     9fc:	18096603          	.insn	4, 0x18096603
     a00:	0100                	.insn	2, 0x0100
     a02:	0805                	.insn	2, 0x0805
     a04:	04090a03          	lb	s4,64(s2)
     a08:	0100                	.insn	2, 0x0100
     a0a:	0305                	.insn	2, 0x0305
     a0c:	04097603          	.insn	4, 0x04097603
     a10:	0100                	.insn	2, 0x0100
     a12:	0b05                	.insn	2, 0x0b05
     a14:	0c093103          	.insn	4, 0x0c093103
     a18:	0100                	.insn	2, 0x0100
     a1a:	0305                	.insn	2, 0x0305
     a1c:	04094f03          	lbu	t5,64(s2)
     a20:	0100                	.insn	2, 0x0100
     a22:	0306                	.insn	2, 0x0306
     a24:	0902                	.insn	2, 0x0902
     a26:	0004                	.insn	2, 0x0004
     a28:	0301                	.insn	2, 0x0301
     a2a:	0908                	.insn	2, 0x0908
     a2c:	0000                	.insn	2, 0x0000
     a2e:	0601                	.insn	2, 0x0601
     a30:	00097603          	.insn	4, 0x00097603
     a34:	0100                	.insn	2, 0x0100
     a36:	0805                	.insn	2, 0x0805
     a38:	04090a03          	lb	s4,64(s2)
     a3c:	0100                	.insn	2, 0x0100
     a3e:	0305                	.insn	2, 0x0305
     a40:	0306                	.insn	2, 0x0306
     a42:	0901                	.insn	2, 0x0901
     a44:	0004                	.insn	2, 0x0004
     a46:	0501                	.insn	2, 0x0501
     a48:	030a                	.insn	2, 0x030a
     a4a:	0900                	.insn	2, 0x0900
     a4c:	0000                	.insn	2, 0x0000
     a4e:	0501                	.insn	2, 0x0501
     a50:	0608                	.insn	2, 0x0608
     a52:	00097f03          	.insn	4, 0x00097f03
     a56:	0100                	.insn	2, 0x0100
     a58:	1405                	.insn	2, 0x1405
     a5a:	08090903          	lb	s2,128(s2)
     a5e:	0100                	.insn	2, 0x0100
     a60:	0b05                	.insn	2, 0x0b05
     a62:	20091e03          	lh	t3,512(s2)
     a66:	0100                	.insn	2, 0x0100
     a68:	0705                	.insn	2, 0x0705
     a6a:	0306                	.insn	2, 0x0306
     a6c:	0964                	.insn	2, 0x0964
     a6e:	0004                	.insn	2, 0x0004
     a70:	0501                	.insn	2, 0x0501
     a72:	7e9b0303          	lb	t1,2025(s6)
     a76:	0009                	.insn	2, 0x0009
     a78:	0100                	.insn	2, 0x0100
     a7a:	0d05                	.insn	2, 0x0d05
     a7c:	0306                	.insn	2, 0x0306
     a7e:	0900                	.insn	2, 0x0900
     a80:	0000                	.insn	2, 0x0000
     a82:	0501                	.insn	2, 0x0501
     a84:	01030603          	lb	a2,16(t1)
     a88:	0809                	.insn	2, 0x0809
     a8a:	0100                	.insn	2, 0x0100
     a8c:	0705                	.insn	2, 0x0705
     a8e:	0901e503          	.insn	4, 0x0901e503
     a92:	0000                	.insn	2, 0x0000
     a94:	0501                	.insn	2, 0x0501
     a96:	7e8f0303          	lb	t1,2024(t5)
     a9a:	0009                	.insn	2, 0x0009
     a9c:	0100                	.insn	2, 0x0100
     a9e:	00090203          	lb	tp,0(s2)
     aa2:	0100                	.insn	2, 0x0100
     aa4:	00090103          	lb	sp,0(s2)
     aa8:	0100                	.insn	2, 0x0100
     aaa:	00090103          	lb	sp,0(s2)
     aae:	0100                	.insn	2, 0x0100
     ab0:	0d05                	.insn	2, 0x0d05
     ab2:	0306                	.insn	2, 0x0306
     ab4:	0900                	.insn	2, 0x0900
     ab6:	0000                	.insn	2, 0x0000
     ab8:	0501                	.insn	2, 0x0501
     aba:	ef030607          	.insn	4, 0xef030607
     abe:	0901                	.insn	2, 0x0901
     ac0:	0008                	.insn	2, 0x0008
     ac2:	0301                	.insn	2, 0x0301
     ac4:	0901                	.insn	2, 0x0901
     ac6:	0000                	.insn	2, 0x0000
     ac8:	0301                	.insn	2, 0x0301
     aca:	0901                	.insn	2, 0x0901
     acc:	0000                	.insn	2, 0x0000
     ace:	0301                	.insn	2, 0x0301
     ad0:	0901                	.insn	2, 0x0901
     ad2:	004c                	.insn	2, 0x004c
     ad4:	0301                	.insn	2, 0x0301
     ad6:	0901                	.insn	2, 0x0901
     ad8:	0000                	.insn	2, 0x0000
     ada:	0501                	.insn	2, 0x0501
     adc:	0312                	.insn	2, 0x0312
     ade:	7f98                	.insn	2, 0x7f98
     ae0:	0009                	.insn	2, 0x0009
     ae2:	0100                	.insn	2, 0x0100
     ae4:	0605                	.insn	2, 0x0605
     ae6:	0306                	.insn	2, 0x0306
     ae8:	0969                	.insn	2, 0x0969
     aea:	0000                	.insn	2, 0x0000
     aec:	0501                	.insn	2, 0x0501
     aee:	0605                	.insn	2, 0x0605
     af0:	04091803          	lh	a6,64(s2)
     af4:	0100                	.insn	2, 0x0100
     af6:	0305                	.insn	2, 0x0305
     af8:	00096303          	.insn	4, 0x00096303
     afc:	0100                	.insn	2, 0x0100
     afe:	00090103          	lb	sp,0(s2)
     b02:	0100                	.insn	2, 0x0100
     b04:	00090203          	lb	tp,0(s2)
     b08:	0100                	.insn	2, 0x0100
     b0a:	00090103          	lb	sp,0(s2)
     b0e:	0100                	.insn	2, 0x0100
     b10:	00090103          	lb	sp,0(s2)
     b14:	0100                	.insn	2, 0x0100
     b16:	0605                	.insn	2, 0x0605
     b18:	0306                	.insn	2, 0x0306
     b1a:	0900                	.insn	2, 0x0900
     b1c:	0000                	.insn	2, 0x0000
     b1e:	0501                	.insn	2, 0x0501
     b20:	0612                	.insn	2, 0x0612
     b22:	0c091703          	lh	a4,192(s2)
     b26:	0100                	.insn	2, 0x0100
     b28:	0305                	.insn	2, 0x0305
     b2a:	00090703          	lb	a4,0(s2)
     b2e:	0100                	.insn	2, 0x0100
     b30:	00090303          	lb	t1,0(s2)
     b34:	0100                	.insn	2, 0x0100
     b36:	0505                	.insn	2, 0x0505
     b38:	00090503          	lb	a0,0(s2)
     b3c:	0100                	.insn	2, 0x0100
     b3e:	0905                	.insn	2, 0x0905
     b40:	0306                	.insn	2, 0x0306
     b42:	0900                	.insn	2, 0x0900
     b44:	0000                	.insn	2, 0x0000
     b46:	0501                	.insn	2, 0x0501
     b48:	031f 0943 000c      	.insn	6, 0x000c0943031f
     b4e:	0501                	.insn	2, 0x0501
     b50:	031a                	.insn	2, 0x031a
     b52:	097e                	.insn	2, 0x097e
     b54:	0004                	.insn	2, 0x0004
     b56:	0501                	.insn	2, 0x0501
     b58:	09050327          	.insn	4, 0x09050327
     b5c:	0004                	.insn	2, 0x0004
     b5e:	0501                	.insn	2, 0x0501
     b60:	0311                	.insn	2, 0x0311
     b62:	04090193          	addi	gp,s2,64
     b66:	0100                	.insn	2, 0x0100
     b68:	1a05                	.insn	2, 0x1a05
     b6a:	097ee803          	.insn	4, 0x097ee803
     b6e:	0004                	.insn	2, 0x0004
     b70:	0501                	.insn	2, 0x0501
     b72:	031e                	.insn	2, 0x031e
     b74:	0901                	.insn	2, 0x0901
     b76:	0004                	.insn	2, 0x0004
     b78:	0501                	.insn	2, 0x0501
     b7a:	09030327          	.insn	4, 0x09030327
     b7e:	0004                	.insn	2, 0x0004
     b80:	0501                	.insn	2, 0x0501
     b82:	0328                	.insn	2, 0x0328
     b84:	0902                	.insn	2, 0x0902
     b86:	0008                	.insn	2, 0x0008
     b88:	0501                	.insn	2, 0x0501
     b8a:	019f0307          	.insn	4, 0x019f0307
     b8e:	0409                	.insn	2, 0x0409
     b90:	0100                	.insn	2, 0x0100
     b92:	0c05                	.insn	2, 0x0c05
     b94:	097ee203          	.insn	4, 0x097ee203
     b98:	0004                	.insn	2, 0x0004
     b9a:	0501                	.insn	2, 0x0501
     b9c:	097e0327          	.insn	4, 0x097e0327
     ba0:	0004                	.insn	2, 0x0004
     ba2:	0501                	.insn	2, 0x0501
     ba4:	031f 097d 0004      	.insn	6, 0x0004097d031f
     baa:	0501                	.insn	2, 0x0501
     bac:	030c                	.insn	2, 0x030c
     bae:	0905                	.insn	2, 0x0905
     bb0:	0004                	.insn	2, 0x0004
     bb2:	0501                	.insn	2, 0x0501
     bb4:	0311                	.insn	2, 0x0311
     bb6:	0191                	.insn	2, 0x0191
     bb8:	0409                	.insn	2, 0x0409
     bba:	0100                	.insn	2, 0x0100
     bbc:	0705                	.insn	2, 0x0705
     bbe:	0306                	.insn	2, 0x0306
     bc0:	0902                	.insn	2, 0x0902
     bc2:	0004                	.insn	2, 0x0004
     bc4:	0501                	.insn	2, 0x0501
     bc6:	0318                	.insn	2, 0x0318
     bc8:	0900                	.insn	2, 0x0900
     bca:	0000                	.insn	2, 0x0000
     bcc:	0301                	.insn	2, 0x0301
     bce:	0900                	.insn	2, 0x0900
     bd0:	0000                	.insn	2, 0x0000
     bd2:	0501                	.insn	2, 0x0501
     bd4:	09090307          	.insn	4, 0x09090307
     bd8:	0000                	.insn	2, 0x0000
     bda:	0501                	.insn	2, 0x0501
     bdc:	7ed90303          	lb	t1,2029(s2)
     be0:	0009                	.insn	2, 0x0009
     be2:	0100                	.insn	2, 0x0100
     be4:	00090103          	lb	sp,0(s2)
     be8:	0100                	.insn	2, 0x0100
     bea:	00090203          	lb	tp,0(s2)
     bee:	0100                	.insn	2, 0x0100
     bf0:	00090103          	lb	sp,0(s2)
     bf4:	0100                	.insn	2, 0x0100
     bf6:	00090103          	lb	sp,0(s2)
     bfa:	0100                	.insn	2, 0x0100
     bfc:	00090103          	lb	sp,0(s2)
     c00:	0100                	.insn	2, 0x0100
     c02:	00090103          	lb	sp,0(s2)
     c06:	0100                	.insn	2, 0x0100
     c08:	2705                	.insn	2, 0x2705
     c0a:	00090003          	lb	zero,0(s2)
     c0e:	0100                	.insn	2, 0x0100
     c10:	0505                	.insn	2, 0x0505
     c12:	00090103          	lb	sp,0(s2)
     c16:	0100                	.insn	2, 0x0100
     c18:	3705                	.insn	2, 0x3705
     c1a:	00097f03          	.insn	4, 0x00097f03
     c1e:	0100                	.insn	2, 0x0100
     c20:	2705                	.insn	2, 0x2705
     c22:	00090003          	lb	zero,0(s2)
     c26:	0100                	.insn	2, 0x0100
     c28:	0505                	.insn	2, 0x0505
     c2a:	00090103          	lb	sp,0(s2)
     c2e:	0100                	.insn	2, 0x0100
     c30:	3705                	.insn	2, 0x3705
     c32:	00097f03          	.insn	4, 0x00097f03
     c36:	0100                	.insn	2, 0x0100
     c38:	2705                	.insn	2, 0x2705
     c3a:	00090003          	lb	zero,0(s2)
     c3e:	0100                	.insn	2, 0x0100
     c40:	0305                	.insn	2, 0x0305
     c42:	00090203          	lb	tp,0(s2)
     c46:	0100                	.insn	2, 0x0100
     c48:	00090103          	lb	sp,0(s2)
     c4c:	0100                	.insn	2, 0x0100
     c4e:	00090103          	lb	sp,0(s2)
     c52:	0100                	.insn	2, 0x0100
     c54:	0705                	.insn	2, 0x0705
     c56:	09019e03          	lh	t3,144(gp)
     c5a:	0000                	.insn	2, 0x0000
     c5c:	0301                	.insn	2, 0x0301
     c5e:	0901                	.insn	2, 0x0901
     c60:	0004                	.insn	2, 0x0004
     c62:	0501                	.insn	2, 0x0501
     c64:	0325                	.insn	2, 0x0325
     c66:	0900                	.insn	2, 0x0900
     c68:	0000                	.insn	2, 0x0000
     c6a:	0501                	.insn	2, 0x0501
     c6c:	0615                	.insn	2, 0x0615
     c6e:	10090003          	lb	zero,256(s2)
     c72:	0100                	.insn	2, 0x0100
     c74:	2505                	.insn	2, 0x2505
     c76:	04090003          	lb	zero,64(s2)
     c7a:	0100                	.insn	2, 0x0100
     c7c:	1005                	.insn	2, 0x1005
     c7e:	04097103          	.insn	4, 0x04097103
     c82:	0100                	.insn	2, 0x0100
     c84:	1105                	.insn	2, 0x1105
     c86:	04097e03          	.insn	4, 0x04097e03
     c8a:	0100                	.insn	2, 0x0100
     c8c:	0605                	.insn	2, 0x0605
     c8e:	097f8403          	lb	s0,151(t6)
     c92:	0004                	.insn	2, 0x0004
     c94:	0501                	.insn	2, 0x0501
     c96:	04020033          	.insn	4, 0x04020033
     c9a:	0602                	.insn	2, 0x0602
     c9c:	09018d03          	lb	s10,144(gp)
     ca0:	0004                	.insn	2, 0x0004
     ca2:	0501                	.insn	2, 0x0501
     ca4:	0009                	.insn	2, 0x0009
     ca6:	0402                	.insn	2, 0x0402
     ca8:	0302                	.insn	2, 0x0302
     caa:	00080903          	lb	s2,0(a6)
     cae:	0501                	.insn	2, 0x0501
     cb0:	04020003          	lb	zero,64(tp) # 40 <__stack_size-0x1ffffc0>
     cb4:	0302                	.insn	2, 0x0302
     cb6:	00097eeb          	.insn	4, 0x00097eeb
     cba:	0100                	.insn	2, 0x0100
     cbc:	0200                	.insn	2, 0x0200
     cbe:	0204                	.insn	2, 0x0204
     cc0:	00090103          	lb	sp,0(s2)
     cc4:	0100                	.insn	2, 0x0100
     cc6:	0200                	.insn	2, 0x0200
     cc8:	0204                	.insn	2, 0x0204
     cca:	00090203          	lb	tp,0(s2)
     cce:	0100                	.insn	2, 0x0100
     cd0:	0200                	.insn	2, 0x0200
     cd2:	0204                	.insn	2, 0x0204
     cd4:	00090103          	lb	sp,0(s2)
     cd8:	0100                	.insn	2, 0x0100
     cda:	0200                	.insn	2, 0x0200
     cdc:	0204                	.insn	2, 0x0204
     cde:	00090103          	lb	sp,0(s2)
     ce2:	0100                	.insn	2, 0x0100
     ce4:	2505                	.insn	2, 0x2505
     ce6:	0200                	.insn	2, 0x0200
     ce8:	0204                	.insn	2, 0x0204
     cea:	09018d03          	lb	s10,144(gp)
     cee:	0000                	.insn	2, 0x0000
     cf0:	0501                	.insn	2, 0x0501
     cf2:	060c                	.insn	2, 0x060c
     cf4:	097ef503          	.insn	4, 0x097ef503
     cf8:	0004                	.insn	2, 0x0004
     cfa:	0501                	.insn	2, 0x0501
     cfc:	0306                	.insn	2, 0x0306
     cfe:	097e                	.insn	2, 0x097e
     d00:	0004                	.insn	2, 0x0004
     d02:	0501                	.insn	2, 0x0501
     d04:	9303060b          	.insn	4, 0x9303060b
     d08:	0901                	.insn	2, 0x0901
     d0a:	0004                	.insn	2, 0x0004
     d0c:	0501                	.insn	2, 0x0501
     d0e:	7ea40303          	lb	t1,2026(s0)
     d12:	0009                	.insn	2, 0x0009
     d14:	0100                	.insn	2, 0x0100
     d16:	00090103          	lb	sp,0(s2)
     d1a:	0100                	.insn	2, 0x0100
     d1c:	0505                	.insn	2, 0x0505
     d1e:	00090203          	lb	tp,0(s2)
     d22:	0100                	.insn	2, 0x0100
     d24:	0305                	.insn	2, 0x0305
     d26:	00090103          	lb	sp,0(s2)
     d2a:	0100                	.insn	2, 0x0100
     d2c:	0505                	.insn	2, 0x0505
     d2e:	00090203          	lb	tp,0(s2)
     d32:	0100                	.insn	2, 0x0100
     d34:	00090103          	lb	sp,0(s2)
     d38:	0100                	.insn	2, 0x0100
     d3a:	0b05                	.insn	2, 0x0b05
     d3c:	0901d603          	lhu	a2,144(gp)
     d40:	0000                	.insn	2, 0x0000
     d42:	0501                	.insn	2, 0x0501
     d44:	060c                	.insn	2, 0x060c
     d46:	00097c03          	.insn	4, 0x00097c03
     d4a:	0100                	.insn	2, 0x0100
     d4c:	0b05                	.insn	2, 0x0b05
     d4e:	04090403          	lb	s0,64(s2)
     d52:	0100                	.insn	2, 0x0100
     d54:	3305                	.insn	2, 0x3305
     d56:	24097903          	.insn	4, 0x24097903
     d5a:	0100                	.insn	2, 0x0100
     d5c:	0b05                	.insn	2, 0x0b05
     d5e:	04090703          	lb	a4,64(s2)
     d62:	0100                	.insn	2, 0x0100
     d64:	0306                	.insn	2, 0x0306
     d66:	0901                	.insn	2, 0x0901
     d68:	0024                	.insn	2, 0x0024
     d6a:	0301                	.insn	2, 0x0301
     d6c:	0901                	.insn	2, 0x0901
     d6e:	0000                	.insn	2, 0x0000
     d70:	0501                	.insn	2, 0x0501
     d72:	77030633          	.insn	4, 0x77030633
     d76:	0009                	.insn	2, 0x0009
     d78:	0100                	.insn	2, 0x0100
     d7a:	1405                	.insn	2, 0x1405
     d7c:	04090903          	lb	s2,64(s2)
     d80:	0100                	.insn	2, 0x0100
     d82:	0b05                	.insn	2, 0x0b05
     d84:	04097e03          	.insn	4, 0x04097e03
     d88:	0100                	.insn	2, 0x0100
     d8a:	1305                	.insn	2, 0x1305
     d8c:	097ea903          	lw	s2,151(t4)
     d90:	0008                	.insn	2, 0x0008
     d92:	0501                	.insn	2, 0x0501
     d94:	d0030633          	.insn	4, 0xd0030633
     d98:	0901                	.insn	2, 0x0901
     d9a:	0004                	.insn	2, 0x0004
     d9c:	0501                	.insn	2, 0x0501
     d9e:	0309                	.insn	2, 0x0309
     da0:	00000903          	lb	s2,0(zero) # 0 <__stack_size-0x2000000>
     da4:	0501                	.insn	2, 0x0501
     da6:	7eeb0303          	lb	t1,2030(s6)
     daa:	0009                	.insn	2, 0x0009
     dac:	0100                	.insn	2, 0x0100
     dae:	00090103          	lb	sp,0(s2)
     db2:	0100                	.insn	2, 0x0100
     db4:	00090203          	lb	tp,0(s2)
     db8:	0100                	.insn	2, 0x0100
     dba:	00090103          	lb	sp,0(s2)
     dbe:	0100                	.insn	2, 0x0100
     dc0:	00090103          	lb	sp,0(s2)
     dc4:	0100                	.insn	2, 0x0100
     dc6:	2505                	.insn	2, 0x2505
     dc8:	09018d03          	lb	s10,144(gp)
     dcc:	0000                	.insn	2, 0x0000
     dce:	0501                	.insn	2, 0x0501
     dd0:	0611                	.insn	2, 0x0611
     dd2:	18096f03          	.insn	4, 0x18096f03
     dd6:	0100                	.insn	2, 0x0100
     dd8:	04091e03          	lh	t3,64(s2)
     ddc:	0100                	.insn	2, 0x0100
     dde:	1d05                	.insn	2, 0x1d05
     de0:	08090103          	lb	sp,128(s2)
     de4:	0100                	.insn	2, 0x0100
     de6:	2205                	.insn	2, 0x2205
     de8:	0c090103          	lb	sp,192(s2)
     dec:	0100                	.insn	2, 0x0100
     dee:	1d05                	.insn	2, 0x1d05
     df0:	04097f03          	.insn	4, 0x04097f03
     df4:	0100                	.insn	2, 0x0100
     df6:	1505                	.insn	2, 0x1505
     df8:	04090103          	lb	sp,64(s2)
     dfc:	0100                	.insn	2, 0x0100
     dfe:	1105                	.insn	2, 0x1105
     e00:	04090003          	lb	zero,64(s2)
     e04:	0100                	.insn	2, 0x0100
     e06:	1505                	.insn	2, 0x1505
     e08:	04090003          	lb	zero,64(s2)
     e0c:	0100                	.insn	2, 0x0100
     e0e:	1105                	.insn	2, 0x1105
     e10:	04090003          	lb	zero,64(s2)
     e14:	0100                	.insn	2, 0x0100
     e16:	0705                	.insn	2, 0x0705
     e18:	0200                	.insn	2, 0x0200
     e1a:	0204                	.insn	2, 0x0204
     e1c:	0306                	.insn	2, 0x0306
     e1e:	097e                	.insn	2, 0x097e
     e20:	0004                	.insn	2, 0x0004
     e22:	0001                	.insn	2, 0x0001
     e24:	0402                	.insn	2, 0x0402
     e26:	0302                	.insn	2, 0x0302
     e28:	0901                	.insn	2, 0x0901
     e2a:	0000                	.insn	2, 0x0000
     e2c:	0001                	.insn	2, 0x0001
     e2e:	0402                	.insn	2, 0x0402
     e30:	0302                	.insn	2, 0x0302
     e32:	0901                	.insn	2, 0x0901
     e34:	0000                	.insn	2, 0x0000
     e36:	0001                	.insn	2, 0x0001
     e38:	0402                	.insn	2, 0x0402
     e3a:	0302                	.insn	2, 0x0302
     e3c:	0902                	.insn	2, 0x0902
     e3e:	0000                	.insn	2, 0x0000
     e40:	0501                	.insn	2, 0x0501
     e42:	04020003          	lb	zero,64(tp) # 40 <__stack_size-0x1ffffc0>
     e46:	0302                	.insn	2, 0x0302
     e48:	7dc9                	.insn	2, 0x7dc9
     e4a:	0009                	.insn	2, 0x0009
     e4c:	0100                	.insn	2, 0x0100
     e4e:	0200                	.insn	2, 0x0200
     e50:	0204                	.insn	2, 0x0204
     e52:	00090103          	lb	sp,0(s2)
     e56:	0100                	.insn	2, 0x0100
     e58:	0200                	.insn	2, 0x0200
     e5a:	0204                	.insn	2, 0x0204
     e5c:	00090203          	lb	tp,0(s2)
     e60:	0100                	.insn	2, 0x0100
     e62:	0200                	.insn	2, 0x0200
     e64:	0204                	.insn	2, 0x0204
     e66:	00090103          	lb	sp,0(s2)
     e6a:	0100                	.insn	2, 0x0100
     e6c:	0505                	.insn	2, 0x0505
     e6e:	0200                	.insn	2, 0x0200
     e70:	0204                	.insn	2, 0x0204
     e72:	00090103          	lb	sp,0(s2)
     e76:	0100                	.insn	2, 0x0100
     e78:	0805                	.insn	2, 0x0805
     e7a:	0200                	.insn	2, 0x0200
     e7c:	0204                	.insn	2, 0x0204
     e7e:	0306                	.insn	2, 0x0306
     e80:	0900                	.insn	2, 0x0900
     e82:	0000                	.insn	2, 0x0000
     e84:	0501                	.insn	2, 0x0501
     e86:	03030607          	.insn	4, 0x03030607
     e8a:	0809                	.insn	2, 0x0809
     e8c:	0100                	.insn	2, 0x0100
     e8e:	00090103          	lb	sp,0(s2)
     e92:	0100                	.insn	2, 0x0100
     e94:	1e05                	.insn	2, 0x1e05
     e96:	0306                	.insn	2, 0x0306
     e98:	0900                	.insn	2, 0x0900
     e9a:	0000                	.insn	2, 0x0000
     e9c:	0501                	.insn	2, 0x0501
     e9e:	097f030f          	.insn	4, 0x097f030f
     ea2:	0004                	.insn	2, 0x0004
     ea4:	0501                	.insn	2, 0x0501
     ea6:	031e                	.insn	2, 0x031e
     ea8:	0901                	.insn	2, 0x0901
     eaa:	0004                	.insn	2, 0x0004
     eac:	0501                	.insn	2, 0x0501
     eae:	01030607          	.insn	4, 0x01030607
     eb2:	0409                	.insn	2, 0x0409
     eb4:	0100                	.insn	2, 0x0100
     eb6:	1305                	.insn	2, 0x1305
     eb8:	00090203          	lb	tp,0(s2)
     ebc:	0100                	.insn	2, 0x0100
     ebe:	3605                	.insn	2, 0x3605
     ec0:	09028303          	lb	t1,144(t0)
     ec4:	0000                	.insn	2, 0x0000
     ec6:	0501                	.insn	2, 0x0501
     ec8:	00030623          	sb	zero,12(t1)
     ecc:	0009                	.insn	2, 0x0009
     ece:	0100                	.insn	2, 0x0100
     ed0:	3605                	.insn	2, 0x3605
     ed2:	04090003          	lb	zero,64(s2)
     ed6:	0100                	.insn	2, 0x0100
     ed8:	2305                	.insn	2, 0x2305
     eda:	0306                	.insn	2, 0x0306
     edc:	0900                	.insn	2, 0x0900
     ede:	0004                	.insn	2, 0x0004
     ee0:	0501                	.insn	2, 0x0501
     ee2:	16030607          	.insn	4, 0x16030607
     ee6:	0809                	.insn	2, 0x0809
     ee8:	0100                	.insn	2, 0x0100
     eea:	1d05                	.insn	2, 0x1d05
     eec:	097f8c03          	lb	s8,151(t6)
     ef0:	0008                	.insn	2, 0x0008
     ef2:	0501                	.insn	2, 0x0501
     ef4:	09540327          	.insn	4, 0x09540327
     ef8:	0004                	.insn	2, 0x0004
     efa:	0501                	.insn	2, 0x0501
     efc:	030c                	.insn	2, 0x030c
     efe:	091a                	.insn	2, 0x091a
     f00:	0008                	.insn	2, 0x0008
     f02:	0501                	.insn	2, 0x0501
     f04:	7ee60313          	addi	t1,a2,2030 # 307ee <__stack_size-0x1fcf812>
     f08:	1409                	.insn	2, 0x1409
     f0a:	0100                	.insn	2, 0x0100
     f0c:	1005                	.insn	2, 0x1005
     f0e:	09029203          	lh	tp,144(t0)
     f12:	000c                	.insn	2, 0x000c
     f14:	0501                	.insn	2, 0x0501
     f16:	7dee0313          	addi	t1,t3,2014
     f1a:	0809                	.insn	2, 0x0809
     f1c:	0100                	.insn	2, 0x0100
     f1e:	0805                	.insn	2, 0x0805
     f20:	0902be03          	.insn	4, 0x0902be03
     f24:	0008                	.insn	2, 0x0008
     f26:	0501                	.insn	2, 0x0501
     f28:	030a                	.insn	2, 0x030a
     f2a:	097d                	.insn	2, 0x097d
     f2c:	0004                	.insn	2, 0x0004
     f2e:	0501                	.insn	2, 0x0501
     f30:	0306                	.insn	2, 0x0306
     f32:	7f9a                	.insn	2, 0x7f9a
     f34:	0c09                	.insn	2, 0x0c09
     f36:	0100                	.insn	2, 0x0100
     f38:	0805                	.insn	2, 0x0805
     f3a:	0900e903          	.insn	4, 0x0900e903
     f3e:	0004                	.insn	2, 0x0004
     f40:	0501                	.insn	2, 0x0501
     f42:	0605                	.insn	2, 0x0605
     f44:	08097d03          	.insn	4, 0x08097d03
     f48:	0100                	.insn	2, 0x0100
     f4a:	0a05                	.insn	2, 0x0a05
     f4c:	00094703          	lbu	a4,0(s2)
     f50:	0100                	.insn	2, 0x0100
     f52:	0305                	.insn	2, 0x0305
     f54:	00093c03          	.insn	4, 0x00093c03
     f58:	0100                	.insn	2, 0x0100
     f5a:	097f9703          	lh	a4,151(t6)
     f5e:	0000                	.insn	2, 0x0000
     f60:	0501                	.insn	2, 0x0501
     f62:	0606                	.insn	2, 0x0606
     f64:	00090003          	lb	zero,0(s2)
     f68:	0100                	.insn	2, 0x0100
     f6a:	0505                	.insn	2, 0x0505
     f6c:	0306                	.insn	2, 0x0306
     f6e:	0901                	.insn	2, 0x0901
     f70:	0008                	.insn	2, 0x0008
     f72:	0601                	.insn	2, 0x0601
     f74:	0900e903          	.insn	4, 0x0900e903
     f78:	0000                	.insn	2, 0x0000
     f7a:	0501                	.insn	2, 0x0501
     f7c:	030a                	.insn	2, 0x030a
     f7e:	08097f97          	auipc	t6,0x8097
     f82:	0100                	.insn	2, 0x0100
     f84:	0305                	.insn	2, 0x0305
     f86:	0306                	.insn	2, 0x0306
     f88:	0901                	.insn	2, 0x0901
     f8a:	0008                	.insn	2, 0x0008
     f8c:	0501                	.insn	2, 0x0501
     f8e:	0305                	.insn	2, 0x0305
     f90:	00e8                	.insn	2, 0x00e8
     f92:	0009                	.insn	2, 0x0009
     f94:	0100                	.insn	2, 0x0100
     f96:	04090103          	lb	sp,64(s2)
     f9a:	0100                	.insn	2, 0x0100
     f9c:	0305                	.insn	2, 0x0305
     f9e:	14090203          	lb	tp,320(s2)
     fa2:	0100                	.insn	2, 0x0100
     fa4:	0805                	.insn	2, 0x0805
     fa6:	0306                	.insn	2, 0x0306
     fa8:	0900                	.insn	2, 0x0900
     faa:	0000                	.insn	2, 0x0000
     fac:	0501                	.insn	2, 0x0501
     fae:	93030603          	lb	a2,-1744(t1)
     fb2:	097f 0004 0501 0606 	.insn	10, 0x0003060605010004097f
     fba:	0003 
     fbc:	0009                	.insn	2, 0x0009
     fbe:	0100                	.insn	2, 0x0100
     fc0:	0505                	.insn	2, 0x0505
     fc2:	0900ee03          	.insn	4, 0x0900ee03
     fc6:	0008                	.insn	2, 0x0008
     fc8:	0601                	.insn	2, 0x0601
     fca:	097f9303          	lh	t1,151(t6) # 8098015 <__stack_size+0x6098015>
     fce:	000c                	.insn	2, 0x000c
     fd0:	0501                	.insn	2, 0x0501
     fd2:	060a                	.insn	2, 0x060a
     fd4:	00090003          	lb	zero,0(s2)
     fd8:	0100                	.insn	2, 0x0100
     fda:	0305                	.insn	2, 0x0305
     fdc:	0306                	.insn	2, 0x0306
     fde:	0901                	.insn	2, 0x0901
     fe0:	0004                	.insn	2, 0x0004
     fe2:	0501                	.insn	2, 0x0501
     fe4:	0305                	.insn	2, 0x0305
     fe6:	00ec                	.insn	2, 0x00ec
     fe8:	0009                	.insn	2, 0x0009
     fea:	0100                	.insn	2, 0x0100
     fec:	04090103          	lb	sp,64(s2)
     ff0:	0100                	.insn	2, 0x0100
     ff2:	0305                	.insn	2, 0x0305
     ff4:	14090203          	lb	tp,320(s2)
     ff8:	0100                	.insn	2, 0x0100
     ffa:	0805                	.insn	2, 0x0805
     ffc:	0306                	.insn	2, 0x0306
     ffe:	0900                	.insn	2, 0x0900
    1000:	0000                	.insn	2, 0x0000
    1002:	0501                	.insn	2, 0x0501
    1004:	8f030603          	lb	a2,-1808(t1)
    1008:	097f 0004 0501 0606 	.insn	10, 0x0003060605010004097f
    1010:	0003 
    1012:	0009                	.insn	2, 0x0009
    1014:	0100                	.insn	2, 0x0100
    1016:	0505                	.insn	2, 0x0505
    1018:	0900f203          	.insn	4, 0x0900f203
    101c:	0008                	.insn	2, 0x0008
    101e:	0601                	.insn	2, 0x0601
    1020:	097f8f03          	lb	t5,151(t6)
    1024:	000c                	.insn	2, 0x000c
    1026:	0501                	.insn	2, 0x0501
    1028:	060a                	.insn	2, 0x060a
    102a:	00090003          	lb	zero,0(s2)
    102e:	0100                	.insn	2, 0x0100
    1030:	0305                	.insn	2, 0x0305
    1032:	0306                	.insn	2, 0x0306
    1034:	0901                	.insn	2, 0x0901
    1036:	0004                	.insn	2, 0x0004
    1038:	0501                	.insn	2, 0x0501
    103a:	0305                	.insn	2, 0x0305
    103c:	00f0                	.insn	2, 0x00f0
    103e:	0009                	.insn	2, 0x0009
    1040:	0100                	.insn	2, 0x0100
    1042:	04090103          	lb	sp,64(s2)
    1046:	0100                	.insn	2, 0x0100
    1048:	0305                	.insn	2, 0x0305
    104a:	14090203          	lb	tp,320(s2)
    104e:	0100                	.insn	2, 0x0100
    1050:	0805                	.insn	2, 0x0805
    1052:	0306                	.insn	2, 0x0306
    1054:	0900                	.insn	2, 0x0900
    1056:	0000                	.insn	2, 0x0000
    1058:	0501                	.insn	2, 0x0501
    105a:	8b030603          	lb	a2,-1872(t1)
    105e:	097f 0004 0501 0606 	.insn	10, 0x0003060605010004097f
    1066:	0003 
    1068:	0009                	.insn	2, 0x0009
    106a:	0100                	.insn	2, 0x0100
    106c:	0505                	.insn	2, 0x0505
    106e:	0900f603          	.insn	4, 0x0900f603
    1072:	0008                	.insn	2, 0x0008
    1074:	0601                	.insn	2, 0x0601
    1076:	097f8b03          	lb	s6,151(t6)
    107a:	000c                	.insn	2, 0x000c
    107c:	0501                	.insn	2, 0x0501
    107e:	060a                	.insn	2, 0x060a
    1080:	00090003          	lb	zero,0(s2)
    1084:	0100                	.insn	2, 0x0100
    1086:	0305                	.insn	2, 0x0305
    1088:	0306                	.insn	2, 0x0306
    108a:	0901                	.insn	2, 0x0901
    108c:	0004                	.insn	2, 0x0004
    108e:	0501                	.insn	2, 0x0501
    1090:	0305                	.insn	2, 0x0305
    1092:	00f4                	.insn	2, 0x00f4
    1094:	0009                	.insn	2, 0x0009
    1096:	0100                	.insn	2, 0x0100
    1098:	04090103          	lb	sp,64(s2)
    109c:	0100                	.insn	2, 0x0100
    109e:	0305                	.insn	2, 0x0305
    10a0:	14090203          	lb	tp,320(s2)
    10a4:	0100                	.insn	2, 0x0100
    10a6:	1805                	.insn	2, 0x1805
    10a8:	0306                	.insn	2, 0x0306
    10aa:	0900                	.insn	2, 0x0900
    10ac:	0000                	.insn	2, 0x0000
    10ae:	0501                	.insn	2, 0x0501
    10b0:	87030603          	lb	a2,-1936(t1)
    10b4:	097f 0004 0501 0606 	.insn	10, 0x0003060605010004097f
    10bc:	0003 
    10be:	0009                	.insn	2, 0x0009
    10c0:	0100                	.insn	2, 0x0100
    10c2:	0505                	.insn	2, 0x0505
    10c4:	0900fa03          	.insn	4, 0x0900fa03
    10c8:	0008                	.insn	2, 0x0008
    10ca:	0601                	.insn	2, 0x0601
    10cc:	097f8703          	lb	a4,151(t6)
    10d0:	000c                	.insn	2, 0x000c
    10d2:	0501                	.insn	2, 0x0501
    10d4:	060a                	.insn	2, 0x060a
    10d6:	00090003          	lb	zero,0(s2)
    10da:	0100                	.insn	2, 0x0100
    10dc:	0305                	.insn	2, 0x0305
    10de:	0306                	.insn	2, 0x0306
    10e0:	0901                	.insn	2, 0x0901
    10e2:	0004                	.insn	2, 0x0004
    10e4:	0501                	.insn	2, 0x0501
    10e6:	0305                	.insn	2, 0x0305
    10e8:	00f8                	.insn	2, 0x00f8
    10ea:	0009                	.insn	2, 0x0009
    10ec:	0100                	.insn	2, 0x0100
    10ee:	04090103          	lb	sp,64(s2)
    10f2:	0100                	.insn	2, 0x0100
    10f4:	0305                	.insn	2, 0x0305
    10f6:	14090203          	lb	tp,320(s2)
    10fa:	0100                	.insn	2, 0x0100
    10fc:	1b05                	.insn	2, 0x1b05
    10fe:	0306                	.insn	2, 0x0306
    1100:	0900                	.insn	2, 0x0900
    1102:	0000                	.insn	2, 0x0000
    1104:	0501                	.insn	2, 0x0501
    1106:	83030603          	lb	a2,-2000(t1)
    110a:	097f 0004 0501 0606 	.insn	10, 0x0003060605010004097f
    1112:	0003 
    1114:	0009                	.insn	2, 0x0009
    1116:	0100                	.insn	2, 0x0100
    1118:	0505                	.insn	2, 0x0505
    111a:	0900fe03          	.insn	4, 0x0900fe03
    111e:	000c                	.insn	2, 0x000c
    1120:	0601                	.insn	2, 0x0601
    1122:	097f8303          	lb	t1,151(t6)
    1126:	000c                	.insn	2, 0x000c
    1128:	0501                	.insn	2, 0x0501
    112a:	060a                	.insn	2, 0x060a
    112c:	00090003          	lb	zero,0(s2)
    1130:	0100                	.insn	2, 0x0100
    1132:	0305                	.insn	2, 0x0305
    1134:	0306                	.insn	2, 0x0306
    1136:	0901                	.insn	2, 0x0901
    1138:	0004                	.insn	2, 0x0004
    113a:	0501                	.insn	2, 0x0501
    113c:	0305                	.insn	2, 0x0305
    113e:	00fc                	.insn	2, 0x00fc
    1140:	0009                	.insn	2, 0x0009
    1142:	0100                	.insn	2, 0x0100
    1144:	04090103          	lb	sp,64(s2)
    1148:	0100                	.insn	2, 0x0100
    114a:	0305                	.insn	2, 0x0305
    114c:	10090303          	lb	t1,256(s2)
    1150:	0100                	.insn	2, 0x0100
    1152:	1b05                	.insn	2, 0x1b05
    1154:	0306                	.insn	2, 0x0306
    1156:	0900                	.insn	2, 0x0900
    1158:	0000                	.insn	2, 0x0000
    115a:	0501                	.insn	2, 0x0501
    115c:	fe030603          	lb	a2,-32(t1)
    1160:	097e                	.insn	2, 0x097e
    1162:	000c                	.insn	2, 0x000c
    1164:	0501                	.insn	2, 0x0501
    1166:	0606                	.insn	2, 0x0606
    1168:	00090003          	lb	zero,0(s2)
    116c:	0100                	.insn	2, 0x0100
    116e:	0505                	.insn	2, 0x0505
    1170:	09018303          	lb	t1,144(gp)
    1174:	0004                	.insn	2, 0x0004
    1176:	0601                	.insn	2, 0x0601
    1178:	097efe03          	.insn	4, 0x097efe03
    117c:	000c                	.insn	2, 0x000c
    117e:	0501                	.insn	2, 0x0501
    1180:	060a                	.insn	2, 0x060a
    1182:	00090003          	lb	zero,0(s2)
    1186:	0100                	.insn	2, 0x0100
    1188:	0305                	.insn	2, 0x0305
    118a:	0306                	.insn	2, 0x0306
    118c:	0901                	.insn	2, 0x0901
    118e:	0004                	.insn	2, 0x0004
    1190:	0501                	.insn	2, 0x0501
    1192:	0305                	.insn	2, 0x0305
    1194:	0181                	.insn	2, 0x0181
    1196:	0009                	.insn	2, 0x0009
    1198:	0100                	.insn	2, 0x0100
    119a:	04090103          	lb	sp,64(s2)
    119e:	0100                	.insn	2, 0x0100
    11a0:	0305                	.insn	2, 0x0305
    11a2:	14090203          	lb	tp,320(s2)
    11a6:	0100                	.insn	2, 0x0100
    11a8:	2505                	.insn	2, 0x2505
    11aa:	0306                	.insn	2, 0x0306
    11ac:	0900                	.insn	2, 0x0900
    11ae:	0000                	.insn	2, 0x0000
    11b0:	0501                	.insn	2, 0x0501
    11b2:	0306                	.insn	2, 0x0306
    11b4:	7efa                	.insn	2, 0x7efa
    11b6:	0809                	.insn	2, 0x0809
    11b8:	0100                	.insn	2, 0x0100
    11ba:	2505                	.insn	2, 0x2505
    11bc:	09018603          	lb	a2,144(gp)
    11c0:	0004                	.insn	2, 0x0004
    11c2:	0501                	.insn	2, 0x0501
    11c4:	fa030603          	lb	a2,-96(t1)
    11c8:	097e                	.insn	2, 0x097e
    11ca:	0004                	.insn	2, 0x0004
    11cc:	0501                	.insn	2, 0x0501
    11ce:	0606                	.insn	2, 0x0606
    11d0:	00090003          	lb	zero,0(s2)
    11d4:	0100                	.insn	2, 0x0100
    11d6:	0505                	.insn	2, 0x0505
    11d8:	09018703          	lb	a4,144(gp)
    11dc:	0004                	.insn	2, 0x0004
    11de:	0601                	.insn	2, 0x0601
    11e0:	097efa03          	.insn	4, 0x097efa03
    11e4:	000c                	.insn	2, 0x000c
    11e6:	0501                	.insn	2, 0x0501
    11e8:	060a                	.insn	2, 0x060a
    11ea:	00090003          	lb	zero,0(s2)
    11ee:	0100                	.insn	2, 0x0100
    11f0:	0305                	.insn	2, 0x0305
    11f2:	0306                	.insn	2, 0x0306
    11f4:	0901                	.insn	2, 0x0901
    11f6:	0004                	.insn	2, 0x0004
    11f8:	0501                	.insn	2, 0x0501
    11fa:	0305                	.insn	2, 0x0305
    11fc:	0185                	.insn	2, 0x0185
    11fe:	0009                	.insn	2, 0x0009
    1200:	0100                	.insn	2, 0x0100
    1202:	04090203          	lb	tp,64(s2)
    1206:	0100                	.insn	2, 0x0100
    1208:	0305                	.insn	2, 0x0305
    120a:	14090203          	lb	tp,320(s2)
    120e:	0100                	.insn	2, 0x0100
    1210:	2505                	.insn	2, 0x2505
    1212:	0306                	.insn	2, 0x0306
    1214:	0900                	.insn	2, 0x0900
    1216:	0000                	.insn	2, 0x0000
    1218:	0501                	.insn	2, 0x0501
    121a:	0306                	.insn	2, 0x0306
    121c:	7ef5                	.insn	2, 0x7ef5
    121e:	0809                	.insn	2, 0x0809
    1220:	0100                	.insn	2, 0x0100
    1222:	2505                	.insn	2, 0x2505
    1224:	09018b03          	lb	s6,144(gp)
    1228:	0004                	.insn	2, 0x0004
    122a:	0501                	.insn	2, 0x0501
    122c:	f5030603          	lb	a2,-176(t1)
    1230:	097e                	.insn	2, 0x097e
    1232:	0004                	.insn	2, 0x0004
    1234:	0501                	.insn	2, 0x0501
    1236:	0606                	.insn	2, 0x0606
    1238:	00090003          	lb	zero,0(s2)
    123c:	0100                	.insn	2, 0x0100
    123e:	0505                	.insn	2, 0x0505
    1240:	09018c03          	lb	s8,144(gp)
    1244:	0004                	.insn	2, 0x0004
    1246:	0601                	.insn	2, 0x0601
    1248:	097ef503          	.insn	4, 0x097ef503
    124c:	000c                	.insn	2, 0x000c
    124e:	0501                	.insn	2, 0x0501
    1250:	060a                	.insn	2, 0x060a
    1252:	00090003          	lb	zero,0(s2)
    1256:	0100                	.insn	2, 0x0100
    1258:	0305                	.insn	2, 0x0305
    125a:	0306                	.insn	2, 0x0306
    125c:	0901                	.insn	2, 0x0901
    125e:	0004                	.insn	2, 0x0004
    1260:	0501                	.insn	2, 0x0501
    1262:	0305                	.insn	2, 0x0305
    1264:	018a                	.insn	2, 0x018a
    1266:	0009                	.insn	2, 0x0009
    1268:	0100                	.insn	2, 0x0100
    126a:	04090203          	lb	tp,64(s2)
    126e:	0100                	.insn	2, 0x0100
    1270:	0305                	.insn	2, 0x0305
    1272:	14090203          	lb	tp,320(s2)
    1276:	0100                	.insn	2, 0x0100
    1278:	2c05                	.insn	2, 0x2c05
    127a:	0306                	.insn	2, 0x0306
    127c:	0900                	.insn	2, 0x0900
    127e:	0004                	.insn	2, 0x0004
    1280:	0501                	.insn	2, 0x0501
    1282:	030e                	.insn	2, 0x030e
    1284:	0900                	.insn	2, 0x0900
    1286:	0008                	.insn	2, 0x0008
    1288:	0501                	.insn	2, 0x0501
    128a:	032c                	.insn	2, 0x032c
    128c:	0900                	.insn	2, 0x0900
    128e:	0008                	.insn	2, 0x0008
    1290:	0501                	.insn	2, 0x0501
    1292:	030e                	.insn	2, 0x030e
    1294:	0900                	.insn	2, 0x0900
    1296:	0004                	.insn	2, 0x0004
    1298:	0501                	.insn	2, 0x0501
    129a:	f0030603          	lb	a2,-256(t1)
    129e:	097e                	.insn	2, 0x097e
    12a0:	0008                	.insn	2, 0x0008
    12a2:	0501                	.insn	2, 0x0501
    12a4:	0606                	.insn	2, 0x0606
    12a6:	00090003          	lb	zero,0(s2)
    12aa:	0100                	.insn	2, 0x0100
    12ac:	0505                	.insn	2, 0x0505
    12ae:	0306                	.insn	2, 0x0306
    12b0:	0901                	.insn	2, 0x0901
    12b2:	0008                	.insn	2, 0x0008
    12b4:	0601                	.insn	2, 0x0601
    12b6:	09019103          	lh	sp,144(gp)
    12ba:	0000                	.insn	2, 0x0000
    12bc:	0501                	.insn	2, 0x0501
    12be:	030a                	.insn	2, 0x030a
    12c0:	0c097eef          	jal	t4,98380 <__stack_size-0x1f67c80>
    12c4:	0100                	.insn	2, 0x0100
    12c6:	0305                	.insn	2, 0x0305
    12c8:	0306                	.insn	2, 0x0306
    12ca:	0901                	.insn	2, 0x0901
    12cc:	0004                	.insn	2, 0x0004
    12ce:	0501                	.insn	2, 0x0501
    12d0:	0305                	.insn	2, 0x0305
    12d2:	0190                	.insn	2, 0x0190
    12d4:	0009                	.insn	2, 0x0009
    12d6:	0100                	.insn	2, 0x0100
    12d8:	04090203          	lb	tp,64(s2)
    12dc:	0100                	.insn	2, 0x0100
    12de:	0305                	.insn	2, 0x0305
    12e0:	10090303          	lb	t1,256(s2)
    12e4:	0100                	.insn	2, 0x0100
    12e6:	2005                	.insn	2, 0x2005
    12e8:	0306                	.insn	2, 0x0306
    12ea:	0900                	.insn	2, 0x0900
    12ec:	0000                	.insn	2, 0x0000
    12ee:	0501                	.insn	2, 0x0501
    12f0:	e9030603          	lb	a2,-368(t1)
    12f4:	097e                	.insn	2, 0x097e
    12f6:	000c                	.insn	2, 0x000c
    12f8:	0501                	.insn	2, 0x0501
    12fa:	0606                	.insn	2, 0x0606
    12fc:	00090003          	lb	zero,0(s2)
    1300:	0100                	.insn	2, 0x0100
    1302:	0505                	.insn	2, 0x0505
    1304:	09019803          	lh	a6,144(gp)
    1308:	0004                	.insn	2, 0x0004
    130a:	0601                	.insn	2, 0x0601
    130c:	097ee903          	.insn	4, 0x097ee903
    1310:	000c                	.insn	2, 0x000c
    1312:	0501                	.insn	2, 0x0501
    1314:	060a                	.insn	2, 0x060a
    1316:	00090003          	lb	zero,0(s2)
    131a:	0100                	.insn	2, 0x0100
    131c:	0305                	.insn	2, 0x0305
    131e:	0306                	.insn	2, 0x0306
    1320:	0901                	.insn	2, 0x0901
    1322:	0004                	.insn	2, 0x0004
    1324:	0501                	.insn	2, 0x0501
    1326:	0305                	.insn	2, 0x0305
    1328:	0196                	.insn	2, 0x0196
    132a:	0009                	.insn	2, 0x0009
    132c:	0100                	.insn	2, 0x0100
    132e:	04090103          	lb	sp,64(s2)
    1332:	0100                	.insn	2, 0x0100
    1334:	0305                	.insn	2, 0x0305
    1336:	14090203          	lb	tp,320(s2)
    133a:	0100                	.insn	2, 0x0100
    133c:	2a05                	.insn	2, 0x2a05
    133e:	0306                	.insn	2, 0x0306
    1340:	0900                	.insn	2, 0x0900
    1342:	0000                	.insn	2, 0x0000
    1344:	0501                	.insn	2, 0x0501
    1346:	0306                	.insn	2, 0x0306
    1348:	7ee5                	.insn	2, 0x7ee5
    134a:	0809                	.insn	2, 0x0809
    134c:	0100                	.insn	2, 0x0100
    134e:	2a05                	.insn	2, 0x2a05
    1350:	09019b03          	lh	s6,144(gp)
    1354:	0004                	.insn	2, 0x0004
    1356:	0501                	.insn	2, 0x0501
    1358:	e5030603          	lb	a2,-432(t1)
    135c:	097e                	.insn	2, 0x097e
    135e:	0004                	.insn	2, 0x0004
    1360:	0501                	.insn	2, 0x0501
    1362:	0606                	.insn	2, 0x0606
    1364:	00090003          	lb	zero,0(s2)
    1368:	0100                	.insn	2, 0x0100
    136a:	0505                	.insn	2, 0x0505
    136c:	09019c03          	lh	s8,144(gp)
    1370:	0004                	.insn	2, 0x0004
    1372:	0601                	.insn	2, 0x0601
    1374:	097ee503          	.insn	4, 0x097ee503
    1378:	000c                	.insn	2, 0x000c
    137a:	0501                	.insn	2, 0x0501
    137c:	060a                	.insn	2, 0x060a
    137e:	00090003          	lb	zero,0(s2)
    1382:	0100                	.insn	2, 0x0100
    1384:	0305                	.insn	2, 0x0305
    1386:	0306                	.insn	2, 0x0306
    1388:	0901                	.insn	2, 0x0901
    138a:	0004                	.insn	2, 0x0004
    138c:	0501                	.insn	2, 0x0501
    138e:	0305                	.insn	2, 0x0305
    1390:	019a                	.insn	2, 0x019a
    1392:	0009                	.insn	2, 0x0009
    1394:	0100                	.insn	2, 0x0100
    1396:	04090203          	lb	tp,64(s2)
    139a:	0100                	.insn	2, 0x0100
    139c:	0305                	.insn	2, 0x0305
    139e:	14090203          	lb	tp,320(s2)
    13a2:	0100                	.insn	2, 0x0100
    13a4:	2a05                	.insn	2, 0x2a05
    13a6:	0306                	.insn	2, 0x0306
    13a8:	0900                	.insn	2, 0x0900
    13aa:	0000                	.insn	2, 0x0000
    13ac:	0501                	.insn	2, 0x0501
    13ae:	0306                	.insn	2, 0x0306
    13b0:	7ee0                	.insn	2, 0x7ee0
    13b2:	0809                	.insn	2, 0x0809
    13b4:	0100                	.insn	2, 0x0100
    13b6:	2a05                	.insn	2, 0x2a05
    13b8:	0901a003          	lw	zero,144(gp)
    13bc:	0004                	.insn	2, 0x0004
    13be:	0501                	.insn	2, 0x0501
    13c0:	e0030603          	lb	a2,-512(t1)
    13c4:	097e                	.insn	2, 0x097e
    13c6:	0004                	.insn	2, 0x0004
    13c8:	0501                	.insn	2, 0x0501
    13ca:	0606                	.insn	2, 0x0606
    13cc:	00090003          	lb	zero,0(s2)
    13d0:	0100                	.insn	2, 0x0100
    13d2:	0505                	.insn	2, 0x0505
    13d4:	0901a103          	lw	sp,144(gp)
    13d8:	0004                	.insn	2, 0x0004
    13da:	0601                	.insn	2, 0x0601
    13dc:	097ee003          	.insn	4, 0x097ee003
    13e0:	000c                	.insn	2, 0x000c
    13e2:	0501                	.insn	2, 0x0501
    13e4:	060a                	.insn	2, 0x060a
    13e6:	00090003          	lb	zero,0(s2)
    13ea:	0100                	.insn	2, 0x0100
    13ec:	0305                	.insn	2, 0x0305
    13ee:	0306                	.insn	2, 0x0306
    13f0:	0901                	.insn	2, 0x0901
    13f2:	0004                	.insn	2, 0x0004
    13f4:	0501                	.insn	2, 0x0501
    13f6:	0305                	.insn	2, 0x0305
    13f8:	019f 0009 0100      	.insn	6, 0x01000009019f
    13fe:	04090203          	lb	tp,64(s2)
    1402:	0100                	.insn	2, 0x0100
    1404:	0305                	.insn	2, 0x0305
    1406:	14090203          	lb	tp,320(s2)
    140a:	0100                	.insn	2, 0x0100
    140c:	3105                	.insn	2, 0x3105
    140e:	0306                	.insn	2, 0x0306
    1410:	0900                	.insn	2, 0x0900
    1412:	0004                	.insn	2, 0x0004
    1414:	0501                	.insn	2, 0x0501
    1416:	030e                	.insn	2, 0x030e
    1418:	0900                	.insn	2, 0x0900
    141a:	0008                	.insn	2, 0x0008
    141c:	0501                	.insn	2, 0x0501
    141e:	0331                	.insn	2, 0x0331
    1420:	0900                	.insn	2, 0x0900
    1422:	0008                	.insn	2, 0x0008
    1424:	0501                	.insn	2, 0x0501
    1426:	030e                	.insn	2, 0x030e
    1428:	0900                	.insn	2, 0x0900
    142a:	0004                	.insn	2, 0x0004
    142c:	0501                	.insn	2, 0x0501
    142e:	db030603          	lb	a2,-592(t1)
    1432:	097e                	.insn	2, 0x097e
    1434:	0008                	.insn	2, 0x0008
    1436:	0501                	.insn	2, 0x0501
    1438:	0606                	.insn	2, 0x0606
    143a:	00090003          	lb	zero,0(s2)
    143e:	0100                	.insn	2, 0x0100
    1440:	0505                	.insn	2, 0x0505
    1442:	0306                	.insn	2, 0x0306
    1444:	0901                	.insn	2, 0x0901
    1446:	0008                	.insn	2, 0x0008
    1448:	0601                	.insn	2, 0x0601
    144a:	0901a603          	lw	a2,144(gp)
    144e:	0000                	.insn	2, 0x0000
    1450:	0501                	.insn	2, 0x0501
    1452:	030a                	.insn	2, 0x030a
    1454:	7eda                	.insn	2, 0x7eda
    1456:	0c09                	.insn	2, 0x0c09
    1458:	0100                	.insn	2, 0x0100
    145a:	0305                	.insn	2, 0x0305
    145c:	0306                	.insn	2, 0x0306
    145e:	0901                	.insn	2, 0x0901
    1460:	0004                	.insn	2, 0x0004
    1462:	0501                	.insn	2, 0x0501
    1464:	0305                	.insn	2, 0x0305
    1466:	01a5                	.insn	2, 0x01a5
    1468:	0009                	.insn	2, 0x0009
    146a:	0100                	.insn	2, 0x0100
    146c:	04090203          	lb	tp,64(s2)
    1470:	0100                	.insn	2, 0x0100
    1472:	0305                	.insn	2, 0x0305
    1474:	10090303          	lb	t1,256(s2)
    1478:	0100                	.insn	2, 0x0100
    147a:	097ed403          	lhu	s0,151(t4)
    147e:	0000                	.insn	2, 0x0000
    1480:	0501                	.insn	2, 0x0501
    1482:	0606                	.insn	2, 0x0606
    1484:	00090003          	lb	zero,0(s2)
    1488:	0100                	.insn	2, 0x0100
    148a:	0505                	.insn	2, 0x0505
    148c:	0306                	.insn	2, 0x0306
    148e:	0901                	.insn	2, 0x0901
    1490:	0008                	.insn	2, 0x0008
    1492:	0601                	.insn	2, 0x0601
    1494:	0901ac03          	lw	s8,144(gp)
    1498:	0000                	.insn	2, 0x0000
    149a:	0501                	.insn	2, 0x0501
    149c:	030a                	.insn	2, 0x030a
    149e:	7ed4                	.insn	2, 0x7ed4
    14a0:	0c09                	.insn	2, 0x0c09
    14a2:	0100                	.insn	2, 0x0100
    14a4:	0305                	.insn	2, 0x0305
    14a6:	0306                	.insn	2, 0x0306
    14a8:	0901                	.insn	2, 0x0901
    14aa:	0004                	.insn	2, 0x0004
    14ac:	0501                	.insn	2, 0x0501
    14ae:	0305                	.insn	2, 0x0305
    14b0:	000901ab          	.insn	4, 0x000901ab
    14b4:	0100                	.insn	2, 0x0100
    14b6:	04090103          	lb	sp,64(s2)
    14ba:	0100                	.insn	2, 0x0100
    14bc:	0305                	.insn	2, 0x0305
    14be:	10090203          	lb	tp,256(s2)
    14c2:	0100                	.insn	2, 0x0100
    14c4:	097ed003          	lhu	zero,151(t4)
    14c8:	0000                	.insn	2, 0x0000
    14ca:	0501                	.insn	2, 0x0501
    14cc:	0606                	.insn	2, 0x0606
    14ce:	00090003          	lb	zero,0(s2)
    14d2:	0100                	.insn	2, 0x0100
    14d4:	0505                	.insn	2, 0x0505
    14d6:	0306                	.insn	2, 0x0306
    14d8:	0901                	.insn	2, 0x0901
    14da:	0008                	.insn	2, 0x0008
    14dc:	0601                	.insn	2, 0x0601
    14de:	0901b003          	.insn	4, 0x0901b003
    14e2:	0000                	.insn	2, 0x0000
    14e4:	0501                	.insn	2, 0x0501
    14e6:	030a                	.insn	2, 0x030a
    14e8:	7ed0                	.insn	2, 0x7ed0
    14ea:	0c09                	.insn	2, 0x0c09
    14ec:	0100                	.insn	2, 0x0100
    14ee:	0305                	.insn	2, 0x0305
    14f0:	0306                	.insn	2, 0x0306
    14f2:	0901                	.insn	2, 0x0901
    14f4:	0004                	.insn	2, 0x0004
    14f6:	0501                	.insn	2, 0x0501
    14f8:	0305                	.insn	2, 0x0305
    14fa:	000901af          	.insn	4, 0x000901af
    14fe:	0100                	.insn	2, 0x0100
    1500:	04090103          	lb	sp,64(s2)
    1504:	0100                	.insn	2, 0x0100
    1506:	0305                	.insn	2, 0x0305
    1508:	10090203          	lb	tp,256(s2)
    150c:	0100                	.insn	2, 0x0100
    150e:	00090403          	lb	s0,0(s2)
    1512:	0100                	.insn	2, 0x0100
    1514:	097ec803          	lbu	a6,151(t4)
    1518:	0000                	.insn	2, 0x0000
    151a:	0501                	.insn	2, 0x0501
    151c:	0606                	.insn	2, 0x0606
    151e:	00090003          	lb	zero,0(s2)
    1522:	0100                	.insn	2, 0x0100
    1524:	0505                	.insn	2, 0x0505
    1526:	0306                	.insn	2, 0x0306
    1528:	0901                	.insn	2, 0x0901
    152a:	0004                	.insn	2, 0x0004
    152c:	0601                	.insn	2, 0x0601
    152e:	0901b803          	.insn	4, 0x0901b803
    1532:	0000                	.insn	2, 0x0000
    1534:	0501                	.insn	2, 0x0501
    1536:	030a                	.insn	2, 0x030a
    1538:	7ec8                	.insn	2, 0x7ec8
    153a:	0c09                	.insn	2, 0x0c09
    153c:	0100                	.insn	2, 0x0100
    153e:	0305                	.insn	2, 0x0305
    1540:	0306                	.insn	2, 0x0306
    1542:	0901                	.insn	2, 0x0901
    1544:	0004                	.insn	2, 0x0004
    1546:	0501                	.insn	2, 0x0501
    1548:	0305                	.insn	2, 0x0305
    154a:	000901b7          	lui	gp,0x90
    154e:	0100                	.insn	2, 0x0100
    1550:	04090103          	lb	sp,64(s2)
    1554:	0100                	.insn	2, 0x0100
    1556:	0305                	.insn	2, 0x0305
    1558:	10090303          	lb	t1,256(s2)
    155c:	0100                	.insn	2, 0x0100
    155e:	0e05                	.insn	2, 0x0e05
    1560:	0306                	.insn	2, 0x0306
    1562:	0900                	.insn	2, 0x0900
    1564:	0000                	.insn	2, 0x0000
    1566:	0501                	.insn	2, 0x0501
    1568:	c3030603          	lb	a2,-976(t1)
    156c:	097e                	.insn	2, 0x097e
    156e:	0010                	.insn	2, 0x0010
    1570:	0501                	.insn	2, 0x0501
    1572:	0606                	.insn	2, 0x0606
    1574:	00090003          	lb	zero,0(s2)
    1578:	0100                	.insn	2, 0x0100
    157a:	0505                	.insn	2, 0x0505
    157c:	0306                	.insn	2, 0x0306
    157e:	0901                	.insn	2, 0x0901
    1580:	0004                	.insn	2, 0x0004
    1582:	0601                	.insn	2, 0x0601
    1584:	0901bd03          	.insn	4, 0x0901bd03
    1588:	0000                	.insn	2, 0x0000
    158a:	0501                	.insn	2, 0x0501
    158c:	030a                	.insn	2, 0x030a
    158e:	0c097ec3          	.insn	4, 0x0c097ec3
    1592:	0100                	.insn	2, 0x0100
    1594:	0305                	.insn	2, 0x0305
    1596:	0306                	.insn	2, 0x0306
    1598:	0901                	.insn	2, 0x0901
    159a:	0004                	.insn	2, 0x0004
    159c:	0501                	.insn	2, 0x0501
    159e:	0305                	.insn	2, 0x0305
    15a0:	01bc                	.insn	2, 0x01bc
    15a2:	0009                	.insn	2, 0x0009
    15a4:	0100                	.insn	2, 0x0100
    15a6:	04090103          	lb	sp,64(s2)
    15aa:	0100                	.insn	2, 0x0100
    15ac:	0305                	.insn	2, 0x0305
    15ae:	0c090203          	lb	tp,192(s2)
    15b2:	0100                	.insn	2, 0x0100
    15b4:	0e05                	.insn	2, 0x0e05
    15b6:	0306                	.insn	2, 0x0306
    15b8:	0900                	.insn	2, 0x0900
    15ba:	0000                	.insn	2, 0x0000
    15bc:	0501                	.insn	2, 0x0501
    15be:	bf030603          	lb	a2,-1040(t1)
    15c2:	097e                	.insn	2, 0x097e
    15c4:	0010                	.insn	2, 0x0010
    15c6:	0501                	.insn	2, 0x0501
    15c8:	0606                	.insn	2, 0x0606
    15ca:	00090003          	lb	zero,0(s2)
    15ce:	0100                	.insn	2, 0x0100
    15d0:	0505                	.insn	2, 0x0505
    15d2:	0306                	.insn	2, 0x0306
    15d4:	0901                	.insn	2, 0x0901
    15d6:	0004                	.insn	2, 0x0004
    15d8:	0601                	.insn	2, 0x0601
    15da:	0901c103          	lbu	sp,144(gp) # 90090 <__stack_size-0x1f6ff70>
    15de:	0000                	.insn	2, 0x0000
    15e0:	0501                	.insn	2, 0x0501
    15e2:	030a                	.insn	2, 0x030a
    15e4:	0c097ebf 03050100 	.insn	8, 0x030501000c097ebf
    15ec:	0306                	.insn	2, 0x0306
    15ee:	0901                	.insn	2, 0x0901
    15f0:	0004                	.insn	2, 0x0004
    15f2:	0501                	.insn	2, 0x0501
    15f4:	0305                	.insn	2, 0x0305
    15f6:	01c0                	.insn	2, 0x01c0
    15f8:	0009                	.insn	2, 0x0009
    15fa:	0100                	.insn	2, 0x0100
    15fc:	04090103          	lb	sp,64(s2)
    1600:	0100                	.insn	2, 0x0100
    1602:	0305                	.insn	2, 0x0305
    1604:	0c090903          	lb	s2,192(s2)
    1608:	0100                	.insn	2, 0x0100
    160a:	1405                	.insn	2, 0x1405
    160c:	0306                	.insn	2, 0x0306
    160e:	0900                	.insn	2, 0x0900
    1610:	0000                	.insn	2, 0x0000
    1612:	0501                	.insn	2, 0x0501
    1614:	0301                	.insn	2, 0x0301
    1616:	0901                	.insn	2, 0x0901
    1618:	0004                	.insn	2, 0x0004
    161a:	0901                	.insn	2, 0x0901
    161c:	0048                	.insn	2, 0x0048
    161e:	0100                	.insn	2, 0x0100
    1620:	9701                	.insn	2, 0x9701
    1622:	000d                	.insn	2, 0x000d
    1624:	0500                	.insn	2, 0x0500
    1626:	0400                	.insn	2, 0x0400
    1628:	4000                	.insn	2, 0x4000
    162a:	0000                	.insn	2, 0x0000
    162c:	0100                	.insn	2, 0x0100
    162e:	0101                	.insn	2, 0x0101
    1630:	000d0efb          	.insn	4, 0x000d0efb
    1634:	0101                	.insn	2, 0x0101
    1636:	0101                	.insn	2, 0x0101
    1638:	0000                	.insn	2, 0x0000
    163a:	0100                	.insn	2, 0x0100
    163c:	0000                	.insn	2, 0x0000
    163e:	0101                	.insn	2, 0x0101
    1640:	1f01                	.insn	2, 0x1f01
    1642:	8804                	.insn	2, 0x8804
    1644:	0000                	.insn	2, 0x0000
    1646:	c400                	.insn	2, 0xc400
    1648:	0000                	.insn	2, 0x0000
    164a:	ce00                	.insn	2, 0xce00
    164c:	0000                	.insn	2, 0x0000
    164e:	3600                	.insn	2, 0x3600
    1650:	0001                	.insn	2, 0x0001
    1652:	0200                	.insn	2, 0x0200
    1654:	1f01                	.insn	2, 0x1f01
    1656:	0f02                	.insn	2, 0x0f02
    1658:	7404                	.insn	2, 0x7404
    165a:	0000                	.insn	2, 0x0000
    165c:	0000                	.insn	2, 0x0000
    165e:	007e                	.insn	2, 0x007e
    1660:	0000                	.insn	2, 0x0000
    1662:	4b01                	.insn	2, 0x4b01
    1664:	0001                	.insn	2, 0x0001
    1666:	0200                	.insn	2, 0x0200
    1668:	005f 0000 0503      	.insn	6, 0x05030000005f
    166e:	0001                	.insn	2, 0x0001
    1670:	0205                	.insn	2, 0x0205
    1672:	0bb4                	.insn	2, 0x0bb4
    1674:	8000                	.insn	2, 0x8000
    1676:	05011a03          	lh	s4,80(sp)
    167a:	0302                	.insn	2, 0x0302
    167c:	0901                	.insn	2, 0x0901
    167e:	0000                	.insn	2, 0x0000
    1680:	0301                	.insn	2, 0x0301
    1682:	0902                	.insn	2, 0x0902
    1684:	0000                	.insn	2, 0x0000
    1686:	0501                	.insn	2, 0x0501
    1688:	0606                	.insn	2, 0x0606
    168a:	00090003          	lb	zero,0(s2)
    168e:	0100                	.insn	2, 0x0100
    1690:	0505                	.insn	2, 0x0505
    1692:	08090003          	lb	zero,128(s2)
    1696:	0100                	.insn	2, 0x0100
    1698:	0305                	.insn	2, 0x0305
    169a:	0306                	.insn	2, 0x0306
    169c:	0901                	.insn	2, 0x0901
    169e:	0004                	.insn	2, 0x0004
    16a0:	0501                	.insn	2, 0x0501
    16a2:	060a                	.insn	2, 0x060a
    16a4:	00090003          	lb	zero,0(s2)
    16a8:	0100                	.insn	2, 0x0100
    16aa:	0d05                	.insn	2, 0x0d05
    16ac:	08090003          	lb	zero,128(s2)
    16b0:	0100                	.insn	2, 0x0100
    16b2:	0305                	.insn	2, 0x0305
    16b4:	0306                	.insn	2, 0x0306
    16b6:	0901                	.insn	2, 0x0901
    16b8:	0004                	.insn	2, 0x0004
    16ba:	0501                	.insn	2, 0x0501
    16bc:	0302                	.insn	2, 0x0302
    16be:	00040903          	lb	s2,0(s0)
    16c2:	0501                	.insn	2, 0x0501
    16c4:	0606                	.insn	2, 0x0606
    16c6:	00090003          	lb	zero,0(s2)
    16ca:	0100                	.insn	2, 0x0100
    16cc:	0505                	.insn	2, 0x0505
    16ce:	08090003          	lb	zero,128(s2)
    16d2:	0100                	.insn	2, 0x0100
    16d4:	1105                	.insn	2, 0x1105
    16d6:	0306                	.insn	2, 0x0306
    16d8:	0900                	.insn	2, 0x0900
    16da:	0004                	.insn	2, 0x0004
    16dc:	0501                	.insn	2, 0x0501
    16de:	0601                	.insn	2, 0x0601
    16e0:	04090103          	lb	sp,64(s2)
    16e4:	0100                	.insn	2, 0x0100
    16e6:	0306                	.insn	2, 0x0306
    16e8:	090a                	.insn	2, 0x090a
    16ea:	0004                	.insn	2, 0x0004
    16ec:	0501                	.insn	2, 0x0501
    16ee:	0302                	.insn	2, 0x0302
    16f0:	0901                	.insn	2, 0x0901
    16f2:	0000                	.insn	2, 0x0000
    16f4:	0501                	.insn	2, 0x0501
    16f6:	0601                	.insn	2, 0x0601
    16f8:	00097f03          	.insn	4, 0x00097f03
    16fc:	0100                	.insn	2, 0x0100
    16fe:	14090003          	lb	zero,320(s2)
    1702:	0100                	.insn	2, 0x0100
    1704:	0905                	.insn	2, 0x0905
    1706:	0306                	.insn	2, 0x0306
    1708:	0901                	.insn	2, 0x0901
    170a:	0004                	.insn	2, 0x0004
    170c:	0501                	.insn	2, 0x0501
    170e:	0606                	.insn	2, 0x0606
    1710:	0c097403          	.insn	4, 0x0c097403
    1714:	0100                	.insn	2, 0x0100
    1716:	0a05                	.insn	2, 0x0a05
    1718:	08097c03          	.insn	4, 0x08097c03
    171c:	0100                	.insn	2, 0x0100
    171e:	0d05                	.insn	2, 0x0d05
    1720:	04090003          	lb	zero,64(s2)
    1724:	0100                	.insn	2, 0x0100
    1726:	0305                	.insn	2, 0x0305
    1728:	0306                	.insn	2, 0x0306
    172a:	0901                	.insn	2, 0x0901
    172c:	0004                	.insn	2, 0x0004
    172e:	0501                	.insn	2, 0x0501
    1730:	0309                	.insn	2, 0x0309
    1732:	0000090f          	.insn	4, 0x090f
    1736:	0501                	.insn	2, 0x0501
    1738:	09010303          	lb	t1,144(sp)
    173c:	0008                	.insn	2, 0x0008
    173e:	0301                	.insn	2, 0x0301
    1740:	0000096f          	jal	s2,1740 <__stack_size-0x1ffe8c0>
    1744:	0501                	.insn	2, 0x0501
    1746:	0302                	.insn	2, 0x0302
    1748:	0904                	.insn	2, 0x0904
    174a:	0000                	.insn	2, 0x0000
    174c:	0501                	.insn	2, 0x0501
    174e:	0606                	.insn	2, 0x0606
    1750:	00097b03          	.insn	4, 0x00097b03
    1754:	0100                	.insn	2, 0x0100
    1756:	0d05                	.insn	2, 0x0d05
    1758:	04091203          	lh	tp,64(s2)
    175c:	0100                	.insn	2, 0x0100
    175e:	0205                	.insn	2, 0x0205
    1760:	0306                	.insn	2, 0x0306
    1762:	096c                	.insn	2, 0x096c
    1764:	0004                	.insn	2, 0x0004
    1766:	0301                	.insn	2, 0x0301
    1768:	0902                	.insn	2, 0x0902
    176a:	0000                	.insn	2, 0x0000
    176c:	0501                	.insn	2, 0x0501
    176e:	060a                	.insn	2, 0x060a
    1770:	00090103          	lb	sp,0(s2)
    1774:	0100                	.insn	2, 0x0100
    1776:	0505                	.insn	2, 0x0505
    1778:	04097f03          	.insn	4, 0x04097f03
    177c:	0100                	.insn	2, 0x0100
    177e:	1105                	.insn	2, 0x1105
    1780:	0306                	.insn	2, 0x0306
    1782:	0905                	.insn	2, 0x0905
    1784:	0004                	.insn	2, 0x0004
    1786:	0501                	.insn	2, 0x0501
    1788:	0606                	.insn	2, 0x0606
    178a:	00090003          	lb	zero,0(s2)
    178e:	0100                	.insn	2, 0x0100
    1790:	0505                	.insn	2, 0x0505
    1792:	04090003          	lb	zero,64(s2)
    1796:	0100                	.insn	2, 0x0100
    1798:	1105                	.insn	2, 0x1105
    179a:	04090003          	lb	zero,64(s2)
    179e:	0100                	.insn	2, 0x0100
    17a0:	0905                	.insn	2, 0x0905
    17a2:	0306                	.insn	2, 0x0306
    17a4:	090c                	.insn	2, 0x090c
    17a6:	0004                	.insn	2, 0x0004
    17a8:	0501                	.insn	2, 0x0501
    17aa:	0601                	.insn	2, 0x0601
    17ac:	08090203          	lb	tp,128(s2)
    17b0:	0100                	.insn	2, 0x0100
    17b2:	0306                	.insn	2, 0x0306
    17b4:	00e5                	.insn	2, 0x00e5
    17b6:	1809                	.insn	2, 0x1809
    17b8:	0100                	.insn	2, 0x0100
    17ba:	0205                	.insn	2, 0x0205
    17bc:	00090103          	lb	sp,0(s2)
    17c0:	0100                	.insn	2, 0x0100
    17c2:	00090303          	lb	t1,0(s2)
    17c6:	0100                	.insn	2, 0x0100
    17c8:	0105                	.insn	2, 0x0105
    17ca:	0306                	.insn	2, 0x0306
    17cc:	097c                	.insn	2, 0x097c
    17ce:	0000                	.insn	2, 0x0000
    17d0:	0301                	.insn	2, 0x0301
    17d2:	0900                	.insn	2, 0x0900
    17d4:	0038                	.insn	2, 0x0038
    17d6:	0501                	.insn	2, 0x0501
    17d8:	0305                	.insn	2, 0x0305
    17da:	20097fbb          	.insn	4, 0x20097fbb
    17de:	0100                	.insn	2, 0x0100
    17e0:	0205                	.insn	2, 0x0205
    17e2:	0900c903          	lbu	s2,144(ra)
    17e6:	0004                	.insn	2, 0x0004
    17e8:	0601                	.insn	2, 0x0601
    17ea:	08090103          	lb	sp,128(s2)
    17ee:	0100                	.insn	2, 0x0100
    17f0:	097fb003          	.insn	4, 0x097fb003
    17f4:	0004                	.insn	2, 0x0004
    17f6:	0301                	.insn	2, 0x0301
    17f8:	0901                	.insn	2, 0x0901
    17fa:	0000                	.insn	2, 0x0000
    17fc:	0301                	.insn	2, 0x0301
    17fe:	0901                	.insn	2, 0x0901
    1800:	0000                	.insn	2, 0x0000
    1802:	0301                	.insn	2, 0x0301
    1804:	00000903          	lb	s2,0(zero) # 0 <__stack_size-0x2000000>
    1808:	0501                	.insn	2, 0x0501
    180a:	09010303          	lb	t1,144(sp)
    180e:	0000                	.insn	2, 0x0000
    1810:	0301                	.insn	2, 0x0301
    1812:	0901                	.insn	2, 0x0901
    1814:	0000                	.insn	2, 0x0000
    1816:	0501                	.insn	2, 0x0501
    1818:	0606                	.insn	2, 0x0606
    181a:	00090003          	lb	zero,0(s2)
    181e:	0100                	.insn	2, 0x0100
    1820:	0305                	.insn	2, 0x0305
    1822:	04091503          	lh	a0,64(s2)
    1826:	0100                	.insn	2, 0x0100
    1828:	0605                	.insn	2, 0x0605
    182a:	097fb703          	.insn	4, 0x097fb703
    182e:	000c                	.insn	2, 0x000c
    1830:	0301                	.insn	2, 0x0301
    1832:	0905                	.insn	2, 0x0905
    1834:	0004                	.insn	2, 0x0004
    1836:	0501                	.insn	2, 0x0501
    1838:	00c40303          	lb	t1,12(s0)
    183c:	0409                	.insn	2, 0x0409
    183e:	0100                	.insn	2, 0x0100
    1840:	0605                	.insn	2, 0x0605
    1842:	04091203          	lh	tp,64(s2)
    1846:	0100                	.insn	2, 0x0100
    1848:	0405                	.insn	2, 0x0405
    184a:	0306                	.insn	2, 0x0306
    184c:	000c095b          	.insn	4, 0x000c095b
    1850:	0501                	.insn	2, 0x0501
    1852:	0302                	.insn	2, 0x0302
    1854:	0948                	.insn	2, 0x0948
    1856:	0000                	.insn	2, 0x0000
    1858:	0301                	.insn	2, 0x0301
    185a:	0902                	.insn	2, 0x0902
    185c:	0000                	.insn	2, 0x0000
    185e:	0501                	.insn	2, 0x0501
    1860:	0606                	.insn	2, 0x0606
    1862:	00090003          	lb	zero,0(s2)
    1866:	0100                	.insn	2, 0x0100
    1868:	0505                	.insn	2, 0x0505
    186a:	04090003          	lb	zero,64(s2)
    186e:	0100                	.insn	2, 0x0100
    1870:	0305                	.insn	2, 0x0305
    1872:	0306                	.insn	2, 0x0306
    1874:	0901                	.insn	2, 0x0901
    1876:	0004                	.insn	2, 0x0004
    1878:	0501                	.insn	2, 0x0501
    187a:	060a                	.insn	2, 0x060a
    187c:	00090003          	lb	zero,0(s2)
    1880:	0100                	.insn	2, 0x0100
    1882:	0d05                	.insn	2, 0x0d05
    1884:	08090003          	lb	zero,128(s2)
    1888:	0100                	.insn	2, 0x0100
    188a:	0305                	.insn	2, 0x0305
    188c:	0306                	.insn	2, 0x0306
    188e:	0901                	.insn	2, 0x0901
    1890:	0004                	.insn	2, 0x0004
    1892:	0501                	.insn	2, 0x0501
    1894:	0302                	.insn	2, 0x0302
    1896:	0004092b          	.insn	4, 0x0004092b
    189a:	0301                	.insn	2, 0x0301
    189c:	0901                	.insn	2, 0x0901
    189e:	0000                	.insn	2, 0x0000
    18a0:	0301                	.insn	2, 0x0301
    18a2:	0901                	.insn	2, 0x0901
    18a4:	0000                	.insn	2, 0x0000
    18a6:	0301                	.insn	2, 0x0301
    18a8:	00000903          	lb	s2,0(zero) # 0 <__stack_size-0x2000000>
    18ac:	0501                	.insn	2, 0x0501
    18ae:	09010303          	lb	t1,144(sp)
    18b2:	0000                	.insn	2, 0x0000
    18b4:	0501                	.insn	2, 0x0501
    18b6:	0605                	.insn	2, 0x0605
    18b8:	00090003          	lb	zero,0(s2)
    18bc:	0100                	.insn	2, 0x0100
    18be:	0b05                	.insn	2, 0x0b05
    18c0:	04090003          	lb	zero,64(s2)
    18c4:	0100                	.insn	2, 0x0100
    18c6:	0305                	.insn	2, 0x0305
    18c8:	0306                	.insn	2, 0x0306
    18ca:	0901                	.insn	2, 0x0901
    18cc:	0004                	.insn	2, 0x0004
    18ce:	0501                	.insn	2, 0x0501
    18d0:	0606                	.insn	2, 0x0606
    18d2:	00090003          	lb	zero,0(s2)
    18d6:	0100                	.insn	2, 0x0100
    18d8:	0305                	.insn	2, 0x0305
    18da:	0306                	.insn	2, 0x0306
    18dc:	0901                	.insn	2, 0x0901
    18de:	0004                	.insn	2, 0x0004
    18e0:	0501                	.insn	2, 0x0501
    18e2:	0606                	.insn	2, 0x0606
    18e4:	00090003          	lb	zero,0(s2)
    18e8:	0100                	.insn	2, 0x0100
    18ea:	0305                	.insn	2, 0x0305
    18ec:	0306                	.insn	2, 0x0306
    18ee:	00080903          	lb	s2,0(a6)
    18f2:	0301                	.insn	2, 0x0301
    18f4:	0901                	.insn	2, 0x0901
    18f6:	0000                	.insn	2, 0x0000
    18f8:	0501                	.insn	2, 0x0501
    18fa:	0605                	.insn	2, 0x0605
    18fc:	00090003          	lb	zero,0(s2)
    1900:	0100                	.insn	2, 0x0100
    1902:	0305                	.insn	2, 0x0305
    1904:	0306                	.insn	2, 0x0306
    1906:	0901                	.insn	2, 0x0901
    1908:	0004                	.insn	2, 0x0004
    190a:	0501                	.insn	2, 0x0501
    190c:	0606                	.insn	2, 0x0606
    190e:	00090003          	lb	zero,0(s2)
    1912:	0100                	.insn	2, 0x0100
    1914:	0405                	.insn	2, 0x0405
    1916:	0306                	.insn	2, 0x0306
    1918:	00080903          	lb	s2,0(a6)
    191c:	0501                	.insn	2, 0x0501
    191e:	00030607          	.insn	4, 0x00030607
    1922:	0009                	.insn	2, 0x0009
    1924:	0100                	.insn	2, 0x0100
    1926:	0b05                	.insn	2, 0x0b05
    1928:	08097c03          	.insn	4, 0x08097c03
    192c:	0100                	.insn	2, 0x0100
    192e:	0505                	.insn	2, 0x0505
    1930:	04097f03          	.insn	4, 0x04097f03
    1934:	0100                	.insn	2, 0x0100
    1936:	0305                	.insn	2, 0x0305
    1938:	0306                	.insn	2, 0x0306
    193a:	0909                	.insn	2, 0x0909
    193c:	0004                	.insn	2, 0x0004
    193e:	0501                	.insn	2, 0x0501
    1940:	0318                	.insn	2, 0x0318
    1942:	0900                	.insn	2, 0x0900
    1944:	0000                	.insn	2, 0x0000
    1946:	0501                	.insn	2, 0x0501
    1948:	060a                	.insn	2, 0x060a
    194a:	0c090003          	lb	zero,192(s2)
    194e:	0100                	.insn	2, 0x0100
    1950:	1805                	.insn	2, 0x1805
    1952:	04090003          	lb	zero,64(s2)
    1956:	0100                	.insn	2, 0x0100
    1958:	0405                	.insn	2, 0x0405
    195a:	0306                	.insn	2, 0x0306
    195c:	0901                	.insn	2, 0x0901
    195e:	0004                	.insn	2, 0x0004
    1960:	0501                	.insn	2, 0x0501
    1962:	060a                	.insn	2, 0x060a
    1964:	00090003          	lb	zero,0(s2)
    1968:	0100                	.insn	2, 0x0100
    196a:	2d05                	.insn	2, 0x2d05
    196c:	0c097f03          	.insn	4, 0x0c097f03
    1970:	0100                	.insn	2, 0x0100
    1972:	0f05                	.insn	2, 0x0f05
    1974:	04090103          	lb	sp,64(s2)
    1978:	0100                	.insn	2, 0x0100
    197a:	2705                	.insn	2, 0x2705
    197c:	04097f03          	.insn	4, 0x04097f03
    1980:	0100                	.insn	2, 0x0100
    1982:	0605                	.insn	2, 0x0605
    1984:	04090103          	lb	sp,64(s2)
    1988:	0100                	.insn	2, 0x0100
    198a:	2705                	.insn	2, 0x2705
    198c:	0306                	.insn	2, 0x0306
    198e:	097f 0004 0501 0318 	.insn	10, 0x0900031805010004097f
    1996:	0900 
    1998:	0000                	.insn	2, 0x0000
    199a:	0501                	.insn	2, 0x0501
    199c:	09020303          	lb	t1,144(tp) # 90 <__stack_size-0x1ffff70>
    19a0:	000c                	.insn	2, 0x000c
    19a2:	0501                	.insn	2, 0x0501
    19a4:	0610                	.insn	2, 0x0610
    19a6:	00090003          	lb	zero,0(s2)
    19aa:	0100                	.insn	2, 0x0100
    19ac:	0305                	.insn	2, 0x0305
    19ae:	0306                	.insn	2, 0x0306
    19b0:	000c0903          	lb	s2,0(s8)
    19b4:	0501                	.insn	2, 0x0501
    19b6:	0606                	.insn	2, 0x0606
    19b8:	00090003          	lb	zero,0(s2)
    19bc:	0100                	.insn	2, 0x0100
    19be:	0305                	.insn	2, 0x0305
    19c0:	0306                	.insn	2, 0x0306
    19c2:	0901                	.insn	2, 0x0901
    19c4:	0004                	.insn	2, 0x0004
    19c6:	0301                	.insn	2, 0x0301
    19c8:	0901                	.insn	2, 0x0901
    19ca:	0000                	.insn	2, 0x0000
    19cc:	0501                	.insn	2, 0x0501
    19ce:	0606                	.insn	2, 0x0606
    19d0:	00090003          	lb	zero,0(s2)
    19d4:	0100                	.insn	2, 0x0100
    19d6:	1105                	.insn	2, 0x1105
    19d8:	0306                	.insn	2, 0x0306
    19da:	0900                	.insn	2, 0x0900
    19dc:	000c                	.insn	2, 0x000c
    19de:	0501                	.insn	2, 0x0501
    19e0:	00030613          	addi	a2,t1,0
    19e4:	0009                	.insn	2, 0x0009
    19e6:	0100                	.insn	2, 0x0100
    19e8:	0305                	.insn	2, 0x0305
    19ea:	0306                	.insn	2, 0x0306
    19ec:	0901                	.insn	2, 0x0901
    19ee:	0008                	.insn	2, 0x0008
    19f0:	0501                	.insn	2, 0x0501
    19f2:	0304                	.insn	2, 0x0304
    19f4:	0024097b          	.insn	4, 0x0024097b
    19f8:	0501                	.insn	2, 0x0501
    19fa:	060e                	.insn	2, 0x060e
    19fc:	00090003          	lb	zero,0(s2)
    1a00:	0100                	.insn	2, 0x0100
    1a02:	0605                	.insn	2, 0x0605
    1a04:	04090003          	lb	zero,64(s2)
    1a08:	0100                	.insn	2, 0x0100
    1a0a:	0c05                	.insn	2, 0x0c05
    1a0c:	0306                	.insn	2, 0x0306
    1a0e:	0900                	.insn	2, 0x0900
    1a10:	0004                	.insn	2, 0x0004
    1a12:	0501                	.insn	2, 0x0501
    1a14:	0614                	.insn	2, 0x0614
    1a16:	00090003          	lb	zero,0(s2)
    1a1a:	0100                	.insn	2, 0x0100
    1a1c:	0305                	.insn	2, 0x0305
    1a1e:	0306                	.insn	2, 0x0306
    1a20:	0902                	.insn	2, 0x0902
    1a22:	0004                	.insn	2, 0x0004
    1a24:	0501                	.insn	2, 0x0501
    1a26:	0606                	.insn	2, 0x0606
    1a28:	00090003          	lb	zero,0(s2)
    1a2c:	0100                	.insn	2, 0x0100
    1a2e:	0105                	.insn	2, 0x0105
    1a30:	04093903          	.insn	4, 0x04093903
    1a34:	0100                	.insn	2, 0x0100
    1a36:	0405                	.insn	2, 0x0405
    1a38:	0306                	.insn	2, 0x0306
    1a3a:	095e                	.insn	2, 0x095e
    1a3c:	003c                	.insn	2, 0x003c
    1a3e:	0501                	.insn	2, 0x0501
    1a40:	0302                	.insn	2, 0x0302
    1a42:	7fa1                	.insn	2, 0x7fa1
    1a44:	0009                	.insn	2, 0x0009
    1a46:	0100                	.insn	2, 0x0100
    1a48:	00090203          	lb	tp,0(s2)
    1a4c:	0100                	.insn	2, 0x0100
    1a4e:	0605                	.insn	2, 0x0605
    1a50:	0306                	.insn	2, 0x0306
    1a52:	0900                	.insn	2, 0x0900
    1a54:	0000                	.insn	2, 0x0000
    1a56:	0501                	.insn	2, 0x0501
    1a58:	0305                	.insn	2, 0x0305
    1a5a:	0900                	.insn	2, 0x0900
    1a5c:	0004                	.insn	2, 0x0004
    1a5e:	0501                	.insn	2, 0x0501
    1a60:	01030603          	lb	a2,16(t1)
    1a64:	0409                	.insn	2, 0x0409
    1a66:	0100                	.insn	2, 0x0100
    1a68:	0a05                	.insn	2, 0x0a05
    1a6a:	0306                	.insn	2, 0x0306
    1a6c:	0900                	.insn	2, 0x0900
    1a6e:	0000                	.insn	2, 0x0000
    1a70:	0501                	.insn	2, 0x0501
    1a72:	030d                	.insn	2, 0x030d
    1a74:	0900                	.insn	2, 0x0900
    1a76:	0008                	.insn	2, 0x0008
    1a78:	0501                	.insn	2, 0x0501
    1a7a:	01030603          	lb	a2,16(t1)
    1a7e:	0409                	.insn	2, 0x0409
    1a80:	0100                	.insn	2, 0x0100
    1a82:	0900df03          	lhu	t5,144(ra)
    1a86:	0004                	.insn	2, 0x0004
    1a88:	0501                	.insn	2, 0x0501
    1a8a:	060a                	.insn	2, 0x060a
    1a8c:	00090003          	lb	zero,0(s2)
    1a90:	0100                	.insn	2, 0x0100
    1a92:	2305                	.insn	2, 0x2305
    1a94:	04090003          	lb	zero,64(s2)
    1a98:	0100                	.insn	2, 0x0100
    1a9a:	1105                	.insn	2, 0x1105
    1a9c:	04090003          	lb	zero,64(s2)
    1aa0:	0100                	.insn	2, 0x0100
    1aa2:	0605                	.insn	2, 0x0605
    1aa4:	04090103          	lb	sp,64(s2)
    1aa8:	0100                	.insn	2, 0x0100
    1aaa:	1105                	.insn	2, 0x1105
    1aac:	04097f03          	.insn	4, 0x04097f03
    1ab0:	0100                	.insn	2, 0x0100
    1ab2:	2305                	.insn	2, 0x2305
    1ab4:	0c090003          	lb	zero,192(s2)
    1ab8:	0100                	.insn	2, 0x0100
    1aba:	0305                	.insn	2, 0x0305
    1abc:	0306                	.insn	2, 0x0306
    1abe:	0901                	.insn	2, 0x0901
    1ac0:	0004                	.insn	2, 0x0004
    1ac2:	0501                	.insn	2, 0x0501
    1ac4:	0606                	.insn	2, 0x0606
    1ac6:	00090003          	lb	zero,0(s2)
    1aca:	0100                	.insn	2, 0x0100
    1acc:	1005                	.insn	2, 0x1005
    1ace:	0c090003          	lb	zero,192(s2)
    1ad2:	0100                	.insn	2, 0x0100
    1ad4:	0405                	.insn	2, 0x0405
    1ad6:	0306                	.insn	2, 0x0306
    1ad8:	0901                	.insn	2, 0x0901
    1ada:	0004                	.insn	2, 0x0004
    1adc:	0501                	.insn	2, 0x0501
    1ade:	0606                	.insn	2, 0x0606
    1ae0:	00090103          	lb	sp,0(s2)
    1ae4:	0100                	.insn	2, 0x0100
    1ae6:	04097f03          	.insn	4, 0x04097f03
    1aea:	0100                	.insn	2, 0x0100
    1aec:	0405                	.insn	2, 0x0405
    1aee:	0306                	.insn	2, 0x0306
    1af0:	0901                	.insn	2, 0x0901
    1af2:	0004                	.insn	2, 0x0004
    1af4:	0501                	.insn	2, 0x0501
    1af6:	0606                	.insn	2, 0x0606
    1af8:	00090003          	lb	zero,0(s2)
    1afc:	0100                	.insn	2, 0x0100
    1afe:	0405                	.insn	2, 0x0405
    1b00:	0306                	.insn	2, 0x0306
    1b02:	096e                	.insn	2, 0x096e
    1b04:	000c                	.insn	2, 0x000c
    1b06:	0501                	.insn	2, 0x0501
    1b08:	0606                	.insn	2, 0x0606
    1b0a:	097fae03          	lw	t3,151(t6)
    1b0e:	0004                	.insn	2, 0x0004
    1b10:	0501                	.insn	2, 0x0501
    1b12:	0304                	.insn	2, 0x0304
    1b14:	00d2                	.insn	2, 0x00d2
    1b16:	0409                	.insn	2, 0x0409
    1b18:	0100                	.insn	2, 0x0100
    1b1a:	1005                	.insn	2, 0x1005
    1b1c:	04090003          	lb	zero,64(s2)
    1b20:	0100                	.insn	2, 0x0100
    1b22:	0205                	.insn	2, 0x0205
    1b24:	0306                	.insn	2, 0x0306
    1b26:	7fac                	.insn	2, 0x7fac
    1b28:	0409                	.insn	2, 0x0409
    1b2a:	0100                	.insn	2, 0x0100
    1b2c:	00090203          	lb	tp,0(s2)
    1b30:	0100                	.insn	2, 0x0100
    1b32:	0505                	.insn	2, 0x0505
    1b34:	0306                	.insn	2, 0x0306
    1b36:	0900                	.insn	2, 0x0900
    1b38:	0000                	.insn	2, 0x0000
    1b3a:	0501                	.insn	2, 0x0501
    1b3c:	01030603          	lb	a2,16(t1)
    1b40:	0409                	.insn	2, 0x0409
    1b42:	0100                	.insn	2, 0x0100
    1b44:	0a05                	.insn	2, 0x0a05
    1b46:	0306                	.insn	2, 0x0306
    1b48:	0900                	.insn	2, 0x0900
    1b4a:	0000                	.insn	2, 0x0000
    1b4c:	0501                	.insn	2, 0x0501
    1b4e:	030d                	.insn	2, 0x030d
    1b50:	0900                	.insn	2, 0x0900
    1b52:	0008                	.insn	2, 0x0008
    1b54:	0501                	.insn	2, 0x0501
    1b56:	01030603          	lb	a2,16(t1)
    1b5a:	0409                	.insn	2, 0x0409
    1b5c:	0100                	.insn	2, 0x0100
    1b5e:	1005                	.insn	2, 0x1005
    1b60:	0306                	.insn	2, 0x0306
    1b62:	00d0                	.insn	2, 0x00d0
    1b64:	0009                	.insn	2, 0x0009
    1b66:	0100                	.insn	2, 0x0100
    1b68:	0305                	.insn	2, 0x0305
    1b6a:	097fb003          	.insn	4, 0x097fb003
    1b6e:	0004                	.insn	2, 0x0004
    1b70:	0501                	.insn	2, 0x0501
    1b72:	0604                	.insn	2, 0x0604
    1b74:	0900c903          	lbu	s2,144(ra)
    1b78:	0004                	.insn	2, 0x0004
    1b7a:	0501                	.insn	2, 0x0501
    1b7c:	0606                	.insn	2, 0x0606
    1b7e:	00090003          	lb	zero,0(s2)
    1b82:	0100                	.insn	2, 0x0100
    1b84:	0f05                	.insn	2, 0x0f05
    1b86:	04090203          	lb	tp,64(s2)
    1b8a:	0100                	.insn	2, 0x0100
    1b8c:	0605                	.insn	2, 0x0605
    1b8e:	04097e03          	.insn	4, 0x04097e03
    1b92:	0100                	.insn	2, 0x0100
    1b94:	0405                	.insn	2, 0x0405
    1b96:	0306                	.insn	2, 0x0306
    1b98:	0901                	.insn	2, 0x0901
    1b9a:	0008                	.insn	2, 0x0008
    1b9c:	0501                	.insn	2, 0x0501
    1b9e:	0310                	.insn	2, 0x0310
    1ba0:	0900                	.insn	2, 0x0900
    1ba2:	0000                	.insn	2, 0x0000
    1ba4:	0501                	.insn	2, 0x0501
    1ba6:	0611                	.insn	2, 0x0611
    1ba8:	00090003          	lb	zero,0(s2)
    1bac:	0100                	.insn	2, 0x0100
    1bae:	1005                	.insn	2, 0x1005
    1bb0:	04090003          	lb	zero,64(s2)
    1bb4:	0100                	.insn	2, 0x0100
    1bb6:	0b05                	.insn	2, 0x0b05
    1bb8:	04090003          	lb	zero,64(s2)
    1bbc:	0100                	.insn	2, 0x0100
    1bbe:	1705                	.insn	2, 0x1705
    1bc0:	0306                	.insn	2, 0x0306
    1bc2:	0900                	.insn	2, 0x0900
    1bc4:	0004                	.insn	2, 0x0004
    1bc6:	0501                	.insn	2, 0x0501
    1bc8:	0310                	.insn	2, 0x0310
    1bca:	0900                	.insn	2, 0x0900
    1bcc:	0008                	.insn	2, 0x0008
    1bce:	0501                	.insn	2, 0x0501
    1bd0:	0611                	.insn	2, 0x0611
    1bd2:	00090003          	lb	zero,0(s2)
    1bd6:	0100                	.insn	2, 0x0100
    1bd8:	1005                	.insn	2, 0x1005
    1bda:	04090003          	lb	zero,64(s2)
    1bde:	0100                	.insn	2, 0x0100
    1be0:	1405                	.insn	2, 0x1405
    1be2:	0306                	.insn	2, 0x0306
    1be4:	0901                	.insn	2, 0x0901
    1be6:	0008                	.insn	2, 0x0008
    1be8:	0501                	.insn	2, 0x0501
    1bea:	0618                	.insn	2, 0x0618
    1bec:	00090003          	lb	zero,0(s2)
    1bf0:	0100                	.insn	2, 0x0100
    1bf2:	1405                	.insn	2, 0x1405
    1bf4:	04090003          	lb	zero,64(s2)
    1bf8:	0100                	.insn	2, 0x0100
    1bfa:	1805                	.insn	2, 0x1805
    1bfc:	04090003          	lb	zero,64(s2)
    1c00:	0100                	.insn	2, 0x0100
    1c02:	1405                	.insn	2, 0x1405
    1c04:	04090003          	lb	zero,64(s2)
    1c08:	0100                	.insn	2, 0x0100
    1c0a:	1805                	.insn	2, 0x1805
    1c0c:	04090003          	lb	zero,64(s2)
    1c10:	0100                	.insn	2, 0x0100
    1c12:	0305                	.insn	2, 0x0305
    1c14:	0306                	.insn	2, 0x0306
    1c16:	7fb4                	.insn	2, 0x7fb4
    1c18:	0809                	.insn	2, 0x0809
    1c1a:	0100                	.insn	2, 0x0100
    1c1c:	0a05                	.insn	2, 0x0a05
    1c1e:	0306                	.insn	2, 0x0306
    1c20:	0900                	.insn	2, 0x0900
    1c22:	0000                	.insn	2, 0x0000
    1c24:	0501                	.insn	2, 0x0501
    1c26:	030d                	.insn	2, 0x030d
    1c28:	0900                	.insn	2, 0x0900
    1c2a:	0008                	.insn	2, 0x0008
    1c2c:	0501                	.insn	2, 0x0501
    1c2e:	01030603          	lb	a2,16(t1)
    1c32:	0809                	.insn	2, 0x0809
    1c34:	0100                	.insn	2, 0x0100
    1c36:	1405                	.insn	2, 0x1405
    1c38:	0900cb03          	lbu	s6,144(ra)
    1c3c:	0000                	.insn	2, 0x0000
    1c3e:	0501                	.insn	2, 0x0501
    1c40:	0618                	.insn	2, 0x0618
    1c42:	00090003          	lb	zero,0(s2)
    1c46:	0100                	.insn	2, 0x0100
    1c48:	1405                	.insn	2, 0x1405
    1c4a:	04090003          	lb	zero,64(s2)
    1c4e:	0100                	.insn	2, 0x0100
    1c50:	1805                	.insn	2, 0x1805
    1c52:	04090003          	lb	zero,64(s2)
    1c56:	0100                	.insn	2, 0x0100
    1c58:	2005                	.insn	2, 0x2005
    1c5a:	0306                	.insn	2, 0x0306
    1c5c:	0900                	.insn	2, 0x0900
    1c5e:	0004                	.insn	2, 0x0004
    1c60:	0501                	.insn	2, 0x0501
    1c62:	0302                	.insn	2, 0x0302
    1c64:	7fb1                	.insn	2, 0x7fb1
    1c66:	0009                	.insn	2, 0x0009
    1c68:	0100                	.insn	2, 0x0100
    1c6a:	00090203          	lb	tp,0(s2)
    1c6e:	0100                	.insn	2, 0x0100
    1c70:	0605                	.insn	2, 0x0605
    1c72:	0306                	.insn	2, 0x0306
    1c74:	0900                	.insn	2, 0x0900
    1c76:	0000                	.insn	2, 0x0000
    1c78:	0501                	.insn	2, 0x0501
    1c7a:	0305                	.insn	2, 0x0305
    1c7c:	0900                	.insn	2, 0x0900
    1c7e:	0004                	.insn	2, 0x0004
    1c80:	0501                	.insn	2, 0x0501
    1c82:	0602                	.insn	2, 0x0602
    1c84:	04090503          	lb	a0,64(s2)
    1c88:	0100                	.insn	2, 0x0100
    1c8a:	0605                	.insn	2, 0x0605
    1c8c:	0306                	.insn	2, 0x0306
    1c8e:	0900                	.insn	2, 0x0900
    1c90:	0000                	.insn	2, 0x0000
    1c92:	0501                	.insn	2, 0x0501
    1c94:	0305                	.insn	2, 0x0305
    1c96:	0900                	.insn	2, 0x0900
    1c98:	0004                	.insn	2, 0x0004
    1c9a:	0501                	.insn	2, 0x0501
    1c9c:	0611                	.insn	2, 0x0611
    1c9e:	04090003          	lb	zero,64(s2)
    1ca2:	0100                	.insn	2, 0x0100
    1ca4:	1405                	.insn	2, 0x1405
    1ca6:	0900c803          	lbu	a6,144(ra)
    1caa:	0008                	.insn	2, 0x0008
    1cac:	0501                	.insn	2, 0x0501
    1cae:	0618                	.insn	2, 0x0618
    1cb0:	00090003          	lb	zero,0(s2)
    1cb4:	0100                	.insn	2, 0x0100
    1cb6:	1405                	.insn	2, 0x1405
    1cb8:	04090003          	lb	zero,64(s2)
    1cbc:	0100                	.insn	2, 0x0100
    1cbe:	1805                	.insn	2, 0x1805
    1cc0:	04090003          	lb	zero,64(s2)
    1cc4:	0100                	.insn	2, 0x0100
    1cc6:	0905                	.insn	2, 0x0905
    1cc8:	08094403          	lbu	s0,128(s2)
    1ccc:	0100                	.insn	2, 0x0100
    1cce:	1805                	.insn	2, 0x1805
    1cd0:	04093c03          	.insn	4, 0x04093c03
    1cd4:	0100                	.insn	2, 0x0100
    1cd6:	0c05                	.insn	2, 0x0c05
    1cd8:	08090203          	lb	tp,128(s2)
    1cdc:	0100                	.insn	2, 0x0100
    1cde:	0405                	.insn	2, 0x0405
    1ce0:	0306                	.insn	2, 0x0306
    1ce2:	097f 0004 0501 0309 	.insn	10, 0x0943030905010004097f
    1cea:	0943 
    1cec:	0000                	.insn	2, 0x0000
    1cee:	0501                	.insn	2, 0x0501
    1cf0:	093e030f          	.insn	4, 0x093e030f
    1cf4:	0004                	.insn	2, 0x0004
    1cf6:	0501                	.insn	2, 0x0501
    1cf8:	7fb20303          	lb	t1,2043(tp) # 7fb <__stack_size-0x1fff805>
    1cfc:	0809                	.insn	2, 0x0809
    1cfe:	0100                	.insn	2, 0x0100
    1d00:	0a05                	.insn	2, 0x0a05
    1d02:	0306                	.insn	2, 0x0306
    1d04:	0900                	.insn	2, 0x0900
    1d06:	0000                	.insn	2, 0x0000
    1d08:	0501                	.insn	2, 0x0501
    1d0a:	030d                	.insn	2, 0x030d
    1d0c:	0900                	.insn	2, 0x0900
    1d0e:	0008                	.insn	2, 0x0008
    1d10:	0501                	.insn	2, 0x0501
    1d12:	01030603          	lb	a2,16(t1)
    1d16:	0809                	.insn	2, 0x0809
    1d18:	0100                	.insn	2, 0x0100
    1d1a:	0f05                	.insn	2, 0x0f05
    1d1c:	0900cd03          	lbu	s10,144(ra)
    1d20:	0000                	.insn	2, 0x0000
    1d22:	0501                	.insn	2, 0x0501
    1d24:	060c                	.insn	2, 0x060c
    1d26:	00090003          	lb	zero,0(s2)
    1d2a:	0100                	.insn	2, 0x0100
    1d2c:	0f05                	.insn	2, 0x0f05
    1d2e:	04090003          	lb	zero,64(s2)
    1d32:	0100                	.insn	2, 0x0100
    1d34:	0c05                	.insn	2, 0x0c05
    1d36:	04090003          	lb	zero,64(s2)
    1d3a:	0100                	.insn	2, 0x0100
    1d3c:	1405                	.insn	2, 0x1405
    1d3e:	0306                	.insn	2, 0x0306
    1d40:	0900                	.insn	2, 0x0900
    1d42:	0004                	.insn	2, 0x0004
    1d44:	0501                	.insn	2, 0x0501
    1d46:	0302                	.insn	2, 0x0302
    1d48:	00097faf          	.insn	4, 0x00097faf
    1d4c:	0100                	.insn	2, 0x0100
    1d4e:	00090203          	lb	tp,0(s2)
    1d52:	0100                	.insn	2, 0x0100
    1d54:	0605                	.insn	2, 0x0605
    1d56:	0306                	.insn	2, 0x0306
    1d58:	0900                	.insn	2, 0x0900
    1d5a:	0000                	.insn	2, 0x0000
    1d5c:	0501                	.insn	2, 0x0501
    1d5e:	0305                	.insn	2, 0x0305
    1d60:	0900                	.insn	2, 0x0900
    1d62:	0004                	.insn	2, 0x0004
    1d64:	0501                	.insn	2, 0x0501
    1d66:	0602                	.insn	2, 0x0602
    1d68:	04090503          	lb	a0,64(s2)
    1d6c:	0100                	.insn	2, 0x0100
    1d6e:	0605                	.insn	2, 0x0605
    1d70:	0306                	.insn	2, 0x0306
    1d72:	0900                	.insn	2, 0x0900
    1d74:	0000                	.insn	2, 0x0000
    1d76:	0501                	.insn	2, 0x0501
    1d78:	0305                	.insn	2, 0x0305
    1d7a:	0900                	.insn	2, 0x0900
    1d7c:	0004                	.insn	2, 0x0004
    1d7e:	0501                	.insn	2, 0x0501
    1d80:	0611                	.insn	2, 0x0611
    1d82:	04090003          	lb	zero,64(s2)
    1d86:	0100                	.insn	2, 0x0100
    1d88:	0f05                	.insn	2, 0x0f05
    1d8a:	0900ca03          	lbu	s4,144(ra)
    1d8e:	0008                	.insn	2, 0x0008
    1d90:	0501                	.insn	2, 0x0501
    1d92:	060c                	.insn	2, 0x060c
    1d94:	00090003          	lb	zero,0(s2)
    1d98:	0100                	.insn	2, 0x0100
    1d9a:	0f05                	.insn	2, 0x0f05
    1d9c:	04090003          	lb	zero,64(s2)
    1da0:	0100                	.insn	2, 0x0100
    1da2:	0605                	.insn	2, 0x0605
    1da4:	04097c03          	.insn	4, 0x04097c03
    1da8:	0100                	.insn	2, 0x0100
    1daa:	0305                	.insn	2, 0x0305
    1dac:	0306                	.insn	2, 0x0306
    1dae:	7fb6                	.insn	2, 0x7fb6
    1db0:	0809                	.insn	2, 0x0809
    1db2:	0100                	.insn	2, 0x0100
    1db4:	0a05                	.insn	2, 0x0a05
    1db6:	0306                	.insn	2, 0x0306
    1db8:	0900                	.insn	2, 0x0900
    1dba:	0000                	.insn	2, 0x0000
    1dbc:	0501                	.insn	2, 0x0501
    1dbe:	030d                	.insn	2, 0x030d
    1dc0:	0900                	.insn	2, 0x0900
    1dc2:	0008                	.insn	2, 0x0008
    1dc4:	0501                	.insn	2, 0x0501
    1dc6:	01030603          	lb	a2,16(t1)
    1dca:	0409                	.insn	2, 0x0409
    1dcc:	0100                	.insn	2, 0x0100
    1dce:	0905                	.insn	2, 0x0905
    1dd0:	00090f03          	lb	t5,0(s2)
    1dd4:	0100                	.insn	2, 0x0100
    1dd6:	0305                	.insn	2, 0x0305
    1dd8:	08090103          	lb	sp,128(s2)
    1ddc:	0100                	.insn	2, 0x0100
    1dde:	0605                	.insn	2, 0x0605
    1de0:	0306                	.insn	2, 0x0306
    1de2:	096e                	.insn	2, 0x096e
    1de4:	0000                	.insn	2, 0x0000
    1de6:	0501                	.insn	2, 0x0501
    1de8:	030d                	.insn	2, 0x030d
    1dea:	0912                	.insn	2, 0x0912
    1dec:	0004                	.insn	2, 0x0004
    1dee:	0501                	.insn	2, 0x0501
    1df0:	0602                	.insn	2, 0x0602
    1df2:	04096c03          	.insn	4, 0x04096c03
    1df6:	0100                	.insn	2, 0x0100
    1df8:	00090203          	lb	tp,0(s2)
    1dfc:	0100                	.insn	2, 0x0100
    1dfe:	0505                	.insn	2, 0x0505
    1e00:	0306                	.insn	2, 0x0306
    1e02:	0900                	.insn	2, 0x0900
    1e04:	0000                	.insn	2, 0x0000
    1e06:	0501                	.insn	2, 0x0501
    1e08:	0602                	.insn	2, 0x0602
    1e0a:	04090503          	lb	a0,64(s2)
    1e0e:	0100                	.insn	2, 0x0100
    1e10:	0605                	.insn	2, 0x0605
    1e12:	0306                	.insn	2, 0x0306
    1e14:	0900                	.insn	2, 0x0900
    1e16:	0000                	.insn	2, 0x0000
    1e18:	0501                	.insn	2, 0x0501
    1e1a:	0305                	.insn	2, 0x0305
    1e1c:	0900                	.insn	2, 0x0900
    1e1e:	0004                	.insn	2, 0x0004
    1e20:	0501                	.insn	2, 0x0501
    1e22:	0611                	.insn	2, 0x0611
    1e24:	04090003          	lb	zero,64(s2)
    1e28:	0100                	.insn	2, 0x0100
    1e2a:	0305                	.insn	2, 0x0305
    1e2c:	0900dc03          	lhu	s8,144(ra)
    1e30:	0008                	.insn	2, 0x0008
    1e32:	0501                	.insn	2, 0x0501
    1e34:	060a                	.insn	2, 0x060a
    1e36:	00090003          	lb	zero,0(s2)
    1e3a:	0100                	.insn	2, 0x0100
    1e3c:	0605                	.insn	2, 0x0605
    1e3e:	04097503          	.insn	4, 0x04097503
    1e42:	0100                	.insn	2, 0x0100
    1e44:	2305                	.insn	2, 0x2305
    1e46:	04090b03          	lb	s6,64(s2)
    1e4a:	0100                	.insn	2, 0x0100
    1e4c:	0305                	.insn	2, 0x0305
    1e4e:	0306                	.insn	2, 0x0306
    1e50:	0901                	.insn	2, 0x0901
    1e52:	0010                	.insn	2, 0x0010
    1e54:	0501                	.insn	2, 0x0501
    1e56:	7f030623          	sb	a6,2028(t1)
    1e5a:	0009                	.insn	2, 0x0009
    1e5c:	0100                	.insn	2, 0x0100
    1e5e:	0305                	.insn	2, 0x0305
    1e60:	0306                	.insn	2, 0x0306
    1e62:	0905                	.insn	2, 0x0905
    1e64:	0008                	.insn	2, 0x0008
    1e66:	0501                	.insn	2, 0x0501
    1e68:	0605                	.insn	2, 0x0605
    1e6a:	18090003          	lb	zero,384(s2)
    1e6e:	0100                	.insn	2, 0x0100
    1e70:	0705                	.insn	2, 0x0705
    1e72:	04090303          	lb	t1,64(s2)
    1e76:	0100                	.insn	2, 0x0100
    1e78:	0305                	.insn	2, 0x0305
    1e7a:	0306                	.insn	2, 0x0306
    1e7c:	097e                	.insn	2, 0x097e
    1e7e:	000c                	.insn	2, 0x000c
    1e80:	0501                	.insn	2, 0x0501
    1e82:	0304                	.insn	2, 0x0304
    1e84:	0901                	.insn	2, 0x0901
    1e86:	0000                	.insn	2, 0x0000
    1e88:	0501                	.insn	2, 0x0501
    1e8a:	0611                	.insn	2, 0x0611
    1e8c:	00090003          	lb	zero,0(s2)
    1e90:	0100                	.insn	2, 0x0100
    1e92:	1905                	.insn	2, 0x1905
    1e94:	10090003          	lb	zero,256(s2)
    1e98:	0100                	.insn	2, 0x0100
    1e9a:	0605                	.insn	2, 0x0605
    1e9c:	10090003          	lb	zero,256(s2)
    1ea0:	0100                	.insn	2, 0x0100
    1ea2:	1705                	.insn	2, 0x1705
    1ea4:	0306                	.insn	2, 0x0306
    1ea6:	0900                	.insn	2, 0x0900
    1ea8:	0004                	.insn	2, 0x0004
    1eaa:	0501                	.insn	2, 0x0501
    1eac:	0619                	.insn	2, 0x0619
    1eae:	00090003          	lb	zero,0(s2)
    1eb2:	0100                	.insn	2, 0x0100
    1eb4:	0405                	.insn	2, 0x0405
    1eb6:	0306                	.insn	2, 0x0306
    1eb8:	0901                	.insn	2, 0x0901
    1eba:	0004                	.insn	2, 0x0004
    1ebc:	0501                	.insn	2, 0x0501
    1ebe:	00030607          	.insn	4, 0x00030607
    1ec2:	0009                	.insn	2, 0x0009
    1ec4:	0100                	.insn	2, 0x0100
    1ec6:	0f05                	.insn	2, 0x0f05
    1ec8:	0306                	.insn	2, 0x0306
    1eca:	0900                	.insn	2, 0x0900
    1ecc:	0004                	.insn	2, 0x0004
    1ece:	0501                	.insn	2, 0x0501
    1ed0:	0611                	.insn	2, 0x0611
    1ed2:	00090003          	lb	zero,0(s2)
    1ed6:	0100                	.insn	2, 0x0100
    1ed8:	0405                	.insn	2, 0x0405
    1eda:	0306                	.insn	2, 0x0306
    1edc:	0901                	.insn	2, 0x0901
    1ede:	000c                	.insn	2, 0x000c
    1ee0:	0501                	.insn	2, 0x0501
    1ee2:	00030607          	.insn	4, 0x00030607
    1ee6:	0009                	.insn	2, 0x0009
    1ee8:	0100                	.insn	2, 0x0100
    1eea:	0b05                	.insn	2, 0x0b05
    1eec:	04090003          	lb	zero,64(s2)
    1ef0:	0100                	.insn	2, 0x0100
    1ef2:	0f05                	.insn	2, 0x0f05
    1ef4:	04090003          	lb	zero,64(s2)
    1ef8:	0100                	.insn	2, 0x0100
    1efa:	0b05                	.insn	2, 0x0b05
    1efc:	04090003          	lb	zero,64(s2)
    1f00:	0100                	.insn	2, 0x0100
    1f02:	0e05                	.insn	2, 0x0e05
    1f04:	0306                	.insn	2, 0x0306
    1f06:	0901                	.insn	2, 0x0901
    1f08:	0004                	.insn	2, 0x0004
    1f0a:	0501                	.insn	2, 0x0501
    1f0c:	09010303          	lb	t1,144(sp)
    1f10:	000c                	.insn	2, 0x000c
    1f12:	0501                	.insn	2, 0x0501
    1f14:	0606                	.insn	2, 0x0606
    1f16:	00090003          	lb	zero,0(s2)
    1f1a:	0100                	.insn	2, 0x0100
    1f1c:	0e05                	.insn	2, 0x0e05
    1f1e:	0306                	.insn	2, 0x0306
    1f20:	0900                	.insn	2, 0x0900
    1f22:	0008                	.insn	2, 0x0008
    1f24:	0501                	.insn	2, 0x0501
    1f26:	0615                	.insn	2, 0x0615
    1f28:	00090003          	lb	zero,0(s2)
    1f2c:	0100                	.insn	2, 0x0100
    1f2e:	1105                	.insn	2, 0x1105
    1f30:	14090003          	lb	zero,320(s2)
    1f34:	0100                	.insn	2, 0x0100
    1f36:	0305                	.insn	2, 0x0305
    1f38:	0306                	.insn	2, 0x0306
    1f3a:	0901                	.insn	2, 0x0901
    1f3c:	0004                	.insn	2, 0x0004
    1f3e:	0501                	.insn	2, 0x0501
    1f40:	030a                	.insn	2, 0x030a
    1f42:	0900                	.insn	2, 0x0900
    1f44:	0000                	.insn	2, 0x0000
    1f46:	0501                	.insn	2, 0x0501
    1f48:	060c                	.insn	2, 0x060c
    1f4a:	00090003          	lb	zero,0(s2)
    1f4e:	0100                	.insn	2, 0x0100
    1f50:	0e05                	.insn	2, 0x0e05
    1f52:	08090103          	lb	sp,128(s2)
    1f56:	0100                	.insn	2, 0x0100
    1f58:	0605                	.insn	2, 0x0605
    1f5a:	097f9203          	lh	tp,151(t6)
    1f5e:	0004                	.insn	2, 0x0004
    1f60:	0501                	.insn	2, 0x0501
    1f62:	030c                	.insn	2, 0x030c
    1f64:	00ed                	.insn	2, 0x00ed
    1f66:	0409                	.insn	2, 0x0409
    1f68:	0100                	.insn	2, 0x0100
    1f6a:	0305                	.insn	2, 0x0305
    1f6c:	0306                	.insn	2, 0x0306
    1f6e:	0901                	.insn	2, 0x0901
    1f70:	0004                	.insn	2, 0x0004
    1f72:	0501                	.insn	2, 0x0501
    1f74:	09000313          	addi	t1,zero,144
    1f78:	0000                	.insn	2, 0x0000
    1f7a:	0501                	.insn	2, 0x0501
    1f7c:	00030617          	auipc	a2,0x30
    1f80:	0009                	.insn	2, 0x0009
    1f82:	0100                	.insn	2, 0x0100
    1f84:	1305                	.insn	2, 0x1305
    1f86:	04090003          	lb	zero,64(s2)
    1f8a:	0100                	.insn	2, 0x0100
    1f8c:	1f05                	.insn	2, 0x1f05
    1f8e:	0306                	.insn	2, 0x0306
    1f90:	0900                	.insn	2, 0x0900
    1f92:	000c                	.insn	2, 0x000c
    1f94:	0501                	.insn	2, 0x0501
    1f96:	0302                	.insn	2, 0x0302
    1f98:	7f90                	.insn	2, 0x7f90
    1f9a:	0009                	.insn	2, 0x0009
    1f9c:	0100                	.insn	2, 0x0100
    1f9e:	00090203          	lb	tp,0(s2)
    1fa2:	0100                	.insn	2, 0x0100
    1fa4:	0505                	.insn	2, 0x0505
    1fa6:	0306                	.insn	2, 0x0306
    1fa8:	0900                	.insn	2, 0x0900
    1faa:	0000                	.insn	2, 0x0000
    1fac:	0501                	.insn	2, 0x0501
    1fae:	01030603          	lb	a2,16(t1)
    1fb2:	0409                	.insn	2, 0x0409
    1fb4:	0100                	.insn	2, 0x0100
    1fb6:	0a05                	.insn	2, 0x0a05
    1fb8:	0306                	.insn	2, 0x0306
    1fba:	0900                	.insn	2, 0x0900
    1fbc:	0000                	.insn	2, 0x0000
    1fbe:	0501                	.insn	2, 0x0501
    1fc0:	030d                	.insn	2, 0x030d
    1fc2:	0900                	.insn	2, 0x0900
    1fc4:	0004                	.insn	2, 0x0004
    1fc6:	0501                	.insn	2, 0x0501
    1fc8:	01030603          	lb	a2,16(t1)
    1fcc:	0409                	.insn	2, 0x0409
    1fce:	0100                	.insn	2, 0x0100
    1fd0:	0a05                	.insn	2, 0x0a05
    1fd2:	0306                	.insn	2, 0x0306
    1fd4:	097f 0000 0501 0303 	.insn	10, 0x0901030305010000097f
    1fdc:	0901 
    1fde:	0004                	.insn	2, 0x0004
    1fe0:	0501                	.insn	2, 0x0501
    1fe2:	ec030613          	addi	a2,t1,-320
    1fe6:	0900                	.insn	2, 0x0900
    1fe8:	0008                	.insn	2, 0x0008
    1fea:	0501                	.insn	2, 0x0501
    1fec:	00030617          	auipc	a2,0x30
    1ff0:	0009                	.insn	2, 0x0009
    1ff2:	0100                	.insn	2, 0x0100
    1ff4:	1305                	.insn	2, 0x1305
    1ff6:	04090003          	lb	zero,64(s2)
    1ffa:	0100                	.insn	2, 0x0100
    1ffc:	0305                	.insn	2, 0x0305
    1ffe:	0306                	.insn	2, 0x0306
    2000:	0c097f93          	andi	t6,s2,192
    2004:	0100                	.insn	2, 0x0100
    2006:	0a05                	.insn	2, 0x0a05
    2008:	0306                	.insn	2, 0x0306
    200a:	0900                	.insn	2, 0x0900
    200c:	0000                	.insn	2, 0x0000
    200e:	0501                	.insn	2, 0x0501
    2010:	030d                	.insn	2, 0x030d
    2012:	0900                	.insn	2, 0x0900
    2014:	0008                	.insn	2, 0x0008
    2016:	0501                	.insn	2, 0x0501
    2018:	01030603          	lb	a2,16(t1)
    201c:	0409                	.insn	2, 0x0409
    201e:	0100                	.insn	2, 0x0100
    2020:	1b05                	.insn	2, 0x1b05
    2022:	0900ed03          	.insn	4, 0x0900ed03
    2026:	0000                	.insn	2, 0x0000
    2028:	0501                	.insn	2, 0x0501
    202a:	0606                	.insn	2, 0x0606
    202c:	097f9103          	lh	sp,151(t6)
    2030:	0008                	.insn	2, 0x0008
    2032:	0501                	.insn	2, 0x0501
    2034:	ef030603          	lb	a2,-272(t1)
    2038:	0900                	.insn	2, 0x0900
    203a:	0004                	.insn	2, 0x0004
    203c:	0501                	.insn	2, 0x0501
    203e:	0306                	.insn	2, 0x0306
    2040:	0900                	.insn	2, 0x0900
    2042:	0000                	.insn	2, 0x0000
    2044:	0501                	.insn	2, 0x0501
    2046:	0302                	.insn	2, 0x0302
    2048:	04097f8f          	.insn	4, 0x04097f8f
    204c:	0100                	.insn	2, 0x0100
    204e:	00090203          	lb	tp,0(s2)
    2052:	0100                	.insn	2, 0x0100
    2054:	0505                	.insn	2, 0x0505
    2056:	0306                	.insn	2, 0x0306
    2058:	0900                	.insn	2, 0x0900
    205a:	0000                	.insn	2, 0x0000
    205c:	0501                	.insn	2, 0x0501
    205e:	0602                	.insn	2, 0x0602
    2060:	04090503          	lb	a0,64(s2)
    2064:	0100                	.insn	2, 0x0100
    2066:	0605                	.insn	2, 0x0605
    2068:	0306                	.insn	2, 0x0306
    206a:	0900                	.insn	2, 0x0900
    206c:	0000                	.insn	2, 0x0000
    206e:	0501                	.insn	2, 0x0501
    2070:	0305                	.insn	2, 0x0305
    2072:	0900                	.insn	2, 0x0900
    2074:	0004                	.insn	2, 0x0004
    2076:	0501                	.insn	2, 0x0501
    2078:	0611                	.insn	2, 0x0611
    207a:	04090003          	lb	zero,64(s2)
    207e:	0100                	.insn	2, 0x0100
    2080:	1b05                	.insn	2, 0x1b05
    2082:	0306                	.insn	2, 0x0306
    2084:	00ea                	.insn	2, 0x00ea
    2086:	0009                	.insn	2, 0x0009
    2088:	0100                	.insn	2, 0x0100
    208a:	1105                	.insn	2, 0x1105
    208c:	097f9603          	lh	a2,151(t6)
    2090:	0004                	.insn	2, 0x0004
    2092:	0501                	.insn	2, 0x0501
    2094:	ea03061b          	.insn	4, 0xea03061b
    2098:	0900                	.insn	2, 0x0900
    209a:	0004                	.insn	2, 0x0004
    209c:	0501                	.insn	2, 0x0501
    209e:	030e                	.insn	2, 0x030e
    20a0:	0901                	.insn	2, 0x0901
    20a2:	0004                	.insn	2, 0x0004
    20a4:	0501                	.insn	2, 0x0501
    20a6:	0003060b          	.insn	4, 0x0003060b
    20aa:	0009                	.insn	2, 0x0009
    20ac:	0100                	.insn	2, 0x0100
    20ae:	0e05                	.insn	2, 0x0e05
    20b0:	04090003          	lb	zero,64(s2)
    20b4:	0100                	.insn	2, 0x0100
    20b6:	0305                	.insn	2, 0x0305
    20b8:	0306                	.insn	2, 0x0306
    20ba:	7f91                	.insn	2, 0x7f91
    20bc:	0809                	.insn	2, 0x0809
    20be:	0100                	.insn	2, 0x0100
    20c0:	0a05                	.insn	2, 0x0a05
    20c2:	0306                	.insn	2, 0x0306
    20c4:	0900                	.insn	2, 0x0900
    20c6:	0000                	.insn	2, 0x0000
    20c8:	0501                	.insn	2, 0x0501
    20ca:	030d                	.insn	2, 0x030d
    20cc:	0900                	.insn	2, 0x0900
    20ce:	0008                	.insn	2, 0x0008
    20d0:	0501                	.insn	2, 0x0501
    20d2:	01030603          	lb	a2,16(t1)
    20d6:	0809                	.insn	2, 0x0809
    20d8:	0100                	.insn	2, 0x0100
    20da:	0e05                	.insn	2, 0x0e05
    20dc:	0900ee03          	.insn	4, 0x0900ee03
    20e0:	0000                	.insn	2, 0x0000
    20e2:	0501                	.insn	2, 0x0501
    20e4:	0003060b          	.insn	4, 0x0003060b
    20e8:	0009                	.insn	2, 0x0009
    20ea:	0100                	.insn	2, 0x0100
    20ec:	0e05                	.insn	2, 0x0e05
    20ee:	04090003          	lb	zero,64(s2)
    20f2:	0100                	.insn	2, 0x0100
    20f4:	1305                	.insn	2, 0x1305
    20f6:	0306                	.insn	2, 0x0306
    20f8:	0900                	.insn	2, 0x0900
    20fa:	0008                	.insn	2, 0x0008
    20fc:	0501                	.insn	2, 0x0501
    20fe:	0302                	.insn	2, 0x0302
    2100:	7f8e                	.insn	2, 0x7f8e
    2102:	0009                	.insn	2, 0x0009
    2104:	0100                	.insn	2, 0x0100
    2106:	00090203          	lb	tp,0(s2)
    210a:	0100                	.insn	2, 0x0100
    210c:	0605                	.insn	2, 0x0605
    210e:	0306                	.insn	2, 0x0306
    2110:	0900                	.insn	2, 0x0900
    2112:	0000                	.insn	2, 0x0000
    2114:	0501                	.insn	2, 0x0501
    2116:	0305                	.insn	2, 0x0305
    2118:	0900                	.insn	2, 0x0900
    211a:	0004                	.insn	2, 0x0004
    211c:	0501                	.insn	2, 0x0501
    211e:	0602                	.insn	2, 0x0602
    2120:	04090503          	lb	a0,64(s2)
    2124:	0100                	.insn	2, 0x0100
    2126:	0605                	.insn	2, 0x0605
    2128:	0306                	.insn	2, 0x0306
    212a:	0900                	.insn	2, 0x0900
    212c:	0000                	.insn	2, 0x0000
    212e:	0501                	.insn	2, 0x0501
    2130:	0305                	.insn	2, 0x0305
    2132:	0900                	.insn	2, 0x0900
    2134:	0004                	.insn	2, 0x0004
    2136:	0501                	.insn	2, 0x0501
    2138:	0611                	.insn	2, 0x0611
    213a:	04090003          	lb	zero,64(s2)
    213e:	0100                	.insn	2, 0x0100
    2140:	1305                	.insn	2, 0x1305
    2142:	0900e903          	.insn	4, 0x0900e903
    2146:	000c                	.insn	2, 0x000c
    2148:	0501                	.insn	2, 0x0501
    214a:	00030617          	auipc	a2,0x30
    214e:	0009                	.insn	2, 0x0009
    2150:	0100                	.insn	2, 0x0100
    2152:	1305                	.insn	2, 0x1305
    2154:	04090003          	lb	zero,64(s2)
    2158:	0100                	.insn	2, 0x0100
    215a:	1705                	.insn	2, 0x1705
    215c:	04090003          	lb	zero,64(s2)
    2160:	0100                	.insn	2, 0x0100
    2162:	0205                	.insn	2, 0x0205
    2164:	0306                	.insn	2, 0x0306
    2166:	04097f97          	auipc	t6,0x4097
    216a:	0100                	.insn	2, 0x0100
    216c:	0605                	.insn	2, 0x0605
    216e:	0306                	.insn	2, 0x0306
    2170:	0900                	.insn	2, 0x0900
    2172:	0000                	.insn	2, 0x0000
    2174:	0501                	.insn	2, 0x0501
    2176:	0305                	.insn	2, 0x0305
    2178:	0900                	.insn	2, 0x0900
    217a:	0004                	.insn	2, 0x0004
    217c:	0501                	.insn	2, 0x0501
    217e:	0611                	.insn	2, 0x0611
    2180:	04090003          	lb	zero,64(s2)
    2184:	0100                	.insn	2, 0x0100
    2186:	0605                	.insn	2, 0x0605
    2188:	0306                	.insn	2, 0x0306
    218a:	0008097b          	.insn	4, 0x0008097b
    218e:	0501                	.insn	2, 0x0501
    2190:	0604                	.insn	2, 0x0604
    2192:	0900db03          	lhu	s6,144(ra)
    2196:	000c                	.insn	2, 0x000c
    2198:	0501                	.insn	2, 0x0501
    219a:	030c                	.insn	2, 0x030c
    219c:	0900                	.insn	2, 0x0900
    219e:	0000                	.insn	2, 0x0000
    21a0:	0501                	.insn	2, 0x0501
    21a2:	09060303          	lb	t1,144(a2) # 321da <__stack_size-0x1fcde26>
    21a6:	0000                	.insn	2, 0x0000
    21a8:	0501                	.insn	2, 0x0501
    21aa:	060a                	.insn	2, 0x060a
    21ac:	00090003          	lb	zero,0(s2)
    21b0:	0100                	.insn	2, 0x0100
    21b2:	0605                	.insn	2, 0x0605
    21b4:	04097a03          	.insn	4, 0x04097a03
    21b8:	0100                	.insn	2, 0x0100
    21ba:	2305                	.insn	2, 0x2305
    21bc:	04090603          	lb	a2,64(s2)
    21c0:	0100                	.insn	2, 0x0100
    21c2:	0605                	.insn	2, 0x0605
    21c4:	0c097a03          	.insn	4, 0x0c097a03
    21c8:	0100                	.insn	2, 0x0100
    21ca:	2305                	.insn	2, 0x2305
    21cc:	04090603          	lb	a2,64(s2)
    21d0:	0100                	.insn	2, 0x0100
    21d2:	0305                	.insn	2, 0x0305
    21d4:	0306                	.insn	2, 0x0306
    21d6:	0901                	.insn	2, 0x0901
    21d8:	0004                	.insn	2, 0x0004
    21da:	0501                	.insn	2, 0x0501
    21dc:	0611                	.insn	2, 0x0611
    21de:	00097f03          	.insn	4, 0x00097f03
    21e2:	0100                	.insn	2, 0x0100
    21e4:	0305                	.insn	2, 0x0305
    21e6:	0306                	.insn	2, 0x0306
    21e8:	0900                	.insn	2, 0x0900
    21ea:	000c                	.insn	2, 0x000c
    21ec:	0501                	.insn	2, 0x0501
    21ee:	060a                	.insn	2, 0x060a
    21f0:	00090003          	lb	zero,0(s2)
    21f4:	0100                	.insn	2, 0x0100
    21f6:	0605                	.insn	2, 0x0605
    21f8:	04097303          	.insn	4, 0x04097303
    21fc:	0100                	.insn	2, 0x0100
    21fe:	2305                	.insn	2, 0x2305
    2200:	04090d03          	lb	s10,64(s2)
    2204:	0100                	.insn	2, 0x0100
    2206:	0605                	.insn	2, 0x0605
    2208:	08097303          	.insn	4, 0x08097303
    220c:	0100                	.insn	2, 0x0100
    220e:	3905                	.insn	2, 0x3905
    2210:	04090d03          	lb	s10,64(s2)
    2214:	0100                	.insn	2, 0x0100
    2216:	2305                	.insn	2, 0x2305
    2218:	04090003          	lb	zero,64(s2)
    221c:	0100                	.insn	2, 0x0100
    221e:	0305                	.insn	2, 0x0305
    2220:	0306                	.insn	2, 0x0306
    2222:	0901                	.insn	2, 0x0901
    2224:	0004                	.insn	2, 0x0004
    2226:	0501                	.insn	2, 0x0501
    2228:	0611                	.insn	2, 0x0611
    222a:	00097f03          	.insn	4, 0x00097f03
    222e:	0100                	.insn	2, 0x0100
    2230:	0205                	.insn	2, 0x0205
    2232:	0306                	.insn	2, 0x0306
    2234:	7fa4                	.insn	2, 0x7fa4
    2236:	0c09                	.insn	2, 0x0c09
    2238:	0100                	.insn	2, 0x0100
    223a:	0605                	.insn	2, 0x0605
    223c:	0306                	.insn	2, 0x0306
    223e:	0900                	.insn	2, 0x0900
    2240:	0000                	.insn	2, 0x0000
    2242:	0501                	.insn	2, 0x0501
    2244:	0305                	.insn	2, 0x0305
    2246:	0900                	.insn	2, 0x0900
    2248:	0008                	.insn	2, 0x0008
    224a:	0501                	.insn	2, 0x0501
    224c:	0611                	.insn	2, 0x0611
    224e:	04090003          	lb	zero,64(s2)
    2252:	0100                	.insn	2, 0x0100
    2254:	0405                	.insn	2, 0x0405
    2256:	08093603          	.insn	4, 0x08093603
    225a:	0100                	.insn	2, 0x0100
    225c:	0b05                	.insn	2, 0x0b05
    225e:	00090003          	lb	zero,0(s2)
    2262:	0100                	.insn	2, 0x0100
    2264:	0d05                	.insn	2, 0x0d05
    2266:	0306                	.insn	2, 0x0306
    2268:	0900                	.insn	2, 0x0900
    226a:	0000                	.insn	2, 0x0000
    226c:	0501                	.insn	2, 0x0501
    226e:	0306                	.insn	2, 0x0306
    2270:	0900                	.insn	2, 0x0900
    2272:	0004                	.insn	2, 0x0004
    2274:	0501                	.insn	2, 0x0501
    2276:	09000313          	addi	t1,zero,144
    227a:	0004                	.insn	2, 0x0004
    227c:	0501                	.insn	2, 0x0501
    227e:	0605                	.insn	2, 0x0605
    2280:	08090303          	lb	t1,128(s2)
    2284:	0100                	.insn	2, 0x0100
    2286:	0c05                	.insn	2, 0x0c05
    2288:	00090003          	lb	zero,0(s2)
    228c:	0100                	.insn	2, 0x0100
    228e:	0e05                	.insn	2, 0x0e05
    2290:	0306                	.insn	2, 0x0306
    2292:	0900                	.insn	2, 0x0900
    2294:	0000                	.insn	2, 0x0000
    2296:	0501                	.insn	2, 0x0501
    2298:	09000307          	.insn	4, 0x09000307
    229c:	0004                	.insn	2, 0x0004
    229e:	0501                	.insn	2, 0x0501
    22a0:	0314                	.insn	2, 0x0314
    22a2:	0900                	.insn	2, 0x0900
    22a4:	0004                	.insn	2, 0x0004
    22a6:	0501                	.insn	2, 0x0501
    22a8:	0602                	.insn	2, 0x0602
    22aa:	08094703          	lbu	a4,128(s2)
    22ae:	0100                	.insn	2, 0x0100
    22b0:	0605                	.insn	2, 0x0605
    22b2:	0306                	.insn	2, 0x0306
    22b4:	0900                	.insn	2, 0x0900
    22b6:	0000                	.insn	2, 0x0000
    22b8:	0501                	.insn	2, 0x0501
    22ba:	0310                	.insn	2, 0x0310
    22bc:	00cd                	.insn	2, 0x00cd
    22be:	0409                	.insn	2, 0x0409
    22c0:	0100                	.insn	2, 0x0100
    22c2:	0505                	.insn	2, 0x0505
    22c4:	097fb303          	.insn	4, 0x097fb303
    22c8:	0004                	.insn	2, 0x0004
    22ca:	0501                	.insn	2, 0x0501
    22cc:	0602                	.insn	2, 0x0602
    22ce:	08090003          	lb	zero,128(s2)
    22d2:	0100                	.insn	2, 0x0100
    22d4:	0605                	.insn	2, 0x0605
    22d6:	0306                	.insn	2, 0x0306
    22d8:	0900                	.insn	2, 0x0900
    22da:	0000                	.insn	2, 0x0000
    22dc:	0501                	.insn	2, 0x0501
    22de:	0305                	.insn	2, 0x0305
    22e0:	0900                	.insn	2, 0x0900
    22e2:	0004                	.insn	2, 0x0004
    22e4:	0501                	.insn	2, 0x0501
    22e6:	0309                	.insn	2, 0x0309
    22e8:	090c                	.insn	2, 0x090c
    22ea:	0008                	.insn	2, 0x0008
    22ec:	0501                	.insn	2, 0x0501
    22ee:	0318                	.insn	2, 0x0318
    22f0:	093c                	.insn	2, 0x093c
    22f2:	0004                	.insn	2, 0x0004
    22f4:	0501                	.insn	2, 0x0501
    22f6:	030c                	.insn	2, 0x030c
    22f8:	0902                	.insn	2, 0x0902
    22fa:	000c                	.insn	2, 0x000c
    22fc:	0501                	.insn	2, 0x0501
    22fe:	0604                	.insn	2, 0x0604
    2300:	04097f03          	.insn	4, 0x04097f03
    2304:	0100                	.insn	2, 0x0100
    2306:	0905                	.insn	2, 0x0905
    2308:	00094303          	lbu	t1,0(s2)
    230c:	0100                	.insn	2, 0x0100
    230e:	2305                	.insn	2, 0x2305
    2310:	0306                	.insn	2, 0x0306
    2312:	00d0                	.insn	2, 0x00d0
    2314:	0809                	.insn	2, 0x0809
    2316:	0100                	.insn	2, 0x0100
    2318:	0605                	.insn	2, 0x0605
    231a:	08096a03          	.insn	4, 0x08096a03
    231e:	0100                	.insn	2, 0x0100
    2320:	3905                	.insn	2, 0x3905
    2322:	08091603          	lh	a2,128(s2)
    2326:	0100                	.insn	2, 0x0100
    2328:	2305                	.insn	2, 0x2305
    232a:	08090003          	lb	zero,128(s2)
    232e:	0100                	.insn	2, 0x0100
    2330:	0305                	.insn	2, 0x0305
    2332:	0306                	.insn	2, 0x0306
    2334:	0901                	.insn	2, 0x0901
    2336:	0004                	.insn	2, 0x0004
    2338:	0501                	.insn	2, 0x0501
    233a:	7f030623          	sb	a6,2028(t1)
    233e:	0409                	.insn	2, 0x0409
    2340:	0100                	.insn	2, 0x0100
    2342:	0605                	.insn	2, 0x0605
    2344:	04097503          	.insn	4, 0x04097503
    2348:	0100                	.insn	2, 0x0100
    234a:	3905                	.insn	2, 0x3905
    234c:	04090b03          	lb	s6,64(s2)
    2350:	0100                	.insn	2, 0x0100
    2352:	2305                	.insn	2, 0x2305
    2354:	04090003          	lb	zero,64(s2)
    2358:	0100                	.insn	2, 0x0100
    235a:	0305                	.insn	2, 0x0305
    235c:	0306                	.insn	2, 0x0306
    235e:	0901                	.insn	2, 0x0901
    2360:	0004                	.insn	2, 0x0004
    2362:	0501                	.insn	2, 0x0501
    2364:	0611                	.insn	2, 0x0611
    2366:	00097f03          	.insn	4, 0x00097f03
    236a:	0100                	.insn	2, 0x0100
    236c:	1305                	.insn	2, 0x1305
    236e:	0c090d03          	lb	s10,192(s2)
    2372:	0100                	.insn	2, 0x0100
    2374:	1705                	.insn	2, 0x1705
    2376:	08090003          	lb	zero,128(s2)
    237a:	0100                	.insn	2, 0x0100
    237c:	1405                	.insn	2, 0x1405
    237e:	0306                	.insn	2, 0x0306
    2380:	095f 0008 0501      	.insn	6, 0x05010008095f
    2386:	0606                	.insn	2, 0x0606
    2388:	0c097e03          	.insn	4, 0x0c097e03
    238c:	0100                	.insn	2, 0x0100
    238e:	1405                	.insn	2, 0x1405
    2390:	08090203          	lb	tp,128(s2)
    2394:	0100                	.insn	2, 0x0100
    2396:	1705                	.insn	2, 0x1705
    2398:	04097f03          	.insn	4, 0x04097f03
    239c:	0100                	.insn	2, 0x0100
    239e:	1405                	.insn	2, 0x1405
    23a0:	08090103          	lb	sp,128(s2)
    23a4:	0100                	.insn	2, 0x0100
    23a6:	0b05                	.insn	2, 0x0b05
    23a8:	04097f03          	.insn	4, 0x04097f03
    23ac:	0100                	.insn	2, 0x0100
    23ae:	3905                	.insn	2, 0x3905
    23b0:	0c091503          	lh	a0,192(s2)
    23b4:	0100                	.insn	2, 0x0100
    23b6:	1009                	.insn	2, 0x1009
    23b8:	0000                	.insn	2, 0x0000
    23ba:	0101                	.insn	2, 0x0101
    23bc:	0000014f          	.insn	4, 0x014f
    23c0:	0005                	.insn	2, 0x0005
    23c2:	0004                	.insn	2, 0x0004
    23c4:	002e                	.insn	2, 0x002e
    23c6:	0000                	.insn	2, 0x0000
    23c8:	0101                	.insn	2, 0x0101
    23ca:	fb01                	.insn	2, 0xfb01
    23cc:	0d0e                	.insn	2, 0x0d0e
    23ce:	0100                	.insn	2, 0x0100
    23d0:	0101                	.insn	2, 0x0101
    23d2:	0001                	.insn	2, 0x0001
    23d4:	0000                	.insn	2, 0x0000
    23d6:	0001                	.insn	2, 0x0001
    23d8:	0100                	.insn	2, 0x0100
    23da:	0101                	.insn	2, 0x0101
    23dc:	021f 0154 0000      	.insn	6, 0x0154021f
    23e2:	01a8                	.insn	2, 0x01a8
    23e4:	0000                	.insn	2, 0x0000
    23e6:	0102                	.insn	2, 0x0102
    23e8:	021f 020f 01cb      	.insn	6, 0x01cb020f021f
    23ee:	0000                	.insn	2, 0x0000
    23f0:	cb01                	.insn	2, 0xcb01
    23f2:	0001                	.insn	2, 0x0001
    23f4:	0100                	.insn	2, 0x0100
    23f6:	0500                	.insn	2, 0x0500
    23f8:	9402                	.insn	2, 0x9402
    23fa:	0012                	.insn	2, 0x0012
    23fc:	0380                	.insn	2, 0x0380
    23fe:	00c4                	.insn	2, 0x00c4
    2400:	0301                	.insn	2, 0x0301
    2402:	0901                	.insn	2, 0x0901
    2404:	0004                	.insn	2, 0x0004
    2406:	0301                	.insn	2, 0x0301
    2408:	0904                	.insn	2, 0x0904
    240a:	0004                	.insn	2, 0x0004
    240c:	0301                	.insn	2, 0x0301
    240e:	0901                	.insn	2, 0x0901
    2410:	0004                	.insn	2, 0x0004
    2412:	0301                	.insn	2, 0x0301
    2414:	0901                	.insn	2, 0x0901
    2416:	0004                	.insn	2, 0x0004
    2418:	0301                	.insn	2, 0x0301
    241a:	0901                	.insn	2, 0x0901
    241c:	0004                	.insn	2, 0x0004
    241e:	0301                	.insn	2, 0x0301
    2420:	0901                	.insn	2, 0x0901
    2422:	0004                	.insn	2, 0x0004
    2424:	0301                	.insn	2, 0x0301
    2426:	0901                	.insn	2, 0x0901
    2428:	0004                	.insn	2, 0x0004
    242a:	0301                	.insn	2, 0x0301
    242c:	0902                	.insn	2, 0x0902
    242e:	0004                	.insn	2, 0x0004
    2430:	0301                	.insn	2, 0x0301
    2432:	0901                	.insn	2, 0x0901
    2434:	0004                	.insn	2, 0x0004
    2436:	0301                	.insn	2, 0x0301
    2438:	0901                	.insn	2, 0x0901
    243a:	0004                	.insn	2, 0x0004
    243c:	0301                	.insn	2, 0x0301
    243e:	0901                	.insn	2, 0x0901
    2440:	0004                	.insn	2, 0x0004
    2442:	0301                	.insn	2, 0x0301
    2444:	0902                	.insn	2, 0x0902
    2446:	0004                	.insn	2, 0x0004
    2448:	0301                	.insn	2, 0x0301
    244a:	0902                	.insn	2, 0x0902
    244c:	0004                	.insn	2, 0x0004
    244e:	0301                	.insn	2, 0x0301
    2450:	0901                	.insn	2, 0x0901
    2452:	0004                	.insn	2, 0x0004
    2454:	0301                	.insn	2, 0x0301
    2456:	0901                	.insn	2, 0x0901
    2458:	0004                	.insn	2, 0x0004
    245a:	0301                	.insn	2, 0x0301
    245c:	0902                	.insn	2, 0x0902
    245e:	0004                	.insn	2, 0x0004
    2460:	0301                	.insn	2, 0x0301
    2462:	0901                	.insn	2, 0x0901
    2464:	0004                	.insn	2, 0x0004
    2466:	0301                	.insn	2, 0x0301
    2468:	0901                	.insn	2, 0x0901
    246a:	0004                	.insn	2, 0x0004
    246c:	0301                	.insn	2, 0x0301
    246e:	0902                	.insn	2, 0x0902
    2470:	0004                	.insn	2, 0x0004
    2472:	0301                	.insn	2, 0x0301
    2474:	0906                	.insn	2, 0x0906
    2476:	0004                	.insn	2, 0x0004
    2478:	0301                	.insn	2, 0x0301
    247a:	0901                	.insn	2, 0x0901
    247c:	0004                	.insn	2, 0x0004
    247e:	0301                	.insn	2, 0x0301
    2480:	0901                	.insn	2, 0x0901
    2482:	0004                	.insn	2, 0x0004
    2484:	0301                	.insn	2, 0x0301
    2486:	0901                	.insn	2, 0x0901
    2488:	0004                	.insn	2, 0x0004
    248a:	0301                	.insn	2, 0x0301
    248c:	0905                	.insn	2, 0x0905
    248e:	0004                	.insn	2, 0x0004
    2490:	0301                	.insn	2, 0x0301
    2492:	0902                	.insn	2, 0x0902
    2494:	0004                	.insn	2, 0x0004
    2496:	0301                	.insn	2, 0x0301
    2498:	0902                	.insn	2, 0x0902
    249a:	0004                	.insn	2, 0x0004
    249c:	0301                	.insn	2, 0x0301
    249e:	0901                	.insn	2, 0x0901
    24a0:	0004                	.insn	2, 0x0004
    24a2:	0301                	.insn	2, 0x0301
    24a4:	0902                	.insn	2, 0x0902
    24a6:	0004                	.insn	2, 0x0004
    24a8:	0301                	.insn	2, 0x0301
    24aa:	0902                	.insn	2, 0x0902
    24ac:	0004                	.insn	2, 0x0004
    24ae:	0301                	.insn	2, 0x0301
    24b0:	0901                	.insn	2, 0x0901
    24b2:	0004                	.insn	2, 0x0004
    24b4:	0301                	.insn	2, 0x0301
    24b6:	0901                	.insn	2, 0x0901
    24b8:	0004                	.insn	2, 0x0004
    24ba:	0301                	.insn	2, 0x0301
    24bc:	0901                	.insn	2, 0x0901
    24be:	0004                	.insn	2, 0x0004
    24c0:	0301                	.insn	2, 0x0301
    24c2:	0904                	.insn	2, 0x0904
    24c4:	0004                	.insn	2, 0x0004
    24c6:	0301                	.insn	2, 0x0301
    24c8:	0901                	.insn	2, 0x0901
    24ca:	0004                	.insn	2, 0x0004
    24cc:	0301                	.insn	2, 0x0301
    24ce:	0901                	.insn	2, 0x0901
    24d0:	0004                	.insn	2, 0x0004
    24d2:	0301                	.insn	2, 0x0301
    24d4:	0902                	.insn	2, 0x0902
    24d6:	0004                	.insn	2, 0x0004
    24d8:	0301                	.insn	2, 0x0301
    24da:	0901                	.insn	2, 0x0901
    24dc:	0004                	.insn	2, 0x0004
    24de:	0301                	.insn	2, 0x0301
    24e0:	0901                	.insn	2, 0x0901
    24e2:	0004                	.insn	2, 0x0004
    24e4:	0301                	.insn	2, 0x0301
    24e6:	0902                	.insn	2, 0x0902
    24e8:	0004                	.insn	2, 0x0004
    24ea:	0301                	.insn	2, 0x0301
    24ec:	0901                	.insn	2, 0x0901
    24ee:	0004                	.insn	2, 0x0004
    24f0:	0301                	.insn	2, 0x0301
    24f2:	0902                	.insn	2, 0x0902
    24f4:	0004                	.insn	2, 0x0004
    24f6:	0301                	.insn	2, 0x0301
    24f8:	0901                	.insn	2, 0x0901
    24fa:	0004                	.insn	2, 0x0004
    24fc:	0301                	.insn	2, 0x0301
    24fe:	0901                	.insn	2, 0x0901
    2500:	0004                	.insn	2, 0x0004
    2502:	0301                	.insn	2, 0x0301
    2504:	0901                	.insn	2, 0x0901
    2506:	0004                	.insn	2, 0x0004
    2508:	0901                	.insn	2, 0x0901
    250a:	0004                	.insn	2, 0x0004
    250c:	0100                	.insn	2, 0x0100
    250e:	01                	.byte	0x01

Disassembly of section .debug_line_str:

00000000 <.debug_line_str>:
   0:	2e2e                	.insn	2, 0x2e2e
   2:	002e2e2f          	amoadd.w	t3,sp,(t3)
   6:	72617473          	.insn	4, 0x72617473
   a:	2e74                	.insn	2, 0x2e74
   c:	72640053          	.insn	4, 0x72640053
  10:	2e79                	.insn	2, 0x2e79
  12:	682f0063          	beq	t5,sp,692 <__stack_size-0x1fff96e>
  16:	2f656d6f          	jal	s10,5630c <__stack_size-0x1fa9cf4>
  1a:	7574                	.insn	2, 0x7574
  1c:	7574                	.insn	2, 0x7574
  1e:	7574                	.insn	2, 0x7574
  20:	6d69712f          	.insn	4, 0x6d69712f
  24:	6e65                	.insn	2, 0x6e65
  26:	69732f67          	.insn	4, 0x69732f67
  2a:	756d                	.insn	2, 0x756d
  2c:	616c                	.insn	2, 0x616c
  2e:	6f74                	.insn	2, 0x6f74
  30:	2f72                	.insn	2, 0x2f72
  32:	6162                	.insn	2, 0x6162
  34:	6572                	.insn	2, 0x6572
  36:	656d                	.insn	2, 0x656d
  38:	6174                	.insn	2, 0x6174
  3a:	2f6c                	.insn	2, 0x2f6c
  3c:	6562                	.insn	2, 0x6562
  3e:	636e                	.insn	2, 0x636e
  40:	6d68                	.insn	2, 0x6d68
  42:	7261                	.insn	2, 0x7261
  44:	642f736b          	.insn	4, 0x642f736b
  48:	7268                	.insn	2, 0x7268
  4a:	7379                	.insn	2, 0x7379
  4c:	6f74                	.insn	2, 0x6f74
  4e:	656e                	.insn	2, 0x656e
  50:	2e00                	.insn	2, 0x2e00
  52:	2f2e                	.insn	2, 0x2f2e
  54:	2e2e                	.insn	2, 0x2e2e
  56:	636e692f          	.insn	4, 0x636e692f
  5a:	756c                	.insn	2, 0x756c
  5c:	6564                	.insn	2, 0x6564
  5e:	7800                	.insn	2, 0x7800
  60:	7270                	.insn	2, 0x7270
  62:	6e69                	.insn	2, 0x6e69
  64:	6674                	.insn	2, 0x6674
  66:	682e                	.insn	2, 0x682e
  68:	3c00                	.insn	2, 0x3c00
  6a:	7562                	.insn	2, 0x7562
  6c:	6c69                	.insn	2, 0x6c69
  6e:	2d74                	.insn	2, 0x2d74
  70:	6e69                	.insn	2, 0x6e69
  72:	003e                	.insn	2, 0x003e
  74:	2e2e                	.insn	2, 0x2e2e
  76:	2f2e2e2f          	.insn	4, 0x2f2e2e2f
  7a:	696c                	.insn	2, 0x696c
  7c:	2f62                	.insn	2, 0x2f62
  7e:	7078                	.insn	2, 0x7078
  80:	6972                	.insn	2, 0x6972
  82:	746e                	.insn	2, 0x746e
  84:	2e66                	.insn	2, 0x2e66
  86:	682f0063          	beq	t5,sp,706 <__stack_size-0x1fff8fa>
  8a:	2f656d6f          	jal	s10,56380 <__stack_size-0x1fa9c80>
  8e:	7574                	.insn	2, 0x7574
  90:	7574                	.insn	2, 0x7574
  92:	7574                	.insn	2, 0x7574
  94:	6d69712f          	.insn	4, 0x6d69712f
  98:	6e65                	.insn	2, 0x6e65
  9a:	69732f67          	.insn	4, 0x69732f67
  9e:	756d                	.insn	2, 0x756d
  a0:	616c                	.insn	2, 0x616c
  a2:	6f74                	.insn	2, 0x6f74
  a4:	2f72                	.insn	2, 0x2f72
  a6:	6162                	.insn	2, 0x6162
  a8:	6572                	.insn	2, 0x6572
  aa:	656d                	.insn	2, 0x656d
  ac:	6174                	.insn	2, 0x6174
  ae:	2f6c                	.insn	2, 0x2f6c
  b0:	6562                	.insn	2, 0x6562
  b2:	636e                	.insn	2, 0x636e
  b4:	6d68                	.insn	2, 0x6d68
  b6:	7261                	.insn	2, 0x7261
  b8:	632f736b          	.insn	4, 0x632f736b
  bc:	6d65726f          	jal	tp,57792 <__stack_size-0x1fa886e>
  c0:	7261                	.insn	2, 0x7261
  c2:	2e2e006b          	.insn	4, 0x2e2e006b
  c6:	2f2e2e2f          	.insn	4, 0x2f2e2e2f
  ca:	696c                	.insn	2, 0x696c
  cc:	0062                	.insn	2, 0x0062
  ce:	6d6f682f          	.insn	4, 0x6d6f682f
  d2:	2f65                	.insn	2, 0x2f65
  d4:	7574                	.insn	2, 0x7574
  d6:	7574                	.insn	2, 0x7574
  d8:	7574                	.insn	2, 0x7574
  da:	6d69712f          	.insn	4, 0x6d69712f
  de:	6e65                	.insn	2, 0x6e65
  e0:	69662f67          	.insn	4, 0x69662f67
  e4:	656c                	.insn	2, 0x656c
  e6:	7261622f          	.insn	4, 0x7261622f
  ea:	6d65                	.insn	2, 0x6d65
  ec:	7465                	.insn	2, 0x7465
  ee:	6c61                	.insn	2, 0x6c61
  f0:	6f6f742f          	.insn	4, 0x6f6f742f
  f4:	636c                	.insn	2, 0x636c
  f6:	6168                	.insn	2, 0x6168
  f8:	6e69                	.insn	2, 0x6e69
  fa:	69722f73          	.insn	4, 0x69722f73
  fe:	2d766373          	.insn	4, 0x2d766373
 102:	6c65                	.insn	2, 0x6c65
 104:	3366                	.insn	2, 0x3366
 106:	2d32                	.insn	2, 0x2d32
 108:	6169                	.insn	2, 0x6169
 10a:	62696c2f          	.insn	4, 0x62696c2f
 10e:	6363672f          	.insn	4, 0x6363672f
 112:	7369722f          	.insn	4, 0x7369722f
 116:	32337663          	bgeu	t1,gp,442 <__stack_size-0x1fffbbe>
 11a:	752d                	.insn	2, 0x752d
 11c:	6b6e                	.insn	2, 0x6b6e
 11e:	6f6e                	.insn	2, 0x6f6e
 120:	652d6e77          	.insn	4, 0x652d6e77
 124:	666c                	.insn	2, 0x666c
 126:	2e31312f          	.insn	4, 0x2e31312f
 12a:	2e31                	.insn	2, 0x2e31
 12c:	2f30                	.insn	2, 0x2f30
 12e:	6e69                	.insn	2, 0x6e69
 130:	64756c63          	bltu	a0,t2,788 <__stack_size-0x1fff878>
 134:	0065                	.insn	2, 0x0065
 136:	2e2e                	.insn	2, 0x2e2e
 138:	2f2e2e2f          	.insn	4, 0x2f2e2e2f
 13c:	696c                	.insn	2, 0x696c
 13e:	2f62                	.insn	2, 0x2f62
 140:	2e2e                	.insn	2, 0x2e2e
 142:	636e692f          	.insn	4, 0x636e692f
 146:	756c                	.insn	2, 0x756c
 148:	6564                	.insn	2, 0x6564
 14a:	7300                	.insn	2, 0x7300
 14c:	6474                	.insn	2, 0x6474
 14e:	7261                	.insn	2, 0x7261
 150:	00682e67          	.insn	4, 0x00682e67
 154:	6d6f682f          	.insn	4, 0x6d6f682f
 158:	2f65                	.insn	2, 0x2f65
 15a:	7574                	.insn	2, 0x7574
 15c:	7574                	.insn	2, 0x7574
 15e:	7574                	.insn	2, 0x7574
 160:	7369722f          	.insn	4, 0x7369722f
 164:	672d7663          	bgeu	s10,s2,7d0 <__stack_size-0x1fff830>
 168:	756e                	.insn	2, 0x756e
 16a:	742d                	.insn	2, 0x742d
 16c:	636c6f6f          	jal	t5,c67a2 <__stack_size-0x1f3985e>
 170:	6168                	.insn	2, 0x6168
 172:	6e69                	.insn	2, 0x6e69
 174:	6975622f          	.insn	4, 0x6975622f
 178:	646c                	.insn	2, 0x646c
 17a:	672d                	.insn	2, 0x672d
 17c:	6e2d6363          	bltu	s10,sp,862 <__stack_size-0x1fff79e>
 180:	7765                	.insn	2, 0x7765
 182:	696c                	.insn	2, 0x696c
 184:	2d62                	.insn	2, 0x2d62
 186:	67617473          	.insn	4, 0x67617473
 18a:	3265                	.insn	2, 0x3265
 18c:	7369722f          	.insn	4, 0x7369722f
 190:	32337663          	bgeu	t1,gp,4bc <__stack_size-0x1fffb44>
 194:	752d                	.insn	2, 0x752d
 196:	6b6e                	.insn	2, 0x6b6e
 198:	6f6e                	.insn	2, 0x6f6e
 19a:	652d6e77          	.insn	4, 0x652d6e77
 19e:	666c                	.insn	2, 0x666c
 1a0:	62696c2f          	.insn	4, 0x62696c2f
 1a4:	00636367          	.insn	4, 0x00636367
 1a8:	2e2e                	.insn	2, 0x2e2e
 1aa:	2f2e2e2f          	.insn	4, 0x2f2e2e2f
 1ae:	2e2e                	.insn	2, 0x2e2e
 1b0:	672f2e2f          	amoand.w.aqrl	t3,s2,(t5)
 1b4:	6c2f6363          	bltu	t5,sp,87a <__stack_size-0x1fff786>
 1b8:	6269                	.insn	2, 0x6269
 1ba:	2f636367          	.insn	4, 0x2f636367
 1be:	666e6f63          	bltu	t3,t1,83c <__stack_size-0x1fff7c4>
 1c2:	6769                	.insn	2, 0x6769
 1c4:	7369722f          	.insn	4, 0x7369722f
 1c8:	64007663          	bgeu	zero,zero,814 <__stack_size-0x1fff7ec>
 1cc:	7669                	.insn	2, 0x7669
 1ce:	532e                	.insn	2, 0x532e
	...

Disassembly of section .debug_info:

00000000 <.debug_info>:
       0:	0020                	.insn	2, 0x0020
       2:	0000                	.insn	2, 0x0000
       4:	0005                	.insn	2, 0x0005
       6:	0401                	.insn	2, 0x0401
       8:	0000                	.insn	2, 0x0000
       a:	0000                	.insn	2, 0x0000
       c:	0001                	.insn	2, 0x0001
       e:	0000                	.insn	2, 0x0000
      10:	0000                	.insn	2, 0x0000
      12:	0000                	.insn	2, 0x0000
      14:	2080                	.insn	2, 0x2080
      16:	0000                	.insn	2, 0x0000
      18:	0000                	.insn	2, 0x0000
      1a:	0008                	.insn	2, 0x0008
      1c:	0000                	.insn	2, 0x0000
      1e:	0044                	.insn	2, 0x0044
      20:	0000                	.insn	2, 0x0000
      22:	8001                	.insn	2, 0x8001
      24:	1311                	.insn	2, 0x1311
      26:	0000                	.insn	2, 0x0000
      28:	0005                	.insn	2, 0x0005
      2a:	0401                	.insn	2, 0x0401
      2c:	0014                	.insn	2, 0x0014
      2e:	0000                	.insn	2, 0x0000
      30:	4428                	.insn	2, 0x4428
      32:	0002                	.insn	2, 0x0002
      34:	1d00                	.insn	2, 0x1d00
      36:	000e                	.insn	2, 0x000e
      38:	0000                	.insn	2, 0x0000
      3a:	0014                	.insn	2, 0x0014
      3c:	0000                	.insn	2, 0x0000
      3e:	00000317          	auipc	t1,0x0
      42:	0000                	.insn	2, 0x0000
      44:	0000                	.insn	2, 0x0000
      46:	0060                	.insn	2, 0x0060
      48:	0000                	.insn	2, 0x0000
      4a:	dc080113          	addi	sp,a6,-576
      4e:	0001                	.insn	2, 0x0001
      50:	0c00                	.insn	2, 0x0c00
      52:	00b8                	.insn	2, 0x00b8
      54:	0000                	.insn	2, 0x0000
      56:	0165                	.insn	2, 0x0165
      58:	3916                	.insn	2, 0x3916
      5a:	0000                	.insn	2, 0x0000
      5c:	1300                	.insn	2, 0x1300
      5e:	0704                	.insn	2, 0x0704
      60:	0468                	.insn	2, 0x0468
      62:	0000                	.insn	2, 0x0000
      64:	0729                	.insn	2, 0x0729
      66:	3904                	.insn	2, 0x3904
      68:	0000                	.insn	2, 0x0000
      6a:	0100                	.insn	2, 0x0100
      6c:	6e0e0177          	.insn	4, 0x6e0e0177
      70:	0000                	.insn	2, 0x0000
      72:	1400                	.insn	2, 0x1400
      74:	0449                	.insn	2, 0x0449
      76:	0000                	.insn	2, 0x0000
      78:	1400                	.insn	2, 0x1400
      7a:	0050                	.insn	2, 0x0050
      7c:	0000                	.insn	2, 0x0000
      7e:	1401                	.insn	2, 0x1401
      80:	0058                	.insn	2, 0x0058
      82:	0000                	.insn	2, 0x0000
      84:	1402                	.insn	2, 0x1402
      86:	0060                	.insn	2, 0x0060
      88:	0000                	.insn	2, 0x0000
      8a:	00681403          	lh	s0,6(a6)
      8e:	0000                	.insn	2, 0x0000
      90:	0004                	.insn	2, 0x0004
      92:	8a0c                	.insn	2, 0x8a0c
      94:	77000003          	lb	zero,1904(zero) # 770 <__stack_size-0x1fff890>
      98:	3e01                	.insn	2, 0x3e01
      9a:	0040                	.insn	2, 0x0040
      9c:	0000                	.insn	2, 0x0000
      9e:	950c                	.insn	2, 0x950c
      a0:	0000                	.insn	2, 0x0000
      a2:	8000                	.insn	2, 0x8000
      a4:	0d01                	.insn	2, 0x0d01
      a6:	0086                	.insn	2, 0x0086
      a8:	0000                	.insn	2, 0x0000
      aa:	042a                	.insn	2, 0x042a
      ac:	6905                	.insn	2, 0x6905
      ae:	746e                	.insn	2, 0x746e
      b0:	0c00                	.insn	2, 0x0c00
      b2:	0374                	.insn	2, 0x0374
      b4:	0000                	.insn	2, 0x0000
      b6:	0181                	.insn	2, 0x0181
      b8:	860d                	.insn	2, 0x860d
      ba:	0000                	.insn	2, 0x0000
      bc:	0c00                	.insn	2, 0x0c00
      be:	0365                	.insn	2, 0x0365
      c0:	0000                	.insn	2, 0x0000
      c2:	0182                	.insn	2, 0x0182
      c4:	a50e                	.insn	2, 0xa50e
      c6:	0000                	.insn	2, 0x0000
      c8:	1300                	.insn	2, 0x1300
      ca:	0801                	.insn	2, 0x0801
      cc:	01e5                	.insn	2, 0x01e5
      ce:	0000                	.insn	2, 0x0000
      d0:	0000a52b          	.insn	4, 0xa52b
      d4:	0c00                	.insn	2, 0x0c00
      d6:	02be                	.insn	2, 0x02be
      d8:	0000                	.insn	2, 0x0000
      da:	860d0183          	lb	gp,-1952(s10)
      de:	0000                	.insn	2, 0x0000
      e0:	0c00                	.insn	2, 0x0c00
      e2:	0000033b          	.insn	4, 0x033b
      e6:	0184                	.insn	2, 0x0184
      e8:	c90e                	.insn	2, 0xc90e
      ea:	0000                	.insn	2, 0x0000
      ec:	1600                	.insn	2, 0x1600
      ee:	00a5                	.insn	2, 0x00a5
      f0:	0000                	.insn	2, 0x0000
      f2:	00d9                	.insn	2, 0x00d9
      f4:	0000                	.insn	2, 0x0000
      f6:	00003917          	auipc	s2,0x3
      fa:	1e00                	.insn	2, 0x1e00
      fc:	1600                	.insn	2, 0x1600
      fe:	0086                	.insn	2, 0x0086
     100:	0000                	.insn	2, 0x0000
     102:	00e9                	.insn	2, 0x00e9
     104:	0000                	.insn	2, 0x0000
     106:	00003917          	auipc	s2,0x3
     10a:	3100                	.insn	2, 0x3100
     10c:	1600                	.insn	2, 0x1600
     10e:	0086                	.insn	2, 0x0086
     110:	0000                	.insn	2, 0x0000
     112:	00ff 0000 3917 0000 	.insn	10, 0x310000003917000000ff
     11a:	3100 
     11c:	00003917          	auipc	s2,0x3
     120:	3100                	.insn	2, 0x3100
     122:	1c00                	.insn	2, 0x1c00
     124:	8c28                	.insn	2, 0x8c28
     126:	2f01                	.insn	2, 0x2f01
     128:	0001                	.insn	2, 0x0001
     12a:	0a00                	.insn	2, 0x0a00
     12c:	0208                	.insn	2, 0x0208
     12e:	0000                	.insn	2, 0x0000
     130:	018d                	.insn	2, 0x018d
     132:	00006e13          	ori	t3,zero,0
     136:	0000                	.insn	2, 0x0000
     138:	120a                	.insn	2, 0x120a
     13a:	0002                	.insn	2, 0x0002
     13c:	8e00                	.insn	2, 0x8e00
     13e:	0b01                	.insn	2, 0x0b01
     140:	0086                	.insn	2, 0x0086
     142:	0000                	.insn	2, 0x0000
     144:	0a04                	.insn	2, 0x0a04
     146:	031f 0000 018f      	.insn	6, 0x018f0000031f
     14c:	c90c                	.insn	2, 0xc90c
     14e:	0000                	.insn	2, 0x0000
     150:	0800                	.insn	2, 0x0800
     152:	1c00                	.insn	2, 0x1c00
     154:	9124                	.insn	2, 0x9124
     156:	5201                	.insn	2, 0x5201
     158:	0001                	.insn	2, 0x0001
     15a:	0a00                	.insn	2, 0x0a00
     15c:	012e                	.insn	2, 0x012e
     15e:	0000                	.insn	2, 0x0000
     160:	0192                	.insn	2, 0x0192
     162:	00006e13          	ori	t3,zero,0
     166:	0000                	.insn	2, 0x0000
     168:	a80a                	.insn	2, 0xa80a
     16a:	0001                	.insn	2, 0x0001
     16c:	9300                	.insn	2, 0x9300
     16e:	0c01                	.insn	2, 0x0c01
     170:	00c9                	.insn	2, 0x00c9
     172:	0000                	.insn	2, 0x0000
     174:	0004                	.insn	2, 0x0004
     176:	021c                	.insn	2, 0x021c
     178:	0195                	.insn	2, 0x0195
     17a:	0175                	.insn	2, 0x0175
     17c:	0000                	.insn	2, 0x0000
     17e:	800a                	.insn	2, 0x800a
     180:	0001                	.insn	2, 0x0001
     182:	9600                	.insn	2, 0x9600
     184:	0c01                	.insn	2, 0x0c01
     186:	00a5                	.insn	2, 0x00a5
     188:	0000                	.insn	2, 0x0000
     18a:	0a00                	.insn	2, 0x0a00
     18c:	039d                	.insn	2, 0x039d
     18e:	0000                	.insn	2, 0x0000
     190:	a50c0197          	auipc	gp,0xa50c0
     194:	0000                	.insn	2, 0x0000
     196:	0100                	.insn	2, 0x0100
     198:	2c00                	.insn	2, 0x2c00
     19a:	0128                	.insn	2, 0x0128
     19c:	a103018b          	.insn	4, 0xa103018b
     1a0:	0001                	.insn	2, 0x0001
     1a2:	1d00                	.insn	2, 0x1d00
     1a4:	019c                	.insn	2, 0x019c
     1a6:	0000                	.insn	2, 0x0000
     1a8:	0190                	.insn	2, 0x0190
     1aa:	00ff 0000 a21d 0001 	.insn	10, 0x94000001a21d000000ff
     1b2:	9400 
     1b4:	2f01                	.insn	2, 0x2f01
     1b6:	0001                	.insn	2, 0x0001
     1b8:	1d00                	.insn	2, 0x1d00
     1ba:	0128                	.insn	2, 0x0128
     1bc:	0000                	.insn	2, 0x0000
     1be:	0198                	.insn	2, 0x0198
     1c0:	0152                	.insn	2, 0x0152
     1c2:	0000                	.insn	2, 0x0000
     1c4:	2d00                	.insn	2, 0x2d00
     1c6:	000000bf 01880130 	.insn	8, 0x01880130000000bf
     1ce:	d710                	.insn	2, 0xd710
     1d0:	0001                	.insn	2, 0x0001
     1d2:	0a00                	.insn	2, 0x0a00
     1d4:	02fe                	.insn	2, 0x02fe
     1d6:	0000                	.insn	2, 0x0000
     1d8:	0189                	.insn	2, 0x0189
     1da:	d712                	.insn	2, 0xd712
     1dc:	0001                	.insn	2, 0x0001
     1de:	0000                	.insn	2, 0x0000
     1e0:	f00a                	.insn	2, 0xf00a
     1e2:	0002                	.insn	2, 0x0002
     1e4:	8a00                	.insn	2, 0x8a00
     1e6:	0f01                	.insn	2, 0x0f01
     1e8:	006e                	.insn	2, 0x006e
     1ea:	0000                	.insn	2, 0x0000
     1ec:	0a04                	.insn	2, 0x0a04
     1ee:	02d4                	.insn	2, 0x02d4
     1f0:	0000                	.insn	2, 0x0000
     1f2:	0199                	.insn	2, 0x0199
     1f4:	7505                	.insn	2, 0x7505
     1f6:	0001                	.insn	2, 0x0001
     1f8:	0800                	.insn	2, 0x0800
     1fa:	0d00                	.insn	2, 0x0d00
     1fc:	01a1                	.insn	2, 0x01a1
     1fe:	0000                	.insn	2, 0x0000
     200:	cb0c                	.insn	2, 0xcb0c
     202:	0001                	.insn	2, 0x0001
     204:	9a00                	.insn	2, 0x9a00
     206:	0e01                	.insn	2, 0x0e01
     208:	000001d7          	.insn	4, 0x01d7
     20c:	00031607          	.insn	4, 0x00031607
     210:	9e00                	.insn	2, 0x9e00
     212:	0d01                	.insn	2, 0x0d01
     214:	01dc                	.insn	2, 0x01dc
     216:	0000                	.insn	2, 0x0000
     218:	0305                	.insn	2, 0x0305
     21a:	4640                	.insn	2, 0x4640
     21c:	8000                	.insn	2, 0x8000
     21e:	00031107          	.insn	4, 0x00031107
     222:	9e00                	.insn	2, 0x9e00
     224:	1701                	.insn	2, 0x1701
     226:	01dc                	.insn	2, 0x01dc
     228:	0000                	.insn	2, 0x0000
     22a:	0305                	.insn	2, 0x0305
     22c:	463c                	.insn	2, 0x463c
     22e:	8000                	.insn	2, 0x8000
     230:	00019307          	.insn	4, 0x00019307
     234:	9f00                	.insn	2, 0x9f00
     236:	0501                	.insn	2, 0x0501
     238:	0086                	.insn	2, 0x0086
     23a:	0000                	.insn	2, 0x0000
     23c:	0305                	.insn	2, 0x0305
     23e:	4638                	.insn	2, 0x4638
     240:	8000                	.insn	2, 0x8000
     242:	0003d207          	.insn	4, 0x0003d207
     246:	a000                	.insn	2, 0xa000
     248:	0901                	.insn	2, 0x0901
     24a:	00b1                	.insn	2, 0x00b1
     24c:	0000                	.insn	2, 0x0000
     24e:	0305                	.insn	2, 0x0305
     250:	4634                	.insn	2, 0x4634
     252:	8000                	.insn	2, 0x8000
     254:	00011e07          	.insn	4, 0x00011e07
     258:	a100                	.insn	2, 0xa100
     25a:	0601                	.insn	2, 0x0601
     25c:	00a5                	.insn	2, 0x00a5
     25e:	0000                	.insn	2, 0x0000
     260:	0305                	.insn	2, 0x0305
     262:	4631                	.insn	2, 0x4631
     264:	8000                	.insn	2, 0x8000
     266:	00030707          	.insn	4, 0x00030707
     26a:	a100                	.insn	2, 0xa100
     26c:	1101                	.insn	2, 0x1101
     26e:	00a5                	.insn	2, 0x00a5
     270:	0000                	.insn	2, 0x0000
     272:	0305                	.insn	2, 0x0305
     274:	4630                	.insn	2, 0x4630
     276:	8000                	.insn	2, 0x8000
     278:	00007007          	.insn	4, 0x7007
     27c:	a200                	.insn	2, 0xa200
     27e:	0501                	.insn	2, 0x0501
     280:	00d9                	.insn	2, 0x00d9
     282:	0000                	.insn	2, 0x0000
     284:	0305                	.insn	2, 0x0305
     286:	1a3c                	.insn	2, 0x1a3c
     288:	8000                	.insn	2, 0x8000
     28a:	00023207          	.insn	4, 0x00023207
     28e:	a300                	.insn	2, 0xa300
     290:	0501                	.insn	2, 0x0501
     292:	00e9                	.insn	2, 0x00e9
     294:	0000                	.insn	2, 0x0000
     296:	0305                	.insn	2, 0x0305
     298:	1f04                	.insn	2, 0x1f04
     29a:	8000                	.insn	2, 0x8000
     29c:	522e                	.insn	2, 0x522e
     29e:	6765                	.insn	2, 0x6765
     2a0:	0100                	.insn	2, 0x0100
     2a2:	01a9                	.insn	2, 0x01a9
     2a4:	b109                	.insn	2, 0xb109
     2a6:	0000                	.insn	2, 0x0000
     2a8:	0500                	.insn	2, 0x0500
     2aa:	00462c03          	lw	s8,4(a2)
     2ae:	0780                	.insn	2, 0x0780
     2b0:	0106                	.insn	2, 0x0106
     2b2:	0000                	.insn	2, 0x0000
     2b4:	b10901b3          	.insn	4, 0xb10901b3
     2b8:	0000                	.insn	2, 0x0000
     2ba:	0500                	.insn	2, 0x0500
     2bc:	00462803          	lw	a6,4(a2)
     2c0:	0780                	.insn	2, 0x0780
     2c2:	0412                	.insn	2, 0x0412
     2c4:	0000                	.insn	2, 0x0000
     2c6:	01b5                	.insn	2, 0x01b5
     2c8:	af06                	.insn	2, 0xaf06
     2ca:	0002                	.insn	2, 0x0002
     2cc:	0500                	.insn	2, 0x0500
     2ce:	00462403          	lw	s0,4(a2)
     2d2:	1380                	.insn	2, 0x1380
     2d4:	0504                	.insn	2, 0x0504
     2d6:	018a                	.insn	2, 0x018a
     2d8:	0000                	.insn	2, 0x0000
     2da:	0000c607          	.insn	4, 0xc607
     2de:	b500                	.insn	2, 0xb500
     2e0:	1201                	.insn	2, 0x1201
     2e2:	000002af          	.insn	4, 0x02af
     2e6:	0305                	.insn	2, 0x0305
     2e8:	4620                	.insn	2, 0x4620
     2ea:	8000                	.insn	2, 0x8000
     2ec:	0000e007          	.insn	4, 0xe007
     2f0:	b500                	.insn	2, 0xb500
     2f2:	1c01                	.insn	2, 0x1c01
     2f4:	000002af          	.insn	4, 0x02af
     2f8:	0305                	.insn	2, 0x0305
     2fa:	461c                	.insn	2, 0x461c
     2fc:	8000                	.insn	2, 0x8000
     2fe:	0003f607          	.insn	4, 0x0003f607
     302:	b600                	.insn	2, 0xb600
     304:	0701                	.insn	2, 0x0701
     306:	02ec                	.insn	2, 0x02ec
     308:	0000                	.insn	2, 0x0000
     30a:	0305                	.insn	2, 0x0305
     30c:	4618                	.insn	2, 0x4618
     30e:	8000                	.insn	2, 0x8000
     310:	57040413          	addi	s0,s0,1392
     314:	0001                	.insn	2, 0x0001
     316:	0700                	.insn	2, 0x0700
     318:	03bc                	.insn	2, 0x03bc
     31a:	0000                	.insn	2, 0x0000
     31c:	01b6                	.insn	2, 0x01b6
     31e:	ec15                	.insn	2, 0xec15
     320:	0002                	.insn	2, 0x0002
     322:	0500                	.insn	2, 0x0500
     324:	00461403          	lh	s0,4(a2)
     328:	1680                	.insn	2, 0x1680
     32a:	00a5                	.insn	2, 0x00a5
     32c:	0000                	.insn	2, 0x0000
     32e:	0316                	.insn	2, 0x0316
     330:	0000                	.insn	2, 0x0000
     332:	0000392f          	.insn	4, 0x392f
     336:	ff00                	.insn	2, 0xff00
     338:	50180003          	lb	zero,1281(a6)
     33c:	0001                	.insn	2, 0x0001
     33e:	ba00                	.insn	2, 0xba00
     340:	0d01                	.insn	2, 0x0d01
     342:	0305                	.insn	2, 0x0305
     344:	0000                	.insn	2, 0x0000
     346:	0305                	.insn	2, 0x0305
     348:	1b04                	.insn	2, 0x1b04
     34a:	8000                	.insn	2, 0x8000
     34c:	1518                	.insn	2, 0x1518
     34e:	0001                	.insn	2, 0x0001
     350:	bb00                	.insn	2, 0xbb00
     352:	0e01                	.insn	2, 0x0e01
     354:	033a                	.insn	2, 0x033a
     356:	0000                	.insn	2, 0x0000
     358:	0305                	.insn	2, 0x0305
     35a:	4654                	.insn	2, 0x4654
     35c:	8000                	.insn	2, 0x8000
     35e:	a50d                	.insn	2, 0xa50d
     360:	0000                	.insn	2, 0x0000
     362:	0700                	.insn	2, 0x0700
     364:	000001d7          	.insn	4, 0x01d7
     368:	02ca                	.insn	2, 0x02ca
     36a:	b109                	.insn	2, 0xb109
     36c:	0000                	.insn	2, 0x0000
     36e:	0500                	.insn	2, 0x0500
     370:	00465003          	lhu	zero,4(a2)
     374:	3080                	.insn	2, 0x3080
     376:	02f6                	.insn	2, 0x02f6
     378:	0000                	.insn	2, 0x0000
     37a:	0e02                	.insn	2, 0x0e02
     37c:	6406                	.insn	2, 0x6406
     37e:	1e000003          	lb	zero,480(zero) # 1e0 <__stack_size-0x1fffe20>
     382:	0364                	.insn	2, 0x0364
     384:	0000                	.insn	2, 0x0000
     386:	0011                	.insn	2, 0x0011
     388:	ac0d                	.insn	2, 0xac0d
     38a:	0000                	.insn	2, 0x0000
     38c:	3100                	.insn	2, 0x3100
     38e:	00ea                	.insn	2, 0x00ea
     390:	0000                	.insn	2, 0x0000
     392:	d001                	.insn	2, 0xd001
     394:	0502                	.insn	2, 0x0502
     396:	0086                	.insn	2, 0x0086
     398:	0000                	.insn	2, 0x0000
     39a:	001c                	.insn	2, 0x001c
     39c:	8000                	.insn	2, 0x8000
     39e:	0824                	.insn	2, 0x0824
     3a0:	0000                	.insn	2, 0x0000
     3a2:	9c01                	.insn	2, 0x9c01
     3a4:	00000d4b          	.insn	4, 0x0d4b
     3a8:	0003310f          	.insn	4, 0x0003310f
     3ac:	d800                	.insn	2, 0xd800
     3ae:	0d02                	.insn	2, 0x0d02
     3b0:	008d                	.insn	2, 0x008d
     3b2:	0000                	.insn	2, 0x0000
     3b4:	000c                	.insn	2, 0x000c
     3b6:	0000                	.insn	2, 0x0000
     3b8:	0001460f          	.insn	4, 0x0001460f
     3bc:	d900                	.insn	2, 0xd900
     3be:	1102                	.insn	2, 0x1102
     3c0:	008d                	.insn	2, 0x008d
     3c2:	0000                	.insn	2, 0x0000
     3c4:	008d                	.insn	2, 0x008d
     3c6:	0000                	.insn	2, 0x0000
     3c8:	0000a00f          	.insn	4, 0xa00f
     3cc:	da00                	.insn	2, 0xda00
     3ce:	0d02                	.insn	2, 0x0d02
     3d0:	008d                	.insn	2, 0x008d
     3d2:	0000                	.insn	2, 0x0000
     3d4:	000000f3          	.insn	4, 0x00f3
     3d8:	00042b0f          	.insn	4, 0x00042b0f
     3dc:	db00                	.insn	2, 0xdb00
     3de:	0c02                	.insn	2, 0x0c02
     3e0:	00a5                	.insn	2, 0x00a5
     3e2:	0000                	.insn	2, 0x0000
     3e4:	010c                	.insn	2, 0x010c
     3e6:	0000                	.insn	2, 0x0000
     3e8:	00016a0f          	.insn	4, 0x00016a0f
     3ec:	dc00                	.insn	2, 0xdc00
     3ee:	0f02                	.insn	2, 0x0f02
     3f0:	006e                	.insn	2, 0x006e
     3f2:	0000                	.insn	2, 0x0000
     3f4:	00000153          	.insn	4, 0x0153
     3f8:	0b18                	.insn	2, 0x0b18
     3fa:	0001                	.insn	2, 0x0001
     3fc:	dd00                	.insn	2, 0xdd00
     3fe:	0a02                	.insn	2, 0x0a02
     400:	00bd                	.insn	2, 0x00bd
     402:	0000                	.insn	2, 0x0000
     404:	7f809103          	lh	sp,2040(ra)
     408:	b318                	.insn	2, 0xb318
     40a:	0001                	.insn	2, 0x0001
     40c:	de00                	.insn	2, 0xde00
     40e:	0a02                	.insn	2, 0x0a02
     410:	00bd                	.insn	2, 0x00bd
     412:	0000                	.insn	2, 0x0000
     414:	7fa09103          	lh	sp,2042(ra)
     418:	00013c0f          	.insn	4, 0x00013c0f
     41c:	df00                	.insn	2, 0xdf00
     41e:	0b02                	.insn	2, 0x0b02
     420:	0086                	.insn	2, 0x0086
     422:	0000                	.insn	2, 0x0000
     424:	01ba                	.insn	2, 0x01ba
     426:	0000                	.insn	2, 0x0000
     428:	0332                	.insn	2, 0x0332
     42a:	0004                	.insn	2, 0x0004
     42c:	0100                	.insn	2, 0x0100
     42e:	02e0                	.insn	2, 0x02e0
     430:	0000860b          	.insn	4, 0x860b
     434:	1000                	.insn	2, 0x1000
     436:	02e93327          	.insn	4, 0x02e93327
     43a:	0000                	.insn	2, 0x0000
     43c:	033a0003          	lb	zero,51(s4)
     440:	0000                	.insn	2, 0x0000
     442:	042d                	.insn	2, 0x042d
     444:	0000                	.insn	2, 0x0000
     446:	3a1e                	.insn	2, 0x3a1e
     448:	1e000003          	lb	zero,480(zero) # 1e0 <__stack_size-0x1fffe20>
     44c:	0364                	.insn	2, 0x0364
     44e:	0000                	.insn	2, 0x0000
     450:	1900                	.insn	2, 0x1900
     452:	05c8                	.insn	2, 0x05c8
     454:	8000                	.insn	2, 0x8000
     456:	0048                	.insn	2, 0x0048
     458:	0000                	.insn	2, 0x0000
     45a:	04b5                	.insn	2, 0x04b5
     45c:	0000                	.insn	2, 0x0000
     45e:	9615                	.insn	2, 0x9615
     460:	86000003          	lb	zero,-1952(zero) # fffff860 <_sp+0x77fff860>
     464:	0000                	.insn	2, 0x0000
     466:	4900                	.insn	2, 0x4900
     468:	0004                	.insn	2, 0x0004
     46a:	1100                	.insn	2, 0x1100
     46c:	0400                	.insn	2, 0x0400
     46e:	00000d4b          	.insn	4, 0x0d4b
     472:	05e4                	.insn	2, 0x05e4
     474:	8000                	.insn	2, 0x8000
     476:	00000247          	.insn	4, 0x0247
     47a:	035c                	.insn	2, 0x035c
     47c:	6708                	.insn	2, 0x6708
     47e:	0004                	.insn	2, 0x0004
     480:	0200                	.insn	2, 0x0200
     482:	0d5a                	.insn	2, 0x0d5a
     484:	0000                	.insn	2, 0x0000
     486:	01d1                	.insn	2, 0x01d1
     488:	0000                	.insn	2, 0x0000
     48a:	0300                	.insn	2, 0x0300
     48c:	05e4                	.insn	2, 0x05e4
     48e:	8000                	.insn	2, 0x8000
     490:	12f9                	.insn	2, 0x12f9
     492:	0000                	.insn	2, 0x0000
     494:	0484                	.insn	2, 0x0484
     496:	0000                	.insn	2, 0x0000
     498:	0101                	.insn	2, 0x0101
     49a:	025a                	.insn	2, 0x025a
     49c:	0078                	.insn	2, 0x0078
     49e:	0101                	.insn	2, 0x0101
     4a0:	ec03055b          	.insn	4, 0xec03055b
     4a4:	0015                	.insn	2, 0x0015
     4a6:	0080                	.insn	2, 0x0080
     4a8:	00060003          	lb	zero,0(a2)
     4ac:	5180                	.insn	2, 0x5180
     4ae:	a1000003          	lb	zero,-1520(zero) # fffffa10 <_sp+0x77fffa10>
     4b2:	0004                	.insn	2, 0x0004
     4b4:	0100                	.insn	2, 0x0100
     4b6:	5a01                	.insn	2, 0x5a01
     4b8:	0305                	.insn	2, 0x0305
     4ba:	1788                	.insn	2, 0x1788
     4bc:	8000                	.insn	2, 0x8000
     4be:	0101                	.insn	2, 0x0101
     4c0:	0078025b          	.insn	4, 0x0078025b
     4c4:	1000                	.insn	2, 0x1000
     4c6:	060c                	.insn	2, 0x060c
     4c8:	8000                	.insn	2, 0x8000
     4ca:	0351                	.insn	2, 0x0351
     4cc:	0000                	.insn	2, 0x0000
     4ce:	0101                	.insn	2, 0x0101
     4d0:	055a                	.insn	2, 0x055a
     4d2:	0017ac03          	lw	s8,1(a5)
     4d6:	0080                	.insn	2, 0x0080
     4d8:	1900                	.insn	2, 0x1900
     4da:	06c4                	.insn	2, 0x06c4
     4dc:	8000                	.insn	2, 0x8000
     4de:	0048                	.insn	2, 0x0048
     4e0:	0000                	.insn	2, 0x0000
     4e2:	053d                	.insn	2, 0x053d
     4e4:	0000                	.insn	2, 0x0000
     4e6:	9615                	.insn	2, 0x9615
     4e8:	86000003          	lb	zero,-1952(zero) # fffff860 <_sp+0x77fff860>
     4ec:	0000                	.insn	2, 0x0000
     4ee:	d100                	.insn	2, 0xd100
     4f0:	0004                	.insn	2, 0x0004
     4f2:	1100                	.insn	2, 0x1100
     4f4:	0400                	.insn	2, 0x0400
     4f6:	00000d4b          	.insn	4, 0x0d4b
     4fa:	06e0                	.insn	2, 0x06e0
     4fc:	8000                	.insn	2, 0x8000
     4fe:	02a5                	.insn	2, 0x02a5
     500:	0000                	.insn	2, 0x0000
     502:	0371                	.insn	2, 0x0371
     504:	ef08                	.insn	2, 0xef08
     506:	0004                	.insn	2, 0x0004
     508:	0200                	.insn	2, 0x0200
     50a:	0d5a                	.insn	2, 0x0d5a
     50c:	0000                	.insn	2, 0x0000
     50e:	01e4                	.insn	2, 0x01e4
     510:	0000                	.insn	2, 0x0000
     512:	0300                	.insn	2, 0x0300
     514:	06e0                	.insn	2, 0x06e0
     516:	8000                	.insn	2, 0x8000
     518:	12f9                	.insn	2, 0x12f9
     51a:	0000                	.insn	2, 0x0000
     51c:	050c                	.insn	2, 0x050c
     51e:	0000                	.insn	2, 0x0000
     520:	0101                	.insn	2, 0x0101
     522:	025a                	.insn	2, 0x025a
     524:	0078                	.insn	2, 0x0078
     526:	0101                	.insn	2, 0x0101
     528:	ec03055b          	.insn	4, 0xec03055b
     52c:	0015                	.insn	2, 0x0015
     52e:	0080                	.insn	2, 0x0080
     530:	0006fc03          	.insn	4, 0x0006fc03
     534:	5180                	.insn	2, 0x5180
     536:	29000003          	lb	zero,656(zero) # 290 <__stack_size-0x1fffd70>
     53a:	0005                	.insn	2, 0x0005
     53c:	0100                	.insn	2, 0x0100
     53e:	5a01                	.insn	2, 0x5a01
     540:	0305                	.insn	2, 0x0305
     542:	185c                	.insn	2, 0x185c
     544:	8000                	.insn	2, 0x8000
     546:	0101                	.insn	2, 0x0101
     548:	0078025b          	.insn	4, 0x0078025b
     54c:	1000                	.insn	2, 0x1000
     54e:	0708                	.insn	2, 0x0708
     550:	8000                	.insn	2, 0x8000
     552:	0351                	.insn	2, 0x0351
     554:	0000                	.insn	2, 0x0000
     556:	0101                	.insn	2, 0x0101
     558:	055a                	.insn	2, 0x055a
     55a:	0017ac03          	lw	s8,1(a5)
     55e:	0080                	.insn	2, 0x0080
     560:	1900                	.insn	2, 0x1900
     562:	078c                	.insn	2, 0x078c
     564:	8000                	.insn	2, 0x8000
     566:	0034                	.insn	2, 0x0034
     568:	0000                	.insn	2, 0x0000
     56a:	000005c7          	.insn	4, 0x05c7
     56e:	9615                	.insn	2, 0x9615
     570:	86000003          	lb	zero,-1952(zero) # fffff860 <_sp+0x77fff860>
     574:	0000                	.insn	2, 0x0000
     576:	5900                	.insn	2, 0x5900
     578:	0005                	.insn	2, 0x0005
     57a:	1100                	.insn	2, 0x1100
     57c:	0400                	.insn	2, 0x0400
     57e:	00000d4b          	.insn	4, 0x0d4b
     582:	079c                	.insn	2, 0x079c
     584:	8000                	.insn	2, 0x8000
     586:	02f1                	.insn	2, 0x02f1
     588:	0000                	.insn	2, 0x0000
     58a:	0389                	.insn	2, 0x0389
     58c:	7708                	.insn	2, 0x7708
     58e:	0005                	.insn	2, 0x0005
     590:	0200                	.insn	2, 0x0200
     592:	0d5a                	.insn	2, 0x0d5a
     594:	0000                	.insn	2, 0x0000
     596:	000001f7          	.insn	4, 0x01f7
     59a:	0300                	.insn	2, 0x0300
     59c:	079c                	.insn	2, 0x079c
     59e:	8000                	.insn	2, 0x8000
     5a0:	12f9                	.insn	2, 0x12f9
     5a2:	0000                	.insn	2, 0x0000
     5a4:	0595                	.insn	2, 0x0595
     5a6:	0000                	.insn	2, 0x0000
     5a8:	0101                	.insn	2, 0x0101
     5aa:	035a                	.insn	2, 0x035a
     5ac:	8091                	.insn	2, 0x8091
     5ae:	017f 5b01 0305 18d8 	.insn	10, 0x800018d803055b01017f
     5b6:	8000 
     5b8:	0300                	.insn	2, 0x0300
     5ba:	07b4                	.insn	2, 0x07b4
     5bc:	8000                	.insn	2, 0x8000
     5be:	0351                	.insn	2, 0x0351
     5c0:	0000                	.insn	2, 0x0000
     5c2:	000005b3          	add	a1,zero,zero
     5c6:	0101                	.insn	2, 0x0101
     5c8:	055a                	.insn	2, 0x055a
     5ca:	0018f803          	.insn	4, 0x0018f803
     5ce:	0180                	.insn	2, 0x0180
     5d0:	5b01                	.insn	2, 0x5b01
     5d2:	7f809103          	lh	sp,2040(ra)
     5d6:	1000                	.insn	2, 0x1000
     5d8:	07c0                	.insn	2, 0x07c0
     5da:	8000                	.insn	2, 0x8000
     5dc:	0351                	.insn	2, 0x0351
     5de:	0000                	.insn	2, 0x0000
     5e0:	0101                	.insn	2, 0x0101
     5e2:	055a                	.insn	2, 0x055a
     5e4:	00191403          	lh	s0,1(s2) # 311d <__stack_size-0x1ffcee3>
     5e8:	0080                	.insn	2, 0x0080
     5ea:	1900                	.insn	2, 0x1900
     5ec:	07c0                	.insn	2, 0x07c0
     5ee:	8000                	.insn	2, 0x8000
     5f0:	0034                	.insn	2, 0x0034
     5f2:	0000                	.insn	2, 0x0000
     5f4:	0651                	.insn	2, 0x0651
     5f6:	0000                	.insn	2, 0x0000
     5f8:	9615                	.insn	2, 0x9615
     5fa:	86000003          	lb	zero,-1952(zero) # fffff860 <_sp+0x77fff860>
     5fe:	0000                	.insn	2, 0x0000
     600:	e300                	.insn	2, 0xe300
     602:	0005                	.insn	2, 0x0005
     604:	1100                	.insn	2, 0x1100
     606:	0400                	.insn	2, 0x0400
     608:	00000d4b          	.insn	4, 0x0d4b
     60c:	07d0                	.insn	2, 0x07d0
     60e:	8000                	.insn	2, 0x8000
     610:	0304                	.insn	2, 0x0304
     612:	0000                	.insn	2, 0x0000
     614:	038d                	.insn	2, 0x038d
     616:	0108                	.insn	2, 0x0108
     618:	0006                	.insn	2, 0x0006
     61a:	0200                	.insn	2, 0x0200
     61c:	0d5a                	.insn	2, 0x0d5a
     61e:	0000                	.insn	2, 0x0000
     620:	020a                	.insn	2, 0x020a
     622:	0000                	.insn	2, 0x0000
     624:	0300                	.insn	2, 0x0300
     626:	07d0                	.insn	2, 0x07d0
     628:	8000                	.insn	2, 0x8000
     62a:	12f9                	.insn	2, 0x12f9
     62c:	0000                	.insn	2, 0x0000
     62e:	061f 0000 0101      	.insn	6, 0x01010000061f
     634:	035a                	.insn	2, 0x035a
     636:	a091                	.insn	2, 0xa091
     638:	017f 5b01 0305 194c 	.insn	10, 0x8000194c03055b01017f
     640:	8000 
     642:	0300                	.insn	2, 0x0300
     644:	07e8                	.insn	2, 0x07e8
     646:	8000                	.insn	2, 0x8000
     648:	0351                	.insn	2, 0x0351
     64a:	0000                	.insn	2, 0x0000
     64c:	063d                	.insn	2, 0x063d
     64e:	0000                	.insn	2, 0x0000
     650:	0101                	.insn	2, 0x0101
     652:	055a                	.insn	2, 0x055a
     654:	00196c03          	.insn	4, 0x00196c03
     658:	0180                	.insn	2, 0x0180
     65a:	5b01                	.insn	2, 0x5b01
     65c:	7fa09103          	lh	sp,2042(ra)
     660:	1000                	.insn	2, 0x1000
     662:	07f4                	.insn	2, 0x07f4
     664:	8000                	.insn	2, 0x8000
     666:	0351                	.insn	2, 0x0351
     668:	0000                	.insn	2, 0x0000
     66a:	0101                	.insn	2, 0x0101
     66c:	055a                	.insn	2, 0x055a
     66e:	00198803          	lb	a6,1(s3)
     672:	0080                	.insn	2, 0x0080
     674:	0400                	.insn	2, 0x0400
     676:	1038                	.insn	2, 0x1038
     678:	0000                	.insn	2, 0x0000
     67a:	001c                	.insn	2, 0x001c
     67c:	8000                	.insn	2, 0x8000
     67e:	007d                	.insn	2, 0x007d
     680:	0000                	.insn	2, 0x0000
     682:	02e6                	.insn	2, 0x02e6
     684:	7e20                	.insn	2, 0x7e20
     686:	0006                	.insn	2, 0x0006
     688:	0200                	.insn	2, 0x0200
     68a:	104a                	.insn	2, 0x104a
     68c:	0000                	.insn	2, 0x0000
     68e:	021d                	.insn	2, 0x021d
     690:	0000                	.insn	2, 0x0000
     692:	7d08                	.insn	2, 0x7d08
     694:	0000                	.insn	2, 0x0000
     696:	0500                	.insn	2, 0x0500
     698:	1056                	.insn	2, 0x1056
     69a:	0000                	.insn	2, 0x0000
     69c:	0000022b          	.insn	4, 0x022b
     6a0:	0000                	.insn	2, 0x0000
     6a2:	3804                	.insn	2, 0x3804
     6a4:	0010                	.insn	2, 0x0010
     6a6:	8000                	.insn	2, 0x8000
     6a8:	0000                	.insn	2, 0x0000
     6aa:	9980                	.insn	2, 0x9980
     6ac:	0000                	.insn	2, 0x0000
     6ae:	e700                	.insn	2, 0xe700
     6b0:	1b02                	.insn	2, 0x1b02
     6b2:	000006ab          	.insn	4, 0x06ab
     6b6:	4a02                	.insn	2, 0x4a02
     6b8:	0010                	.insn	2, 0x0010
     6ba:	4600                	.insn	2, 0x4600
     6bc:	0002                	.insn	2, 0x0002
     6be:	0800                	.insn	2, 0x0800
     6c0:	0099                	.insn	2, 0x0099
     6c2:	0000                	.insn	2, 0x0000
     6c4:	5605                	.insn	2, 0x5605
     6c6:	0010                	.insn	2, 0x0010
     6c8:	5400                	.insn	2, 0x5400
     6ca:	0002                	.insn	2, 0x0002
     6cc:	0000                	.insn	2, 0x0000
     6ce:	3400                	.insn	2, 0x3400
     6d0:	0ef4                	.insn	2, 0x0ef4
     6d2:	0000                	.insn	2, 0x0000
     6d4:	01c0                	.insn	2, 0x01c0
     6d6:	8000                	.insn	2, 0x8000
     6d8:	0008                	.insn	2, 0x0008
     6da:	0000                	.insn	2, 0x0000
     6dc:	0301                	.insn	2, 0x0301
     6de:	fe200703          	lb	a4,-30(zero) # ffffffe2 <_sp+0x77ffffe2>
     6e2:	000e                	.insn	2, 0x000e
     6e4:	c800                	.insn	2, 0xc800
     6e6:	0001                	.insn	2, 0x0001
     6e8:	0880                	.insn	2, 0x0880
     6ea:	0000                	.insn	2, 0x0000
     6ec:	0400                	.insn	2, 0x0400
     6ee:	06da0703          	lb	a4,109(s4)
     6f2:	0000                	.insn	2, 0x0000
     6f4:	0905                	.insn	2, 0x0905
     6f6:	6000000f          	.insn	4, 0x6000000f
     6fa:	0002                	.insn	2, 0x0002
     6fc:	0000                	.insn	2, 0x0000
     6fe:	8f04                	.insn	2, 0x8f04
     700:	000d                	.insn	2, 0x000d
     702:	1c00                	.insn	2, 0x1c00
     704:	0002                	.insn	2, 0x0002
     706:	be80                	.insn	2, 0xbe80
     708:	0000                	.insn	2, 0x0000
     70a:	0a00                	.insn	2, 0x0a00
     70c:	077b1403          	lh	s0,119(s6)
     710:	0000                	.insn	2, 0x0000
     712:	aa02                	.insn	2, 0xaa02
     714:	000d                	.insn	2, 0x000d
     716:	6d00                	.insn	2, 0x6d00
     718:	0002                	.insn	2, 0x0002
     71a:	0200                	.insn	2, 0x0200
     71c:	0d9e                	.insn	2, 0x0d9e
     71e:	0000                	.insn	2, 0x0000
     720:	000002a3          	sb	zero,5(zero) # 5 <__stack_size-0x1fffffb>
     724:	be08                	.insn	2, 0xbe08
     726:	0000                	.insn	2, 0x0000
     728:	0500                	.insn	2, 0x0500
     72a:	0db6                	.insn	2, 0x0db6
     72c:	0000                	.insn	2, 0x0000
     72e:	02d9                	.insn	2, 0x02d9
     730:	0000                	.insn	2, 0x0000
     732:	c21a                	.insn	2, 0xc21a
     734:	000d                	.insn	2, 0x000d
     736:	4100                	.insn	2, 0x4100
     738:	e904                	.insn	2, 0xe904
     73a:	000d                	.insn	2, 0x000d
     73c:	1c00                	.insn	2, 0x1c00
     73e:	0002                	.insn	2, 0x0002
     740:	da80                	.insn	2, 0xda80
     742:	0000                	.insn	2, 0x0000
     744:	a300                	.insn	2, 0xa300
     746:	0902                	.insn	2, 0x0902
     748:	00000753          	.insn	4, 0x0753
     74c:	0702                	.insn	2, 0x0702
     74e:	000e                	.insn	2, 0x000e
     750:	fe00                	.insn	2, 0xfe00
     752:	0002                	.insn	2, 0x0002
     754:	0200                	.insn	2, 0x0200
     756:	00000dfb          	.insn	4, 0x0dfb
     75a:	0319                	.insn	2, 0x0319
     75c:	0000                	.insn	2, 0x0000
     75e:	da08                	.insn	2, 0xda08
     760:	0000                	.insn	2, 0x0000
     762:	0500                	.insn	2, 0x0500
     764:	00000e13          	addi	t3,zero,0
     768:	0334                	.insn	2, 0x0334
     76a:	0000                	.insn	2, 0x0000
     76c:	1f05                	.insn	2, 0x1f05
     76e:	000e                	.insn	2, 0x000e
     770:	3400                	.insn	2, 0x3400
     772:	00000003          	lb	zero,0(zero) # 0 <__stack_size-0x2000000>
     776:	3500                	.insn	2, 0x3500
     778:	0dce                	.insn	2, 0x0dce
     77a:	0000                	.insn	2, 0x0000
     77c:	022c                	.insn	2, 0x022c
     77e:	8000                	.insn	2, 0x8000
     780:	000c                	.insn	2, 0x000c
     782:	0000                	.insn	2, 0x0000
     784:	3810                	.insn	2, 0x3810
     786:	0002                	.insn	2, 0x0002
     788:	f980                	.insn	2, 0xf980
     78a:	0012                	.insn	2, 0x0012
     78c:	0100                	.insn	2, 0x0100
     78e:	5a01                	.insn	2, 0x5a01
     790:	7f809103          	lh	sp,2040(ra)
     794:	0101                	.insn	2, 0x0101
     796:	a091035b          	.insn	4, 0xa091035b
     79a:	007f 0000 0400 0e2c 	.insn	10, 0x0e2c04000000007f
     7a2:	0000 
     7a4:	0238                	.insn	2, 0x0238
     7a6:	8000                	.insn	2, 0x8000
     7a8:	00f6                	.insn	2, 0x00f6
     7aa:	0000                	.insn	2, 0x0000
     7ac:	0315                	.insn	2, 0x0315
     7ae:	0007b407          	.insn	4, 0x0007b407
     7b2:	1200                	.insn	2, 0x1200
     7b4:	00000e5b          	.insn	4, 0x0e5b
     7b8:	4f12                	.insn	2, 0x4f12
     7ba:	000e                	.insn	2, 0x000e
     7bc:	1200                	.insn	2, 0x1200
     7be:	00000e43          	.insn	4, 0x0e43
     7c2:	3712                	.insn	2, 0x3712
     7c4:	000e                	.insn	2, 0x000e
     7c6:	0800                	.insn	2, 0x0800
     7c8:	00f6                	.insn	2, 0x00f6
     7ca:	0000                	.insn	2, 0x0000
     7cc:	6721                	.insn	2, 0x6721
     7ce:	000e                	.insn	2, 0x000e
     7d0:	2100                	.insn	2, 0x2100
     7d2:	00000e73          	.insn	4, 0x0e73
     7d6:	0000                	.insn	2, 0x0000
     7d8:	e904                	.insn	2, 0xe904
     7da:	000d                	.insn	2, 0x000d
     7dc:	9800                	.insn	2, 0x9800
     7de:	0002                	.insn	2, 0x0002
     7e0:	2480                	.insn	2, 0x2480
     7e2:	0001                	.insn	2, 0x0001
     7e4:	1b00                	.insn	2, 0x1b00
     7e6:	07f31903          	lh	s2,127(t1) # bd <__stack_size-0x1ffff43>
     7ea:	0000                	.insn	2, 0x0000
     7ec:	0702                	.insn	2, 0x0702
     7ee:	000e                	.insn	2, 0x000e
     7f0:	4f00                	.insn	2, 0x4f00
     7f2:	02000003          	lb	zero,32(zero) # 20 <__stack_size-0x1ffffe0>
     7f6:	00000dfb          	.insn	4, 0x0dfb
     7fa:	0384                	.insn	2, 0x0384
     7fc:	0000                	.insn	2, 0x0000
     7fe:	2408                	.insn	2, 0x2408
     800:	0001                	.insn	2, 0x0001
     802:	0500                	.insn	2, 0x0500
     804:	00000e13          	addi	t3,zero,0
     808:	0384                	.insn	2, 0x0384
     80a:	0000                	.insn	2, 0x0000
     80c:	1f05                	.insn	2, 0x1f05
     80e:	000e                	.insn	2, 0x000e
     810:	8400                	.insn	2, 0x8400
     812:	00000003          	lb	zero,0(zero) # 0 <__stack_size-0x2000000>
     816:	0400                	.insn	2, 0x0400
     818:	00000ecb          	.insn	4, 0x0ecb
     81c:	02b0                	.insn	2, 0x02b0
     81e:	8000                	.insn	2, 0x8000
     820:	0152                	.insn	2, 0x0152
     822:	0000                	.insn	2, 0x0000
     824:	031e                	.insn	2, 0x031e
     826:	0008120b          	.insn	4, 0x0008120b
     82a:	1200                	.insn	2, 0x1200
     82c:	0ee2                	.insn	2, 0x0ee2
     82e:	0000                	.insn	2, 0x0000
     830:	d612                	.insn	2, 0xd612
     832:	000e                	.insn	2, 0x000e
     834:	0000                	.insn	2, 0x0000
     836:	3304                	.insn	2, 0x3304
     838:	5c00000f          	.insn	4, 0x5c00000f
     83c:	65800003          	lb	zero,1624(zero) # 658 <__stack_size-0x1fff9a8>
     840:	0001                	.insn	2, 0x0001
     842:	2900                	.insn	2, 0x2900
     844:	08480703          	lb	a4,132(a6)
     848:	0000                	.insn	2, 0x0000
     84a:	3e02                	.insn	2, 0x3e02
     84c:	b100000f          	.insn	4, 0xb100000f
     850:	08000003          	lb	zero,128(zero) # 80 <__stack_size-0x1ffff80>
     854:	0165                	.insn	2, 0x0165
     856:	0000                	.insn	2, 0x0000
     858:	4a05                	.insn	2, 0x4a05
     85a:	c200000f          	.insn	4, 0xc200000f
     85e:	05000003          	lb	zero,80(zero) # 50 <__stack_size-0x1ffffb0>
     862:	0f56                	.insn	2, 0x0f56
     864:	0000                	.insn	2, 0x0000
     866:	000003db          	.insn	4, 0x03db
     86a:	0000                	.insn	2, 0x0000
     86c:	4b04                	.insn	2, 0x4b04
     86e:	000d                	.insn	2, 0x000d
     870:	d400                	.insn	2, 0xd400
     872:	81800003          	lb	zero,-2024(zero) # fffff818 <_sp+0x77fff818>
     876:	0001                	.insn	2, 0x0001
     878:	3500                	.insn	2, 0x3500
     87a:	08660803          	lb	a6,134(a2)
     87e:	0000                	.insn	2, 0x0000
     880:	5a02                	.insn	2, 0x5a02
     882:	000d                	.insn	2, 0x000d
     884:	f400                	.insn	2, 0xf400
     886:	00000003          	lb	zero,0(zero) # 0 <__stack_size-0x2000000>
     88a:	4b04                	.insn	2, 0x4b04
     88c:	000d                	.insn	2, 0x000d
     88e:	1400                	.insn	2, 0x1400
     890:	0004                	.insn	2, 0x0004
     892:	9d80                	.insn	2, 0x9d80
     894:	0001                	.insn	2, 0x0001
     896:	3900                	.insn	2, 0x3900
     898:	08840803          	lb	a6,136(s0)
     89c:	0000                	.insn	2, 0x0000
     89e:	5a02                	.insn	2, 0x5a02
     8a0:	000d                	.insn	2, 0x000d
     8a2:	1900                	.insn	2, 0x1900
     8a4:	0004                	.insn	2, 0x0004
     8a6:	0000                	.insn	2, 0x0000
     8a8:	4b04                	.insn	2, 0x4b04
     8aa:	000d                	.insn	2, 0x000d
     8ac:	4800                	.insn	2, 0x4800
     8ae:	0004                	.insn	2, 0x0004
     8b0:	b080                	.insn	2, 0xb080
     8b2:	0001                	.insn	2, 0x0001
     8b4:	3d00                	.insn	2, 0x3d00
     8b6:	08a20803          	lb	a6,138(tp) # 8a <__stack_size-0x1ffff76>
     8ba:	0000                	.insn	2, 0x0000
     8bc:	5a02                	.insn	2, 0x5a02
     8be:	000d                	.insn	2, 0x000d
     8c0:	2c00                	.insn	2, 0x2c00
     8c2:	0004                	.insn	2, 0x0004
     8c4:	0000                	.insn	2, 0x0000
     8c6:	4b04                	.insn	2, 0x4b04
     8c8:	000d                	.insn	2, 0x000d
     8ca:	7c00                	.insn	2, 0x7c00
     8cc:	0004                	.insn	2, 0x0004
     8ce:	c380                	.insn	2, 0xc380
     8d0:	0001                	.insn	2, 0x0001
     8d2:	4100                	.insn	2, 0x4100
     8d4:	08c00803          	lb	a6,140(zero) # 8c <__stack_size-0x1ffff74>
     8d8:	0000                	.insn	2, 0x0000
     8da:	5a02                	.insn	2, 0x5a02
     8dc:	000d                	.insn	2, 0x000d
     8de:	4300                	.insn	2, 0x4300
     8e0:	0004                	.insn	2, 0x0004
     8e2:	0000                	.insn	2, 0x0000
     8e4:	4b04                	.insn	2, 0x4b04
     8e6:	000d                	.insn	2, 0x000d
     8e8:	b000                	.insn	2, 0xb000
     8ea:	0004                	.insn	2, 0x0004
     8ec:	d680                	.insn	2, 0xd680
     8ee:	0001                	.insn	2, 0x0001
     8f0:	4500                	.insn	2, 0x4500
     8f2:	08de0803          	lb	a6,141(t3)
     8f6:	0000                	.insn	2, 0x0000
     8f8:	5a02                	.insn	2, 0x5a02
     8fa:	000d                	.insn	2, 0x000d
     8fc:	5a00                	.insn	2, 0x5a00
     8fe:	0004                	.insn	2, 0x0004
     900:	0000                	.insn	2, 0x0000
     902:	4b04                	.insn	2, 0x4b04
     904:	000d                	.insn	2, 0x000d
     906:	e400                	.insn	2, 0xe400
     908:	0004                	.insn	2, 0x0004
     90a:	e980                	.insn	2, 0xe980
     90c:	0001                	.insn	2, 0x0001
     90e:	4900                	.insn	2, 0x4900
     910:	08fc0803          	lb	a6,143(s8)
     914:	0000                	.insn	2, 0x0000
     916:	5a02                	.insn	2, 0x5a02
     918:	000d                	.insn	2, 0x000d
     91a:	6d00                	.insn	2, 0x6d00
     91c:	0004                	.insn	2, 0x0004
     91e:	0000                	.insn	2, 0x0000
     920:	4b04                	.insn	2, 0x4b04
     922:	000d                	.insn	2, 0x000d
     924:	2000                	.insn	2, 0x2000
     926:	0005                	.insn	2, 0x0005
     928:	fc80                	.insn	2, 0xfc80
     92a:	0001                	.insn	2, 0x0001
     92c:	4e00                	.insn	2, 0x4e00
     92e:	091a0803          	lb	a6,145(s4)
     932:	0000                	.insn	2, 0x0000
     934:	5a02                	.insn	2, 0x5a02
     936:	000d                	.insn	2, 0x000d
     938:	8200                	.insn	2, 0x8200
     93a:	0004                	.insn	2, 0x0004
     93c:	0000                	.insn	2, 0x0000
     93e:	4b04                	.insn	2, 0x4b04
     940:	000d                	.insn	2, 0x000d
     942:	5400                	.insn	2, 0x5400
     944:	0005                	.insn	2, 0x0005
     946:	0f80                	.insn	2, 0x0f80
     948:	0002                	.insn	2, 0x0002
     94a:	5200                	.insn	2, 0x5200
     94c:	09380803          	lb	a6,147(a6)
     950:	0000                	.insn	2, 0x0000
     952:	5a02                	.insn	2, 0x5a02
     954:	000d                	.insn	2, 0x000d
     956:	9500                	.insn	2, 0x9500
     958:	0004                	.insn	2, 0x0004
     95a:	0000                	.insn	2, 0x0000
     95c:	4b04                	.insn	2, 0x4b04
     95e:	000d                	.insn	2, 0x000d
     960:	9000                	.insn	2, 0x9000
     962:	0005                	.insn	2, 0x0005
     964:	2b80                	.insn	2, 0x2b80
     966:	0002                	.insn	2, 0x0002
     968:	5700                	.insn	2, 0x5700
     96a:	09560803          	lb	a6,149(a2)
     96e:	0000                	.insn	2, 0x0000
     970:	5a02                	.insn	2, 0x5a02
     972:	000d                	.insn	2, 0x000d
     974:	a800                	.insn	2, 0xa800
     976:	0004                	.insn	2, 0x0004
     978:	0000                	.insn	2, 0x0000
     97a:	4b04                	.insn	2, 0x4b04
     97c:	000d                	.insn	2, 0x000d
     97e:	1c00                	.insn	2, 0x1c00
     980:	0006                	.insn	2, 0x0006
     982:	5a80                	.insn	2, 0x5a80
     984:	0002                	.insn	2, 0x0002
     986:	6300                	.insn	2, 0x6300
     988:	09740803          	lb	a6,151(s0)
     98c:	0000                	.insn	2, 0x0000
     98e:	5a02                	.insn	2, 0x5a02
     990:	000d                	.insn	2, 0x000d
     992:	bb00                	.insn	2, 0xbb00
     994:	0004                	.insn	2, 0x0004
     996:	0000                	.insn	2, 0x0000
     998:	4b04                	.insn	2, 0x4b04
     99a:	000d                	.insn	2, 0x000d
     99c:	5000                	.insn	2, 0x5000
     99e:	0006                	.insn	2, 0x0006
     9a0:	6d80                	.insn	2, 0x6d80
     9a2:	0002                	.insn	2, 0x0002
     9a4:	6700                	.insn	2, 0x6700
     9a6:	09920803          	lb	a6,153(tp) # 99 <__stack_size-0x1ffff67>
     9aa:	0000                	.insn	2, 0x0000
     9ac:	5a02                	.insn	2, 0x5a02
     9ae:	000d                	.insn	2, 0x000d
     9b0:	ce00                	.insn	2, 0xce00
     9b2:	0004                	.insn	2, 0x0004
     9b4:	0000                	.insn	2, 0x0000
     9b6:	4b04                	.insn	2, 0x4b04
     9b8:	000d                	.insn	2, 0x000d
     9ba:	8c00                	.insn	2, 0x8c00
     9bc:	0006                	.insn	2, 0x0006
     9be:	8980                	.insn	2, 0x8980
     9c0:	0002                	.insn	2, 0x0002
     9c2:	6c00                	.insn	2, 0x6c00
     9c4:	09b00803          	lb	a6,155(zero) # 9b <__stack_size-0x1ffff65>
     9c8:	0000                	.insn	2, 0x0000
     9ca:	5a02                	.insn	2, 0x5a02
     9cc:	000d                	.insn	2, 0x000d
     9ce:	e100                	.insn	2, 0xe100
     9d0:	0004                	.insn	2, 0x0004
     9d2:	0000                	.insn	2, 0x0000
     9d4:	4b04                	.insn	2, 0x4b04
     9d6:	000d                	.insn	2, 0x000d
     9d8:	0c00                	.insn	2, 0x0c00
     9da:	b8800007          	.insn	4, 0xb8800007
     9de:	0002                	.insn	2, 0x0002
     9e0:	7800                	.insn	2, 0x7800
     9e2:	09ce0803          	lb	a6,156(t3)
     9e6:	0000                	.insn	2, 0x0000
     9e8:	5a02                	.insn	2, 0x5a02
     9ea:	000d                	.insn	2, 0x000d
     9ec:	f400                	.insn	2, 0xf400
     9ee:	0004                	.insn	2, 0x0004
     9f0:	0000                	.insn	2, 0x0000
     9f2:	4b04                	.insn	2, 0x4b04
     9f4:	000d                	.insn	2, 0x000d
     9f6:	3800                	.insn	2, 0x3800
     9f8:	cb800007          	.insn	4, 0xcb800007
     9fc:	0002                	.insn	2, 0x0002
     9fe:	7c00                	.insn	2, 0x7c00
     a00:	09ec0803          	lb	a6,158(s8)
     a04:	0000                	.insn	2, 0x0000
     a06:	5a02                	.insn	2, 0x5a02
     a08:	000d                	.insn	2, 0x000d
     a0a:	0700                	.insn	2, 0x0700
     a0c:	0005                	.insn	2, 0x0005
     a0e:	0000                	.insn	2, 0x0000
     a10:	4b04                	.insn	2, 0x4b04
     a12:	000d                	.insn	2, 0x000d
     a14:	6400                	.insn	2, 0x6400
     a16:	de800007          	.insn	4, 0xde800007
     a1a:	0002                	.insn	2, 0x0002
     a1c:	8400                	.insn	2, 0x8400
     a1e:	0a0a0803          	lb	a6,160(s4)
     a22:	0000                	.insn	2, 0x0000
     a24:	5a02                	.insn	2, 0x5a02
     a26:	000d                	.insn	2, 0x000d
     a28:	1a00                	.insn	2, 0x1a00
     a2a:	0005                	.insn	2, 0x0005
     a2c:	0000                	.insn	2, 0x0000
     a2e:	0000dc03          	lhu	s8,0(ra)
     a32:	0280                	.insn	2, 0x0280
     a34:	2c000013          	addi	zero,zero,704
     a38:	000a                	.insn	2, 0x000a
     a3a:	0100                	.insn	2, 0x0100
     a3c:	5a01                	.insn	2, 0x5a01
     a3e:	8402                	.insn	2, 0x8402
     a40:	0110                	.insn	2, 0x0110
     a42:	5b01                	.insn	2, 0x5b01
     a44:	0305                	.insn	2, 0x0305
     a46:	15ec                	.insn	2, 0x15ec
     a48:	8000                	.insn	2, 0x8000
     a4a:	0101                	.insn	2, 0x0101
     a4c:	015c                	.insn	2, 0x015c
     a4e:	7803004f          	.insn	4, 0x7803004f
     a52:	0002                	.insn	2, 0x0002
     a54:	6380                	.insn	2, 0x6380
     a56:	4000000f          	.insn	4, 0x4000000f
     a5a:	000a                	.insn	2, 0x000a
     a5c:	0100                	.insn	2, 0x0100
     a5e:	5a01                	.insn	2, 0x5a01
     a60:	8402                	.insn	2, 0x8402
     a62:	0000                	.insn	2, 0x0000
     a64:	4c22                	.insn	2, 0x4c22
     a66:	0b800003          	lb	zero,184(zero) # b8 <__stack_size-0x1ffff48>
     a6a:	03000013          	addi	zero,zero,48
     a6e:	03fc                	.insn	2, 0x03fc
     a70:	8000                	.insn	2, 0x8000
     a72:	0351                	.insn	2, 0x0351
     a74:	0000                	.insn	2, 0x0000
     a76:	0a60                	.insn	2, 0x0a60
     a78:	0000                	.insn	2, 0x0000
     a7a:	0101                	.insn	2, 0x0101
     a7c:	055a                	.insn	2, 0x055a
     a7e:	00161003          	lh	zero,1(a2)
     a82:	0080                	.insn	2, 0x0080
     a84:	00040c03          	lb	s8,0(s0)
     a88:	5180                	.insn	2, 0x5180
     a8a:	7c000003          	lb	zero,1984(zero) # 7c0 <__stack_size-0x1fff840>
     a8e:	000a                	.insn	2, 0x000a
     a90:	0100                	.insn	2, 0x0100
     a92:	5a01                	.insn	2, 0x5a01
     a94:	0305                	.insn	2, 0x0305
     a96:	162c                	.insn	2, 0x162c
     a98:	8000                	.insn	2, 0x8000
     a9a:	0101                	.insn	2, 0x0101
     a9c:	0035015b          	.insn	4, 0x0035015b
     aa0:	00043003          	.insn	4, 0x00043003
     aa4:	5180                	.insn	2, 0x5180
     aa6:	93000003          	lb	zero,-1744(zero) # fffff930 <_sp+0x77fff930>
     aaa:	000a                	.insn	2, 0x000a
     aac:	0100                	.insn	2, 0x0100
     aae:	5a01                	.insn	2, 0x5a01
     ab0:	0305                	.insn	2, 0x0305
     ab2:	1648                	.insn	2, 0x1648
     ab4:	8000                	.insn	2, 0x8000
     ab6:	0300                	.insn	2, 0x0300
     ab8:	0440                	.insn	2, 0x0440
     aba:	8000                	.insn	2, 0x8000
     abc:	0351                	.insn	2, 0x0351
     abe:	0000                	.insn	2, 0x0000
     ac0:	00000aaf          	.insn	4, 0x0aaf
     ac4:	0101                	.insn	2, 0x0101
     ac6:	055a                	.insn	2, 0x055a
     ac8:	00162c03          	lw	s8,1(a2)
     acc:	0180                	.insn	2, 0x0180
     ace:	5b01                	.insn	2, 0x5b01
     ad0:	3101                	.insn	2, 0x3101
     ad2:	0300                	.insn	2, 0x0300
     ad4:	0464                	.insn	2, 0x0464
     ad6:	8000                	.insn	2, 0x8000
     ad8:	0351                	.insn	2, 0x0351
     ada:	0000                	.insn	2, 0x0000
     adc:	0ac6                	.insn	2, 0x0ac6
     ade:	0000                	.insn	2, 0x0000
     ae0:	0101                	.insn	2, 0x0101
     ae2:	055a                	.insn	2, 0x055a
     ae4:	00166403          	.insn	4, 0x00166403
     ae8:	0080                	.insn	2, 0x0080
     aea:	00047403          	.insn	4, 0x00047403
     aee:	5180                	.insn	2, 0x5180
     af0:	e3000003          	lb	zero,-464(zero) # fffffe30 <_sp+0x77fffe30>
     af4:	000a                	.insn	2, 0x000a
     af6:	0100                	.insn	2, 0x0100
     af8:	5a01                	.insn	2, 0x5a01
     afa:	0305                	.insn	2, 0x0305
     afc:	1680                	.insn	2, 0x1680
     afe:	8000                	.insn	2, 0x8000
     b00:	0101                	.insn	2, 0x0101
     b02:	4108025b          	.insn	4, 0x4108025b
     b06:	0300                	.insn	2, 0x0300
     b08:	0498                	.insn	2, 0x0498
     b0a:	8000                	.insn	2, 0x8000
     b0c:	0351                	.insn	2, 0x0351
     b0e:	0000                	.insn	2, 0x0000
     b10:	0afa                	.insn	2, 0x0afa
     b12:	0000                	.insn	2, 0x0000
     b14:	0101                	.insn	2, 0x0101
     b16:	055a                	.insn	2, 0x055a
     b18:	00169c03          	lh	s8,1(a3)
     b1c:	0080                	.insn	2, 0x0080
     b1e:	0004a803          	lw	a6,0(s1)
     b22:	5180                	.insn	2, 0x5180
     b24:	17000003          	lb	zero,368(zero) # 170 <__stack_size-0x1fffe90>
     b28:	0100000b          	.insn	4, 0x0100000b
     b2c:	5a01                	.insn	2, 0x5a01
     b2e:	0305                	.insn	2, 0x0305
     b30:	1680                	.insn	2, 0x1680
     b32:	8000                	.insn	2, 0x8000
     b34:	0101                	.insn	2, 0x0101
     b36:	4208025b          	.insn	4, 0x4208025b
     b3a:	0300                	.insn	2, 0x0300
     b3c:	04cc                	.insn	2, 0x04cc
     b3e:	8000                	.insn	2, 0x8000
     b40:	0351                	.insn	2, 0x0351
     b42:	0000                	.insn	2, 0x0000
     b44:	0b2e                	.insn	2, 0x0b2e
     b46:	0000                	.insn	2, 0x0000
     b48:	0101                	.insn	2, 0x0101
     b4a:	055a                	.insn	2, 0x055a
     b4c:	0016b803          	.insn	4, 0x0016b803
     b50:	0080                	.insn	2, 0x0080
     b52:	0004dc03          	lhu	s8,0(s1)
     b56:	5180                	.insn	2, 0x5180
     b58:	4a000003          	lb	zero,1184(zero) # 4a0 <__stack_size-0x1fffb60>
     b5c:	0100000b          	.insn	4, 0x0100000b
     b60:	5a01                	.insn	2, 0x5a01
     b62:	0305                	.insn	2, 0x0305
     b64:	162c                	.insn	2, 0x162c
     b66:	8000                	.insn	2, 0x8000
     b68:	0101                	.insn	2, 0x0101
     b6a:	0037015b          	.insn	4, 0x0037015b
     b6e:	00050403          	lb	s0,0(a0)
     b72:	5180                	.insn	2, 0x5180
     b74:	61000003          	lb	zero,1552(zero) # 610 <__stack_size-0x1fff9f0>
     b78:	0100000b          	.insn	4, 0x0100000b
     b7c:	5a01                	.insn	2, 0x5a01
     b7e:	0305                	.insn	2, 0x0305
     b80:	16d4                	.insn	2, 0x16d4
     b82:	8000                	.insn	2, 0x8000
     b84:	0300                	.insn	2, 0x0300
     b86:	0510                	.insn	2, 0x0510
     b88:	8000                	.insn	2, 0x8000
     b8a:	0351                	.insn	2, 0x0351
     b8c:	0000                	.insn	2, 0x0000
     b8e:	0b78                	.insn	2, 0x0b78
     b90:	0000                	.insn	2, 0x0000
     b92:	0101                	.insn	2, 0x0101
     b94:	055a                	.insn	2, 0x055a
     b96:	0016f003          	.insn	4, 0x0016f003
     b9a:	0080                	.insn	2, 0x0080
     b9c:	00053803          	.insn	4, 0x00053803
     ba0:	5180                	.insn	2, 0x5180
     ba2:	8f000003          	lb	zero,-1808(zero) # fffff8f0 <_sp+0x77fff8f0>
     ba6:	0100000b          	.insn	4, 0x0100000b
     baa:	5a01                	.insn	2, 0x5a01
     bac:	0305                	.insn	2, 0x0305
     bae:	171c                	.insn	2, 0x171c
     bb0:	8000                	.insn	2, 0x8000
     bb2:	0300                	.insn	2, 0x0300
     bb4:	0548                	.insn	2, 0x0548
     bb6:	8000                	.insn	2, 0x8000
     bb8:	0351                	.insn	2, 0x0351
     bba:	0000                	.insn	2, 0x0000
     bbc:	00000bab          	.insn	4, 0x0bab
     bc0:	0101                	.insn	2, 0x0101
     bc2:	055a                	.insn	2, 0x055a
     bc4:	00162c03          	lw	s8,1(a2)
     bc8:	0180                	.insn	2, 0x0180
     bca:	5b01                	.insn	2, 0x5b01
     bcc:	3001                	.insn	2, 0x3001
     bce:	0300                	.insn	2, 0x0300
     bd0:	0574                	.insn	2, 0x0574
     bd2:	8000                	.insn	2, 0x8000
     bd4:	0351                	.insn	2, 0x0351
     bd6:	0000                	.insn	2, 0x0000
     bd8:	0bc2                	.insn	2, 0x0bc2
     bda:	0000                	.insn	2, 0x0000
     bdc:	0101                	.insn	2, 0x0101
     bde:	055a                	.insn	2, 0x055a
     be0:	00174003          	lbu	zero,1(a4)
     be4:	0080                	.insn	2, 0x0080
     be6:	00058403          	lb	s0,0(a1)
     bea:	5180                	.insn	2, 0x5180
     bec:	de000003          	lb	zero,-544(zero) # fffffde0 <_sp+0x77fffde0>
     bf0:	0100000b          	.insn	4, 0x0100000b
     bf4:	5a01                	.insn	2, 0x5a01
     bf6:	0305                	.insn	2, 0x0305
     bf8:	162c                	.insn	2, 0x162c
     bfa:	8000                	.insn	2, 0x8000
     bfc:	0101                	.insn	2, 0x0101
     bfe:	0032015b          	.insn	4, 0x0032015b
     c02:	0005b003          	.insn	4, 0x0005b003
     c06:	5180                	.insn	2, 0x5180
     c08:	f5000003          	lb	zero,-176(zero) # ffffff50 <_sp+0x77ffff50>
     c0c:	0100000b          	.insn	4, 0x0100000b
     c10:	5a01                	.insn	2, 0x5a01
     c12:	0305                	.insn	2, 0x0305
     c14:	1764                	.insn	2, 0x1764
     c16:	8000                	.insn	2, 0x8000
     c18:	0300                	.insn	2, 0x0300
     c1a:	05c0                	.insn	2, 0x05c0
     c1c:	8000                	.insn	2, 0x8000
     c1e:	0351                	.insn	2, 0x0351
     c20:	0000                	.insn	2, 0x0000
     c22:	0c11                	.insn	2, 0x0c11
     c24:	0000                	.insn	2, 0x0000
     c26:	0101                	.insn	2, 0x0101
     c28:	055a                	.insn	2, 0x055a
     c2a:	00162c03          	lw	s8,1(a2)
     c2e:	0180                	.insn	2, 0x0180
     c30:	5b01                	.insn	2, 0x5b01
     c32:	4101                	.insn	2, 0x4101
     c34:	0300                	.insn	2, 0x0300
     c36:	0634                	.insn	2, 0x0634
     c38:	8000                	.insn	2, 0x8000
     c3a:	0351                	.insn	2, 0x0351
     c3c:	0000                	.insn	2, 0x0000
     c3e:	0c28                	.insn	2, 0x0c28
     c40:	0000                	.insn	2, 0x0000
     c42:	0101                	.insn	2, 0x0101
     c44:	055a                	.insn	2, 0x055a
     c46:	0017e403          	.insn	4, 0x0017e403
     c4a:	0080                	.insn	2, 0x0080
     c4c:	00064403          	lbu	s0,0(a2)
     c50:	5180                	.insn	2, 0x5180
     c52:	44000003          	lb	zero,1088(zero) # 440 <__stack_size-0x1fffbc0>
     c56:	000c                	.insn	2, 0x000c
     c58:	0100                	.insn	2, 0x0100
     c5a:	5a01                	.insn	2, 0x5a01
     c5c:	0305                	.insn	2, 0x0305
     c5e:	162c                	.insn	2, 0x162c
     c60:	8000                	.insn	2, 0x8000
     c62:	0101                	.insn	2, 0x0101
     c64:	0030015b          	.insn	4, 0x0030015b
     c68:	00067003          	.insn	4, 0x00067003
     c6c:	5180                	.insn	2, 0x5180
     c6e:	5b000003          	lb	zero,1456(zero) # 5b0 <__stack_size-0x1fffa50>
     c72:	000c                	.insn	2, 0x000c
     c74:	0100                	.insn	2, 0x0100
     c76:	5a01                	.insn	2, 0x5a01
     c78:	0305                	.insn	2, 0x0305
     c7a:	180c                	.insn	2, 0x180c
     c7c:	8000                	.insn	2, 0x8000
     c7e:	0300                	.insn	2, 0x0300
     c80:	0680                	.insn	2, 0x0680
     c82:	8000                	.insn	2, 0x8000
     c84:	0351                	.insn	2, 0x0351
     c86:	0000                	.insn	2, 0x0000
     c88:	00000c77          	.insn	4, 0x0c77
     c8c:	0101                	.insn	2, 0x0101
     c8e:	055a                	.insn	2, 0x055a
     c90:	00162c03          	lw	s8,1(a2)
     c94:	0180                	.insn	2, 0x0180
     c96:	5b01                	.insn	2, 0x5b01
     c98:	3101                	.insn	2, 0x3101
     c9a:	0300                	.insn	2, 0x0300
     c9c:	06ac                	.insn	2, 0x06ac
     c9e:	8000                	.insn	2, 0x8000
     ca0:	0351                	.insn	2, 0x0351
     ca2:	0000                	.insn	2, 0x0000
     ca4:	0c8e                	.insn	2, 0x0c8e
     ca6:	0000                	.insn	2, 0x0000
     ca8:	0101                	.insn	2, 0x0101
     caa:	055a                	.insn	2, 0x055a
     cac:	00183403          	.insn	4, 0x00183403
     cb0:	0080                	.insn	2, 0x0080
     cb2:	0006bc03          	.insn	4, 0x0006bc03
     cb6:	5180                	.insn	2, 0x5180
     cb8:	aa000003          	lb	zero,-1376(zero) # fffffaa0 <_sp+0x77fffaa0>
     cbc:	000c                	.insn	2, 0x000c
     cbe:	0100                	.insn	2, 0x0100
     cc0:	5a01                	.insn	2, 0x5a01
     cc2:	0305                	.insn	2, 0x0305
     cc4:	162c                	.insn	2, 0x162c
     cc6:	8000                	.insn	2, 0x8000
     cc8:	0101                	.insn	2, 0x0101
     cca:	0042015b          	.insn	4, 0x0042015b
     cce:	00072803          	lw	a6,0(a4)
     cd2:	5180                	.insn	2, 0x5180
     cd4:	c1000003          	lb	zero,-1008(zero) # fffffc10 <_sp+0x77fffc10>
     cd8:	000c                	.insn	2, 0x000c
     cda:	0100                	.insn	2, 0x0100
     cdc:	5a01                	.insn	2, 0x5a01
     cde:	0305                	.insn	2, 0x0305
     ce0:	1884                	.insn	2, 0x1884
     ce2:	8000                	.insn	2, 0x8000
     ce4:	0300                	.insn	2, 0x0300
     ce6:	0738                	.insn	2, 0x0738
     ce8:	8000                	.insn	2, 0x8000
     cea:	0351                	.insn	2, 0x0351
     cec:	0000                	.insn	2, 0x0000
     cee:	0cdd                	.insn	2, 0x0cdd
     cf0:	0000                	.insn	2, 0x0000
     cf2:	0101                	.insn	2, 0x0101
     cf4:	055a                	.insn	2, 0x055a
     cf6:	00162c03          	lw	s8,1(a2)
     cfa:	0180                	.insn	2, 0x0180
     cfc:	5b01                	.insn	2, 0x5b01
     cfe:	3501                	.insn	2, 0x3501
     d00:	0300                	.insn	2, 0x0300
     d02:	0754                	.insn	2, 0x0754
     d04:	8000                	.insn	2, 0x8000
     d06:	0351                	.insn	2, 0x0351
     d08:	0000                	.insn	2, 0x0000
     d0a:	0cfa                	.insn	2, 0x0cfa
     d0c:	0000                	.insn	2, 0x0000
     d0e:	0101                	.insn	2, 0x0101
     d10:	055a                	.insn	2, 0x055a
     d12:	0018a003          	lw	zero,1(a7)
     d16:	0180                	.insn	2, 0x0180
     d18:	5b01                	.insn	2, 0x5b01
     d1a:	8402                	.insn	2, 0x8402
     d1c:	0000                	.insn	2, 0x0000
     d1e:	00076403          	.insn	4, 0x00076403
     d22:	5180                	.insn	2, 0x5180
     d24:	16000003          	lb	zero,352(zero) # 160 <__stack_size-0x1fffea0>
     d28:	000d                	.insn	2, 0x000d
     d2a:	0100                	.insn	2, 0x0100
     d2c:	5a01                	.insn	2, 0x5a01
     d2e:	0305                	.insn	2, 0x0305
     d30:	162c                	.insn	2, 0x162c
     d32:	8000                	.insn	2, 0x8000
     d34:	0101                	.insn	2, 0x0101
     d36:	003d015b          	.insn	4, 0x003d015b
     d3a:	00077c03          	.insn	4, 0x00077c03
     d3e:	5180                	.insn	2, 0x5180
     d40:	32000003          	lb	zero,800(zero) # 320 <__stack_size-0x1fffce0>
     d44:	000d                	.insn	2, 0x000d
     d46:	0100                	.insn	2, 0x0100
     d48:	5a01                	.insn	2, 0x5a01
     d4a:	0305                	.insn	2, 0x0305
     d4c:	18bc                	.insn	2, 0x18bc
     d4e:	8000                	.insn	2, 0x8000
     d50:	0101                	.insn	2, 0x0101
     d52:	0030015b          	.insn	4, 0x0030015b
     d56:	8c10                	.insn	2, 0x8c10
     d58:	51800007          	.insn	4, 0x51800007
     d5c:	01000003          	lb	zero,16(zero) # 10 <__stack_size-0x1fffff0>
     d60:	5a01                	.insn	2, 0x5a01
     d62:	0305                	.insn	2, 0x0305
     d64:	162c                	.insn	2, 0x162c
     d66:	8000                	.insn	2, 0x8000
     d68:	0101                	.insn	2, 0x0101
     d6a:	0031015b          	.insn	4, 0x0031015b
     d6e:	1f00                	.insn	2, 0x1f00
     d70:	03dc                	.insn	2, 0x03dc
     d72:	0000                	.insn	2, 0x0000
     d74:	00b102cb          	.insn	4, 0x00b102cb
     d78:	0000                	.insn	2, 0x0000
     d7a:	00000d67          	jalr	s10,0(zero) # 0 <__stack_size-0x2000000>
     d7e:	cd06                	.insn	2, 0xcd06
     d80:	cb000003          	lb	zero,-848(zero) # fffffcb0 <_sp+0x77fffcb0>
     d84:	1302                	.insn	2, 0x1302
     d86:	0086                	.insn	2, 0x0086
     d88:	0000                	.insn	2, 0x0000
     d8a:	1f00                	.insn	2, 0x1f00
     d8c:	0442                	.insn	2, 0x0442
     d8e:	0000                	.insn	2, 0x0000
     d90:	02ba                	.insn	2, 0x02ba
     d92:	00b1                	.insn	2, 0x00b1
     d94:	0000                	.insn	2, 0x0000
     d96:	00000d8f          	.insn	4, 0x0d8f
     d9a:	4206                	.insn	2, 0x4206
     d9c:	be000003          	lb	zero,-1056(zero) # fffffbe0 <_sp+0x77fffbe0>
     da0:	0d02                	.insn	2, 0x0d02
     da2:	006e                	.insn	2, 0x006e
     da4:	0000                	.insn	2, 0x0000
     da6:	6a09                	.insn	2, 0x6a09
     da8:	0001                	.insn	2, 0x0001
     daa:	c000                	.insn	2, 0xc000
     dac:	0f02                	.insn	2, 0x0f02
     dae:	006e                	.insn	2, 0x006e
     db0:	0000                	.insn	2, 0x0000
     db2:	1f00                	.insn	2, 0x1f00
     db4:	0000043b          	.insn	4, 0x043b
     db8:	0295                	.insn	2, 0x0295
     dba:	00b1                	.insn	2, 0x00b1
     dbc:	0000                	.insn	2, 0x0000
     dbe:	0de9                	.insn	2, 0x0de9
     dc0:	0000                	.insn	2, 0x0000
     dc2:	8706                	.insn	2, 0x8706
     dc4:	0000                	.insn	2, 0x0000
     dc6:	9b00                	.insn	2, 0x9b00
     dc8:	0802                	.insn	2, 0x0802
     dca:	033a                	.insn	2, 0x033a
     dcc:	0000                	.insn	2, 0x0000
     dce:	aa06                	.insn	2, 0xaa06
     dd0:	0000                	.insn	2, 0x0000
     dd2:	9c00                	.insn	2, 0x9c00
     dd4:	0802                	.insn	2, 0x0802
     dd6:	033a                	.insn	2, 0x033a
     dd8:	0000                	.insn	2, 0x0000
     dda:	e209                	.insn	2, 0xe209
     ddc:	9e000003          	lb	zero,-1568(zero) # fffff9e0 <_sp+0x77fff9e0>
     de0:	1202                	.insn	2, 0x1202
     de2:	007a                	.insn	2, 0x007a
     de4:	0000                	.insn	2, 0x0000
     de6:	0109                	.insn	2, 0x0109
     de8:	0002                	.insn	2, 0x0002
     dea:	9f00                	.insn	2, 0x9f00
     dec:	1202                	.insn	2, 0x1202
     dee:	0099                	.insn	2, 0x0099
     df0:	0000                	.insn	2, 0x0000
     df2:	1536                	.insn	2, 0x1536
     df4:	0396                	.insn	2, 0x0396
     df6:	0000                	.insn	2, 0x0000
     df8:	0086                	.insn	2, 0x0086
     dfa:	0000                	.insn	2, 0x0000
     dfc:	0dde                	.insn	2, 0x0dde
     dfe:	0000                	.insn	2, 0x0000
     e00:	0011                	.insn	2, 0x0011
     e02:	6422                	.insn	2, 0x6422
     e04:	f980000b          	.insn	4, 0xf980000b
     e08:	0012                	.insn	2, 0x0012
     e0a:	0000                	.insn	2, 0x0000
     e0c:	3700                	.insn	2, 0x3700
     e0e:	0434                	.insn	2, 0x0434
     e10:	0000                	.insn	2, 0x0000
     e12:	7c01                	.insn	2, 0x7c01
     e14:	0d02                	.insn	2, 0x0d02
     e16:	006e                	.insn	2, 0x006e
     e18:	0000                	.insn	2, 0x0000
     e1a:	2c01                	.insn	2, 0x2c01
     e1c:	000e                	.insn	2, 0x000e
     e1e:	0600                	.insn	2, 0x0600
     e20:	015d                	.insn	2, 0x015d
     e22:	0000                	.insn	2, 0x0000
     e24:	99100283          	lb	t0,-1647(zero) # fffff991 <_sp+0x77fff991>
     e28:	0000                	.insn	2, 0x0000
     e2a:	0600                	.insn	2, 0x0600
     e2c:	00000173          	.insn	4, 0x0173
     e30:	0284                	.insn	2, 0x0284
     e32:	9910                	.insn	2, 0x9910
     e34:	0000                	.insn	2, 0x0000
     e36:	0900                	.insn	2, 0x0900
     e38:	01f8                	.insn	2, 0x01f8
     e3a:	0000                	.insn	2, 0x0000
     e3c:	0286                	.insn	2, 0x0286
     e3e:	9912                	.insn	2, 0x9912
     e40:	0000                	.insn	2, 0x0000
     e42:	0900                	.insn	2, 0x0900
     e44:	00fd                	.insn	2, 0x00fd
     e46:	0000                	.insn	2, 0x0000
     e48:	99120287          	.insn	4, 0x99120287
     e4c:	0000                	.insn	2, 0x0000
     e4e:	0000                	.insn	2, 0x0000
     e50:	00023d1b          	.insn	4, 0x00023d1b
     e54:	6400                	.insn	2, 0x6400
     e56:	8002                	.insn	2, 0x8002
     e58:	000e                	.insn	2, 0x000e
     e5a:	0600                	.insn	2, 0x0600
     e5c:	000000ef          	jal	ra,e5c <__stack_size-0x1fff1a4>
     e60:	0269                	.insn	2, 0x0269
     e62:	000e800f          	.insn	4, 0x000e800f
     e66:	0600                	.insn	2, 0x0600
     e68:	041d                	.insn	2, 0x041d
     e6a:	0000                	.insn	2, 0x0000
     e6c:	026a                	.insn	2, 0x026a
     e6e:	000e850b          	.insn	4, 0x000e850b
     e72:	0600                	.insn	2, 0x0600
     e74:	01bd                	.insn	2, 0x01bd
     e76:	0000                	.insn	2, 0x0000
     e78:	8605026b          	.insn	4, 0x8605026b
     e7c:	0000                	.insn	2, 0x0000
     e7e:	0600                	.insn	2, 0x0600
     e80:	01ea                	.insn	2, 0x01ea
     e82:	0000                	.insn	2, 0x0000
     e84:	026c                	.insn	2, 0x026c
     e86:	8605                	.insn	2, 0x8605
     e88:	0000                	.insn	2, 0x0000
     e8a:	0900                	.insn	2, 0x0900
     e8c:	0000035b          	.insn	4, 0x035b
     e90:	026e                	.insn	2, 0x026e
     e92:	8d11                	.insn	2, 0x8d11
     e94:	0000                	.insn	2, 0x0000
     e96:	0900                	.insn	2, 0x0900
     e98:	03e2                	.insn	2, 0x03e2
     e9a:	0000                	.insn	2, 0x0000
     e9c:	8d11026f          	jal	tp,fff1176c <_sp+0x77f1176c>
     ea0:	0000                	.insn	2, 0x0000
     ea2:	0000                	.insn	2, 0x0000
     ea4:	860d                	.insn	2, 0x860d
     ea6:	0000                	.insn	2, 0x0000
     ea8:	0d00                	.insn	2, 0x0d00
     eaa:	00d9                	.insn	2, 0x00d9
     eac:	0000                	.insn	2, 0x0000
     eae:	0002cd1b          	.insn	4, 0x0002cd1b
     eb2:	5c00                	.insn	2, 0x5c00
     eb4:	c602                	.insn	2, 0xc602
     eb6:	000e                	.insn	2, 0x000e
     eb8:	0600                	.insn	2, 0x0600
     eba:	01bd                	.insn	2, 0x01bd
     ebc:	0000                	.insn	2, 0x0000
     ebe:	025c                	.insn	2, 0x025c
     ec0:	00008d17          	auipc	s10,0x8
     ec4:	0600                	.insn	2, 0x0600
     ec6:	01ea                	.insn	2, 0x01ea
     ec8:	0000                	.insn	2, 0x0000
     eca:	025c                	.insn	2, 0x025c
     ecc:	8d30                	.insn	2, 0x8d30
     ece:	0000                	.insn	2, 0x0000
     ed0:	0600                	.insn	2, 0x0600
     ed2:	0000034f          	.insn	4, 0x034f
     ed6:	025d                	.insn	2, 0x025d
     ed8:	c618                	.insn	2, 0xc618
     eda:	000e                	.insn	2, 0x000e
     edc:	0900                	.insn	2, 0x0900
     ede:	03e2                	.insn	2, 0x03e2
     ee0:	0000                	.insn	2, 0x0000
     ee2:	025e                	.insn	2, 0x025e
     ee4:	8d0d                	.insn	2, 0x8d0d
     ee6:	0000                	.insn	2, 0x0000
     ee8:	0000                	.insn	2, 0x0000
     eea:	8d0d                	.insn	2, 0x8d0d
     eec:	0000                	.insn	2, 0x0000
     eee:	1b00                	.insn	2, 0x1b00
     ef0:	02c6                	.insn	2, 0x02c6
     ef2:	0000                	.insn	2, 0x0000
     ef4:	023a                	.insn	2, 0x023a
     ef6:	00000eef          	jal	t4,ef6 <__stack_size-0x1fff10a>
     efa:	dc06                	.insn	2, 0xdc06
     efc:	0002                	.insn	2, 0x0002
     efe:	3f00                	.insn	2, 0x3f00
     f00:	1102                	.insn	2, 0x1102
     f02:	006e                	.insn	2, 0x006e
     f04:	0000                	.insn	2, 0x0000
     f06:	af06                	.insn	2, 0xaf06
     f08:	40000003          	lb	zero,1024(zero) # 400 <__stack_size-0x1fffc00>
     f0c:	0e02                	.insn	2, 0x0e02
     f0e:	00000eef          	jal	t4,f0e <__stack_size-0x1fff0f2>
     f12:	0d00                	.insn	2, 0x0d00
     f14:	006e                	.insn	2, 0x006e
     f16:	0000                	.insn	2, 0x0000
     f18:	2b38                	.insn	2, 0x2b38
     f1a:	0002                	.insn	2, 0x0002
     f1c:	0100                	.insn	2, 0x0100
     f1e:	021a                	.insn	2, 0x021a
     f20:	0106                	.insn	2, 0x0106
     f22:	00022423          	sw	zero,8(tp) # 8 <__stack_size-0x1fffff8>
     f26:	0f00                	.insn	2, 0x0f00
     f28:	1602                	.insn	2, 0x1602
     f2a:	0900000f          	fence	iw,unknown
     f2e:	0000021b          	.insn	4, 0x021b
     f32:	b10b0213          	addi	tp,s6,-1264
     f36:	0000                	.insn	2, 0x0000
     f38:	0000                	.insn	2, 0x0000
     f3a:	0002b71b          	.insn	4, 0x0002b71b
     f3e:	0100                	.insn	2, 0x0100
     f40:	2e02                	.insn	2, 0x2e02
     f42:	0600000f          	fence	or,unknown
     f46:	0000007b          	.insn	4, 0x007b
     f4a:	0206                	.insn	2, 0x0206
     f4c:	2e12                	.insn	2, 0x2e12
     f4e:	0000000f          	fence	unknown,unknown
     f52:	dc0d                	.insn	2, 0xdc0d
     f54:	0001                	.insn	2, 0x0001
     f56:	2300                	.insn	2, 0x2300
     f58:	02b0                	.insn	2, 0x02b0
     f5a:	0000                	.insn	2, 0x0000
     f5c:	0f6301eb          	.insn	4, 0x0f6301eb
     f60:	0000                	.insn	2, 0x0000
     f62:	4f06                	.insn	2, 0x4f06
     f64:	f0000003          	lb	zero,-256(zero) # ffffff00 <_sp+0x77ffff00>
     f68:	1001                	.insn	2, 0x1001
     f6a:	0ec6                	.insn	2, 0x0ec6
     f6c:	0000                	.insn	2, 0x0000
     f6e:	e209                	.insn	2, 0xe209
     f70:	f2000003          	lb	zero,-224(zero) # ffffff20 <_sp+0x77ffff20>
     f74:	0d01                	.insn	2, 0x0d01
     f76:	008d                	.insn	2, 0x008d
     f78:	0000                	.insn	2, 0x0000
     f7a:	6a09                	.insn	2, 0x6a09
     f7c:	0001                	.insn	2, 0x0001
     f7e:	f300                	.insn	2, 0xf300
     f80:	0f01                	.insn	2, 0x0f01
     f82:	006e                	.insn	2, 0x006e
     f84:	0000                	.insn	2, 0x0000
     f86:	3900                	.insn	2, 0x3900
     f88:	02a9                	.insn	2, 0x02a9
     f8a:	0000                	.insn	2, 0x0000
     f8c:	cc01                	.insn	2, 0xcc01
     f8e:	0601                	.insn	2, 0x0601
     f90:	0938                	.insn	2, 0x0938
     f92:	8000                	.insn	2, 0x8000
     f94:	0158                	.insn	2, 0x0158
     f96:	0000                	.insn	2, 0x0000
     f98:	9c01                	.insn	2, 0x9c01
     f9a:	1038                	.insn	2, 0x1038
     f9c:	0000                	.insn	2, 0x0000
     f9e:	7e3a                	.insn	2, 0x7e3a
     fa0:	01000003          	lb	zero,16(zero) # 10 <__stack_size-0x1fffff0>
     fa4:	dc1501cf          	.insn	4, 0xdc1501cf
     fa8:	0001                	.insn	2, 0x0001
     faa:	2d00                	.insn	2, 0x2d00
     fac:	0005                	.insn	2, 0x0005
     fae:	0f00                	.insn	2, 0x0f00
     fb0:	03ea                	.insn	2, 0x03ea
     fb2:	0000                	.insn	2, 0x0000
     fb4:	01d2                	.insn	2, 0x01d2
     fb6:	0001dc13          	srli	s8,gp,0x0
     fba:	4700                	.insn	2, 0x4700
     fbc:	0005                	.insn	2, 0x0005
     fbe:	0400                	.insn	2, 0x0400
     fc0:	0f16                	.insn	2, 0x0f16
     fc2:	0000                	.insn	2, 0x0000
     fc4:	09bc                	.insn	2, 0x09bc
     fc6:	8000                	.insn	2, 0x8000
     fc8:	001f 0000 01db      	.insn	6, 0x01db0000001f
     fce:	000ff103          	.insn	4, 0x000ff103
     fd2:	0200                	.insn	2, 0x0200
     fd4:	0f21                	.insn	2, 0x0f21
     fd6:	0000                	.insn	2, 0x0000
     fd8:	055e                	.insn	2, 0x055e
     fda:	0000                	.insn	2, 0x0000
     fdc:	8a24                	.insn	2, 0x8a24
     fde:	000e                	.insn	2, 0x000e
     fe0:	c400                	.insn	2, 0xc400
     fe2:	0009                	.insn	2, 0x0009
     fe4:	3280                	.insn	2, 0x3280
     fe6:	0000                	.insn	2, 0x0000
     fe8:	0200                	.insn	2, 0x0200
     fea:	0ead                	.insn	2, 0x0ead
     fec:	0000                	.insn	2, 0x0000
     fee:	056a                	.insn	2, 0x056a
     ff0:	0000                	.insn	2, 0x0000
     ff2:	a102                	.insn	2, 0xa102
     ff4:	000e                	.insn	2, 0x000e
     ff6:	7800                	.insn	2, 0x7800
     ff8:	0005                	.insn	2, 0x0005
     ffa:	0200                	.insn	2, 0x0200
     ffc:	0e95                	.insn	2, 0x0e95
     ffe:	0000                	.insn	2, 0x0000
    1000:	0588                	.insn	2, 0x0588
    1002:	0000                	.insn	2, 0x0000
    1004:	3208                	.insn	2, 0x3208
    1006:	0000                	.insn	2, 0x0000
    1008:	0500                	.insn	2, 0x0500
    100a:	0eb9                	.insn	2, 0x0eb9
    100c:	0000                	.insn	2, 0x0000
    100e:	0595                	.insn	2, 0x0595
    1010:	0000                	.insn	2, 0x0000
    1012:	0000                	.insn	2, 0x0000
    1014:	0400                	.insn	2, 0x0400
    1016:	0e8a                	.insn	2, 0x0e8a
    1018:	0000                	.insn	2, 0x0000
    101a:	0a70                	.insn	2, 0x0a70
    101c:	8000                	.insn	2, 0x8000
    101e:	004e                	.insn	2, 0x004e
    1020:	0000                	.insn	2, 0x0000
    1022:	01e5                	.insn	2, 0x01e5
    1024:	2705                	.insn	2, 0x2705
    1026:	0010                	.insn	2, 0x0010
    1028:	0200                	.insn	2, 0x0200
    102a:	0ead                	.insn	2, 0x0ead
    102c:	0000                	.insn	2, 0x0000
    102e:	05a2                	.insn	2, 0x05a2
    1030:	0000                	.insn	2, 0x0000
    1032:	a125                	.insn	2, 0xa125
    1034:	000e                	.insn	2, 0x000e
    1036:	0a00                	.insn	2, 0x0a00
    1038:	9525                	.insn	2, 0x9525
    103a:	000e                	.insn	2, 0x000e
    103c:	0600                	.insn	2, 0x0600
    103e:	4e08                	.insn	2, 0x4e08
    1040:	0000                	.insn	2, 0x0000
    1042:	1a00                	.insn	2, 0x1a00
    1044:	0eb9                	.insn	2, 0x0eb9
    1046:	0000                	.insn	2, 0x0000
    1048:	0008                	.insn	2, 0x0008
    104a:	1000                	.insn	2, 0x1000
    104c:	0a70                	.insn	2, 0x0a70
    104e:	8000                	.insn	2, 0x8000
    1050:	00000ecb          	.insn	4, 0x0ecb
    1054:	0101                	.insn	2, 0x0101
    1056:	0878025b          	.insn	4, 0x0878025b
    105a:	0000                	.insn	2, 0x0000
    105c:	0003a73b          	.insn	4, 0x0003a73b
    1060:	0100                	.insn	2, 0x0100
    1062:	01bd                	.insn	2, 0x01bd
    1064:	3a0e                	.insn	2, 0x3a0e
    1066:	01000003          	lb	zero,16(zero) # 10 <__stack_size-0x1fffff0>
    106a:	1064                	.insn	2, 0x1064
    106c:	0000                	.insn	2, 0x0000
    106e:	3706                	.insn	2, 0x3706
    1070:	0001                	.insn	2, 0x0001
    1072:	bd00                	.insn	2, 0xbd00
    1074:	1d01                	.insn	2, 0x1d01
    1076:	002d                	.insn	2, 0x002d
    1078:	0000                	.insn	2, 0x0000
    107a:	723c                	.insn	2, 0x723c
    107c:	7465                	.insn	2, 0x7465
    107e:	0100                	.insn	2, 0x0100
    1080:	01c0                	.insn	2, 0x01c0
    1082:	3a09                	.insn	2, 0x3a09
    1084:	00000003          	lb	zero,0(zero) # 0 <__stack_size-0x2000000>
    1088:	000f330b          	.insn	4, 0x000f330b
    108c:	4000                	.insn	2, 0x4000
    108e:	0008                	.insn	2, 0x0008
    1090:	3080                	.insn	2, 0x3080
    1092:	0000                	.insn	2, 0x0000
    1094:	0100                	.insn	2, 0x0100
    1096:	8e9c                	.insn	2, 0x8e9c
    1098:	0010                	.insn	2, 0x0010
    109a:	0e00                	.insn	2, 0x0e00
    109c:	0f3e                	.insn	2, 0x0f3e
    109e:	0000                	.insn	2, 0x0000
    10a0:	5a01                	.insn	2, 0x5a01
    10a2:	4a05                	.insn	2, 0x4a05
    10a4:	b000000f          	.insn	4, 0xb000000f
    10a8:	0005                	.insn	2, 0x0005
    10aa:	1a00                	.insn	2, 0x1a00
    10ac:	0f56                	.insn	2, 0x0f56
    10ae:	0000                	.insn	2, 0x0000
    10b0:	0000                	.insn	2, 0x0000
    10b2:	000f160b          	.insn	4, 0x000f160b
    10b6:	7000                	.insn	2, 0x7000
    10b8:	0008                	.insn	2, 0x0008
    10ba:	2c80                	.insn	2, 0x2c80
    10bc:	0000                	.insn	2, 0x0000
    10be:	0100                	.insn	2, 0x0100
    10c0:	e19c                	.insn	2, 0xe19c
    10c2:	0010                	.insn	2, 0x0010
    10c4:	0e00                	.insn	2, 0x0e00
    10c6:	0f21                	.insn	2, 0x0f21
    10c8:	0000                	.insn	2, 0x0000
    10ca:	5a01                	.insn	2, 0x5a01
    10cc:	8a24                	.insn	2, 0x8a24
    10ce:	000e                	.insn	2, 0x000e
    10d0:	8800                	.insn	2, 0x8800
    10d2:	0008                	.insn	2, 0x0008
    10d4:	0c80                	.insn	2, 0x0c80
    10d6:	0000                	.insn	2, 0x0000
    10d8:	0200                	.insn	2, 0x0200
    10da:	0ead                	.insn	2, 0x0ead
    10dc:	0000                	.insn	2, 0x0000
    10de:	05ec                	.insn	2, 0x05ec
    10e0:	0000                	.insn	2, 0x0000
    10e2:	a102                	.insn	2, 0xa102
    10e4:	000e                	.insn	2, 0x000e
    10e6:	0000                	.insn	2, 0x0000
    10e8:	0006                	.insn	2, 0x0006
    10ea:	0200                	.insn	2, 0x0200
    10ec:	0e95                	.insn	2, 0x0e95
    10ee:	0000                	.insn	2, 0x0000
    10f0:	0610                	.insn	2, 0x0610
    10f2:	0000                	.insn	2, 0x0000
    10f4:	0c08                	.insn	2, 0x0c08
    10f6:	0000                	.insn	2, 0x0000
    10f8:	0500                	.insn	2, 0x0500
    10fa:	0eb9                	.insn	2, 0x0eb9
    10fc:	0000                	.insn	2, 0x0000
    10fe:	061d                	.insn	2, 0x061d
    1100:	0000                	.insn	2, 0x0000
    1102:	0000                	.insn	2, 0x0000
    1104:	0b00                	.insn	2, 0x0b00
    1106:	0efe                	.insn	2, 0x0efe
    1108:	0000                	.insn	2, 0x0000
    110a:	089c                	.insn	2, 0x089c
    110c:	8000                	.insn	2, 0x8000
    110e:	0030                	.insn	2, 0x0030
    1110:	0000                	.insn	2, 0x0000
    1112:	9c01                	.insn	2, 0x9c01
    1114:	1109                	.insn	2, 0x1109
    1116:	0000                	.insn	2, 0x0000
    1118:	0926                	.insn	2, 0x0926
    111a:	0e00000f          	fence	ior,unknown
    111e:	00463103          	.insn	4, 0x00463103
    1122:	9480                	.insn	2, 0x9480
    1124:	0801                	.insn	2, 0x0801
    1126:	2941                	.insn	2, 0x2941
    1128:	ff08                	.insn	2, 0xff08
    112a:	9f1a                	.insn	2, 0x9f1a
    112c:	3d00                	.insn	2, 0x3d00
    112e:	0ef4                	.insn	2, 0x0ef4
    1130:	0000                	.insn	2, 0x0000
    1132:	08cc                	.insn	2, 0x08cc
    1134:	8000                	.insn	2, 0x8000
    1136:	0018                	.insn	2, 0x0018
    1138:	0000                	.insn	2, 0x0000
    113a:	9c01                	.insn	2, 0x9c01
    113c:	000ecb0b          	.insn	4, 0x000ecb0b
    1140:	e400                	.insn	2, 0xe400
    1142:	0008                	.insn	2, 0x0008
    1144:	5480                	.insn	2, 0x5480
    1146:	0000                	.insn	2, 0x0000
    1148:	0100                	.insn	2, 0x0100
    114a:	839c                	.insn	2, 0x839c
    114c:	0011                	.insn	2, 0x0011
    114e:	0e00                	.insn	2, 0x0e00
    1150:	0ed6                	.insn	2, 0x0ed6
    1152:	0000                	.insn	2, 0x0000
    1154:	5a01                	.insn	2, 0x5a01
    1156:	e20e                	.insn	2, 0xe20e
    1158:	000e                	.insn	2, 0x000e
    115a:	0100                	.insn	2, 0x0100
    115c:	0d67205b          	.insn	4, 0x0d67205b
    1160:	0000                	.insn	2, 0x0000
    1162:	08e4                	.insn	2, 0x08e4
    1164:	8000                	.insn	2, 0x8000
    1166:	0008                	.insn	2, 0x0008
    1168:	0000                	.insn	2, 0x0000
    116a:	5e080243          	.insn	4, 0x5e080243
    116e:	0011                	.insn	2, 0x0011
    1170:	0200                	.insn	2, 0x0200
    1172:	0d76                	.insn	2, 0x0d76
    1174:	0000                	.insn	2, 0x0000
    1176:	062a                	.insn	2, 0x062a
    1178:	0000                	.insn	2, 0x0000
    117a:	8226                	.insn	2, 0x8226
    117c:	000d                	.insn	2, 0x000d
    117e:	0100                	.insn	2, 0x0100
    1180:	005a                	.insn	2, 0x005a
    1182:	cb3e                	.insn	2, 0xcb3e
    1184:	000e                	.insn	2, 0x000e
    1186:	1000                	.insn	2, 0x1000
    1188:	0009                	.insn	2, 0x0009
    118a:	1c80                	.insn	2, 0x1c80
    118c:	0000                	.insn	2, 0x0000
    118e:	0100                	.insn	2, 0x0100
    1190:	023a                	.insn	2, 0x023a
    1192:	0206                	.insn	2, 0x0206
    1194:	0ed6                	.insn	2, 0x0ed6
    1196:	0000                	.insn	2, 0x0000
    1198:	0636                	.insn	2, 0x0636
    119a:	0000                	.insn	2, 0x0000
    119c:	e202                	.insn	2, 0xe202
    119e:	000e                	.insn	2, 0x000e
    11a0:	4300                	.insn	2, 0x4300
    11a2:	0006                	.insn	2, 0x0006
    11a4:	0000                	.insn	2, 0x0000
    11a6:	0b00                	.insn	2, 0x0b00
    11a8:	0e8a                	.insn	2, 0x0e8a
    11aa:	0000                	.insn	2, 0x0000
    11ac:	0a90                	.insn	2, 0x0a90
    11ae:	8000                	.insn	2, 0x8000
    11b0:	0010                	.insn	2, 0x0010
    11b2:	0000                	.insn	2, 0x0000
    11b4:	9c01                	.insn	2, 0x9c01
    11b6:	000011b7          	lui	gp,0x1
    11ba:	9502                	.insn	2, 0x9502
    11bc:	000e                	.insn	2, 0x000e
    11be:	4f00                	.insn	2, 0x4f00
    11c0:	0006                	.insn	2, 0x0006
    11c2:	0e00                	.insn	2, 0x0e00
    11c4:	0ea1                	.insn	2, 0x0ea1
    11c6:	0000                	.insn	2, 0x0000
    11c8:	5b01                	.insn	2, 0x5b01
    11ca:	ad0e                	.insn	2, 0xad0e
    11cc:	000e                	.insn	2, 0x000e
    11ce:	0100                	.insn	2, 0x0100
    11d0:	055c                	.insn	2, 0x055c
    11d2:	0eb9                	.insn	2, 0x0eb9
    11d4:	0000                	.insn	2, 0x0000
    11d6:	0676                	.insn	2, 0x0676
    11d8:	0000                	.insn	2, 0x0000
    11da:	0b00                	.insn	2, 0x0b00
    11dc:	0e2c                	.insn	2, 0x0e2c
    11de:	0000                	.insn	2, 0x0000
    11e0:	0aa0                	.insn	2, 0x0aa0
    11e2:	8000                	.insn	2, 0x8000
    11e4:	0074                	.insn	2, 0x0074
    11e6:	0000                	.insn	2, 0x0000
    11e8:	9c01                	.insn	2, 0x9c01
    11ea:	1201                	.insn	2, 0x1201
    11ec:	0000                	.insn	2, 0x0000
    11ee:	3702                	.insn	2, 0x3702
    11f0:	000e                	.insn	2, 0x000e
    11f2:	9f00                	.insn	2, 0x9f00
    11f4:	0006                	.insn	2, 0x0006
    11f6:	0200                	.insn	2, 0x0200
    11f8:	00000e43          	.insn	4, 0x0e43
    11fc:	06b9                	.insn	2, 0x06b9
    11fe:	0000                	.insn	2, 0x0000
    1200:	4f02                	.insn	2, 0x4f02
    1202:	000e                	.insn	2, 0x000e
    1204:	d300                	.insn	2, 0xd300
    1206:	0006                	.insn	2, 0x0006
    1208:	0200                	.insn	2, 0x0200
    120a:	00000e5b          	.insn	4, 0x0e5b
    120e:	070a                	.insn	2, 0x070a
    1210:	0000                	.insn	2, 0x0000
    1212:	6705                	.insn	2, 0x6705
    1214:	000e                	.insn	2, 0x000e
    1216:	3000                	.insn	2, 0x3000
    1218:	05000007          	.insn	4, 0x05000007
    121c:	00000e73          	.insn	4, 0x0e73
    1220:	0776                	.insn	2, 0x0776
    1222:	0000                	.insn	2, 0x0000
    1224:	0b00                	.insn	2, 0x0b00
    1226:	0de9                	.insn	2, 0x0de9
    1228:	0000                	.insn	2, 0x0000
    122a:	0b14                	.insn	2, 0x0b14
    122c:	8000                	.insn	2, 0x8000
    122e:	0024                	.insn	2, 0x0024
    1230:	0000                	.insn	2, 0x0000
    1232:	9c01                	.insn	2, 0x9c01
    1234:	00001237          	lui	tp,0x1
    1238:	fb02                	.insn	2, 0xfb02
    123a:	000d                	.insn	2, 0x000d
    123c:	9e00                	.insn	2, 0x9e00
    123e:	0e000007          	.insn	4, 0x0e000007
    1242:	00000e07          	.insn	4, 0x0e07
    1246:	5b01                	.insn	2, 0x5b01
    1248:	1305                	.insn	2, 0x1305
    124a:	000e                	.insn	2, 0x000e
    124c:	b800                	.insn	2, 0xb800
    124e:	05000007          	.insn	4, 0x05000007
    1252:	0e1f 0000 07ec      	.insn	6, 0x07ec00000e1f
    1258:	0000                	.insn	2, 0x0000
    125a:	0b00                	.insn	2, 0x0b00
    125c:	00000d8f          	.insn	4, 0x0d8f
    1260:	0b38                	.insn	2, 0x0b38
    1262:	8000                	.insn	2, 0x8000
    1264:	0060                	.insn	2, 0x0060
    1266:	0000                	.insn	2, 0x0000
    1268:	9c01                	.insn	2, 0x9c01
    126a:	12b8                	.insn	2, 0x12b8
    126c:	0000                	.insn	2, 0x0000
    126e:	9e02                	.insn	2, 0x9e02
    1270:	000d                	.insn	2, 0x000d
    1272:	2000                	.insn	2, 0x2000
    1274:	0008                	.insn	2, 0x0008
    1276:	0200                	.insn	2, 0x0200
    1278:	0daa                	.insn	2, 0x0daa
    127a:	0000                	.insn	2, 0x0000
    127c:	0845                	.insn	2, 0x0845
    127e:	0000                	.insn	2, 0x0000
    1280:	b605                	.insn	2, 0xb605
    1282:	000d                	.insn	2, 0x000d
    1284:	6a00                	.insn	2, 0x6a00
    1286:	0008                	.insn	2, 0x0008
    1288:	1a00                	.insn	2, 0x1a00
    128a:	0dc2                	.insn	2, 0x0dc2
    128c:	0000                	.insn	2, 0x0000
    128e:	0441                	.insn	2, 0x0441
    1290:	0de9                	.insn	2, 0x0de9
    1292:	0000                	.insn	2, 0x0000
    1294:	0b50                	.insn	2, 0x0b50
    1296:	8000                	.insn	2, 0x8000
    1298:	006a                	.insn	2, 0x006a
    129a:	0000                	.insn	2, 0x0000
    129c:	aa0902a3          	sb	zero,-1371(s2)
    12a0:	0012                	.insn	2, 0x0012
    12a2:	0200                	.insn	2, 0x0200
    12a4:	00000e07          	.insn	4, 0x0e07
    12a8:	0000089b          	.insn	4, 0x089b
    12ac:	fb02                	.insn	2, 0xfb02
    12ae:	000d                	.insn	2, 0x000d
    12b0:	b400                	.insn	2, 0xb400
    12b2:	0008                	.insn	2, 0x0008
    12b4:	0800                	.insn	2, 0x0800
    12b6:	006a                	.insn	2, 0x006a
    12b8:	0000                	.insn	2, 0x0000
    12ba:	1305                	.insn	2, 0x1305
    12bc:	000e                	.insn	2, 0x000e
    12be:	cd00                	.insn	2, 0xcd00
    12c0:	0008                	.insn	2, 0x0008
    12c2:	0500                	.insn	2, 0x0500
    12c4:	0e1f 0000 08cd      	.insn	6, 0x08cd00000e1f
    12ca:	0000                	.insn	2, 0x0000
    12cc:	0000                	.insn	2, 0x0000
    12ce:	000dce3f 000b6000 	.insn	8, 0x000b6000000dce3f
    12d6:	1c80                	.insn	2, 0x1c80
    12d8:	0000                	.insn	2, 0x0000
    12da:	0000                	.insn	2, 0x0000
    12dc:	000d670b          	.insn	4, 0x000d670b
    12e0:	9800                	.insn	2, 0x9800
    12e2:	0c80000b          	.insn	4, 0x0c80000b
    12e6:	0000                	.insn	2, 0x0000
    12e8:	0100                	.insn	2, 0x0100
    12ea:	de9c                	.insn	2, 0xde9c
    12ec:	0012                	.insn	2, 0x0012
    12ee:	0200                	.insn	2, 0x0200
    12f0:	0d76                	.insn	2, 0x0d76
    12f2:	0000                	.insn	2, 0x0000
    12f4:	08e6                	.insn	2, 0x08e6
    12f6:	0000                	.insn	2, 0x0000
    12f8:	8205                	.insn	2, 0x8205
    12fa:	000d                	.insn	2, 0x000d
    12fc:	0d00                	.insn	2, 0x0d00
    12fe:	0009                	.insn	2, 0x0009
    1300:	0000                	.insn	2, 0x0000
    1302:	000d4b0b          	.insn	4, 0x000d4b0b
    1306:	a400                	.insn	2, 0xa400
    1308:	1080000b          	.insn	4, 0x1080000b
    130c:	0000                	.insn	2, 0x0000
    130e:	0100                	.insn	2, 0x0100
    1310:	f99c                	.insn	2, 0xf99c
    1312:	0012                	.insn	2, 0x0012
    1314:	0e00                	.insn	2, 0x0e00
    1316:	0d5a                	.insn	2, 0x0d5a
    1318:	0000                	.insn	2, 0x0000
    131a:	5a01                	.insn	2, 0x5a01
    131c:	2700                	.insn	2, 0x2700
    131e:	0396                	.insn	2, 0x0396
    1320:	0000                	.insn	2, 0x0000
    1322:	0396                	.insn	2, 0x0396
    1324:	0000                	.insn	2, 0x0000
    1326:	0000d927          	.insn	4, 0xd927
    132a:	cf00                	.insn	2, 0xcf00
    132c:	0000                	.insn	2, 0x0000
    132e:	4000                	.insn	2, 0x4000
    1330:	0328                	.insn	2, 0x0328
    1332:	0000                	.insn	2, 0x0000
    1334:	0328                	.insn	2, 0x0328
    1336:	0000                	.insn	2, 0x0000
    1338:	e000                	.insn	2, 0xe000
    133a:	0004                	.insn	2, 0x0004
    133c:	0500                	.insn	2, 0x0500
    133e:	0100                	.insn	2, 0x0100
    1340:	be04                	.insn	2, 0xbe04
    1342:	11000003          	lb	zero,272(zero) # 110 <__stack_size-0x1fffef0>
    1346:	0244                	.insn	2, 0x0244
    1348:	0000                	.insn	2, 0x0000
    134a:	741d                	.insn	2, 0x741d
    134c:	0000                	.insn	2, 0x0000
    134e:	8800                	.insn	2, 0x8800
    1350:	0000                	.insn	2, 0x0000
    1352:	b400                	.insn	2, 0xb400
    1354:	e080000b          	.insn	4, 0xe080000b
    1358:	0006                	.insn	2, 0x0006
    135a:	2100                	.insn	2, 0x2100
    135c:	0016                	.insn	2, 0x0016
    135e:	1200                	.insn	2, 0x1200
    1360:	0031                	.insn	2, 0x0031
    1362:	0000                	.insn	2, 0x0000
    1364:	00003113          	sltiu	sp,zero,0
    1368:	0000                	.insn	2, 0x0000
    136a:	dc080107          	.insn	4, 0xdc080107
    136e:	0001                	.insn	2, 0x0001
    1370:	1400                	.insn	2, 0x1400
    1372:	049e                	.insn	2, 0x049e
    1374:	0000                	.insn	2, 0x0000
    1376:	440f0b03          	lb	s6,1088(t5)
    137a:	0000                	.insn	2, 0x0000
    137c:	0b00                	.insn	2, 0x0b00
    137e:	0026                	.insn	2, 0x0026
    1380:	0000                	.insn	2, 0x0000
    1382:	8f0c                	.insn	2, 0x8f0c
    1384:	0004                	.insn	2, 0x0004
    1386:	2800                	.insn	2, 0x2800
    1388:	0000541b          	.insn	4, 0x541b
    138c:	1500                	.insn	2, 0x1500
    138e:	5104                	.insn	2, 0x5104
    1390:	0004                	.insn	2, 0x0004
    1392:	0c00                	.insn	2, 0x0c00
    1394:	0496                	.insn	2, 0x0496
    1396:	0000                	.insn	2, 0x0000
    1398:	00491863          	bne	s2,tp,13a8 <__stack_size-0x1ffec58>
    139c:	0000                	.insn	2, 0x0000
    139e:	3816                	.insn	2, 0x3816
    13a0:	0000                	.insn	2, 0x0000
    13a2:	0100                	.insn	2, 0x0100
    13a4:	03050813          	addi	a6,a0,48
    13a8:	4648                	.insn	2, 0x4648
    13aa:	8000                	.insn	2, 0x8000
    13ac:	00047f17          	auipc	t5,0x47
    13b0:	0100                	.insn	2, 0x0100
    13b2:	0e14                	.insn	2, 0x0e14
    13b4:	0085                	.insn	2, 0x0085
    13b6:	0000                	.insn	2, 0x0000
    13b8:	0305                	.insn	2, 0x0305
    13ba:	4644                	.insn	2, 0x4644
    13bc:	8000                	.insn	2, 0x8000
    13be:	00008a0b          	.insn	4, 0x8a0b
    13c2:	0700                	.insn	2, 0x0700
    13c4:	0801                	.insn	2, 0x0801
    13c6:	01e5                	.insn	2, 0x01e5
    13c8:	0000                	.insn	2, 0x0000
    13ca:	8a18                	.insn	2, 0x8a18
    13cc:	0000                	.insn	2, 0x0000
    13ce:	1900                	.insn	2, 0x1900
    13d0:	02f6                	.insn	2, 0x02f6
    13d2:	0000                	.insn	2, 0x0000
    13d4:	9201                	.insn	2, 0x9201
    13d6:	5c06                	.insn	2, 0x5c06
    13d8:	000c                	.insn	2, 0x000c
    13da:	3880                	.insn	2, 0x3880
    13dc:	0006                	.insn	2, 0x0006
    13de:	0100                	.insn	2, 0x0100
    13e0:	839c                	.insn	2, 0x839c
    13e2:	1a000003          	lb	zero,416(zero) # 1a0 <__stack_size-0x1fffe60>
    13e6:	6d66                	.insn	2, 0x6d66
    13e8:	0074                	.insn	2, 0x0074
    13ea:	9301                	.insn	2, 0x9301
    13ec:	830e                	.insn	2, 0x830e
    13ee:	40000003          	lb	zero,1024(zero) # 400 <__stack_size-0x1fffc00>
    13f2:	0009                	.insn	2, 0x0009
    13f4:	1b00                	.insn	2, 0x1b00
    13f6:	611c                	.insn	2, 0x611c
    13f8:	7072                	.insn	2, 0x7072
    13fa:	0100                	.insn	2, 0x0100
    13fc:	005a0a97          	auipc	s5,0x5a0
    1400:	0000                	.insn	2, 0x0000
    1402:	7f8c9103          	lh	sp,2040(s9)
    1406:	8805                	.insn	2, 0x8805
    1408:	b4000003          	lb	zero,-1216(zero) # fffffb40 <_sp+0x77fffb40>
    140c:	000c                	.insn	2, 0x000c
    140e:	6e80                	.insn	2, 0x6e80
    1410:	9b000003          	lb	zero,-1616(zero) # fffff9b0 <_sp+0x77fff9b0>
    1414:	0102                	.insn	2, 0x0102
    1416:	03a0                	.insn	2, 0x03a0
    1418:	0000                	.insn	2, 0x0000
    141a:	0965                	.insn	2, 0x0965
    141c:	0000                	.insn	2, 0x0000
    141e:	9501                	.insn	2, 0x9501
    1420:	4c000003          	lb	zero,1216(zero) # 4c0 <__stack_size-0x1fffb40>
    1424:	000a                	.insn	2, 0x000a
    1426:	1d00                	.insn	2, 0x1d00
    1428:	036e                	.insn	2, 0x036e
    142a:	0000                	.insn	2, 0x0000
    142c:	ab04                	.insn	2, 0xab04
    142e:	14000003          	lb	zero,320(zero) # 140 <__stack_size-0x1fffec0>
    1432:	0400000b          	.insn	4, 0x0400000b
    1436:	03b4                	.insn	2, 0x03b4
    1438:	0000                	.insn	2, 0x0000
    143a:	0b69                	.insn	2, 0x0b69
    143c:	0000                	.insn	2, 0x0000
    143e:	bd04                	.insn	2, 0xbd04
    1440:	0d000003          	lb	zero,208(zero) # d0 <__stack_size-0x1ffff30>
    1444:	000c                	.insn	2, 0x000c
    1446:	0400                	.insn	2, 0x0400
    1448:	03c6                	.insn	2, 0x03c6
    144a:	0000                	.insn	2, 0x0000
    144c:	0d4a                	.insn	2, 0x0d4a
    144e:	0000                	.insn	2, 0x0000
    1450:	cf04                	.insn	2, 0xcf04
    1452:	62000003          	lb	zero,1568(zero) # 620 <__stack_size-0x1fff9e0>
    1456:	000d                	.insn	2, 0x000d
    1458:	0400                	.insn	2, 0x0400
    145a:	03d8                	.insn	2, 0x03d8
    145c:	0000                	.insn	2, 0x0000
    145e:	0dd4                	.insn	2, 0x0dd4
    1460:	0000                	.insn	2, 0x0000
    1462:	e10d                	.insn	2, 0xe10d
    1464:	03000003          	lb	zero,48(zero) # 30 <__stack_size-0x1ffffd0>
    1468:	9091                	.insn	2, 0x9091
    146a:	047f 03ea 0000 0e43 	.insn	10, 0x0e43000003ea047f
    1472:	0000 
    1474:	f304                	.insn	2, 0xf304
    1476:	bd000003          	lb	zero,-1072(zero) # fffffbd0 <_sp+0x77fffbd0>
    147a:	000e                	.insn	2, 0x000e
    147c:	0d00                	.insn	2, 0x0d00
    147e:	03fc                	.insn	2, 0x03fc
    1480:	0000                	.insn	2, 0x0000
    1482:	5801                	.insn	2, 0x5801
    1484:	00043a03          	.insn	4, 0x00043a03
    1488:	d400                	.insn	2, 0xd400
    148a:	000c                	.insn	2, 0x000c
    148c:	8a80                	.insn	2, 0x8a80
    148e:	7b000003          	lb	zero,1968(zero) # 7b0 <__stack_size-0x1fff850>
    1492:	8104                	.insn	2, 0x8104
    1494:	0001                	.insn	2, 0x0001
    1496:	0100                	.insn	2, 0x0100
    1498:	0444                	.insn	2, 0x0444
    149a:	0000                	.insn	2, 0x0000
    149c:	0f58                	.insn	2, 0x0f58
    149e:	0000                	.insn	2, 0x0000
    14a0:	3a05                	.insn	2, 0x3a05
    14a2:	0004                	.insn	2, 0x0004
    14a4:	d800                	.insn	2, 0xd800
    14a6:	000c                	.insn	2, 0x000c
    14a8:	af80                	.insn	2, 0xaf80
    14aa:	1a000003          	lb	zero,416(zero) # 1a0 <__stack_size-0x1fffe60>
    14ae:	0106                	.insn	2, 0x0106
    14b0:	0444                	.insn	2, 0x0444
    14b2:	0000                	.insn	2, 0x0000
    14b4:	00000f6f          	jal	t5,14b4 <__stack_size-0x1ffeb4c>
    14b8:	0000                	.insn	2, 0x0000
    14ba:	00043a03          	.insn	4, 0x00043a03
    14be:	ec00                	.insn	2, 0xec00
    14c0:	000c                	.insn	2, 0x000c
    14c2:	cb80                	.insn	2, 0xcb80
    14c4:	54000003          	lb	zero,1344(zero) # 540 <__stack_size-0x1fffac0>
    14c8:	b504                	.insn	2, 0xb504
    14ca:	0001                	.insn	2, 0x0001
    14cc:	0100                	.insn	2, 0x0100
    14ce:	0444                	.insn	2, 0x0444
    14d0:	0000                	.insn	2, 0x0000
    14d2:	00000f7b          	.insn	4, 0x0f7b
    14d6:	3a06                	.insn	2, 0x3a06
    14d8:	0004                	.insn	2, 0x0004
    14da:	9c00                	.insn	2, 0x9c00
    14dc:	0011                	.insn	2, 0x0011
    14de:	0c80                	.insn	2, 0x0c80
    14e0:	0000                	.insn	2, 0x0000
    14e2:	0100                	.insn	2, 0x0100
    14e4:	0444                	.insn	2, 0x0444
    14e6:	0000                	.insn	2, 0x0000
    14e8:	0f92                	.insn	2, 0x0f92
    14ea:	0000                	.insn	2, 0x0000
    14ec:	0000                	.insn	2, 0x0000
    14ee:	00043a03          	.insn	4, 0x00043a03
    14f2:	6400                	.insn	2, 0x6400
    14f4:	000e                	.insn	2, 0x000e
    14f6:	e780                	.insn	2, 0xe780
    14f8:	70000003          	lb	zero,1792(zero) # 700 <__stack_size-0x1fff900>
    14fc:	eb04                	.insn	2, 0xeb04
    14fe:	0001                	.insn	2, 0x0001
    1500:	0100                	.insn	2, 0x0100
    1502:	0444                	.insn	2, 0x0444
    1504:	0000                	.insn	2, 0x0000
    1506:	0f9e                	.insn	2, 0x0f9e
    1508:	0000                	.insn	2, 0x0000
    150a:	3a05                	.insn	2, 0x3a05
    150c:	0004                	.insn	2, 0x0004
    150e:	d000                	.insn	2, 0xd000
    1510:	0011                	.insn	2, 0x0011
    1512:	1580                	.insn	2, 0x1580
    1514:	0004                	.insn	2, 0x0004
    1516:	1a00                	.insn	2, 0x1a00
    1518:	0106                	.insn	2, 0x0106
    151a:	0444                	.insn	2, 0x0444
    151c:	0000                	.insn	2, 0x0000
    151e:	0fb5                	.insn	2, 0x0fb5
    1520:	0000                	.insn	2, 0x0000
    1522:	0000                	.insn	2, 0x0000
    1524:	00043a03          	.insn	4, 0x00043a03
    1528:	d000                	.insn	2, 0xd000
    152a:	000e                	.insn	2, 0x000e
    152c:	2880                	.insn	2, 0x2880
    152e:	0004                	.insn	2, 0x0004
    1530:	6b00                	.insn	2, 0x6b00
    1532:	2b20                	.insn	2, 0x2b20
    1534:	0002                	.insn	2, 0x0002
    1536:	0100                	.insn	2, 0x0100
    1538:	0444                	.insn	2, 0x0444
    153a:	0000                	.insn	2, 0x0000
    153c:	0fc1                	.insn	2, 0x0fc1
    153e:	0000                	.insn	2, 0x0000
    1540:	3a06                	.insn	2, 0x3a06
    1542:	0004                	.insn	2, 0x0004
    1544:	f400                	.insn	2, 0xf400
    1546:	000e                	.insn	2, 0x000e
    1548:	1080                	.insn	2, 0x1080
    154a:	0000                	.insn	2, 0x0000
    154c:	0100                	.insn	2, 0x0100
    154e:	0444                	.insn	2, 0x0444
    1550:	0000                	.insn	2, 0x0000
    1552:	0fdc                	.insn	2, 0x0fdc
    1554:	0000                	.insn	2, 0x0000
    1556:	0408                	.insn	2, 0x0408
    1558:	0980000f          	fence	iw,i
    155c:	5a01                	.insn	2, 0x5a01
    155e:	0802                	.insn	2, 0x0802
    1560:	0020                	.insn	2, 0x0020
    1562:	0000                	.insn	2, 0x0000
    1564:	00042403          	lw	s0,0(s0)
    1568:	1400                	.insn	2, 0x1400
    156a:	3b80000f          	.insn	4, 0x3b80000f
    156e:	0004                	.insn	2, 0x0004
    1570:	6c00                	.insn	2, 0x6c00
    1572:	7804                	.insn	2, 0x7804
    1574:	0002                	.insn	2, 0x0002
    1576:	0100                	.insn	2, 0x0100
    1578:	042e                	.insn	2, 0x042e
    157a:	0000                	.insn	2, 0x0000
    157c:	0fea                	.insn	2, 0x0fea
    157e:	0000                	.insn	2, 0x0000
    1580:	3a05                	.insn	2, 0x3a05
    1582:	0004                	.insn	2, 0x0004
    1584:	7400                	.insn	2, 0x7400
    1586:	6980000f          	.insn	4, 0x6980000f
    158a:	0004                	.insn	2, 0x0004
    158c:	3000                	.insn	2, 0x3000
    158e:	04440103          	lb	sp,68(s0)
    1592:	0000                	.insn	2, 0x0000
    1594:	100c                	.insn	2, 0x100c
    1596:	0000                	.insn	2, 0x0000
    1598:	3a06                	.insn	2, 0x3a06
    159a:	0004                	.insn	2, 0x0004
    159c:	9400                	.insn	2, 0x9400
    159e:	1080000f          	.insn	4, 0x1080000f
    15a2:	0000                	.insn	2, 0x0000
    15a4:	0100                	.insn	2, 0x0100
    15a6:	0444                	.insn	2, 0x0444
    15a8:	0000                	.insn	2, 0x0000
    15aa:	00001023          	sh	zero,0(zero) # 0 <__stack_size-0x2000000>
    15ae:	0000                	.insn	2, 0x0000
    15b0:	0300                	.insn	2, 0x0300
    15b2:	043a                	.insn	2, 0x043a
    15b4:	0000                	.insn	2, 0x0000
    15b6:	0f30                	.insn	2, 0x0f30
    15b8:	8000                	.insn	2, 0x8000
    15ba:	0485                	.insn	2, 0x0485
    15bc:	0000                	.insn	2, 0x0000
    15be:	146d                	.insn	2, 0x146d
    15c0:	02b8                	.insn	2, 0x02b8
    15c2:	0000                	.insn	2, 0x0000
    15c4:	4401                	.insn	2, 0x4401
    15c6:	0004                	.insn	2, 0x0004
    15c8:	2f00                	.insn	2, 0x2f00
    15ca:	0010                	.insn	2, 0x0010
    15cc:	0600                	.insn	2, 0x0600
    15ce:	043a                	.insn	2, 0x043a
    15d0:	0000                	.insn	2, 0x0000
    15d2:	0f54                	.insn	2, 0x0f54
    15d4:	8000                	.insn	2, 0x8000
    15d6:	0010                	.insn	2, 0x0010
    15d8:	0000                	.insn	2, 0x0000
    15da:	4401                	.insn	2, 0x4401
    15dc:	0004                	.insn	2, 0x0004
    15de:	4a00                	.insn	2, 0x4a00
    15e0:	0010                	.insn	2, 0x0010
    15e2:	0800                	.insn	2, 0x0800
    15e4:	0f64                	.insn	2, 0x0f64
    15e6:	8000                	.insn	2, 0x8000
    15e8:	0109                	.insn	2, 0x0109
    15ea:	025a                	.insn	2, 0x025a
    15ec:	2008                	.insn	2, 0x2008
    15ee:	0000                	.insn	2, 0x0000
    15f0:	0300                	.insn	2, 0x0300
    15f2:	043a                	.insn	2, 0x043a
    15f4:	0000                	.insn	2, 0x0000
    15f6:	1084                	.insn	2, 0x1084
    15f8:	8000                	.insn	2, 0x8000
    15fa:	0498                	.insn	2, 0x0498
    15fc:	0000                	.insn	2, 0x0000
    15fe:	1f8c                	.insn	2, 0x1f8c
    1600:	02f8                	.insn	2, 0x02f8
    1602:	0000                	.insn	2, 0x0000
    1604:	4401                	.insn	2, 0x4401
    1606:	0004                	.insn	2, 0x0004
    1608:	5800                	.insn	2, 0x5800
    160a:	0010                	.insn	2, 0x0010
    160c:	0600                	.insn	2, 0x0600
    160e:	043a                	.insn	2, 0x043a
    1610:	0000                	.insn	2, 0x0000
    1612:	1130                	.insn	2, 0x1130
    1614:	8000                	.insn	2, 0x8000
    1616:	0010                	.insn	2, 0x0010
    1618:	0000                	.insn	2, 0x0000
    161a:	4401                	.insn	2, 0x4401
    161c:	0004                	.insn	2, 0x0004
    161e:	6400                	.insn	2, 0x6400
    1620:	0010                	.insn	2, 0x0010
    1622:	0800                	.insn	2, 0x0800
    1624:	1140                	.insn	2, 0x1140
    1626:	8000                	.insn	2, 0x8000
    1628:	0109                	.insn	2, 0x0109
    162a:	025a                	.insn	2, 0x025a
    162c:	008a                	.insn	2, 0x008a
    162e:	0000                	.insn	2, 0x0000
    1630:	0300                	.insn	2, 0x0300
    1632:	043a                	.insn	2, 0x043a
    1634:	0000                	.insn	2, 0x0000
    1636:	10ac                	.insn	2, 0x10ac
    1638:	8000                	.insn	2, 0x8000
    163a:	000004ab          	.insn	4, 0x04ab
    163e:	068d                	.insn	2, 0x068d
    1640:	032e                	.insn	2, 0x032e
    1642:	0000                	.insn	2, 0x0000
    1644:	4401                	.insn	2, 0x4401
    1646:	0004                	.insn	2, 0x0004
    1648:	7000                	.insn	2, 0x7000
    164a:	0010                	.insn	2, 0x0010
    164c:	0500                	.insn	2, 0x0500
    164e:	043a                	.insn	2, 0x043a
    1650:	0000                	.insn	2, 0x0000
    1652:	10cc                	.insn	2, 0x10cc
    1654:	8000                	.insn	2, 0x8000
    1656:	04d0                	.insn	2, 0x04d0
    1658:	0000                	.insn	2, 0x0000
    165a:	061a                	.insn	2, 0x061a
    165c:	4401                	.insn	2, 0x4401
    165e:	0004                	.insn	2, 0x0004
    1660:	8700                	.insn	2, 0x8700
    1662:	0010                	.insn	2, 0x0010
    1664:	0000                	.insn	2, 0x0000
    1666:	0300                	.insn	2, 0x0300
    1668:	043a                	.insn	2, 0x043a
    166a:	0000                	.insn	2, 0x0000
    166c:	10c0                	.insn	2, 0x10c0
    166e:	8000                	.insn	2, 0x8000
    1670:	000004e3          	beq	zero,zero,1e78 <__stack_size-0x1ffe188>
    1674:	138e                	.insn	2, 0x138e
    1676:	036e                	.insn	2, 0x036e
    1678:	0000                	.insn	2, 0x0000
    167a:	4401                	.insn	2, 0x4401
    167c:	0004                	.insn	2, 0x0004
    167e:	9300                	.insn	2, 0x9300
    1680:	0010                	.insn	2, 0x0010
    1682:	0600                	.insn	2, 0x0600
    1684:	043a                	.insn	2, 0x043a
    1686:	0000                	.insn	2, 0x0000
    1688:	1110                	.insn	2, 0x1110
    168a:	8000                	.insn	2, 0x8000
    168c:	0014                	.insn	2, 0x0014
    168e:	0000                	.insn	2, 0x0000
    1690:	4401                	.insn	2, 0x4401
    1692:	0004                	.insn	2, 0x0004
    1694:	ae00                	.insn	2, 0xae00
    1696:	0010                	.insn	2, 0x0010
    1698:	0800                	.insn	2, 0x0800
    169a:	1120                	.insn	2, 0x1120
    169c:	8000                	.insn	2, 0x8000
    169e:	0109                	.insn	2, 0x0109
    16a0:	025a                	.insn	2, 0x025a
    16a2:	2008                	.insn	2, 0x2008
    16a4:	0000                	.insn	2, 0x0000
    16a6:	0e00                	.insn	2, 0x0e00
    16a8:	0ff8                	.insn	2, 0x0ff8
    16aa:	8000                	.insn	2, 0x8000
    16ac:	04d1                	.insn	2, 0x04d1
    16ae:	0000                	.insn	2, 0x0000
    16b0:	080e                	.insn	2, 0x080e
    16b2:	0010                	.insn	2, 0x0010
    16b4:	da80                	.insn	2, 0xda80
    16b6:	0004                	.insn	2, 0x0004
    16b8:	0000                	.insn	2, 0x0000
    16ba:	0000                	.insn	2, 0x0000
    16bc:	0000910b          	.insn	4, 0x910b
    16c0:	1e00                	.insn	2, 0x1e00
    16c2:	0486                	.insn	2, 0x0486
    16c4:	0000                	.insn	2, 0x0000
    16c6:	4601                	.insn	2, 0x4601
    16c8:	0106                	.insn	2, 0x0106
    16ca:	0406                	.insn	2, 0x0406
    16cc:	0000                	.insn	2, 0x0000
    16ce:	660a                	.insn	2, 0x660a
    16d0:	746d                	.insn	2, 0x746d
    16d2:	4700                	.insn	2, 0x4700
    16d4:	830e                	.insn	2, 0x830e
    16d6:	0a000003          	lb	zero,160(zero) # a0 <__stack_size-0x1ffff60>
    16da:	7261                	.insn	2, 0x7261
    16dc:	0070                	.insn	2, 0x0070
    16de:	0a48                	.insn	2, 0x0a48
    16e0:	005a                	.insn	2, 0x005a
    16e2:	0000                	.insn	2, 0x0000
    16e4:	7202                	.insn	2, 0x7202
    16e6:	4b00                	.insn	2, 0x4b00
    16e8:	0004060f          	.insn	4, 0x0004060f
    16ec:	0200                	.insn	2, 0x0200
    16ee:	0069                	.insn	2, 0x0069
    16f0:	0406124b          	.insn	4, 0x0406124b
    16f4:	0000                	.insn	2, 0x0000
    16f6:	6a02                	.insn	2, 0x6a02
    16f8:	4b00                	.insn	2, 0x4b00
    16fa:	0615                	.insn	2, 0x0615
    16fc:	0004                	.insn	2, 0x0004
    16fe:	0200                	.insn	2, 0x0200
    1700:	184b0077          	.insn	4, 0x184b0077
    1704:	0406                	.insn	2, 0x0406
    1706:	0000                	.insn	2, 0x0000
    1708:	6602                	.insn	2, 0x6602
    170a:	4b00                	.insn	2, 0x4b00
    170c:	0004061b          	.insn	4, 0x0004061b
    1710:	0200                	.insn	2, 0x0200
    1712:	0076                	.insn	2, 0x0076
    1714:	104c                	.insn	2, 0x104c
    1716:	040d                	.insn	2, 0x040d
    1718:	0000                	.insn	2, 0x0000
    171a:	7302                	.insn	2, 0x7302
    171c:	4d00                	.insn	2, 0x4d00
    171e:	00041407          	.insn	4, 0x00041407
    1722:	0200                	.insn	2, 0x0200
    1724:	0e4d0063          	beq	s10,tp,1804 <__stack_size-0x1ffe7fc>
    1728:	008a                	.insn	2, 0x008a
    172a:	0000                	.insn	2, 0x0000
    172c:	6402                	.insn	2, 0x6402
    172e:	4d00                	.insn	2, 0x4d00
    1730:	8a11                	.insn	2, 0x8a11
    1732:	0000                	.insn	2, 0x0000
    1734:	0200                	.insn	2, 0x0200
    1736:	0070                	.insn	2, 0x0070
    1738:	154d                	.insn	2, 0x154d
    173a:	0085                	.insn	2, 0x0085
    173c:	0000                	.insn	2, 0x0000
    173e:	0700                	.insn	2, 0x0700
    1740:	0704                	.insn	2, 0x0704
    1742:	0468                	.insn	2, 0x0468
    1744:	0000                	.insn	2, 0x0000
    1746:	63070407          	.insn	4, 0x63070407
    174a:	0004                	.insn	2, 0x0004
    174c:	1f00                	.insn	2, 0x1f00
    174e:	008a                	.insn	2, 0x008a
    1750:	0000                	.insn	2, 0x0000
    1752:	0424                	.insn	2, 0x0424
    1754:	0000                	.insn	2, 0x0000
    1756:	0620                	.insn	2, 0x0620
    1758:	0004                	.insn	2, 0x0004
    175a:	0f00                	.insn	2, 0x0f00
    175c:	0f00                	.insn	2, 0x0f00
    175e:	04a8                	.insn	2, 0x04a8
    1760:	0000                	.insn	2, 0x0000
    1762:	00043a2b          	.insn	4, 0x00043a2b
    1766:	0a00                	.insn	2, 0x0a00
    1768:	00727473          	.insn	4, 0x00727473
    176c:	0e2c                	.insn	2, 0x0e2c
    176e:	00000383          	lb	t2,0(zero) # 0 <__stack_size-0x2000000>
    1772:	0f00                	.insn	2, 0x0f00
    1774:	04ae                	.insn	2, 0x04ae
    1776:	0000                	.insn	2, 0x0000
    1778:	4e1a                	.insn	2, 0x4e1a
    177a:	0004                	.insn	2, 0x0004
    177c:	0a00                	.insn	2, 0x0a00
    177e:	121a0063          	beq	s4,ra,189e <__stack_size-0x1ffe762>
    1782:	008a                	.insn	2, 0x008a
    1784:	0000                	.insn	2, 0x0000
    1786:	2100                	.insn	2, 0x2100
    1788:	043a                	.insn	2, 0x043a
    178a:	0000                	.insn	2, 0x0000
    178c:	0bb4                	.insn	2, 0x0bb4
    178e:	8000                	.insn	2, 0x8000
    1790:	0030                	.insn	2, 0x0030
    1792:	0000                	.insn	2, 0x0000
    1794:	9c01                	.insn	2, 0x9c01
    1796:	0482                	.insn	2, 0x0482
    1798:	0000                	.insn	2, 0x0000
    179a:	4401                	.insn	2, 0x4401
    179c:	0004                	.insn	2, 0x0004
    179e:	bc00                	.insn	2, 0xbc00
    17a0:	0010                	.insn	2, 0x0010
    17a2:	0600                	.insn	2, 0x0600
    17a4:	043a                	.insn	2, 0x043a
    17a6:	0000                	.insn	2, 0x0000
    17a8:	0bd0                	.insn	2, 0x0bd0
    17aa:	8000                	.insn	2, 0x8000
    17ac:	0010                	.insn	2, 0x0010
    17ae:	0000                	.insn	2, 0x0000
    17b0:	4401                	.insn	2, 0x4401
    17b2:	0004                	.insn	2, 0x0004
    17b4:	e100                	.insn	2, 0xe100
    17b6:	0010                	.insn	2, 0x0010
    17b8:	0000                	.insn	2, 0x0000
    17ba:	2200                	.insn	2, 0x2200
    17bc:	0424                	.insn	2, 0x0424
    17be:	0000                	.insn	2, 0x0000
    17c0:	0be4                	.insn	2, 0x0be4
    17c2:	8000                	.insn	2, 0x8000
    17c4:	0078                	.insn	2, 0x0078
    17c6:	0000                	.insn	2, 0x0000
    17c8:	9c01                	.insn	2, 0x9c01
    17ca:	04d1                	.insn	2, 0x04d1
    17cc:	0000                	.insn	2, 0x0000
    17ce:	2e01                	.insn	2, 0x2e01
    17d0:	0004                	.insn	2, 0x0004
    17d2:	f800                	.insn	2, 0xf800
    17d4:	0010                	.insn	2, 0x0010
    17d6:	0500                	.insn	2, 0x0500
    17d8:	043a                	.insn	2, 0x043a
    17da:	0000                	.insn	2, 0x0000
    17dc:	0c08                	.insn	2, 0x0c08
    17de:	8000                	.insn	2, 0x8000
    17e0:	0336                	.insn	2, 0x0336
    17e2:	0000                	.insn	2, 0x0000
    17e4:	0330                	.insn	2, 0x0330
    17e6:	4401                	.insn	2, 0x4401
    17e8:	0004                	.insn	2, 0x0004
    17ea:	0f00                	.insn	2, 0x0f00
    17ec:	0011                	.insn	2, 0x0011
    17ee:	0500                	.insn	2, 0x0500
    17f0:	043a                	.insn	2, 0x043a
    17f2:	0000                	.insn	2, 0x0000
    17f4:	0c08                	.insn	2, 0x0c08
    17f6:	8000                	.insn	2, 0x8000
    17f8:	0352                	.insn	2, 0x0352
    17fa:	0000                	.insn	2, 0x0000
    17fc:	061a                	.insn	2, 0x061a
    17fe:	4401                	.insn	2, 0x4401
    1800:	0004                	.insn	2, 0x0004
    1802:	2600                	.insn	2, 0x2600
    1804:	0011                	.insn	2, 0x0011
    1806:	0000                	.insn	2, 0x0000
    1808:	0000                	.insn	2, 0x0000
    180a:	7510                	.insn	2, 0x7510
    180c:	0004                	.insn	2, 0x0004
    180e:	7500                	.insn	2, 0x7500
    1810:	0004                	.insn	2, 0x0004
    1812:	1000                	.insn	2, 0x1000
    1814:	0546                	.insn	2, 0x0546
    1816:	0000                	.insn	2, 0x0000
    1818:	0546                	.insn	2, 0x0546
    181a:	0000                	.insn	2, 0x0000
    181c:	5b00                	.insn	2, 0x5b00
    181e:	0000                	.insn	2, 0x0000
    1820:	0500                	.insn	2, 0x0500
    1822:	0100                	.insn	2, 0x0100
    1824:	8b04                	.insn	2, 0x8b04
    1826:	0005                	.insn	2, 0x0005
    1828:	0100                	.insn	2, 0x0100
    182a:	23bc                	.insn	2, 0x23bc
    182c:	0000                	.insn	2, 0x0000
    182e:	1294                	.insn	2, 0x1294
    1830:	8000                	.insn	2, 0x8000
    1832:	01b4                	.insn	2, 0x01b4
    1834:	04b4                	.insn	2, 0x04b4
    1836:	0000                	.insn	2, 0x0000
    1838:	04dd                	.insn	2, 0x04dd
    183a:	0000                	.insn	2, 0x0000
    183c:	0531                	.insn	2, 0x0531
    183e:	0000                	.insn	2, 0x0000
    1840:	8001                	.insn	2, 0x8001
    1842:	2802                	.insn	2, 0x2802
    1844:	5d000003          	lb	zero,1488(zero) # 5d0 <__stack_size-0x1fffa30>
    1848:	1294                	.insn	2, 0x1294
    184a:	8000                	.insn	2, 0x8000
    184c:	0184                	.insn	2, 0x0184
    184e:	4602                	.insn	2, 0x4602
    1850:	0005                	.insn	2, 0x0005
    1852:	5d00                	.insn	2, 0x5d00
    1854:	129c                	.insn	2, 0x129c
    1856:	8000                	.insn	2, 0x8000
    1858:	0248                	.insn	2, 0x0248
    185a:	053d                	.insn	2, 0x053d
    185c:	0000                	.insn	2, 0x0000
    185e:	9c5d                	.insn	2, 0x9c5d
    1860:	0012                	.insn	2, 0x0012
    1862:	4880                	.insn	2, 0x4880
    1864:	7502                	.insn	2, 0x7502
    1866:	0004                	.insn	2, 0x0004
    1868:	5d00                	.insn	2, 0x5d00
    186a:	12e4                	.insn	2, 0x12e4
    186c:	8000                	.insn	2, 0x8000
    186e:	0210                	.insn	2, 0x0210
    1870:	0550                	.insn	2, 0x0550
    1872:	0000                	.insn	2, 0x0000
    1874:	185d                	.insn	2, 0x185d
    1876:	30800013          	addi	zero,zero,776
    187a:	0003                	.short	0x0003

Disassembly of section .debug_abbrev:

00000000 <.debug_abbrev>:
   0:	1101                	.insn	2, 0x1101
   2:	1000                	.insn	2, 0x1000
   4:	12011117          	auipc	sp,0x12011
   8:	1b0e030f          	.insn	4, 0x1b0e030f
   c:	250e                	.insn	2, 0x250e
   e:	130e                	.insn	2, 0x130e
  10:	0005                	.insn	2, 0x0005
  12:	0000                	.insn	2, 0x0000
  14:	4901                	.insn	2, 0x4901
  16:	0200                	.insn	2, 0x0200
  18:	7e18                	.insn	2, 0x7e18
  1a:	0018                	.insn	2, 0x0018
  1c:	0200                	.insn	2, 0x0200
  1e:	0005                	.insn	2, 0x0005
  20:	1331                	.insn	2, 0x1331
  22:	1702                	.insn	2, 0x1702
  24:	0000                	.insn	2, 0x0000
  26:	7d014803          	lbu	a6,2000(sp) # 120117d4 <__stack_size+0x100117d4>
  2a:	7f01                	.insn	2, 0x7f01
  2c:	00130113          	addi	sp,t1,1
  30:	0400                	.insn	2, 0x0400
  32:	011d                	.insn	2, 0x011d
  34:	1331                	.insn	2, 0x1331
  36:	0152                	.insn	2, 0x0152
  38:	1755                	.insn	2, 0x1755
  3a:	2158                	.insn	2, 0x2158
  3c:	5901                	.insn	2, 0x5901
  3e:	5705                	.insn	2, 0x5705
  40:	0013010b          	.insn	4, 0x0013010b
  44:	0500                	.insn	2, 0x0500
  46:	0034                	.insn	2, 0x0034
  48:	1331                	.insn	2, 0x1331
  4a:	1702                	.insn	2, 0x1702
  4c:	0000                	.insn	2, 0x0000
  4e:	0506                	.insn	2, 0x0506
  50:	0300                	.insn	2, 0x0300
  52:	3a0e                	.insn	2, 0x3a0e
  54:	0121                	.insn	2, 0x0121
  56:	0b39053b          	.insn	4, 0x0b39053b
  5a:	1349                	.insn	2, 0x1349
  5c:	0000                	.insn	2, 0x0000
  5e:	03003407          	.insn	4, 0x03003407
  62:	3a0e                	.insn	2, 0x3a0e
  64:	0121                	.insn	2, 0x0121
  66:	0b39053b          	.insn	4, 0x0b39053b
  6a:	1349                	.insn	2, 0x1349
  6c:	1802193f 0b080000 	.insn	8, 0x0b0800001802193f
  74:	5501                	.insn	2, 0x5501
  76:	09000017          	auipc	zero,0x9000
  7a:	0034                	.insn	2, 0x0034
  7c:	213a0e03          	lb	t3,531(s4)
  80:	3b01                	.insn	2, 0x3b01
  82:	3905                	.insn	2, 0x3905
  84:	0013490b          	.insn	4, 0x0013490b
  88:	0a00                	.insn	2, 0x0a00
  8a:	000d                	.insn	2, 0x000d
  8c:	213a0e03          	lb	t3,531(s4)
  90:	3b01                	.insn	2, 0x3b01
  92:	3905                	.insn	2, 0x3905
  94:	3813490b          	.insn	4, 0x3813490b
  98:	0b00000b          	.insn	4, 0x0b00000b
  9c:	012e                	.insn	2, 0x012e
  9e:	1331                	.insn	2, 0x1331
  a0:	0111                	.insn	2, 0x0111
  a2:	0612                	.insn	2, 0x0612
  a4:	1840                	.insn	2, 0x1840
  a6:	197a                	.insn	2, 0x197a
  a8:	1301                	.insn	2, 0x1301
  aa:	0000                	.insn	2, 0x0000
  ac:	160c                	.insn	2, 0x160c
  ae:	0300                	.insn	2, 0x0300
  b0:	3a0e                	.insn	2, 0x3a0e
  b2:	0121                	.insn	2, 0x0121
  b4:	0b39053b          	.insn	4, 0x0b39053b
  b8:	1349                	.insn	2, 0x1349
  ba:	0000                	.insn	2, 0x0000
  bc:	0f0d                	.insn	2, 0x0f0d
  be:	0b00                	.insn	2, 0x0b00
  c0:	0421                	.insn	2, 0x0421
  c2:	1349                	.insn	2, 0x1349
  c4:	0000                	.insn	2, 0x0000
  c6:	050e                	.insn	2, 0x050e
  c8:	3100                	.insn	2, 0x3100
  ca:	00180213          	addi	tp,a6,1
  ce:	0f00                	.insn	2, 0x0f00
  d0:	0034                	.insn	2, 0x0034
  d2:	213a0e03          	lb	t3,531(s4)
  d6:	3b01                	.insn	2, 0x3b01
  d8:	3905                	.insn	2, 0x3905
  da:	0213490b          	.insn	4, 0x0213490b
  de:	10000017          	auipc	zero,0x10000
  e2:	0148                	.insn	2, 0x0148
  e4:	017d                	.insn	2, 0x017d
  e6:	0000137f 00001811 	.insn	12, 0x00051200000018110000137f
  ee:	00051200 
  f2:	1331                	.insn	2, 0x1331
  f4:	0000                	.insn	2, 0x0000
  f6:	0b002413          	slti	s0,zero,176
  fa:	030b3e0b          	.insn	4, 0x030b3e0b
  fe:	000e                	.insn	2, 0x000e
 100:	1400                	.insn	2, 0x1400
 102:	0028                	.insn	2, 0x0028
 104:	0b1c0e03          	lb	t3,177(s8)
 108:	0000                	.insn	2, 0x0000
 10a:	2e15                	.insn	2, 0x2e15
 10c:	3f01                	.insn	2, 0x3f01
 10e:	0319                	.insn	2, 0x0319
 110:	3a0e                	.insn	2, 0x3a0e
 112:	0321                	.insn	2, 0x0321
 114:	4900213b          	.insn	4, 0x4900213b
 118:	01193c13          	sltiu	s8,s2,17
 11c:	16000013          	addi	zero,zero,352
 120:	0101                	.insn	2, 0x0101
 122:	1349                	.insn	2, 0x1349
 124:	1301                	.insn	2, 0x1301
 126:	0000                	.insn	2, 0x0000
 128:	49002117          	auipc	sp,0x49002
 12c:	000b2f13          	slti	t5,s6,0
 130:	1800                	.insn	2, 0x1800
 132:	0034                	.insn	2, 0x0034
 134:	213a0e03          	lb	t3,531(s4)
 138:	3b01                	.insn	2, 0x3b01
 13a:	3905                	.insn	2, 0x3905
 13c:	0213490b          	.insn	4, 0x0213490b
 140:	0018                	.insn	2, 0x0018
 142:	1900                	.insn	2, 0x1900
 144:	0111010b          	.insn	4, 0x0111010b
 148:	0612                	.insn	2, 0x0612
 14a:	1301                	.insn	2, 0x1301
 14c:	0000                	.insn	2, 0x0000
 14e:	341a                	.insn	2, 0x341a
 150:	3100                	.insn	2, 0x3100
 152:	000b1c13          	slli	s8,s6,0x0
 156:	1b00                	.insn	2, 0x1b00
 158:	012e                	.insn	2, 0x012e
 15a:	0e03193f 3b01213a 	.insn	8, 0x3b01213a0e03193f
 162:	3905                	.insn	2, 0x3905
 164:	0621                	.insn	2, 0x0621
 166:	21201927          	.insn	4, 0x21201927
 16a:	0101                	.insn	2, 0x0101
 16c:	1c000013          	addi	zero,zero,448
 170:	0b0b0113          	addi	sp,s6,176
 174:	213a                	.insn	2, 0x213a
 176:	3b01                	.insn	2, 0x3b01
 178:	3905                	.insn	2, 0x3905
 17a:	0521                	.insn	2, 0x0521
 17c:	1301                	.insn	2, 0x1301
 17e:	0000                	.insn	2, 0x0000
 180:	0d1d                	.insn	2, 0x0d1d
 182:	0300                	.insn	2, 0x0300
 184:	3a0e                	.insn	2, 0x3a0e
 186:	0121                	.insn	2, 0x0121
 188:	2139053b          	.insn	4, 0x2139053b
 18c:	00134907          	.insn	4, 0x00134907
 190:	1e00                	.insn	2, 0x1e00
 192:	0005                	.insn	2, 0x0005
 194:	1349                	.insn	2, 0x1349
 196:	0000                	.insn	2, 0x0000
 198:	2e1f 3f01 0319      	.insn	6, 0x03193f012e1f
 19e:	3a0e                	.insn	2, 0x3a0e
 1a0:	0121                	.insn	2, 0x0121
 1a2:	2139053b          	.insn	4, 0x2139053b
 1a6:	2709                	.insn	2, 0x2709
 1a8:	4919                	.insn	2, 0x4919
 1aa:	01212013          	slti	zero,sp,18
 1ae:	1301                	.insn	2, 0x1301
 1b0:	0000                	.insn	2, 0x0000
 1b2:	1d20                	.insn	2, 0x1d20
 1b4:	3101                	.insn	2, 0x3101
 1b6:	12011113          	.insn	4, 0x12011113
 1ba:	5806                	.insn	2, 0x5806
 1bc:	0121                	.insn	2, 0x0121
 1be:	0559                	.insn	2, 0x0559
 1c0:	13010b57          	.insn	4, 0x13010b57
 1c4:	0000                	.insn	2, 0x0000
 1c6:	3421                	.insn	2, 0x3421
 1c8:	3100                	.insn	2, 0x3100
 1ca:	22000013          	addi	zero,zero,544
 1ce:	0048                	.insn	2, 0x0048
 1d0:	017d                	.insn	2, 0x017d
 1d2:	0000137f 3f012e23 	.insn	12, 0x3a0e03193f012e230000137f
 1da:	3a0e0319 
 1de:	0121                	.insn	2, 0x0121
 1e0:	2139053b          	.insn	4, 0x2139053b
 1e4:	2006                	.insn	2, 0x2006
 1e6:	0121                	.insn	2, 0x0121
 1e8:	1301                	.insn	2, 0x1301
 1ea:	0000                	.insn	2, 0x0000
 1ec:	1d24                	.insn	2, 0x1d24
 1ee:	3101                	.insn	2, 0x3101
 1f0:	55015213          	.insn	4, 0x55015213
 1f4:	01215817          	auipc	a6,0x1215
 1f8:	2159                	.insn	2, 0x2159
 1fa:	048c                	.insn	2, 0x048c
 1fc:	00032157          	.insn	4, 0x00032157
 200:	2500                	.insn	2, 0x2500
 202:	0005                	.insn	2, 0x0005
 204:	1331                	.insn	2, 0x1331
 206:	0b1c                	.insn	2, 0x0b1c
 208:	0000                	.insn	2, 0x0000
 20a:	3426                	.insn	2, 0x3426
 20c:	3100                	.insn	2, 0x3100
 20e:	00180213          	addi	tp,a6,1 # 12151f5 <__stack_size-0xdeae0b>
 212:	2700                	.insn	2, 0x2700
 214:	002e                	.insn	2, 0x002e
 216:	193c193f 0e030e6e 	.insn	8, 0x0e030e6e193c193f
 21e:	213a                	.insn	2, 0x213a
 220:	00213b03          	.insn	4, 0x00213b03
 224:	0000                	.insn	2, 0x0000
 226:	1128                	.insn	2, 0x1128
 228:	2501                	.insn	2, 0x2501
 22a:	130e                	.insn	2, 0x130e
 22c:	1b1f030b          	.insn	4, 0x1b1f030b
 230:	551f 1117 1001      	.insn	6, 0x10011117551f
 236:	29000017          	auipc	zero,0x29000
 23a:	0104                	.insn	2, 0x0104
 23c:	0b3e                	.insn	2, 0x0b3e
 23e:	13490b0b          	.insn	4, 0x13490b0b
 242:	0b3a                	.insn	2, 0x0b3a
 244:	0b39053b          	.insn	4, 0x0b39053b
 248:	1301                	.insn	2, 0x1301
 24a:	0000                	.insn	2, 0x0000
 24c:	242a                	.insn	2, 0x242a
 24e:	0b00                	.insn	2, 0x0b00
 250:	030b3e0b          	.insn	4, 0x030b3e0b
 254:	0008                	.insn	2, 0x0008
 256:	2b00                	.insn	2, 0x2b00
 258:	0026                	.insn	2, 0x0026
 25a:	1349                	.insn	2, 0x1349
 25c:	0000                	.insn	2, 0x0000
 25e:	172c                	.insn	2, 0x172c
 260:	0b01                	.insn	2, 0x0b01
 262:	3b0b3a0b          	.insn	4, 0x3b0b3a0b
 266:	3905                	.insn	2, 0x3905
 268:	0013010b          	.insn	4, 0x0013010b
 26c:	2d00                	.insn	2, 0x2d00
 26e:	0e030113          	addi	sp,t1,224
 272:	0b3a0b0b          	.insn	4, 0x0b3a0b0b
 276:	0b39053b          	.insn	4, 0x0b39053b
 27a:	1301                	.insn	2, 0x1301
 27c:	0000                	.insn	2, 0x0000
 27e:	342e                	.insn	2, 0x342e
 280:	0300                	.insn	2, 0x0300
 282:	3a08                	.insn	2, 0x3a08
 284:	39053b0b          	.insn	4, 0x39053b0b
 288:	3f13490b          	.insn	4, 0x3f13490b
 28c:	0219                	.insn	2, 0x0219
 28e:	0018                	.insn	2, 0x0018
 290:	2f00                	.insn	2, 0x2f00
 292:	0021                	.insn	2, 0x0021
 294:	1349                	.insn	2, 0x1349
 296:	0000052f          	.insn	4, 0x052f
 29a:	2e30                	.insn	2, 0x2e30
 29c:	3f01                	.insn	2, 0x3f01
 29e:	0319                	.insn	2, 0x0319
 2a0:	3a0e                	.insn	2, 0x3a0e
 2a2:	390b3b0b          	.insn	4, 0x390b3b0b
 2a6:	3c19270b          	.insn	4, 0x3c19270b
 2aa:	0119                	.insn	2, 0x0119
 2ac:	31000013          	addi	zero,zero,784
 2b0:	012e                	.insn	2, 0x012e
 2b2:	0e03193f 053b0b3a 	.insn	8, 0x053b0b3a0e03193f
 2ba:	0b39                	.insn	2, 0x0b39
 2bc:	1349                	.insn	2, 0x1349
 2be:	0111                	.insn	2, 0x0111
 2c0:	0612                	.insn	2, 0x0612
 2c2:	1840                	.insn	2, 0x1840
 2c4:	197a                	.insn	2, 0x197a
 2c6:	1301                	.insn	2, 0x1301
 2c8:	0000                	.insn	2, 0x0000
 2ca:	3432                	.insn	2, 0x3432
 2cc:	0300                	.insn	2, 0x0300
 2ce:	3a0e                	.insn	2, 0x3a0e
 2d0:	39053b0b          	.insn	4, 0x39053b0b
 2d4:	1c13490b          	.insn	4, 0x1c13490b
 2d8:	0005                	.insn	2, 0x0005
 2da:	3300                	.insn	2, 0x3300
 2dc:	012e                	.insn	2, 0x012e
 2de:	0e03193f 0b3b0b3a 	.insn	8, 0x0b3b0b3a0e03193f
 2e6:	13491927          	.insn	4, 0x13491927
 2ea:	193c                	.insn	2, 0x193c
 2ec:	1301                	.insn	2, 0x1301
 2ee:	0000                	.insn	2, 0x0000
 2f0:	1d34                	.insn	2, 0x1d34
 2f2:	3100                	.insn	2, 0x3100
 2f4:	12011113          	.insn	4, 0x12011113
 2f8:	5806                	.insn	2, 0x5806
 2fa:	5705590b          	.insn	4, 0x5705590b
 2fe:	3500000b          	.insn	4, 0x3500000b
 302:	1331010b          	.insn	4, 0x1331010b
 306:	0111                	.insn	2, 0x0111
 308:	0612                	.insn	2, 0x0612
 30a:	0000                	.insn	2, 0x0000
 30c:	0b36                	.insn	2, 0x0b36
 30e:	0001                	.insn	2, 0x0001
 310:	3700                	.insn	2, 0x3700
 312:	012e                	.insn	2, 0x012e
 314:	0e03193f 053b0b3a 	.insn	8, 0x053b0b3a0e03193f
 31c:	0b39                	.insn	2, 0x0b39
 31e:	1349                	.insn	2, 0x1349
 320:	0b20                	.insn	2, 0x0b20
 322:	1301                	.insn	2, 0x1301
 324:	0000                	.insn	2, 0x0000
 326:	2e38                	.insn	2, 0x2e38
 328:	3f00                	.insn	2, 0x3f00
 32a:	0319                	.insn	2, 0x0319
 32c:	3a0e                	.insn	2, 0x3a0e
 32e:	39053b0b          	.insn	4, 0x39053b0b
 332:	000b200b          	.insn	4, 0x000b200b
 336:	3900                	.insn	2, 0x3900
 338:	012e                	.insn	2, 0x012e
 33a:	0e03193f 053b0b3a 	.insn	8, 0x053b0b3a0e03193f
 342:	0b39                	.insn	2, 0x0b39
 344:	0111                	.insn	2, 0x0111
 346:	0612                	.insn	2, 0x0612
 348:	1840                	.insn	2, 0x1840
 34a:	197a                	.insn	2, 0x197a
 34c:	1301                	.insn	2, 0x1301
 34e:	0000                	.insn	2, 0x0000
 350:	053a                	.insn	2, 0x053a
 352:	0300                	.insn	2, 0x0300
 354:	3a0e                	.insn	2, 0x3a0e
 356:	39053b0b          	.insn	4, 0x39053b0b
 35a:	0213490b          	.insn	4, 0x0213490b
 35e:	3b000017          	auipc	zero,0x3b000
 362:	012e                	.insn	2, 0x012e
 364:	0b3a0e03          	lb	t3,179(s4)
 368:	0b39053b          	.insn	4, 0x0b39053b
 36c:	13491927          	.insn	4, 0x13491927
 370:	0b20                	.insn	2, 0x0b20
 372:	1301                	.insn	2, 0x1301
 374:	0000                	.insn	2, 0x0000
 376:	343c                	.insn	2, 0x343c
 378:	0300                	.insn	2, 0x0300
 37a:	3a08                	.insn	2, 0x3a08
 37c:	39053b0b          	.insn	4, 0x39053b0b
 380:	0013490b          	.insn	4, 0x0013490b
 384:	3d00                	.insn	2, 0x3d00
 386:	002e                	.insn	2, 0x002e
 388:	1331                	.insn	2, 0x1331
 38a:	0111                	.insn	2, 0x0111
 38c:	0612                	.insn	2, 0x0612
 38e:	1840                	.insn	2, 0x1840
 390:	197a                	.insn	2, 0x197a
 392:	0000                	.insn	2, 0x0000
 394:	1d3e                	.insn	2, 0x1d3e
 396:	3101                	.insn	2, 0x3101
 398:	12011113          	.insn	4, 0x12011113
 39c:	5806                	.insn	2, 0x5806
 39e:	5705590b          	.insn	4, 0x5705590b
 3a2:	3f00000b          	.insn	4, 0x3f00000b
 3a6:	1331000b          	.insn	4, 0x1331000b
 3aa:	0111                	.insn	2, 0x0111
 3ac:	0612                	.insn	2, 0x0612
 3ae:	0000                	.insn	2, 0x0000
 3b0:	2e40                	.insn	2, 0x2e40
 3b2:	3f00                	.insn	2, 0x3f00
 3b4:	3c19                	.insn	2, 0x3c19
 3b6:	6e19                	.insn	2, 0x6e19
 3b8:	030e                	.insn	2, 0x030e
 3ba:	000e                	.insn	2, 0x000e
 3bc:	0000                	.insn	2, 0x0000
 3be:	0501                	.insn	2, 0x0501
 3c0:	3100                	.insn	2, 0x3100
 3c2:	00170213          	addi	tp,a4,1
 3c6:	0200                	.insn	2, 0x0200
 3c8:	0034                	.insn	2, 0x0034
 3ca:	213a0803          	lb	a6,531(s4)
 3ce:	3b01                	.insn	2, 0x3b01
 3d0:	490b390b          	.insn	4, 0x490b390b
 3d4:	03000013          	addi	zero,zero,48
 3d8:	011d                	.insn	2, 0x011d
 3da:	1331                	.insn	2, 0x1331
 3dc:	0152                	.insn	2, 0x0152
 3de:	1755                	.insn	2, 0x1755
 3e0:	2158                	.insn	2, 0x2158
 3e2:	5901                	.insn	2, 0x5901
 3e4:	010b570b          	.insn	4, 0x010b570b
 3e8:	04000013          	addi	zero,zero,64
 3ec:	0034                	.insn	2, 0x0034
 3ee:	1331                	.insn	2, 0x1331
 3f0:	1702                	.insn	2, 0x1702
 3f2:	0000                	.insn	2, 0x0000
 3f4:	1d05                	.insn	2, 0x1d05
 3f6:	3101                	.insn	2, 0x3101
 3f8:	55015213          	.insn	4, 0x55015213
 3fc:	01215817          	auipc	a6,0x1215
 400:	0b59                	.insn	2, 0x0b59
 402:	00000b57          	.insn	4, 0x0b57
 406:	1d06                	.insn	2, 0x1d06
 408:	3101                	.insn	2, 0x3101
 40a:	12011113          	.insn	4, 0x12011113
 40e:	5806                	.insn	2, 0x5806
 410:	0121                	.insn	2, 0x0121
 412:	2159                	.insn	2, 0x2159
 414:	571a                	.insn	2, 0x571a
 416:	0621                	.insn	2, 0x0621
 418:	0000                	.insn	2, 0x0000
 41a:	0b002407          	.insn	4, 0x0b002407
 41e:	030b3e0b          	.insn	4, 0x030b3e0b
 422:	000e                	.insn	2, 0x000e
 424:	0800                	.insn	2, 0x0800
 426:	0148                	.insn	2, 0x0148
 428:	017d                	.insn	2, 0x017d
 42a:	0000                	.insn	2, 0x0000
 42c:	4909                	.insn	2, 0x4909
 42e:	0200                	.insn	2, 0x0200
 430:	7e18                	.insn	2, 0x7e18
 432:	0018                	.insn	2, 0x0018
 434:	0a00                	.insn	2, 0x0a00
 436:	0005                	.insn	2, 0x0005
 438:	213a0803          	lb	a6,531(s4)
 43c:	3b01                	.insn	2, 0x3b01
 43e:	490b390b          	.insn	4, 0x490b390b
 442:	0b000013          	addi	zero,zero,176
 446:	210b000f          	.insn	4, 0x210b000f
 44a:	4904                	.insn	2, 0x4904
 44c:	0c000013          	addi	zero,zero,192
 450:	0016                	.insn	2, 0x0016
 452:	213a0e03          	lb	t3,531(s4)
 456:	3b02                	.insn	2, 0x3b02
 458:	490b390b          	.insn	4, 0x490b390b
 45c:	0d000013          	addi	zero,zero,208
 460:	0034                	.insn	2, 0x0034
 462:	1331                	.insn	2, 0x1331
 464:	1802                	.insn	2, 0x1802
 466:	0000                	.insn	2, 0x0000
 468:	480e                	.insn	2, 0x480e
 46a:	7d00                	.insn	2, 0x7d00
 46c:	7f01                	.insn	2, 0x7f01
 46e:	0f000013          	addi	zero,zero,240
 472:	012e                	.insn	2, 0x012e
 474:	0e03193f 3b01213a 	.insn	8, 0x3b01213a0e03193f
 47c:	0621390b          	.insn	4, 0x0621390b
 480:	21201927          	.insn	4, 0x21201927
 484:	0101                	.insn	2, 0x0101
 486:	10000013          	addi	zero,zero,256
 48a:	002e                	.insn	2, 0x002e
 48c:	193c193f 0e030e6e 	.insn	8, 0x0e030e6e193c193f
 494:	0000                	.insn	2, 0x0000
 496:	1111                	.insn	2, 0x1111
 498:	2501                	.insn	2, 0x2501
 49a:	130e                	.insn	2, 0x130e
 49c:	1b1f030b          	.insn	4, 0x1b1f030b
 4a0:	111f 1201 1006      	.insn	6, 0x10061201111f
 4a6:	12000017          	auipc	zero,0x12000
 4aa:	0115                	.insn	2, 0x0115
 4ac:	13011927          	.insn	4, 0x13011927
 4b0:	0000                	.insn	2, 0x0000
 4b2:	49000513          	addi	a0,zero,1168
 4b6:	14000013          	addi	zero,zero,320
 4ba:	0034                	.insn	2, 0x0034
 4bc:	0b3a0e03          	lb	t3,179(s4)
 4c0:	0b390b3b          	.insn	4, 0x0b390b3b
 4c4:	1349                	.insn	2, 0x1349
 4c6:	193c193f 0f150000 	.insn	8, 0x0f150000193c193f
 4ce:	0b00                	.insn	2, 0x0b00
 4d0:	000e030b          	.insn	4, 0x000e030b
 4d4:	1600                	.insn	2, 0x1600
 4d6:	0034                	.insn	2, 0x0034
 4d8:	0b3a1347          	.insn	4, 0x0b3a1347
 4dc:	0b390b3b          	.insn	4, 0x0b390b3b
 4e0:	1802                	.insn	2, 0x1802
 4e2:	0000                	.insn	2, 0x0000
 4e4:	03003417          	auipc	s0,0x3003
 4e8:	3a0e                	.insn	2, 0x3a0e
 4ea:	390b3b0b          	.insn	4, 0x390b3b0b
 4ee:	0213490b          	.insn	4, 0x0213490b
 4f2:	0018                	.insn	2, 0x0018
 4f4:	1800                	.insn	2, 0x1800
 4f6:	0026                	.insn	2, 0x0026
 4f8:	1349                	.insn	2, 0x1349
 4fa:	0000                	.insn	2, 0x0000
 4fc:	2e19                	.insn	2, 0x2e19
 4fe:	3f01                	.insn	2, 0x3f01
 500:	0319                	.insn	2, 0x0319
 502:	3a0e                	.insn	2, 0x3a0e
 504:	390b3b0b          	.insn	4, 0x390b3b0b
 508:	1119270b          	.insn	4, 0x1119270b
 50c:	1201                	.insn	2, 0x1201
 50e:	4006                	.insn	2, 0x4006
 510:	7c18                	.insn	2, 0x7c18
 512:	0119                	.insn	2, 0x0119
 514:	1a000013          	addi	zero,zero,416
 518:	0005                	.insn	2, 0x0005
 51a:	0b3a0803          	lb	a6,179(s4)
 51e:	0b390b3b          	.insn	4, 0x0b390b3b
 522:	1349                	.insn	2, 0x1349
 524:	1702                	.insn	2, 0x1702
 526:	0000                	.insn	2, 0x0000
 528:	0000181b          	.insn	4, 0x181b
 52c:	1c00                	.insn	2, 0x1c00
 52e:	0034                	.insn	2, 0x0034
 530:	0b3a0803          	lb	a6,179(s4)
 534:	0b390b3b          	.insn	4, 0x0b390b3b
 538:	1349                	.insn	2, 0x1349
 53a:	1802                	.insn	2, 0x1802
 53c:	0000                	.insn	2, 0x0000
 53e:	0b1d                	.insn	2, 0x0b1d
 540:	5501                	.insn	2, 0x5501
 542:	1e000017          	auipc	zero,0x1e000
 546:	012e                	.insn	2, 0x012e
 548:	0b3a0e03          	lb	t3,179(s4)
 54c:	0b390b3b          	.insn	4, 0x0b390b3b
 550:	0b201927          	.insn	4, 0x0b201927
 554:	1301                	.insn	2, 0x1301
 556:	0000                	.insn	2, 0x0000
 558:	011f 4901 0113      	.insn	6, 0x01134901011f
 55e:	20000013          	addi	zero,zero,512
 562:	0021                	.insn	2, 0x0021
 564:	1349                	.insn	2, 0x1349
 566:	00000b2f          	.insn	4, 0x0b2f
 56a:	2e21                	.insn	2, 0x2e21
 56c:	3101                	.insn	2, 0x3101
 56e:	12011113          	.insn	4, 0x12011113
 572:	4006                	.insn	2, 0x4006
 574:	0118                	.insn	2, 0x0118
 576:	22000013          	addi	zero,zero,544
 57a:	012e                	.insn	2, 0x012e
 57c:	1331                	.insn	2, 0x1331
 57e:	0111                	.insn	2, 0x0111
 580:	0612                	.insn	2, 0x0612
 582:	1840                	.insn	2, 0x1840
 584:	197c                	.insn	2, 0x197c
 586:	1301                	.insn	2, 0x1301
 588:	0000                	.insn	2, 0x0000
 58a:	0100                	.insn	2, 0x0100
 58c:	0111                	.insn	2, 0x0111
 58e:	1710                	.insn	2, 0x1710
 590:	0111                	.insn	2, 0x0111
 592:	0f12                	.insn	2, 0x0f12
 594:	0e1b0e03          	lb	t3,225(s6)
 598:	0e25                	.insn	2, 0x0e25
 59a:	00000513          	addi	a0,zero,0
 59e:	2e02                	.insn	2, 0x2e02
 5a0:	0300                	.insn	2, 0x0300
 5a2:	3f0e                	.insn	2, 0x3f0e
 5a4:	4919                	.insn	2, 0x4919
 5a6:	1115                	.insn	2, 0x1115
 5a8:	1201                	.insn	2, 0x1201
 5aa:	0300000f          	fence	rw,unknown
 5ae:	0000003b          	.insn	4, 0x003b
	...

Disassembly of section .debug_aranges:

00000000 <.debug_aranges>:
   0:	001c                	.insn	2, 0x001c
   2:	0000                	.insn	2, 0x0000
   4:	0002                	.insn	2, 0x0002
   6:	0000                	.insn	2, 0x0000
   8:	0000                	.insn	2, 0x0000
   a:	0004                	.insn	2, 0x0004
   c:	0000                	.insn	2, 0x0000
   e:	0000                	.insn	2, 0x0000
  10:	0000                	.insn	2, 0x0000
  12:	8000                	.insn	2, 0x8000
  14:	001c                	.insn	2, 0x001c
	...
  1e:	0000                	.insn	2, 0x0000
  20:	0024                	.insn	2, 0x0024
  22:	0000                	.insn	2, 0x0000
  24:	0002                	.insn	2, 0x0002
  26:	0024                	.insn	2, 0x0024
  28:	0000                	.insn	2, 0x0000
  2a:	0004                	.insn	2, 0x0004
  2c:	0000                	.insn	2, 0x0000
  2e:	0000                	.insn	2, 0x0000
  30:	0840                	.insn	2, 0x0840
  32:	8000                	.insn	2, 0x8000
  34:	0374                	.insn	2, 0x0374
  36:	0000                	.insn	2, 0x0000
  38:	001c                	.insn	2, 0x001c
  3a:	8000                	.insn	2, 0x8000
  3c:	0824                	.insn	2, 0x0824
	...
  46:	0000                	.insn	2, 0x0000
  48:	001c                	.insn	2, 0x001c
  4a:	0000                	.insn	2, 0x0000
  4c:	0002                	.insn	2, 0x0002
  4e:	1339                	.insn	2, 0x1339
  50:	0000                	.insn	2, 0x0000
  52:	0004                	.insn	2, 0x0004
  54:	0000                	.insn	2, 0x0000
  56:	0000                	.insn	2, 0x0000
  58:	0bb4                	.insn	2, 0x0bb4
  5a:	8000                	.insn	2, 0x8000
  5c:	06e0                	.insn	2, 0x06e0
	...
  66:	0000                	.insn	2, 0x0000
  68:	001c                	.insn	2, 0x001c
  6a:	0000                	.insn	2, 0x0000
  6c:	0002                	.insn	2, 0x0002
  6e:	181d                	.insn	2, 0x181d
  70:	0000                	.insn	2, 0x0000
  72:	0004                	.insn	2, 0x0004
  74:	0000                	.insn	2, 0x0000
  76:	0000                	.insn	2, 0x0000
  78:	1294                	.insn	2, 0x1294
  7a:	8000                	.insn	2, 0x8000
  7c:	00b4                	.insn	2, 0x00b4
	...

Disassembly of section .debug_str:

00000000 <.debug_str>:
   0:	72617473          	.insn	4, 0x72617473
   4:	2e74                	.insn	2, 0x2e74
   6:	682f0053          	.insn	4, 0x682f0053
   a:	2f656d6f          	jal	s10,56300 <__stack_size-0x1fa9d00>
   e:	7574                	.insn	2, 0x7574
  10:	7574                	.insn	2, 0x7574
  12:	7574                	.insn	2, 0x7574
  14:	6d69712f          	.insn	4, 0x6d69712f
  18:	6e65                	.insn	2, 0x6e65
  1a:	69732f67          	.insn	4, 0x69732f67
  1e:	756d                	.insn	2, 0x756d
  20:	616c                	.insn	2, 0x616c
  22:	6f74                	.insn	2, 0x6f74
  24:	2f72                	.insn	2, 0x2f72
  26:	6162                	.insn	2, 0x6162
  28:	6572                	.insn	2, 0x6572
  2a:	656d                	.insn	2, 0x656d
  2c:	6174                	.insn	2, 0x6174
  2e:	2f6c                	.insn	2, 0x2f6c
  30:	6562                	.insn	2, 0x6562
  32:	636e                	.insn	2, 0x636e
  34:	6d68                	.insn	2, 0x6d68
  36:	7261                	.insn	2, 0x7261
  38:	632f736b          	.insn	4, 0x632f736b
  3c:	6d65726f          	jal	tp,57712 <__stack_size-0x1fa88ee>
  40:	7261                	.insn	2, 0x7261
  42:	4e47006b          	.insn	4, 0x4e47006b
  46:	2055                	.insn	2, 0x2055
  48:	5341                	.insn	2, 0x5341
  4a:	3220                	.insn	2, 0x3220
  4c:	332e                	.insn	2, 0x332e
  4e:	64490037          	lui	zero,0x64490
  52:	6e65                	.insn	2, 0x6e65
  54:	5f74                	.insn	2, 0x5f74
  56:	0032                	.insn	2, 0x0032
  58:	6449                	.insn	2, 0x6449
  5a:	6e65                	.insn	2, 0x6e65
  5c:	5f74                	.insn	2, 0x5f74
  5e:	64490033          	.insn	4, 0x64490033
  62:	6e65                	.insn	2, 0x6e65
  64:	5f74                	.insn	2, 0x5f74
  66:	0034                	.insn	2, 0x0034
  68:	6449                	.insn	2, 0x6449
  6a:	6e65                	.insn	2, 0x6e65
  6c:	5f74                	.insn	2, 0x5f74
  6e:	0035                	.insn	2, 0x0035
  70:	7241                	.insn	2, 0x7241
  72:	5f72                	.insn	2, 0x5f72
  74:	5f31                	.insn	2, 0x5f31
  76:	626f6c47          	.insn	4, 0x626f6c47
  7a:	5000                	.insn	2, 0x5000
  7c:	7274                	.insn	2, 0x7274
  7e:	525f 6665 505f      	.insn	6, 0x505f6665525f
  84:	7261                	.insn	2, 0x7261
  86:	5300                	.insn	2, 0x5300
  88:	7274                	.insn	2, 0x7274
  8a:	315f 505f 7261      	.insn	6, 0x7261505f315f
  90:	525f 6665 4f00      	.insn	6, 0x4f006665525f
  96:	656e                	.insn	2, 0x656e
  98:	545f 6968 7472      	.insn	6, 0x74726968545f
  9e:	0079                	.insn	2, 0x0079
  a0:	6e49                	.insn	2, 0x6e49
  a2:	5f74                	.insn	2, 0x5f74
  a4:	6f4c5f33          	.insn	4, 0x6f4c5f33
  a8:	74530063          	beq	t1,t0,7e8 <__stack_size-0x1fff818>
  ac:	5f72                	.insn	2, 0x5f72
  ae:	5f32                	.insn	2, 0x5f32
  b0:	6150                	.insn	2, 0x6150
  b2:	5f72                	.insn	2, 0x5f72
  b4:	6552                	.insn	2, 0x6552
  b6:	0066                	.insn	2, 0x0066
  b8:	657a6973          	.insn	4, 0x657a6973
  bc:	745f 7200 6365      	.insn	6, 0x63657200745f
  c2:	0064726f          	jal	tp,470c8 <__stack_size-0x1fb8f38>
  c6:	6e45                	.insn	2, 0x6e45
  c8:	5f64                	.insn	2, 0x5f64
  ca:	6954                	.insn	2, 0x6954
  cc:	656d                	.insn	2, 0x656d
  ce:	5f00                	.insn	2, 0x5f00
  d0:	625f 6975 746c      	.insn	6, 0x746c6975625f
  d6:	6e69                	.insn	2, 0x6e69
  d8:	6d5f 6d65 7063      	.insn	6, 0x70636d656d5f
  de:	0079                	.insn	2, 0x0079
  e0:	7355                	.insn	2, 0x7355
  e2:	7265                	.insn	2, 0x7265
  e4:	545f 6d69 0065      	.insn	6, 0x00656d69545f
  ea:	616d                	.insn	2, 0x616d
  ec:	6e69                	.insn	2, 0x6e69
  ee:	4100                	.insn	2, 0x4100
  f0:	7272                	.insn	2, 0x7272
  f2:	315f 505f 7261      	.insn	6, 0x7261505f315f
  f8:	525f 6665 4300      	.insn	6, 0x43006665525f
  fe:	5f68                	.insn	2, 0x5f68
 100:	5f32                	.insn	2, 0x5f32
 102:	6f4c                	.insn	2, 0x6f4c
 104:	6f440063          	beq	s0,s4,7e4 <__stack_size-0x1fff81c>
 108:	656e                	.insn	2, 0x656e
 10a:	5300                	.insn	2, 0x5300
 10c:	7274                	.insn	2, 0x7274
 10e:	315f 4c5f 636f      	.insn	6, 0x636f4c5f315f
 114:	6600                	.insn	2, 0x6600
 116:	6572                	.insn	2, 0x6572
 118:	5f65                	.insn	2, 0x5f65
 11a:	656d                	.insn	2, 0x656d
 11c:	006d                	.insn	2, 0x006d
 11e:	315f6843          	.insn	4, 0x315f6843
 122:	475f 6f6c 0062      	.insn	6, 0x00626f6c475f
 128:	6176                	.insn	2, 0x6176
 12a:	5f72                	.insn	2, 0x5f72
 12c:	5f450033          	.insn	4, 0x5f450033
 130:	706d6f43          	.insn	4, 0x706d6f43
 134:	325f 7300 7a69      	.insn	6, 0x7a697300325f
 13a:	0065                	.insn	2, 0x0065
 13c:	7552                	.insn	2, 0x7552
 13e:	5f6e                	.insn	2, 0x5f6e
 140:	6e49                	.insn	2, 0x6e49
 142:	6564                	.insn	2, 0x6564
 144:	0078                	.insn	2, 0x0078
 146:	6e49                	.insn	2, 0x6e49
 148:	5f74                	.insn	2, 0x5f74
 14a:	5f32                	.insn	2, 0x5f32
 14c:	6f4c                	.insn	2, 0x6f4c
 14e:	656d0063          	beq	s10,s6,78e <__stack_size-0x1fff872>
 152:	6f6d                	.insn	2, 0x6f6d
 154:	7972                	.insn	2, 0x7972
 156:	6600                	.insn	2, 0x6600
 158:	6f6c                	.insn	2, 0x6f6c
 15a:	7461                	.insn	2, 0x7461
 15c:	4300                	.insn	2, 0x4300
 15e:	5f68                	.insn	2, 0x5f68
 160:	5f31                	.insn	2, 0x5f31
 162:	6150                	.insn	2, 0x6150
 164:	5f72                	.insn	2, 0x5f72
 166:	6156                	.insn	2, 0x6156
 168:	006c                	.insn	2, 0x006c
 16a:	6e45                	.insn	2, 0x6e45
 16c:	6d75                	.insn	2, 0x6d75
 16e:	4c5f 636f 4300      	.insn	6, 0x4300636f4c5f
 174:	5f68                	.insn	2, 0x5f68
 176:	5f32                	.insn	2, 0x5f32
 178:	6150                	.insn	2, 0x6150
 17a:	5f72                	.insn	2, 0x5f72
 17c:	6156                	.insn	2, 0x6156
 17e:	006c                	.insn	2, 0x006c
 180:	315f6843          	.insn	4, 0x315f6843
 184:	435f 6d6f 0070      	.insn	6, 0x00706d6f435f
 18a:	6f6c                	.insn	2, 0x6f6c
 18c:	676e                	.insn	2, 0x676e
 18e:	6920                	.insn	2, 0x6920
 190:	746e                	.insn	2, 0x746e
 192:	4900                	.insn	2, 0x4900
 194:	746e                	.insn	2, 0x746e
 196:	475f 6f6c 0062      	.insn	6, 0x00626f6c475f
 19c:	6176                	.insn	2, 0x6176
 19e:	5f72                	.insn	2, 0x5f72
 1a0:	0031                	.insn	2, 0x0031
 1a2:	6176                	.insn	2, 0x6176
 1a4:	5f72                	.insn	2, 0x5f72
 1a6:	0032                	.insn	2, 0x0032
 1a8:	5f727453          	.insn	4, 0x5f727453
 1ac:	5f32                	.insn	2, 0x5f32
 1ae:	706d6f43          	.insn	4, 0x706d6f43
 1b2:	5300                	.insn	2, 0x5300
 1b4:	7274                	.insn	2, 0x7274
 1b6:	325f 4c5f 636f      	.insn	6, 0x636f4c5f325f
 1bc:	4900                	.insn	2, 0x4900
 1be:	746e                	.insn	2, 0x746e
 1c0:	315f 505f 7261      	.insn	6, 0x7261505f315f
 1c6:	565f 6c61 5200      	.insn	6, 0x52006c61565f
 1cc:	6365                	.insn	2, 0x6365
 1ce:	505f 696f 746e      	.insn	6, 0x746e696f505f
 1d4:	7265                	.insn	2, 0x7265
 1d6:	7000                	.insn	2, 0x7000
 1d8:	7361                	.insn	2, 0x7361
 1da:	6e750073          	.insn	4, 0x6e750073
 1de:	6e676973          	.insn	4, 0x6e676973
 1e2:	6465                	.insn	2, 0x6465
 1e4:	6320                	.insn	2, 0x6320
 1e6:	6168                	.insn	2, 0x6168
 1e8:	0072                	.insn	2, 0x0072
 1ea:	6e49                	.insn	2, 0x6e49
 1ec:	5f74                	.insn	2, 0x5f74
 1ee:	5f32                	.insn	2, 0x5f32
 1f0:	6150                	.insn	2, 0x6150
 1f2:	5f72                	.insn	2, 0x5f72
 1f4:	6156                	.insn	2, 0x6156
 1f6:	006c                	.insn	2, 0x006c
 1f8:	315f6843          	.insn	4, 0x315f6843
 1fc:	4c5f 636f 4300      	.insn	6, 0x4300636f4c5f
 202:	5f68                	.insn	2, 0x5f68
 204:	6f4c                	.insn	2, 0x6f4c
 206:	6e450063          	beq	a0,tp,8e6 <__stack_size-0x1fff71a>
 20a:	6d75                	.insn	2, 0x6d75
 20c:	435f 6d6f 0070      	.insn	6, 0x00706d6f435f
 212:	6e49                	.insn	2, 0x6e49
 214:	5f74                	.insn	2, 0x5f74
 216:	706d6f43          	.insn	4, 0x706d6f43
 21a:	4200                	.insn	2, 0x4200
 21c:	5f6c6f6f          	jal	t5,c6812 <__stack_size-0x1f397ee>
 220:	6f4c                	.insn	2, 0x6f4c
 222:	72500063          	beq	zero,t0,942 <__stack_size-0x1fff6be>
 226:	345f636f          	jal	t1,f6d6a <__stack_size-0x1f09296>
 22a:	5000                	.insn	2, 0x5000
 22c:	6f72                	.insn	2, 0x6f72
 22e:	00355f63          	bge	a0,gp,24c <__stack_size-0x1fffdb4>
 232:	7241                	.insn	2, 0x7241
 234:	5f72                	.insn	2, 0x5f72
 236:	5f32                	.insn	2, 0x5f32
 238:	626f6c47          	.insn	4, 0x626f6c47
 23c:	5000                	.insn	2, 0x5000
 23e:	6f72                	.insn	2, 0x6f72
 240:	00385f63          	bge	a6,gp,25e <__stack_size-0x1fffda2>
 244:	20554e47          	.insn	4, 0x20554e47
 248:	20373143          	.insn	4, 0x20373143
 24c:	3131                	.insn	2, 0x3131
 24e:	312e                	.insn	2, 0x312e
 250:	302e                	.insn	2, 0x302e
 252:	2d20                	.insn	2, 0x2d20
 254:	616d                	.insn	2, 0x616d
 256:	6372                	.insn	2, 0x6372
 258:	3d68                	.insn	2, 0x3d68
 25a:	7672                	.insn	2, 0x7672
 25c:	61693233          	.insn	4, 0x61693233
 260:	2d20                	.insn	2, 0x2d20
 262:	616d                	.insn	2, 0x616d
 264:	6962                	.insn	2, 0x6962
 266:	693d                	.insn	2, 0x693d
 268:	706c                	.insn	2, 0x706c
 26a:	2d203233          	.insn	4, 0x2d203233
 26e:	636d                	.insn	2, 0x636d
 270:	6f6d                	.insn	2, 0x6f6d
 272:	6564                	.insn	2, 0x6564
 274:	3d6c                	.insn	2, 0x3d6c
 276:	656d                	.insn	2, 0x656d
 278:	6c64                	.insn	2, 0x6c64
 27a:	2d20776f          	jal	a4,754c <__stack_size-0x1ff8ab4>
 27e:	746d                	.insn	2, 0x746d
 280:	6e75                	.insn	2, 0x6e75
 282:	3d65                	.insn	2, 0x3d65
 284:	6f72                	.insn	2, 0x6f72
 286:	74656b63          	bltu	a0,t1,9dc <__stack_size-0x1fff624>
 28a:	2d20                	.insn	2, 0x2d20
 28c:	616d                	.insn	2, 0x616d
 28e:	6372                	.insn	2, 0x6372
 290:	3d68                	.insn	2, 0x3d68
 292:	7672                	.insn	2, 0x7672
 294:	61693233          	.insn	4, 0x61693233
 298:	2d20                	.insn	2, 0x2d20
 29a:	61776467          	.insn	4, 0x61776467
 29e:	6672                	.insn	2, 0x6672
 2a0:	2d20                	.insn	2, 0x2d20
 2a2:	2d20324f          	.insn	4, 0x2d20324f
 2a6:	5000324f          	.insn	4, 0x5000324f
 2aa:	6f72                	.insn	2, 0x6f72
 2ac:	00315f63          	bge	sp,gp,2ca <__stack_size-0x1fffd36>
 2b0:	7250                	.insn	2, 0x7250
 2b2:	325f636f          	jal	t1,f6dd6 <__stack_size-0x1f0922a>
 2b6:	5000                	.insn	2, 0x5000
 2b8:	6f72                	.insn	2, 0x6f72
 2ba:	00335f63          	bge	t1,gp,2d8 <__stack_size-0x1fffd28>
 2be:	6f42                	.insn	2, 0x6f42
 2c0:	61656c6f          	jal	s8,568d6 <__stack_size-0x1fa972a>
 2c4:	006e                	.insn	2, 0x006e
 2c6:	7250                	.insn	2, 0x7250
 2c8:	365f636f          	jal	t1,f6e2c <__stack_size-0x1f091d4>
 2cc:	5000                	.insn	2, 0x5000
 2ce:	6f72                	.insn	2, 0x6f72
 2d0:	00375f63          	bge	a4,gp,2ee <__stack_size-0x1fffd12>
 2d4:	6176                	.insn	2, 0x6176
 2d6:	6972                	.insn	2, 0x6972
 2d8:	6e61                	.insn	2, 0x6e61
 2da:	0074                	.insn	2, 0x0074
 2dc:	6e45                	.insn	2, 0x6e45
 2de:	6d75                	.insn	2, 0x6d75
 2e0:	565f 6c61 505f      	.insn	6, 0x505f6c61565f
 2e6:	7261                	.insn	2, 0x7261
 2e8:	7300                	.insn	2, 0x7300
 2ea:	7274                	.insn	2, 0x7274
 2ec:	00797063          	bgeu	s2,t2,2ec <__stack_size-0x1fffd14>
 2f0:	6944                	.insn	2, 0x6944
 2f2:	00726373          	.insn	4, 0x00726373
 2f6:	7078                	.insn	2, 0x7078
 2f8:	6972                	.insn	2, 0x6972
 2fa:	746e                	.insn	2, 0x746e
 2fc:	0066                	.insn	2, 0x0066
 2fe:	7450                	.insn	2, 0x7450
 300:	5f72                	.insn	2, 0x5f72
 302:	706d6f43          	.insn	4, 0x706d6f43
 306:	4300                	.insn	2, 0x4300
 308:	5f68                	.insn	2, 0x5f68
 30a:	5f32                	.insn	2, 0x5f32
 30c:	626f6c47          	.insn	4, 0x626f6c47
 310:	4e00                	.insn	2, 0x4e00
 312:	7865                	.insn	2, 0x7865
 314:	5f74                	.insn	2, 0x5f74
 316:	7450                	.insn	2, 0x7450
 318:	5f72                	.insn	2, 0x5f72
 31a:	626f6c47          	.insn	4, 0x626f6c47
 31e:	5300                	.insn	2, 0x5300
 320:	7274                	.insn	2, 0x7274
 322:	435f 6d6f 0070      	.insn	6, 0x00706d6f435f
 328:	5f5f 6964 7376      	.insn	6, 0x737669645f5f
 32e:	3369                	.insn	2, 0x3369
 330:	4900                	.insn	2, 0x4900
 332:	746e                	.insn	2, 0x746e
 334:	315f 4c5f 636f      	.insn	6, 0x636f4c5f315f
 33a:	5300                	.insn	2, 0x5300
 33c:	7274                	.insn	2, 0x7274
 33e:	335f 0030 6e45      	.insn	6, 0x6e450030335f
 344:	6d75                	.insn	2, 0x6d75
 346:	505f 7261 565f      	.insn	6, 0x565f7261505f
 34c:	6c61                	.insn	2, 0x6c61
 34e:	4900                	.insn	2, 0x4900
 350:	746e                	.insn	2, 0x746e
 352:	505f 7261 525f      	.insn	6, 0x525f7261505f
 358:	6665                	.insn	2, 0x6665
 35a:	4900                	.insn	2, 0x4900
 35c:	746e                	.insn	2, 0x746e
 35e:	495f 646e 7865      	.insn	6, 0x7865646e495f
 364:	4300                	.insn	2, 0x4300
 366:	7061                	.insn	2, 0x7061
 368:	7469                	.insn	2, 0x7469
 36a:	6c61                	.insn	2, 0x6c61
 36c:	4c5f 7465 6574      	.insn	6, 0x657474654c5f
 372:	0072                	.insn	2, 0x0072
 374:	5f656e4f          	.insn	4, 0x5f656e4f
 378:	6946                	.insn	2, 0x6946
 37a:	7466                	.insn	2, 0x7466
 37c:	0079                	.insn	2, 0x0079
 37e:	7450                	.insn	2, 0x7450
 380:	5f72                	.insn	2, 0x5f72
 382:	6156                	.insn	2, 0x6156
 384:	5f6c                	.insn	2, 0x5f6c
 386:	6150                	.insn	2, 0x6150
 388:	0072                	.insn	2, 0x0072
 38a:	6e45                	.insn	2, 0x6e45
 38c:	6d75                	.insn	2, 0x6d75
 38e:	7265                	.insn	2, 0x7265
 390:	7461                	.insn	2, 0x7461
 392:	6f69                	.insn	2, 0x6f69
 394:	006e                	.insn	2, 0x006e
 396:	63727473          	.insn	4, 0x63727473
 39a:	706d                	.insn	2, 0x706d
 39c:	4300                	.insn	2, 0x4300
 39e:	5f68                	.insn	2, 0x5f68
 3a0:	5f32                	.insn	2, 0x5f32
 3a2:	706d6f43          	.insn	4, 0x706d6f43
 3a6:	6d00                	.insn	2, 0x6d00
 3a8:	6179                	.insn	2, 0x6179
 3aa:	6c6c                	.insn	2, 0x6c6c
 3ac:	4500636f          	jal	t1,67fc <__stack_size-0x1ff9804>
 3b0:	756e                	.insn	2, 0x756e
 3b2:	5f6d                	.insn	2, 0x5f6d
 3b4:	6552                	.insn	2, 0x6552
 3b6:	5f66                	.insn	2, 0x5f66
 3b8:	6150                	.insn	2, 0x6150
 3ba:	0072                	.insn	2, 0x0072
 3bc:	6844                	.insn	2, 0x6844
 3be:	7972                	.insn	2, 0x7972
 3c0:	6e6f7473          	.insn	4, 0x6e6f7473
 3c4:	7365                	.insn	2, 0x7365
 3c6:	505f 7265 535f      	.insn	6, 0x535f7265505f
 3cc:	6365                	.insn	2, 0x6365
 3ce:	00646e6f          	jal	t3,463d4 <__stack_size-0x1fb9c2c>
 3d2:	6f42                	.insn	2, 0x6f42
 3d4:	475f6c6f          	jal	s8,f7048 <__stack_size-0x1f08fb8>
 3d8:	6f6c                	.insn	2, 0x6f6c
 3da:	0062                	.insn	2, 0x0062
 3dc:	63656863          	bltu	a0,s6,a0c <__stack_size-0x1fff5f4>
 3e0:	6e49006b          	.insn	4, 0x6e49006b
 3e4:	5f74                	.insn	2, 0x5f74
 3e6:	6f4c                	.insn	2, 0x6f4c
 3e8:	654e0063          	beq	t3,s4,a28 <__stack_size-0x1fff5d8>
 3ec:	7478                	.insn	2, 0x7478
 3ee:	525f 6365 726f      	.insn	6, 0x726f6365525f
 3f4:	0064                	.insn	2, 0x0064
 3f6:	694d                	.insn	2, 0x694d
 3f8:	736f7263          	bgeu	t5,s6,b1c <__stack_size-0x1fff4e4>
 3fc:	6365                	.insn	2, 0x6365
 3fe:	73646e6f          	jal	t3,46b34 <__stack_size-0x1fb94cc>
 402:	4e00                	.insn	2, 0x4e00
 404:	6d75                	.insn	2, 0x6d75
 406:	6562                	.insn	2, 0x6562
 408:	5f72                	.insn	2, 0x5f72
 40a:	525f664f          	.insn	4, 0x525f664f
 40e:	6e75                	.insn	2, 0x6e75
 410:	65420073          	.insn	4, 0x65420073
 414:	5f6e6967          	.insn	4, 0x5f6e6967
 418:	6954                	.insn	2, 0x6954
 41a:	656d                	.insn	2, 0x656d
 41c:	4100                	.insn	2, 0x4100
 41e:	7272                	.insn	2, 0x7272
 420:	325f 505f 7261      	.insn	6, 0x7261505f325f
 426:	525f 6665 4300      	.insn	6, 0x43006665525f
 42c:	5f68                	.insn	2, 0x5f68
 42e:	6e49                	.insn	2, 0x6e49
 430:	6564                	.insn	2, 0x6564
 432:	0078                	.insn	2, 0x0078
 434:	7546                	.insn	2, 0x7546
 436:	636e                	.insn	2, 0x636e
 438:	315f 4600 6e75      	.insn	6, 0x6e754600315f
 43e:	00325f63          	bge	tp,gp,45c <__stack_size-0x1fffba4>
 442:	7546                	.insn	2, 0x7546
 444:	636e                	.insn	2, 0x636e
 446:	335f 4900 6564      	.insn	6, 0x65644900335f
 44c:	746e                	.insn	2, 0x746e
 44e:	315f 5f00 625f      	.insn	6, 0x625f5f00315f
 454:	6975                	.insn	2, 0x6975
 456:	746c                	.insn	2, 0x746c
 458:	6e69                	.insn	2, 0x6e69
 45a:	765f 5f61 696c      	.insn	6, 0x696c5f61765f
 460:	6c007473          	.insn	4, 0x6c007473
 464:	20676e6f          	jal	t3,7666a <__stack_size-0x1f89996>
 468:	6e75                	.insn	2, 0x6e75
 46a:	6e676973          	.insn	4, 0x6e676973
 46e:	6465                	.insn	2, 0x6465
 470:	6920                	.insn	2, 0x6920
 472:	746e                	.insn	2, 0x746e
 474:	5f00                	.insn	2, 0x5f00
 476:	755f 6f6d 7364      	.insn	6, 0x73646f6d755f
 47c:	3369                	.insn	2, 0x3369
 47e:	6f00                	.insn	2, 0x6f00
 480:	7475                	.insn	2, 0x7475
 482:	7470                	.insn	2, 0x7470
 484:	0072                	.insn	2, 0x0072
 486:	7678                	.insn	2, 0x7678
 488:	7270                	.insn	2, 0x7270
 48a:	6e69                	.insn	2, 0x6e69
 48c:	6674                	.insn	2, 0x6674
 48e:	5f00                	.insn	2, 0x5f00
 490:	675f 756e 5f63      	.insn	6, 0x5f63756e675f
 496:	6176                	.insn	2, 0x6176
 498:	6c5f 7369 0074      	.insn	6, 0x007473696c5f
 49e:	6678                	.insn	2, 0x6678
 4a0:	6e75                	.insn	2, 0x6e75
 4a2:	756f5f63          	bge	t5,s6,c00 <__stack_size-0x1fff400>
 4a6:	0074                	.insn	2, 0x0074
 4a8:	7078                	.insn	2, 0x7078
 4aa:	7475                	.insn	2, 0x7475
 4ac:	70780073          	.insn	4, 0x70780073
 4b0:	7475                	.insn	2, 0x7475
 4b2:	2e2e0063          	beq	t3,sp,792 <__stack_size-0x1fff86e>
 4b6:	2f2e2e2f          	.insn	4, 0x2f2e2e2f
 4ba:	2e2e                	.insn	2, 0x2e2e
 4bc:	672f2e2f          	amoand.w.aqrl	t3,s2,(t5)
 4c0:	6c2f6363          	bltu	t5,sp,b86 <__stack_size-0x1fff47a>
 4c4:	6269                	.insn	2, 0x6269
 4c6:	2f636367          	.insn	4, 0x2f636367
 4ca:	666e6f63          	bltu	t3,t1,b48 <__stack_size-0x1fff4b8>
 4ce:	6769                	.insn	2, 0x6769
 4d0:	7369722f          	.insn	4, 0x7369722f
 4d4:	642f7663          	bgeu	t5,sp,b20 <__stack_size-0x1fff4e0>
 4d8:	7669                	.insn	2, 0x7669
 4da:	532e                	.insn	2, 0x532e
 4dc:	2f00                	.insn	2, 0x2f00
 4de:	6f68                	.insn	2, 0x6f68
 4e0:	656d                	.insn	2, 0x656d
 4e2:	7475742f          	.insn	4, 0x7475742f
 4e6:	7475                	.insn	2, 0x7475
 4e8:	2f75                	.insn	2, 0x2f75
 4ea:	6972                	.insn	2, 0x6972
 4ec:	2d766373          	.insn	4, 0x2d766373
 4f0:	2d756e67          	.insn	4, 0x2d756e67
 4f4:	6f74                	.insn	2, 0x6f74
 4f6:	68636c6f          	jal	s8,36b7c <__stack_size-0x1fc9484>
 4fa:	6961                	.insn	2, 0x6961
 4fc:	2f6e                	.insn	2, 0x2f6e
 4fe:	7562                	.insn	2, 0x7562
 500:	6c69                	.insn	2, 0x6c69
 502:	2d64                	.insn	2, 0x2d64
 504:	2d636367          	.insn	4, 0x2d636367
 508:	656e                	.insn	2, 0x656e
 50a:	62696c77          	.insn	4, 0x62696c77
 50e:	732d                	.insn	2, 0x732d
 510:	6174                	.insn	2, 0x6174
 512:	2f326567          	.insn	4, 0x2f326567
 516:	6972                	.insn	2, 0x6972
 518:	33766373          	.insn	4, 0x33766373
 51c:	2d32                	.insn	2, 0x2d32
 51e:	6e75                	.insn	2, 0x6e75
 520:	776f6e6b          	.insn	4, 0x776f6e6b
 524:	2d6e                	.insn	2, 0x2d6e
 526:	6c65                	.insn	2, 0x6c65
 528:	2f66                	.insn	2, 0x2f66
 52a:	696c                	.insn	2, 0x696c
 52c:	6762                	.insn	2, 0x6762
 52e:	47006363          	bltu	zero,a6,994 <__stack_size-0x1fff66c>
 532:	554e                	.insn	2, 0x554e
 534:	4120                	.insn	2, 0x4120
 536:	2e322053          	.insn	4, 0x2e322053
 53a:	3534                	.insn	2, 0x3534
 53c:	5f00                	.insn	2, 0x5f00
 53e:	685f 6469 6564      	.insn	6, 0x65646469685f
 544:	5f6e                	.insn	2, 0x5f6e
 546:	5f5f 6475 7669      	.insn	6, 0x766964755f5f
 54c:	00336973          	.insn	4, 0x00336973
 550:	5f5f 6f6d 7364      	.insn	6, 0x73646f6d5f5f
 556:	3369                	.insn	2, 0x3369
	...

Disassembly of section .debug_loclists:

00000000 <.debug_loclists>:
       0:	0930                	.insn	2, 0x0930
       2:	0000                	.insn	2, 0x0000
       4:	0005                	.insn	2, 0x0005
       6:	0004                	.insn	2, 0x0004
       8:	0000                	.insn	2, 0x0000
       a:	0000                	.insn	2, 0x0000
       c:	0001d007          	.insn	4, 0x0001d007
      10:	7480                	.insn	2, 0x7480
      12:	0002                	.insn	2, 0x0002
      14:	0280                	.insn	2, 0x0280
      16:	9f32                	.insn	2, 0x9f32
      18:	00027407          	.insn	4, 0x00027407
      1c:	5c80                	.insn	2, 0x5c80
      1e:	02800003          	lb	zero,40(zero) # 28 <__stack_size-0x1ffffd8>
      22:	70079f33          	.insn	4, 0x70079f33
      26:	94800003          	lb	zero,-1720(zero) # fffff948 <_sp+0x77fff948>
      2a:	01800003          	lb	zero,24(zero) # 18 <__stack_size-0x1ffffe8>
      2e:	075a                	.insn	2, 0x075a
      30:	0394                	.insn	2, 0x0394
      32:	8000                	.insn	2, 0x8000
      34:	03a0                	.insn	2, 0x03a0
      36:	8000                	.insn	2, 0x8000
      38:	3302                	.insn	2, 0x3302
      3a:	079f 03a0 8000      	.insn	6, 0x800003a0079f
      40:	03a8                	.insn	2, 0x03a8
      42:	8000                	.insn	2, 0x8000
      44:	3202                	.insn	2, 0x3202
      46:	079f 03a8 8000      	.insn	6, 0x800003a8079f
      4c:	03c4                	.insn	2, 0x03c4
      4e:	8000                	.insn	2, 0x8000
      50:	3302                	.insn	2, 0x3302
      52:	079f 03c4 8000      	.insn	6, 0x800003c4079f
      58:	03e0                	.insn	2, 0x03e0
      5a:	8000                	.insn	2, 0x8000
      5c:	5a01                	.insn	2, 0x5a01
      5e:	0003e007          	.insn	4, 0x0003e007
      62:	e480                	.insn	2, 0xe480
      64:	01800003          	lb	zero,24(zero) # 18 <__stack_size-0x1ffffe8>
      68:	075f 03e4 8000      	.insn	6, 0x800003e4075f
      6e:	03ec                	.insn	2, 0x03ec
      70:	8000                	.insn	2, 0x8000
      72:	5a01                	.insn	2, 0x5a01
      74:	0003ec07          	.insn	4, 0x0003ec07
      78:	1080                	.insn	2, 0x1080
      7a:	0004                	.insn	2, 0x0004
      7c:	0380                	.insn	2, 0x0380
      7e:	d891                	.insn	2, 0xd891
      80:	077e                	.insn	2, 0x077e
      82:	0838                	.insn	2, 0x0838
      84:	8000                	.insn	2, 0x8000
      86:	0840                	.insn	2, 0x0840
      88:	8000                	.insn	2, 0x8000
      8a:	5a01                	.insn	2, 0x5a01
      8c:	0700                	.insn	2, 0x0700
      8e:	01d0                	.insn	2, 0x01d0
      90:	8000                	.insn	2, 0x8000
      92:	029c                	.insn	2, 0x029c
      94:	8000                	.insn	2, 0x8000
      96:	3302                	.insn	2, 0x3302
      98:	079f 029c 8000      	.insn	6, 0x8000029c079f
      9e:	02b0                	.insn	2, 0x02b0
      a0:	8000                	.insn	2, 0x8000
      a2:	5b01                	.insn	2, 0x5b01
      a4:	00030007          	.insn	4, 0x00030007
      a8:	1880                	.insn	2, 0x1880
      aa:	01800003          	lb	zero,24(zero) # 18 <__stack_size-0x1ffffe8>
      ae:	03180763          	beq	a6,a7,dc <__stack_size-0x1ffff24>
      b2:	8000                	.insn	2, 0x8000
      b4:	0340                	.insn	2, 0x0340
      b6:	8000                	.insn	2, 0x8000
      b8:	5b01                	.insn	2, 0x5b01
      ba:	00039407          	.insn	4, 0x00039407
      be:	a080                	.insn	2, 0xa080
      c0:	01800003          	lb	zero,24(zero) # 18 <__stack_size-0x1ffffe8>
      c4:	03a0075b          	.insn	4, 0x03a0075b
      c8:	8000                	.insn	2, 0x8000
      ca:	03bc                	.insn	2, 0x03bc
      cc:	8000                	.insn	2, 0x8000
      ce:	3302                	.insn	2, 0x3302
      d0:	079f 03bc 8000      	.insn	6, 0x800003bc079f
      d6:	03c4                	.insn	2, 0x03c4
      d8:	8000                	.insn	2, 0x8000
      da:	5b01                	.insn	2, 0x5b01
      dc:	0003e007          	.insn	4, 0x0003e007
      e0:	1080                	.insn	2, 0x1080
      e2:	0008                	.insn	2, 0x0008
      e4:	0180                	.insn	2, 0x0180
      e6:	0764                	.insn	2, 0x0764
      e8:	0838                	.insn	2, 0x0838
      ea:	8000                	.insn	2, 0x8000
      ec:	0840                	.insn	2, 0x0840
      ee:	8000                	.insn	2, 0x8000
      f0:	6401                	.insn	2, 0x6401
      f2:	0700                	.insn	2, 0x0700
      f4:	0194                	.insn	2, 0x0194
      f6:	8000                	.insn	2, 0x8000
      f8:	07f4                	.insn	2, 0x07f4
      fa:	8000                	.insn	2, 0x8000
      fc:	3702                	.insn	2, 0x3702
      fe:	079f 0838 8000      	.insn	6, 0x80000838079f
     104:	0840                	.insn	2, 0x0840
     106:	8000                	.insn	2, 0x8000
     108:	3702                	.insn	2, 0x3702
     10a:	009f 7807 0002      	.insn	6, 0x00027807009f
     110:	9c80                	.insn	2, 0x9c80
     112:	0002                	.insn	2, 0x0002
     114:	0380                	.insn	2, 0x0380
     116:	4108                	.insn	2, 0x4108
     118:	079f 02a4 8000      	.insn	6, 0x800002a4079f
     11e:	02b0                	.insn	2, 0x02b0
     120:	8000                	.insn	2, 0x8000
     122:	5f01                	.insn	2, 0x5f01
     124:	00031407          	.insn	4, 0x00031407
     128:	2880                	.insn	2, 0x2880
     12a:	01800003          	lb	zero,24(zero) # 18 <__stack_size-0x1ffffe8>
     12e:	075f 0394 8000      	.insn	6, 0x80000394075f
     134:	03a0                	.insn	2, 0x03a0
     136:	8000                	.insn	2, 0x8000
     138:	5f01                	.insn	2, 0x5f01
     13a:	0003a807          	.insn	4, 0x0003a807
     13e:	bc80                	.insn	2, 0xbc80
     140:	03800003          	lb	zero,56(zero) # 38 <__stack_size-0x1ffffc8>
     144:	4108                	.insn	2, 0x4108
     146:	079f 03bc 8000      	.insn	6, 0x800003bc079f
     14c:	03c4                	.insn	2, 0x03c4
     14e:	8000                	.insn	2, 0x8000
     150:	5f01                	.insn	2, 0x5f01
     152:	0700                	.insn	2, 0x0700
     154:	021c                	.insn	2, 0x021c
     156:	8000                	.insn	2, 0x8000
     158:	029c                	.insn	2, 0x029c
     15a:	8000                	.insn	2, 0x8000
     15c:	3102                	.insn	2, 0x3102
     15e:	079f 029c 8000      	.insn	6, 0x8000029c079f
     164:	02b0                	.insn	2, 0x02b0
     166:	8000                	.insn	2, 0x8000
     168:	5901                	.insn	2, 0x5901
     16a:	0002b007          	.insn	4, 0x0002b007
     16e:	1480                	.insn	2, 0x1480
     170:	02800003          	lb	zero,40(zero) # 28 <__stack_size-0x1ffffd8>
     174:	9f30                	.insn	2, 0x9f30
     176:	00031407          	.insn	4, 0x00031407
     17a:	5c80                	.insn	2, 0x5c80
     17c:	01800003          	lb	zero,24(zero) # 18 <__stack_size-0x1ffffe8>
     180:	0759                	.insn	2, 0x0759
     182:	0378                	.insn	2, 0x0378
     184:	8000                	.insn	2, 0x8000
     186:	0390                	.insn	2, 0x0390
     188:	8000                	.insn	2, 0x8000
     18a:	5901                	.insn	2, 0x5901
     18c:	00039407          	.insn	4, 0x00039407
     190:	a080                	.insn	2, 0xa080
     192:	01800003          	lb	zero,24(zero) # 18 <__stack_size-0x1ffffe8>
     196:	0759                	.insn	2, 0x0759
     198:	03a0                	.insn	2, 0x03a0
     19a:	8000                	.insn	2, 0x8000
     19c:	03bc                	.insn	2, 0x03bc
     19e:	8000                	.insn	2, 0x8000
     1a0:	3102                	.insn	2, 0x3102
     1a2:	079f 03bc 8000      	.insn	6, 0x800003bc079f
     1a8:	07f4                	.insn	2, 0x07f4
     1aa:	8000                	.insn	2, 0x8000
     1ac:	5901                	.insn	2, 0x5901
     1ae:	00083807          	.insn	4, 0x00083807
     1b2:	4080                	.insn	2, 0x4080
     1b4:	0008                	.insn	2, 0x0008
     1b6:	0180                	.insn	2, 0x0180
     1b8:	0059                	.insn	2, 0x0059
     1ba:	0001c007          	.insn	4, 0x0001c007
     1be:	f480                	.insn	2, 0xf480
     1c0:	01800003          	lb	zero,24(zero) # 18 <__stack_size-0x1ffffe8>
     1c4:	08380763          	beq	a6,gp,252 <__stack_size-0x1fffdae>
     1c8:	8000                	.insn	2, 0x8000
     1ca:	083c                	.insn	2, 0x083c
     1cc:	8000                	.insn	2, 0x8000
     1ce:	6301                	.insn	2, 0x6301
     1d0:	0700                	.insn	2, 0x0700
     1d2:	05e4                	.insn	2, 0x05e4
     1d4:	8000                	.insn	2, 0x8000
     1d6:	05f0                	.insn	2, 0x05f0
     1d8:	8000                	.insn	2, 0x8000
     1da:	7a08                	.insn	2, 0x7a08
     1dc:	3000                	.insn	2, 0x3000
     1de:	0829                	.insn	2, 0x0829
     1e0:	009f1aff 0006e007 	.insn	12, 0x0006ec800006e007009f1aff
     1e8:	0006ec80 
     1ec:	0880                	.insn	2, 0x0880
     1ee:	007a                	.insn	2, 0x007a
     1f0:	2930                	.insn	2, 0x2930
     1f2:	ff08                	.insn	2, 0xff08
     1f4:	9f1a                	.insn	2, 0x9f1a
     1f6:	0700                	.insn	2, 0x0700
     1f8:	079c                	.insn	2, 0x079c
     1fa:	8000                	.insn	2, 0x8000
     1fc:	07a4                	.insn	2, 0x07a4
     1fe:	8000                	.insn	2, 0x8000
     200:	7a08                	.insn	2, 0x7a08
     202:	3000                	.insn	2, 0x3000
     204:	0829                	.insn	2, 0x0829
     206:	009f1aff 0007d007 	.insn	12, 0x0007d8800007d007009f1aff
     20e:	0007d880 
     212:	0880                	.insn	2, 0x0880
     214:	007a                	.insn	2, 0x007a
     216:	2930                	.insn	2, 0x2930
     218:	ff08                	.insn	2, 0xff08
     21a:	9f1a                	.insn	2, 0x9f1a
     21c:	0700                	.insn	2, 0x0700
     21e:	001c                	.insn	2, 0x001c
     220:	8000                	.insn	2, 0x8000
     222:	0088                	.insn	2, 0x0088
     224:	8000                	.insn	2, 0x8000
     226:	9f300803          	lb	a6,-1549(zero) # fffff9f3 <_sp+0x77fff9f3>
     22a:	0700                	.insn	2, 0x0700
     22c:	0078                	.insn	2, 0x0078
     22e:	8000                	.insn	2, 0x8000
     230:	00b0                	.insn	2, 0x00b0
     232:	8000                	.insn	2, 0x8000
     234:	5f01                	.insn	2, 0x5f01
     236:	0000b007          	.insn	4, 0xb007
     23a:	db80                	.insn	2, 0xdb80
     23c:	0000                	.insn	2, 0x0000
     23e:	0580                	.insn	2, 0x0580
     240:	00463c03          	.insn	4, 0x00463c03
     244:	0080                	.insn	2, 0x0080
     246:	00008807          	.insn	4, 0x8807
     24a:	d880                	.insn	2, 0xd880
     24c:	0000                	.insn	2, 0x0000
     24e:	0380                	.insn	2, 0x0380
     250:	3008                	.insn	2, 0x3008
     252:	009f a007 0000      	.insn	6, 0xa007009f
     258:	c080                	.insn	2, 0xc080
     25a:	0001                	.insn	2, 0x0001
     25c:	0180                	.insn	2, 0x0180
     25e:	0064                	.insn	2, 0x0064
     260:	0001c807          	.insn	4, 0x0001c807
     264:	d080                	.insn	2, 0xd080
     266:	0001                	.insn	2, 0x0001
     268:	0280                	.insn	2, 0x0280
     26a:	9f31                	.insn	2, 0x9f31
     26c:	0700                	.insn	2, 0x0700
     26e:	021c                	.insn	2, 0x021c
     270:	8000                	.insn	2, 0x8000
     272:	0230                	.insn	2, 0x0230
     274:	8000                	.insn	2, 0x8000
     276:	9104                	.insn	2, 0x9104
     278:	7fa0                	.insn	2, 0x7fa0
     27a:	079f 0230 8000      	.insn	6, 0x80000230079f
     280:	80000237          	lui	tp,0x80000
     284:	5b01                	.insn	2, 0x5b01
     286:	00023707          	.insn	4, 0x00023707
     28a:	3880                	.insn	2, 0x3880
     28c:	0002                	.insn	2, 0x0002
     28e:	0480                	.insn	2, 0x0480
     290:	a091                	.insn	2, 0xa091
     292:	a0079f7f a8800003 	.insn	12, 0x04800003a8800003a0079f7f
     29a:	04800003 
     29e:	a091                	.insn	2, 0xa091
     2a0:	07009f7f 8000021c 	.insn	12, 0x800002348000021c07009f7f
     2a8:	80000234 
     2ac:	9104                	.insn	2, 0x9104
     2ae:	7f80                	.insn	2, 0x7f80
     2b0:	079f 0234 8000      	.insn	6, 0x80000234079f
     2b6:	80000237          	lui	tp,0x80000
     2ba:	5a01                	.insn	2, 0x5a01
     2bc:	00023707          	.insn	4, 0x00023707
     2c0:	3880                	.insn	2, 0x3880
     2c2:	0002                	.insn	2, 0x0002
     2c4:	0480                	.insn	2, 0x0480
     2c6:	8091                	.insn	2, 0x8091
     2c8:	a0079f7f a8800003 	.insn	12, 0x04800003a8800003a0079f7f
     2d0:	04800003 
     2d4:	8091                	.insn	2, 0x8091
     2d6:	07009f7f 8000021c 	.insn	12, 0x8000022c8000021c07009f7f
     2de:	8000022c 
     2e2:	3202                	.insn	2, 0x3202
     2e4:	079f 022c 8000      	.insn	6, 0x8000022c079f
     2ea:	0238                	.insn	2, 0x0238
     2ec:	8000                	.insn	2, 0x8000
     2ee:	3302                	.insn	2, 0x3302
     2f0:	079f 03a0 8000      	.insn	6, 0x800003a0079f
     2f6:	03a8                	.insn	2, 0x03a8
     2f8:	8000                	.insn	2, 0x8000
     2fa:	3202                	.insn	2, 0x3202
     2fc:	009f 2007 0002      	.insn	6, 0x00022007009f
     302:	2c80                	.insn	2, 0x2c80
     304:	0002                	.insn	2, 0x0002
     306:	0380                	.insn	2, 0x0380
     308:	a391                	.insn	2, 0xa391
     30a:	077f 03a0 8000 03a8 	.insn	10, 0x800003a8800003a0077f
     312:	8000 
     314:	7fa39103          	lh	sp,2042(t2)
     318:	0700                	.insn	2, 0x0700
     31a:	0220                	.insn	2, 0x0220
     31c:	8000                	.insn	2, 0x8000
     31e:	022c                	.insn	2, 0x022c
     320:	8000                	.insn	2, 0x8000
     322:	7f829103          	lh	sp,2040(t0)
     326:	0003a007          	.insn	4, 0x0003a007
     32a:	a880                	.insn	2, 0xa880
     32c:	03800003          	lb	zero,56(zero) # 38 <__stack_size-0x1ffffc8>
     330:	8291                	.insn	2, 0x8291
     332:	007f 2007 0002 3780 	.insn	10, 0x0002378000022007007f
     33a:	0002 
     33c:	0380                	.insn	2, 0x0380
     33e:	8291                	.insn	2, 0x8291
     340:	077f 03a0 8000 03a8 	.insn	10, 0x800003a8800003a0077f
     348:	8000 
     34a:	7f829103          	lh	sp,2040(t0)
     34e:	0700                	.insn	2, 0x0700
     350:	02a4                	.insn	2, 0x02a4
     352:	8000                	.insn	2, 0x8000
     354:	02b0                	.insn	2, 0x02b0
     356:	8000                	.insn	2, 0x8000
     358:	9f430803          	lb	a6,-1548(t1)
     35c:	00031407          	.insn	4, 0x00031407
     360:	5c80                	.insn	2, 0x5c80
     362:	03800003          	lb	zero,56(zero) # 38 <__stack_size-0x1ffffc8>
     366:	4308                	.insn	2, 0x4308
     368:	079f 0394 8000      	.insn	6, 0x80000394079f
     36e:	03a0                	.insn	2, 0x03a0
     370:	8000                	.insn	2, 0x8000
     372:	9f430803          	lb	a6,-1548(t1)
     376:	0003bc07          	.insn	4, 0x0003bc07
     37a:	c480                	.insn	2, 0xc480
     37c:	03800003          	lb	zero,56(zero) # 38 <__stack_size-0x1ffffc8>
     380:	4308                	.insn	2, 0x4308
     382:	009f a407 0002      	.insn	6, 0x0002a407009f
     388:	b080                	.insn	2, 0xb080
     38a:	0002                	.insn	2, 0x0002
     38c:	0180                	.insn	2, 0x0180
     38e:	075f 0314 8000      	.insn	6, 0x80000314075f
     394:	0328                	.insn	2, 0x0328
     396:	8000                	.insn	2, 0x8000
     398:	5f01                	.insn	2, 0x5f01
     39a:	00039407          	.insn	4, 0x00039407
     39e:	a080                	.insn	2, 0xa080
     3a0:	01800003          	lb	zero,24(zero) # 18 <__stack_size-0x1ffffe8>
     3a4:	075f 03bc 8000      	.insn	6, 0x800003bc075f
     3aa:	03c4                	.insn	2, 0x03c4
     3ac:	8000                	.insn	2, 0x8000
     3ae:	5f01                	.insn	2, 0x5f01
     3b0:	0700                	.insn	2, 0x0700
     3b2:	035c                	.insn	2, 0x035c
     3b4:	8000                	.insn	2, 0x8000
     3b6:	0370                	.insn	2, 0x0370
     3b8:	8000                	.insn	2, 0x8000
     3ba:	a006                	.insn	2, 0xa006
     3bc:	03a8                	.insn	2, 0x03a8
     3be:	0000                	.insn	2, 0x0000
     3c0:	0000                	.insn	2, 0x0000
     3c2:	00036407          	.insn	4, 0x00036407
     3c6:	6c80                	.insn	2, 0x6c80
     3c8:	03800003          	lb	zero,56(zero) # 38 <__stack_size-0x1ffffc8>
     3cc:	097a                	.insn	2, 0x097a
     3ce:	079f 036c 8000      	.insn	6, 0x8000036c079f
     3d4:	0370                	.insn	2, 0x0370
     3d6:	8000                	.insn	2, 0x8000
     3d8:	5a01                	.insn	2, 0x5a01
     3da:	0700                	.insn	2, 0x0700
     3dc:	0370                	.insn	2, 0x0370
     3de:	8000                	.insn	2, 0x8000
     3e0:	0394                	.insn	2, 0x0394
     3e2:	8000                	.insn	2, 0x8000
     3e4:	3002                	.insn	2, 0x3002
     3e6:	079f 03c4 8000      	.insn	6, 0x800003c4079f
     3ec:	0840                	.insn	2, 0x0840
     3ee:	8000                	.insn	2, 0x8000
     3f0:	3002                	.insn	2, 0x3002
     3f2:	009f e007 0003      	.insn	6, 0x0003e007009f
     3f8:	f880                	.insn	2, 0xf880
     3fa:	08800003          	lb	zero,136(zero) # 88 <__stack_size-0x1ffff78>
     3fe:	2935007b          	.insn	4, 0x2935007b
     402:	ff08                	.insn	2, 0xff08
     404:	9f1a                	.insn	2, 0x9f1a
     406:	00083807          	.insn	4, 0x00083807
     40a:	4080                	.insn	2, 0x4080
     40c:	0008                	.insn	2, 0x0008
     40e:	0880                	.insn	2, 0x0880
     410:	2935007b          	.insn	4, 0x2935007b
     414:	ff08                	.insn	2, 0xff08
     416:	9f1a                	.insn	2, 0x9f1a
     418:	0700                	.insn	2, 0x0700
     41a:	0414                	.insn	2, 0x0414
     41c:	8000                	.insn	2, 0x8000
     41e:	042c                	.insn	2, 0x042c
     420:	8000                	.insn	2, 0x8000
     422:	7b08                	.insn	2, 0x7b08
     424:	3100                	.insn	2, 0x3100
     426:	0829                	.insn	2, 0x0829
     428:	009f1aff 00044807 	.insn	12, 0x0004608000044807009f1aff
     430:	00046080 
     434:	0c80                	.insn	2, 0x0c80
     436:	ff08007b          	.insn	4, 0xff08007b
     43a:	081a                	.insn	2, 0x081a
     43c:	2941                	.insn	2, 0x2941
     43e:	ff08                	.insn	2, 0xff08
     440:	9f1a                	.insn	2, 0x9f1a
     442:	0700                	.insn	2, 0x0700
     444:	047c                	.insn	2, 0x047c
     446:	8000                	.insn	2, 0x8000
     448:	0494                	.insn	2, 0x0494
     44a:	8000                	.insn	2, 0x8000
     44c:	7b0c                	.insn	2, 0x7b0c
     44e:	0800                	.insn	2, 0x0800
     450:	42081aff 1aff0829 	.insn	12, 0xb007009f1aff082942081aff
     458:	b007009f 
     45c:	0004                	.insn	2, 0x0004
     45e:	c880                	.insn	2, 0xc880
     460:	0004                	.insn	2, 0x0004
     462:	0880                	.insn	2, 0x0880
     464:	2937007b          	.insn	4, 0x2937007b
     468:	ff08                	.insn	2, 0xff08
     46a:	9f1a                	.insn	2, 0x9f1a
     46c:	0700                	.insn	2, 0x0700
     46e:	04e4                	.insn	2, 0x04e4
     470:	8000                	.insn	2, 0x8000
     472:	0500                	.insn	2, 0x0500
     474:	8000                	.insn	2, 0x8000
     476:	7b0a                	.insn	2, 0x7b0a
     478:	0a00                	.insn	2, 0x0a00
     47a:	271a                	.insn	2, 0x271a
     47c:	0829                	.insn	2, 0x0829
     47e:	009f1aff 00052007 	.insn	12, 0x0005348000052007009f1aff
     486:	00053480 
     48a:	0880                	.insn	2, 0x0880
     48c:	2930007b          	.insn	4, 0x2930007b
     490:	ff08                	.insn	2, 0xff08
     492:	9f1a                	.insn	2, 0x9f1a
     494:	0700                	.insn	2, 0x0700
     496:	055c                	.insn	2, 0x055c
     498:	8000                	.insn	2, 0x8000
     49a:	0570                	.insn	2, 0x0570
     49c:	8000                	.insn	2, 0x8000
     49e:	7b08                	.insn	2, 0x7b08
     4a0:	3200                	.insn	2, 0x3200
     4a2:	0829                	.insn	2, 0x0829
     4a4:	009f1aff 00059807 	.insn	12, 0x0005ac8000059807009f1aff
     4ac:	0005ac80 
     4b0:	0880                	.insn	2, 0x0880
     4b2:	2941007b          	.insn	4, 0x2941007b
     4b6:	ff08                	.insn	2, 0xff08
     4b8:	9f1a                	.insn	2, 0x9f1a
     4ba:	0700                	.insn	2, 0x0700
     4bc:	061c                	.insn	2, 0x061c
     4be:	8000                	.insn	2, 0x8000
     4c0:	0630                	.insn	2, 0x0630
     4c2:	8000                	.insn	2, 0x8000
     4c4:	7b08                	.insn	2, 0x7b08
     4c6:	3000                	.insn	2, 0x3000
     4c8:	0829                	.insn	2, 0x0829
     4ca:	009f1aff 00065807 	.insn	12, 0x00066c8000065807009f1aff
     4d2:	00066c80 
     4d6:	0880                	.insn	2, 0x0880
     4d8:	2931007b          	.insn	4, 0x2931007b
     4dc:	ff08                	.insn	2, 0xff08
     4de:	9f1a                	.insn	2, 0x9f1a
     4e0:	0700                	.insn	2, 0x0700
     4e2:	0694                	.insn	2, 0x0694
     4e4:	8000                	.insn	2, 0x8000
     4e6:	06a8                	.insn	2, 0x06a8
     4e8:	8000                	.insn	2, 0x8000
     4ea:	7b08                	.insn	2, 0x7b08
     4ec:	4200                	.insn	2, 0x4200
     4ee:	0829                	.insn	2, 0x0829
     4f0:	009f1aff 00070c07 	.insn	12, 0x0007248000070c07009f1aff
     4f8:	00072480 
     4fc:	0880                	.insn	2, 0x0880
     4fe:	007f 2935 ff08 9f1a 	.insn	10, 0x07009f1aff082935007f
     506:	0700 
     508:	0738                	.insn	2, 0x0738
     50a:	8000                	.insn	2, 0x8000
     50c:	0750                	.insn	2, 0x0750
     50e:	8000                	.insn	2, 0x8000
     510:	8408                	.insn	2, 0x8408
     512:	3d00                	.insn	2, 0x3d00
     514:	0829                	.insn	2, 0x0829
     516:	009f1aff 00076407 	.insn	12, 0x0007788000076407009f1aff
     51e:	00077880 
     522:	0880                	.insn	2, 0x0880
     524:	0079                	.insn	2, 0x0079
     526:	2931                	.insn	2, 0x2931
     528:	ff08                	.insn	2, 0xff08
     52a:	9f1a                	.insn	2, 0x9f1a
     52c:	0700                	.insn	2, 0x0700
     52e:	0938                	.insn	2, 0x0938
     530:	8000                	.insn	2, 0x8000
     532:	0a60                	.insn	2, 0x0a60
     534:	8000                	.insn	2, 0x8000
     536:	5a01                	.insn	2, 0x5a01
     538:	000a6007          	.insn	4, 0x000a6007
     53c:	9080                	.insn	2, 0x9080
     53e:	000a                	.insn	2, 0x000a
     540:	0480                	.insn	2, 0x0480
     542:	9f5a01a3          	sb	s5,-1565(s4)
     546:	0700                	.insn	2, 0x0700
     548:	0950                	.insn	2, 0x0950
     54a:	8000                	.insn	2, 0x8000
     54c:	09f0                	.insn	2, 0x09f0
     54e:	8000                	.insn	2, 0x8000
     550:	5801                	.insn	2, 0x5801
     552:	000a5c07          	.insn	4, 0x000a5c07
     556:	8480                	.insn	2, 0x8480
     558:	000a                	.insn	2, 0x000a
     55a:	0180                	.insn	2, 0x0180
     55c:	0058                	.insn	2, 0x0058
     55e:	0009d807          	.insn	4, 0x0009d807
     562:	dc80                	.insn	2, 0xdc80
     564:	0009                	.insn	2, 0x0009
     566:	0180                	.insn	2, 0x0180
     568:	0058                	.insn	2, 0x0058
     56a:	0009d807          	.insn	4, 0x0009d807
     56e:	dc80                	.insn	2, 0xdc80
     570:	0009                	.insn	2, 0x0009
     572:	0380                	.insn	2, 0x0380
     574:	0c7d                	.insn	2, 0x0c7d
     576:	009f d807 0009      	.insn	6, 0x0009d807009f
     57c:	dc80                	.insn	2, 0xdc80
     57e:	0009                	.insn	2, 0x0009
     580:	0580                	.insn	2, 0x0580
     582:	00463803          	.insn	4, 0x00463803
     586:	0080                	.insn	2, 0x0080
     588:	0009d807          	.insn	4, 0x0009d807
     58c:	dc80                	.insn	2, 0xdc80
     58e:	0009                	.insn	2, 0x0009
     590:	0280                	.insn	2, 0x0280
     592:	9f3a                	.insn	2, 0x9f3a
     594:	0700                	.insn	2, 0x0700
     596:	09d8                	.insn	2, 0x09d8
     598:	8000                	.insn	2, 0x8000
     59a:	09dc                	.insn	2, 0x09dc
     59c:	8000                	.insn	2, 0x8000
     59e:	3c02                	.insn	2, 0x3c02
     5a0:	009f 7807 000a      	.insn	6, 0x000a7807009f
     5a6:	8480                	.insn	2, 0x8480
     5a8:	000a                	.insn	2, 0x000a
     5aa:	0380                	.insn	2, 0x0380
     5ac:	0c78                	.insn	2, 0x0c78
     5ae:	009f 4c07 0008      	.insn	6, 0x00084c07009f
     5b4:	5480                	.insn	2, 0x5480
     5b6:	0008                	.insn	2, 0x0008
     5b8:	0680                	.insn	2, 0x0680
     5ba:	007a                	.insn	2, 0x007a
     5bc:	2306                	.insn	2, 0x2306
     5be:	9f0a                	.insn	2, 0x9f0a
     5c0:	00085407          	.insn	4, 0x00085407
     5c4:	6480                	.insn	2, 0x6480
     5c6:	0008                	.insn	2, 0x0008
     5c8:	0680                	.insn	2, 0x0680
     5ca:	007a                	.insn	2, 0x007a
     5cc:	2306                	.insn	2, 0x2306
     5ce:	9f09                	.insn	2, 0x9f09
     5d0:	00086407          	.insn	4, 0x00086407
     5d4:	6880                	.insn	2, 0x6880
     5d6:	0008                	.insn	2, 0x0008
     5d8:	0180                	.insn	2, 0x0180
     5da:	075f 0868 8000      	.insn	6, 0x80000868075f
     5e0:	086c                	.insn	2, 0x086c
     5e2:	8000                	.insn	2, 0x8000
     5e4:	7a06                	.insn	2, 0x7a06
     5e6:	0600                	.insn	2, 0x0600
     5e8:	009f0923          	sb	s1,18(t5) # 483be <__stack_size-0x1fb7c42>
     5ec:	00088807          	.insn	4, 0x00088807
     5f0:	9880                	.insn	2, 0x9880
     5f2:	0008                	.insn	2, 0x0008
     5f4:	0980                	.insn	2, 0x0980
     5f6:	00464003          	lbu	zero,4(a2)
     5fa:	0680                	.insn	2, 0x0680
     5fc:	009f0c23          	sb	s1,24(t5)
     600:	00088807          	.insn	4, 0x00088807
     604:	9880                	.insn	2, 0x9880
     606:	0008                	.insn	2, 0x0008
     608:	0580                	.insn	2, 0x0580
     60a:	00463803          	.insn	4, 0x00463803
     60e:	0080                	.insn	2, 0x0080
     610:	00088807          	.insn	4, 0x00088807
     614:	9880                	.insn	2, 0x9880
     616:	0008                	.insn	2, 0x0008
     618:	0280                	.insn	2, 0x0280
     61a:	9f3a                	.insn	2, 0x9f3a
     61c:	0700                	.insn	2, 0x0700
     61e:	0888                	.insn	2, 0x0888
     620:	8000                	.insn	2, 0x8000
     622:	0898                	.insn	2, 0x0898
     624:	8000                	.insn	2, 0x8000
     626:	3c02                	.insn	2, 0x3c02
     628:	009f e407 0008      	.insn	6, 0x0008e407009f
     62e:	ec80                	.insn	2, 0xec80
     630:	0008                	.insn	2, 0x0008
     632:	0180                	.insn	2, 0x0180
     634:	005a                	.insn	2, 0x005a
     636:	00091007          	.insn	4, 0x00091007
     63a:	2080                	.insn	2, 0x2080
     63c:	0009                	.insn	2, 0x0009
     63e:	0280                	.insn	2, 0x0280
     640:	9f31                	.insn	2, 0x9f31
     642:	0700                	.insn	2, 0x0700
     644:	0910                	.insn	2, 0x0910
     646:	8000                	.insn	2, 0x8000
     648:	0920                	.insn	2, 0x0920
     64a:	8000                	.insn	2, 0x8000
     64c:	5b01                	.insn	2, 0x5b01
     64e:	0700                	.insn	2, 0x0700
     650:	0a90                	.insn	2, 0x0a90
     652:	8000                	.insn	2, 0x8000
     654:	0a94                	.insn	2, 0x0a94
     656:	8000                	.insn	2, 0x8000
     658:	5a01                	.insn	2, 0x5a01
     65a:	000a9407          	.insn	4, 0x000a9407
     65e:	9880                	.insn	2, 0x9880
     660:	000a                	.insn	2, 0x000a
     662:	0380                	.insn	2, 0x0380
     664:	7e7a                	.insn	2, 0x7e7a
     666:	079f 0a98 8000      	.insn	6, 0x80000a98079f
     66c:	0aa0                	.insn	2, 0x0aa0
     66e:	8000                	.insn	2, 0x8000
     670:	a304                	.insn	2, 0xa304
     672:	5a01                	.insn	2, 0x5a01
     674:	009f 9007 000a      	.insn	6, 0x000a9007009f
     67a:	9480                	.insn	2, 0x9480
     67c:	000a                	.insn	2, 0x000a
     67e:	0380                	.insn	2, 0x0380
     680:	027a                	.insn	2, 0x027a
     682:	079f 0a94 8000      	.insn	6, 0x80000a94079f
     688:	0a98                	.insn	2, 0x0a98
     68a:	8000                	.insn	2, 0x8000
     68c:	5a01                	.insn	2, 0x5a01
     68e:	000a9807          	.insn	4, 0x000a9807
     692:	a080                	.insn	2, 0xa080
     694:	000a                	.insn	2, 0x000a
     696:	0680                	.insn	2, 0x0680
     698:	235a01a3          	sb	s5,547(s4)
     69c:	9f02                	.insn	2, 0x9f02
     69e:	0700                	.insn	2, 0x0700
     6a0:	0aa0                	.insn	2, 0x0aa0
     6a2:	8000                	.insn	2, 0x8000
     6a4:	0ac4                	.insn	2, 0x0ac4
     6a6:	8000                	.insn	2, 0x8000
     6a8:	5a01                	.insn	2, 0x5a01
     6aa:	000ac407          	.insn	4, 0x000ac407
     6ae:	1480                	.insn	2, 0x1480
     6b0:	0480000b          	.insn	4, 0x0480000b
     6b4:	9f5a01a3          	sb	s5,-1565(s4)
     6b8:	0700                	.insn	2, 0x0700
     6ba:	0aa0                	.insn	2, 0x0aa0
     6bc:	8000                	.insn	2, 0x8000
     6be:	0af4                	.insn	2, 0x0af4
     6c0:	8000                	.insn	2, 0x8000
     6c2:	5b01                	.insn	2, 0x5b01
     6c4:	000af407          	.insn	4, 0x000af407
     6c8:	1480                	.insn	2, 0x1480
     6ca:	0480000b          	.insn	4, 0x0480000b
     6ce:	9f5b01a3          	sb	s5,-1565(s6)
     6d2:	0700                	.insn	2, 0x0700
     6d4:	0aa0                	.insn	2, 0x0aa0
     6d6:	8000                	.insn	2, 0x8000
     6d8:	0ac0                	.insn	2, 0x0ac0
     6da:	8000                	.insn	2, 0x8000
     6dc:	5c01                	.insn	2, 0x5c01
     6de:	000ac007          	.insn	4, 0x000ac007
     6e2:	e880                	.insn	2, 0xe880
     6e4:	000a                	.insn	2, 0x000a
     6e6:	0380                	.insn	2, 0x0380
     6e8:	7b7e                	.insn	2, 0x7b7e
     6ea:	079f 0ae8 8000      	.insn	6, 0x80000ae8079f
     6f0:	0b04                	.insn	2, 0x0b04
     6f2:	8000                	.insn	2, 0x8000
     6f4:	7d06                	.insn	2, 0x7d06
     6f6:	0614                	.insn	2, 0x0614
     6f8:	1c35                	.insn	2, 0x1c35
     6fa:	079f 0b04 8000      	.insn	6, 0x80000b04079f
     700:	0b14                	.insn	2, 0x0b14
     702:	8000                	.insn	2, 0x8000
     704:	a304                	.insn	2, 0xa304
     706:	5c01                	.insn	2, 0x5c01
     708:	009f a007 000a      	.insn	6, 0x000aa007009f
     70e:	d880                	.insn	2, 0xd880
     710:	000a                	.insn	2, 0x000a
     712:	0180                	.insn	2, 0x0180
     714:	075d                	.insn	2, 0x075d
     716:	0ad8                	.insn	2, 0x0ad8
     718:	8000                	.insn	2, 0x8000
     71a:	0ae0                	.insn	2, 0x0ae0
     71c:	8000                	.insn	2, 0x8000
     71e:	7a02                	.insn	2, 0x7a02
     720:	0700                	.insn	2, 0x0700
     722:	0ae0                	.insn	2, 0x0ae0
     724:	8000                	.insn	2, 0x8000
     726:	0b14                	.insn	2, 0x0b14
     728:	8000                	.insn	2, 0x8000
     72a:	a304                	.insn	2, 0xa304
     72c:	5d01                	.insn	2, 0x5d01
     72e:	009f d407 000a      	.insn	6, 0x000ad407009f
     734:	e080                	.insn	2, 0xe080
     736:	000a                	.insn	2, 0x000a
     738:	0180                	.insn	2, 0x0180
     73a:	075e                	.insn	2, 0x075e
     73c:	0ae0                	.insn	2, 0x0ae0
     73e:	8000                	.insn	2, 0x8000
     740:	0ae4                	.insn	2, 0x0ae4
     742:	8000                	.insn	2, 0x8000
     744:	9f017e03          	.insn	4, 0x9f017e03
     748:	000ae407          	.insn	4, 0x000ae407
     74c:	e880                	.insn	2, 0xe880
     74e:	000a                	.insn	2, 0x000a
     750:	0380                	.insn	2, 0x0380
     752:	027e                	.insn	2, 0x027e
     754:	079f 0ae8 8000      	.insn	6, 0x80000ae8079f
     75a:	0b04                	.insn	2, 0x0b04
     75c:	8000                	.insn	2, 0x8000
     75e:	7d06                	.insn	2, 0x7d06
     760:	0614                	.insn	2, 0x0614
     762:	079f0223          	sb	s9,100(t5)
     766:	0b04                	.insn	2, 0x0b04
     768:	8000                	.insn	2, 0x8000
     76a:	0b14                	.insn	2, 0x0b14
     76c:	8000                	.insn	2, 0x8000
     76e:	a306                	.insn	2, 0xa306
     770:	5c01                	.insn	2, 0x5c01
     772:	009f0723          	sb	s1,14(t5)
     776:	000aa407          	.insn	4, 0x000aa407
     77a:	e880                	.insn	2, 0xe880
     77c:	000a                	.insn	2, 0x000a
     77e:	0180                	.insn	2, 0x0180
     780:	075e                	.insn	2, 0x075e
     782:	0ae8                	.insn	2, 0x0ae8
     784:	8000                	.insn	2, 0x8000
     786:	0b04                	.insn	2, 0x0b04
     788:	8000                	.insn	2, 0x8000
     78a:	7d02                	.insn	2, 0x7d02
     78c:	0714                	.insn	2, 0x0714
     78e:	0b04                	.insn	2, 0x0b04
     790:	8000                	.insn	2, 0x8000
     792:	0b14                	.insn	2, 0x0b14
     794:	8000                	.insn	2, 0x8000
     796:	a306                	.insn	2, 0xa306
     798:	5c01                	.insn	2, 0x5c01
     79a:	009f0523          	sb	s1,10(t5)
     79e:	000b1407          	.insn	4, 0x000b1407
     7a2:	2480                	.insn	2, 0x2480
     7a4:	0180000b          	.insn	4, 0x0180000b
     7a8:	075a                	.insn	2, 0x075a
     7aa:	0b24                	.insn	2, 0x0b24
     7ac:	8000                	.insn	2, 0x8000
     7ae:	0b38                	.insn	2, 0x0b38
     7b0:	8000                	.insn	2, 0x8000
     7b2:	a304                	.insn	2, 0xa304
     7b4:	5a01                	.insn	2, 0x5a01
     7b6:	009f 1807 000b      	.insn	6, 0x000b1807009f
     7bc:	2480                	.insn	2, 0x2480
     7be:	0180000b          	.insn	4, 0x0180000b
     7c2:	075a                	.insn	2, 0x075a
     7c4:	0b24                	.insn	2, 0x0b24
     7c6:	8000                	.insn	2, 0x8000
     7c8:	0b28                	.insn	2, 0x0b28
     7ca:	8000                	.insn	2, 0x8000
     7cc:	a304                	.insn	2, 0xa304
     7ce:	5a01                	.insn	2, 0x5a01
     7d0:	079f 0b28 8000      	.insn	6, 0x80000b28079f
     7d6:	0b34                	.insn	2, 0x0b34
     7d8:	8000                	.insn	2, 0x8000
     7da:	5a01                	.insn	2, 0x5a01
     7dc:	000b3407          	.insn	4, 0x000b3407
     7e0:	3880                	.insn	2, 0x3880
     7e2:	0580000b          	.insn	4, 0x0580000b
     7e6:	00463103          	.insn	4, 0x00463103
     7ea:	0080                	.insn	2, 0x0080
     7ec:	000b1807          	.insn	4, 0x000b1807
     7f0:	2480                	.insn	2, 0x2480
     7f2:	0180000b          	.insn	4, 0x0180000b
     7f6:	075a                	.insn	2, 0x075a
     7f8:	0b24                	.insn	2, 0x0b24
     7fa:	8000                	.insn	2, 0x8000
     7fc:	0b28                	.insn	2, 0x0b28
     7fe:	8000                	.insn	2, 0x8000
     800:	a304                	.insn	2, 0xa304
     802:	5a01                	.insn	2, 0x5a01
     804:	079f 0b28 8000      	.insn	6, 0x80000b28079f
     80a:	0b34                	.insn	2, 0x0b34
     80c:	8000                	.insn	2, 0x8000
     80e:	5a01                	.insn	2, 0x5a01
     810:	000b3407          	.insn	4, 0x000b3407
     814:	3880                	.insn	2, 0x3880
     816:	0580000b          	.insn	4, 0x0580000b
     81a:	00463103          	.insn	4, 0x00463103
     81e:	0080                	.insn	2, 0x0080
     820:	000b3807          	.insn	4, 0x000b3807
     824:	6380                	.insn	2, 0x6380
     826:	0180000b          	.insn	4, 0x0180000b
     82a:	075a                	.insn	2, 0x075a
     82c:	80000b63          	beq	zero,zero,fffff842 <_sp+0x77fff842>
     830:	0b8c                	.insn	2, 0x0b8c
     832:	8000                	.insn	2, 0x8000
     834:	a304                	.insn	2, 0xa304
     836:	5a01                	.insn	2, 0x5a01
     838:	079f 0b8c 8000      	.insn	6, 0x80000b8c079f
     83e:	0b98                	.insn	2, 0x0b98
     840:	8000                	.insn	2, 0x8000
     842:	5a01                	.insn	2, 0x5a01
     844:	0700                	.insn	2, 0x0700
     846:	0b38                	.insn	2, 0x0b38
     848:	8000                	.insn	2, 0x8000
     84a:	80000b63          	beq	zero,zero,fffff860 <_sp+0x77fff860>
     84e:	5b01                	.insn	2, 0x5b01
     850:	000b6307          	.insn	4, 0x000b6307
     854:	8c80                	.insn	2, 0x8c80
     856:	0480000b          	.insn	4, 0x0480000b
     85a:	9f5b01a3          	sb	s5,-1565(s6)
     85e:	000b8c07          	.insn	4, 0x000b8c07
     862:	9880                	.insn	2, 0x9880
     864:	0180000b          	.insn	4, 0x0180000b
     868:	3807005b          	.insn	4, 0x3807005b
     86c:	6080000b          	.insn	4, 0x6080000b
     870:	0280000b          	.insn	4, 0x0280000b
     874:	9f32                	.insn	2, 0x9f32
     876:	000b6007          	.insn	4, 0x000b6007
     87a:	6c80                	.insn	2, 0x6c80
     87c:	0280000b          	.insn	4, 0x0280000b
     880:	6c079f33          	.insn	4, 0x6c079f33
     884:	7c80000b          	.insn	4, 0x7c80000b
     888:	0280000b          	.insn	4, 0x0280000b
     88c:	9f3a                	.insn	2, 0x9f3a
     88e:	000b8c07          	.insn	4, 0x000b8c07
     892:	9880                	.insn	2, 0x9880
     894:	0280000b          	.insn	4, 0x0280000b
     898:	9f32                	.insn	2, 0x9f32
     89a:	0700                	.insn	2, 0x0700
     89c:	0b50                	.insn	2, 0x0b50
     89e:	8000                	.insn	2, 0x8000
     8a0:	0b60                	.insn	2, 0x0b60
     8a2:	8000                	.insn	2, 0x8000
     8a4:	7b02                	.insn	2, 0x7b02
     8a6:	0b8c0703          	lb	a4,184(s8)
     8aa:	8000                	.insn	2, 0x8000
     8ac:	0b98                	.insn	2, 0x0b98
     8ae:	8000                	.insn	2, 0x8000
     8b0:	7b02                	.insn	2, 0x7b02
     8b2:	50070003          	lb	zero,1280(a4)
     8b6:	6080000b          	.insn	4, 0x6080000b
     8ba:	0280000b          	.insn	4, 0x0280000b
     8be:	027a                	.insn	2, 0x027a
     8c0:	000b8c07          	.insn	4, 0x000b8c07
     8c4:	9880                	.insn	2, 0x9880
     8c6:	0280000b          	.insn	4, 0x0280000b
     8ca:	027a                	.insn	2, 0x027a
     8cc:	0700                	.insn	2, 0x0700
     8ce:	0b50                	.insn	2, 0x0b50
     8d0:	8000                	.insn	2, 0x8000
     8d2:	80000b63          	beq	zero,zero,fffff8e8 <_sp+0x77fff8e8>
     8d6:	7a02                	.insn	2, 0x7a02
     8d8:	0702                	.insn	2, 0x0702
     8da:	0b8c                	.insn	2, 0x0b8c
     8dc:	8000                	.insn	2, 0x8000
     8de:	0b98                	.insn	2, 0x0b98
     8e0:	8000                	.insn	2, 0x8000
     8e2:	7a02                	.insn	2, 0x7a02
     8e4:	0002                	.insn	2, 0x0002
     8e6:	000b9807          	.insn	4, 0x000b9807
     8ea:	9c80                	.insn	2, 0x9c80
     8ec:	0180000b          	.insn	4, 0x0180000b
     8f0:	075a                	.insn	2, 0x075a
     8f2:	0b9c                	.insn	2, 0x0b9c
     8f4:	8000                	.insn	2, 0x8000
     8f6:	0ba0                	.insn	2, 0x0ba0
     8f8:	8000                	.insn	2, 0x8000
     8fa:	9f027a03          	.insn	4, 0x9f027a03
     8fe:	000ba007          	.insn	4, 0x000ba007
     902:	a480                	.insn	2, 0xa480
     904:	0480000b          	.insn	4, 0x0480000b
     908:	9f5a01a3          	sb	s5,-1565(s4)
     90c:	0700                	.insn	2, 0x0700
     90e:	0b98                	.insn	2, 0x0b98
     910:	8000                	.insn	2, 0x8000
     912:	0b9c                	.insn	2, 0x0b9c
     914:	8000                	.insn	2, 0x8000
     916:	5a01                	.insn	2, 0x5a01
     918:	000b9c07          	.insn	4, 0x000b9c07
     91c:	a080                	.insn	2, 0xa080
     91e:	0380000b          	.insn	4, 0x0380000b
     922:	027a                	.insn	2, 0x027a
     924:	079f 0ba0 8000      	.insn	6, 0x80000ba0079f
     92a:	0ba4                	.insn	2, 0x0ba4
     92c:	8000                	.insn	2, 0x8000
     92e:	a304                	.insn	2, 0xa304
     930:	5a01                	.insn	2, 0x5a01
     932:	009f 0805 0000      	.insn	6, 0x0805009f
     938:	0005                	.insn	2, 0x0005
     93a:	0004                	.insn	2, 0x0004
     93c:	0000                	.insn	2, 0x0000
     93e:	0000                	.insn	2, 0x0000
     940:	000c5c07          	.insn	4, 0x000c5c07
     944:	b880                	.insn	2, 0xb880
     946:	000c                	.insn	2, 0x000c
     948:	0180                	.insn	2, 0x0180
     94a:	075a                	.insn	2, 0x075a
     94c:	0cb8                	.insn	2, 0x0cb8
     94e:	8000                	.insn	2, 0x8000
     950:	0cec                	.insn	2, 0x0cec
     952:	8000                	.insn	2, 0x8000
     954:	6801                	.insn	2, 0x6801
     956:	000cec07          	.insn	4, 0x000cec07
     95a:	9480                	.insn	2, 0x9480
     95c:	0012                	.insn	2, 0x0012
     95e:	0480                	.insn	2, 0x0480
     960:	9f5a01a3          	sb	s5,-1565(s4)
     964:	0700                	.insn	2, 0x0700
     966:	0cc4                	.insn	2, 0x0cc4
     968:	8000                	.insn	2, 0x8000
     96a:	0cec                	.insn	2, 0x0cec
     96c:	8000                	.insn	2, 0x8000
     96e:	6501                	.insn	2, 0x6501
     970:	000e2407          	.insn	4, 0x000e2407
     974:	3480                	.insn	2, 0x3480
     976:	000e                	.insn	2, 0x000e
     978:	0780                	.insn	2, 0x0780
     97a:	f491                	.insn	2, 0xf491
     97c:	067e                	.insn	2, 0x067e
     97e:	079f0423          	sb	s9,104(t5)
     982:	0e34                	.insn	2, 0x0e34
     984:	8000                	.insn	2, 0x8000
     986:	0e3c                	.insn	2, 0x0e3c
     988:	8000                	.insn	2, 0x8000
     98a:	5f01                	.insn	2, 0x5f01
     98c:	000e3c07          	.insn	4, 0x000e3c07
     990:	4080                	.insn	2, 0x4080
     992:	000e                	.insn	2, 0x000e
     994:	0380                	.insn	2, 0x0380
     996:	f491                	.insn	2, 0xf491
     998:	077e                	.insn	2, 0x077e
     99a:	0e70                	.insn	2, 0x0e70
     99c:	8000                	.insn	2, 0x8000
     99e:	0e88                	.insn	2, 0x0e88
     9a0:	8000                	.insn	2, 0x8000
     9a2:	6501                	.insn	2, 0x6501
     9a4:	000e9807          	.insn	4, 0x000e9807
     9a8:	a480                	.insn	2, 0xa480
     9aa:	0180000f          	fence	w,i
     9ae:	0765                	.insn	2, 0x0765
     9b0:	0fb0                	.insn	2, 0x0fb0
     9b2:	8000                	.insn	2, 0x8000
     9b4:	0fc0                	.insn	2, 0x0fc0
     9b6:	8000                	.insn	2, 0x8000
     9b8:	7ef49107          	.insn	4, 0x7ef49107
     9bc:	2306                	.insn	2, 0x2306
     9be:	9f04                	.insn	2, 0x9f04
     9c0:	000fc007          	.insn	4, 0x000fc007
     9c4:	c480                	.insn	2, 0xc480
     9c6:	0180000f          	fence	w,i
     9ca:	075f 1168 8000      	.insn	6, 0x80001168075f
     9d0:	116c                	.insn	2, 0x116c
     9d2:	8000                	.insn	2, 0x8000
     9d4:	9f087f03          	.insn	4, 0x9f087f03
     9d8:	00116c07          	.insn	4, 0x00116c07
     9dc:	7480                	.insn	2, 0x7480
     9de:	0011                	.insn	2, 0x0011
     9e0:	0380                	.insn	2, 0x0380
     9e2:	047f 079f 1180 8000 	.insn	10, 0x119480001180079f047f
     9ea:	1194 
     9ec:	8000                	.insn	2, 0x8000
     9ee:	7ef49107          	.insn	4, 0x7ef49107
     9f2:	2306                	.insn	2, 0x2306
     9f4:	9f04                	.insn	2, 0x9f04
     9f6:	00119407          	.insn	4, 0x00119407
     9fa:	9c80                	.insn	2, 0x9c80
     9fc:	0011                	.insn	2, 0x0011
     9fe:	0180                	.insn	2, 0x0180
     a00:	075f 11d0 8000      	.insn	6, 0x800011d0075f
     a06:	11e0                	.insn	2, 0x11e0
     a08:	8000                	.insn	2, 0x8000
     a0a:	6501                	.insn	2, 0x6501
     a0c:	0011ec07          	.insn	4, 0x0011ec07
     a10:	0880                	.insn	2, 0x0880
     a12:	0012                	.insn	2, 0x0012
     a14:	0180                	.insn	2, 0x0180
     a16:	0765                	.insn	2, 0x0765
     a18:	1228                	.insn	2, 0x1228
     a1a:	8000                	.insn	2, 0x8000
     a1c:	123c                	.insn	2, 0x123c
     a1e:	8000                	.insn	2, 0x8000
     a20:	7ef49107          	.insn	4, 0x7ef49107
     a24:	2306                	.insn	2, 0x2306
     a26:	9f04                	.insn	2, 0x9f04
     a28:	00123c07          	.insn	4, 0x00123c07
     a2c:	4480                	.insn	2, 0x4480
     a2e:	0012                	.insn	2, 0x0012
     a30:	0180                	.insn	2, 0x0180
     a32:	075f 1254 8000      	.insn	6, 0x80001254075f
     a38:	1280                	.insn	2, 0x1280
     a3a:	8000                	.insn	2, 0x8000
     a3c:	6501                	.insn	2, 0x6501
     a3e:	00128007          	.insn	4, 0x00128007
     a42:	8c80                	.insn	2, 0x8c80
     a44:	0012                	.insn	2, 0x0012
     a46:	0380                	.insn	2, 0x0380
     a48:	f491                	.insn	2, 0xf491
     a4a:	007e                	.insn	2, 0x007e
     a4c:	000cc407          	.insn	4, 0x000cc407
     a50:	d480                	.insn	2, 0xd480
     a52:	000c                	.insn	2, 0x000c
     a54:	0380                	.insn	2, 0x0380
     a56:	0188                	.insn	2, 0x0188
     a58:	079f 0cd4 8000      	.insn	6, 0x80000cd4079f
     a5e:	0d04                	.insn	2, 0x0d04
     a60:	8000                	.insn	2, 0x8000
     a62:	5d01                	.insn	2, 0x5d01
     a64:	000d0407          	.insn	4, 0x000d0407
     a68:	0c80                	.insn	2, 0x0c80
     a6a:	000d                	.insn	2, 0x000d
     a6c:	0180                	.insn	2, 0x0180
     a6e:	0768                	.insn	2, 0x0768
     a70:	0d0c                	.insn	2, 0x0d0c
     a72:	8000                	.insn	2, 0x8000
     a74:	0d18                	.insn	2, 0x0d18
     a76:	8000                	.insn	2, 0x8000
     a78:	5d01                	.insn	2, 0x5d01
     a7a:	000d1807          	.insn	4, 0x000d1807
     a7e:	3080                	.insn	2, 0x3080
     a80:	000d                	.insn	2, 0x000d
     a82:	0380                	.insn	2, 0x0380
     a84:	0288                	.insn	2, 0x0288
     a86:	079f 0d30 8000      	.insn	6, 0x80000d30079f
     a8c:	0d58                	.insn	2, 0x0d58
     a8e:	8000                	.insn	2, 0x8000
     a90:	6801                	.insn	2, 0x6801
     a92:	000d5807          	.insn	4, 0x000d5807
     a96:	6480                	.insn	2, 0x6480
     a98:	000d                	.insn	2, 0x000d
     a9a:	0380                	.insn	2, 0x0380
     a9c:	7f88                	.insn	2, 0x7f88
     a9e:	079f 0d64 8000      	.insn	6, 0x80000d64079f
     aa4:	0dc0                	.insn	2, 0x0dc0
     aa6:	8000                	.insn	2, 0x8000
     aa8:	6801                	.insn	2, 0x6801
     aaa:	000dc007          	.insn	4, 0x000dc007
     aae:	c480                	.insn	2, 0xc480
     ab0:	000d                	.insn	2, 0x000d
     ab2:	0380                	.insn	2, 0x0380
     ab4:	0188                	.insn	2, 0x0188
     ab6:	079f 0dc4 8000      	.insn	6, 0x80000dc4079f
     abc:	0dc8                	.insn	2, 0x0dc8
     abe:	8000                	.insn	2, 0x8000
     ac0:	6801                	.insn	2, 0x6801
     ac2:	000e0407          	.insn	4, 0x000e0407
     ac6:	9c80                	.insn	2, 0x9c80
     ac8:	0011                	.insn	2, 0x0011
     aca:	0180                	.insn	2, 0x0180
     acc:	0768                	.insn	2, 0x0768
     ace:	119c                	.insn	2, 0x119c
     ad0:	8000                	.insn	2, 0x8000
     ad2:	11a8                	.insn	2, 0x11a8
     ad4:	8000                	.insn	2, 0x8000
     ad6:	5d01                	.insn	2, 0x5d01
     ad8:	0011a807          	.insn	4, 0x0011a807
     adc:	b080                	.insn	2, 0xb080
     ade:	0011                	.insn	2, 0x0011
     ae0:	0180                	.insn	2, 0x0180
     ae2:	0768                	.insn	2, 0x0768
     ae4:	11b0                	.insn	2, 0x11b0
     ae6:	8000                	.insn	2, 0x8000
     ae8:	11bc                	.insn	2, 0x11bc
     aea:	8000                	.insn	2, 0x8000
     aec:	9f038803          	lb	a6,-1552(t2)
     af0:	0011bc07          	.insn	4, 0x0011bc07
     af4:	c080                	.insn	2, 0xc080
     af6:	0011                	.insn	2, 0x0011
     af8:	0180                	.insn	2, 0x0180
     afa:	0768                	.insn	2, 0x0768
     afc:	11c0                	.insn	2, 0x11c0
     afe:	8000                	.insn	2, 0x8000
     b00:	11cc                	.insn	2, 0x11cc
     b02:	8000                	.insn	2, 0x8000
     b04:	9f038803          	lb	a6,-1552(t2)
     b08:	0011cc07          	.insn	4, 0x0011cc07
     b0c:	9480                	.insn	2, 0x9480
     b0e:	0012                	.insn	2, 0x0012
     b10:	0180                	.insn	2, 0x0180
     b12:	0068                	.insn	2, 0x0068
     b14:	000e1c07          	.insn	4, 0x000e1c07
     b18:	6080                	.insn	2, 0x6080
     b1a:	000e                	.insn	2, 0x000e
     b1c:	0280                	.insn	2, 0x0280
     b1e:	9f3a                	.insn	2, 0x9f3a
     b20:	000fa407          	.insn	4, 0x000fa407
     b24:	b080                	.insn	2, 0xb080
     b26:	0280000f          	fence	r,i
     b2a:	9f38                	.insn	2, 0x9f38
     b2c:	00114c07          	.insn	4, 0x00114c07
     b30:	7480                	.insn	2, 0x7480
     b32:	0011                	.insn	2, 0x0011
     b34:	0280                	.insn	2, 0x0280
     b36:	9f40                	.insn	2, 0x9f40
     b38:	00117407          	.insn	4, 0x00117407
     b3c:	9c80                	.insn	2, 0x9c80
     b3e:	0011                	.insn	2, 0x0011
     b40:	0280                	.insn	2, 0x0280
     b42:	9f32                	.insn	2, 0x9f32
     b44:	00120807          	.insn	4, 0x00120807
     b48:	2880                	.insn	2, 0x2880
     b4a:	0012                	.insn	2, 0x0012
     b4c:	0280                	.insn	2, 0x0280
     b4e:	9f3a                	.insn	2, 0x9f3a
     b50:	00122807          	.insn	4, 0x00122807
     b54:	4480                	.insn	2, 0x4480
     b56:	0012                	.insn	2, 0x0012
     b58:	0280                	.insn	2, 0x0280
     b5a:	9f38                	.insn	2, 0x9f38
     b5c:	00128007          	.insn	4, 0x00128007
     b60:	9480                	.insn	2, 0x9480
     b62:	0012                	.insn	2, 0x0012
     b64:	0280                	.insn	2, 0x0280
     b66:	9f3a                	.insn	2, 0x9f3a
     b68:	0700                	.insn	2, 0x0700
     b6a:	0fc4                	.insn	2, 0x0fc4
     b6c:	8000                	.insn	2, 0x8000
     b6e:	0fe8                	.insn	2, 0x0fe8
     b70:	8000                	.insn	2, 0x8000
     b72:	3002                	.insn	2, 0x3002
     b74:	079f 0fe8 8000      	.insn	6, 0x80000fe8079f
     b7a:	0fec                	.insn	2, 0x0fec
     b7c:	8000                	.insn	2, 0x8000
     b7e:	5801                	.insn	2, 0x5801
     b80:	000fec07          	.insn	4, 0x000fec07
     b84:	2880                	.insn	2, 0x2880
     b86:	0010                	.insn	2, 0x0010
     b88:	0180                	.insn	2, 0x0180
     b8a:	1028076b          	.insn	4, 0x1028076b
     b8e:	8000                	.insn	2, 0x8000
     b90:	1048                	.insn	2, 0x1048
     b92:	8000                	.insn	2, 0x8000
     b94:	5801                	.insn	2, 0x5801
     b96:	00104807          	.insn	4, 0x00104807
     b9a:	6080                	.insn	2, 0x6080
     b9c:	0010                	.insn	2, 0x0010
     b9e:	0380                	.insn	2, 0x0380
     ba0:	079f028b          	.insn	4, 0x079f028b
     ba4:	1060                	.insn	2, 0x1060
     ba6:	8000                	.insn	2, 0x8000
     ba8:	10a8                	.insn	2, 0x10a8
     baa:	8000                	.insn	2, 0x8000
     bac:	5801                	.insn	2, 0x5801
     bae:	0010ac07          	.insn	4, 0x0010ac07
     bb2:	bc80                	.insn	2, 0xbc80
     bb4:	0010                	.insn	2, 0x0010
     bb6:	0880                	.insn	2, 0x0880
     bb8:	0078                	.insn	2, 0x0078
     bba:	0091                	.insn	2, 0x0091
     bbc:	231c                	.insn	2, 0x231c
     bbe:	bc079f6f          	jal	t5,fff79f7e <_sp+0x77f79f7e>
     bc2:	0010                	.insn	2, 0x0010
     bc4:	c080                	.insn	2, 0xc080
     bc6:	0010                	.insn	2, 0x0010
     bc8:	0880                	.insn	2, 0x0880
     bca:	0078                	.insn	2, 0x0078
     bcc:	0091                	.insn	2, 0x0091
     bce:	231c                	.insn	2, 0x231c
     bd0:	9f70                	.insn	2, 0x9f70
     bd2:	0010c407          	.insn	4, 0x0010c407
     bd6:	d880                	.insn	2, 0xd880
     bd8:	0010                	.insn	2, 0x0010
     bda:	0880                	.insn	2, 0x0880
     bdc:	0078                	.insn	2, 0x0078
     bde:	0091                	.insn	2, 0x0091
     be0:	231c                	.insn	2, 0x231c
     be2:	d8079f6f          	jal	t5,fff7a162 <_sp+0x77f7a162>
     be6:	0010                	.insn	2, 0x0010
     be8:	e080                	.insn	2, 0xe080
     bea:	0010                	.insn	2, 0x0010
     bec:	0880                	.insn	2, 0x0880
     bee:	0078                	.insn	2, 0x0078
     bf0:	0091                	.insn	2, 0x0091
     bf2:	231c                	.insn	2, 0x231c
     bf4:	9f70                	.insn	2, 0x9f70
     bf6:	00112407          	.insn	4, 0x00112407
     bfa:	4c80                	.insn	2, 0x4c80
     bfc:	0011                	.insn	2, 0x0011
     bfe:	0180                	.insn	2, 0x0180
     c00:	0758                	.insn	2, 0x0758
     c02:	1244                	.insn	2, 0x1244
     c04:	8000                	.insn	2, 0x8000
     c06:	1254                	.insn	2, 0x1254
     c08:	8000                	.insn	2, 0x8000
     c0a:	5801                	.insn	2, 0x5801
     c0c:	0700                	.insn	2, 0x0700
     c0e:	0e98                	.insn	2, 0x0e98
     c10:	8000                	.insn	2, 0x8000
     c12:	0ea4                	.insn	2, 0x0ea4
     c14:	8000                	.insn	2, 0x8000
     c16:	3002                	.insn	2, 0x3002
     c18:	079f 0ea4 8000      	.insn	6, 0x80000ea4079f
     c1e:	0ec4                	.insn	2, 0x0ec4
     c20:	8000                	.insn	2, 0x8000
     c22:	5d01                	.insn	2, 0x5d01
     c24:	000ec407          	.insn	4, 0x000ec407
     c28:	c880                	.insn	2, 0xc880
     c2a:	000e                	.insn	2, 0x000e
     c2c:	0380                	.insn	2, 0x0380
     c2e:	017d                	.insn	2, 0x017d
     c30:	079f 0ed0 8000      	.insn	6, 0x80000ed0079f
     c36:	0ee4                	.insn	2, 0x0ee4
     c38:	8000                	.insn	2, 0x8000
     c3a:	6701                	.insn	2, 0x6701
     c3c:	000ee407          	.insn	4, 0x000ee407
     c40:	ec80                	.insn	2, 0xec80
     c42:	000e                	.insn	2, 0x000e
     c44:	0180                	.insn	2, 0x0180
     c46:	075f 0eec 8000      	.insn	6, 0x80000eec075f
     c4c:	0f08                	.insn	2, 0x0f08
     c4e:	8000                	.insn	2, 0x8000
     c50:	6701                	.insn	2, 0x6701
     c52:	000f0807          	.insn	4, 0x000f0807
     c56:	1080                	.insn	2, 0x1080
     c58:	0180000f          	fence	w,i
     c5c:	075f 0f24 8000      	.insn	6, 0x80000f24075f
     c62:	0f28                	.insn	2, 0x0f28
     c64:	8000                	.insn	2, 0x8000
     c66:	6901                	.insn	2, 0x6901
     c68:	000f2807          	.insn	4, 0x000f2807
     c6c:	3080                	.insn	2, 0x3080
     c6e:	0380000f          	fence	rw,i
     c72:	0189                	.insn	2, 0x0189
     c74:	079f 0f30 8000      	.insn	6, 0x80000f30079f
     c7a:	0f44                	.insn	2, 0x0f44
     c7c:	8000                	.insn	2, 0x8000
     c7e:	6701                	.insn	2, 0x6701
     c80:	000f4407          	.insn	4, 0x000f4407
     c84:	4c80                	.insn	2, 0x4c80
     c86:	0180000f          	fence	w,i
     c8a:	075f 0f4c 8000      	.insn	6, 0x80000f4c075f
     c90:	0f68                	.insn	2, 0x0f68
     c92:	8000                	.insn	2, 0x8000
     c94:	6701                	.insn	2, 0x6701
     c96:	000f6807          	.insn	4, 0x000f6807
     c9a:	6c80                	.insn	2, 0x6c80
     c9c:	0180000f          	fence	w,i
     ca0:	075f 1060 8000      	.insn	6, 0x80001060075f
     ca6:	107c                	.insn	2, 0x107c
     ca8:	8000                	.insn	2, 0x8000
     caa:	5801                	.insn	2, 0x5801
     cac:	00107c07          	.insn	4, 0x00107c07
     cb0:	a480                	.insn	2, 0xa480
     cb2:	0010                	.insn	2, 0x0010
     cb4:	0180                	.insn	2, 0x0180
     cb6:	0769                	.insn	2, 0x0769
     cb8:	10ac                	.insn	2, 0x10ac
     cba:	8000                	.insn	2, 0x8000
     cbc:	10e4                	.insn	2, 0x10e4
     cbe:	8000                	.insn	2, 0x8000
     cc0:	6701                	.insn	2, 0x6701
     cc2:	0010e407          	.insn	4, 0x0010e407
     cc6:	0080                	.insn	2, 0x0080
     cc8:	0011                	.insn	2, 0x0011
     cca:	0180                	.insn	2, 0x0180
     ccc:	0758                	.insn	2, 0x0758
     cce:	1100                	.insn	2, 0x1100
     cd0:	8000                	.insn	2, 0x8000
     cd2:	1108                	.insn	2, 0x1108
     cd4:	8000                	.insn	2, 0x8000
     cd6:	5f01                	.insn	2, 0x5f01
     cd8:	00110807          	.insn	4, 0x00110807
     cdc:	2480                	.insn	2, 0x2480
     cde:	0011                	.insn	2, 0x0011
     ce0:	0180                	.insn	2, 0x0180
     ce2:	0758                	.insn	2, 0x0758
     ce4:	1124                	.insn	2, 0x1124
     ce6:	8000                	.insn	2, 0x8000
     ce8:	1128                	.insn	2, 0x1128
     cea:	8000                	.insn	2, 0x8000
     cec:	6901                	.insn	2, 0x6901
     cee:	00112807          	.insn	4, 0x00112807
     cf2:	3080                	.insn	2, 0x3080
     cf4:	0011                	.insn	2, 0x0011
     cf6:	0180                	.insn	2, 0x0180
     cf8:	075d                	.insn	2, 0x075d
     cfa:	1200                	.insn	2, 0x1200
     cfc:	8000                	.insn	2, 0x8000
     cfe:	1208                	.insn	2, 0x1208
     d00:	8000                	.insn	2, 0x8000
     d02:	6901                	.insn	2, 0x6901
     d04:	00124407          	.insn	4, 0x00124407
     d08:	4c80                	.insn	2, 0x4c80
     d0a:	0012                	.insn	2, 0x0012
     d0c:	0180                	.insn	2, 0x0180
     d0e:	0758                	.insn	2, 0x0758
     d10:	124c                	.insn	2, 0x124c
     d12:	8000                	.insn	2, 0x8000
     d14:	1254                	.insn	2, 0x1254
     d16:	8000                	.insn	2, 0x8000
     d18:	6901                	.insn	2, 0x6901
     d1a:	00125407          	.insn	4, 0x00125407
     d1e:	5880                	.insn	2, 0x5880
     d20:	0012                	.insn	2, 0x0012
     d22:	0280                	.insn	2, 0x0280
     d24:	9f30                	.insn	2, 0x9f30
     d26:	00125807          	.insn	4, 0x00125807
     d2a:	6880                	.insn	2, 0x6880
     d2c:	0012                	.insn	2, 0x0012
     d2e:	0280                	.insn	2, 0x0280
     d30:	9f31                	.insn	2, 0x9f31
     d32:	00126807          	.insn	4, 0x00126807
     d36:	7480                	.insn	2, 0x7480
     d38:	0012                	.insn	2, 0x0012
     d3a:	0180                	.insn	2, 0x0180
     d3c:	075d                	.insn	2, 0x075d
     d3e:	1274                	.insn	2, 0x1274
     d40:	8000                	.insn	2, 0x8000
     d42:	1280                	.insn	2, 0x1280
     d44:	8000                	.insn	2, 0x8000
     d46:	3002                	.insn	2, 0x3002
     d48:	009f 3407 000d      	.insn	6, 0x000d3407009f
     d4e:	4880                	.insn	2, 0x4880
     d50:	000d                	.insn	2, 0x000d
     d52:	0280                	.insn	2, 0x0280
     d54:	9f30                	.insn	2, 0x9f30
     d56:	000d4807          	.insn	4, 0x000d4807
     d5a:	7080                	.insn	2, 0x7080
     d5c:	000d                	.insn	2, 0x000d
     d5e:	0180                	.insn	2, 0x0180
     d60:	0059                	.insn	2, 0x0059
     d62:	000d1807          	.insn	4, 0x000d1807
     d66:	3480                	.insn	2, 0x3480
     d68:	000d                	.insn	2, 0x000d
     d6a:	0280                	.insn	2, 0x0280
     d6c:	9f30                	.insn	2, 0x9f30
     d6e:	000d3407          	.insn	4, 0x000d3407
     d72:	c880                	.insn	2, 0xc880
     d74:	000d                	.insn	2, 0x000d
     d76:	0180                	.insn	2, 0x0180
     d78:	0e040767          	jalr	a4,224(s0) # 30035c4 <__stack_size+0x10035c4>
     d7c:	8000                	.insn	2, 0x8000
     d7e:	0e90                	.insn	2, 0x0e90
     d80:	8000                	.insn	2, 0x8000
     d82:	6701                	.insn	2, 0x6701
     d84:	000fa407          	.insn	4, 0x000fa407
     d88:	6c80                	.insn	2, 0x6c80
     d8a:	0010                	.insn	2, 0x0010
     d8c:	0180                	.insn	2, 0x0180
     d8e:	114c0767          	jalr	a4,276(s8)
     d92:	8000                	.insn	2, 0x8000
     d94:	119c                	.insn	2, 0x119c
     d96:	8000                	.insn	2, 0x8000
     d98:	6701                	.insn	2, 0x6701
     d9a:	0011b007          	.insn	4, 0x0011b007
     d9e:	c080                	.insn	2, 0xc080
     da0:	0011                	.insn	2, 0x0011
     da2:	0280                	.insn	2, 0x0280
     da4:	9f31                	.insn	2, 0x9f31
     da6:	0011c007          	.insn	4, 0x0011c007
     daa:	d080                	.insn	2, 0xd080
     dac:	0011                	.insn	2, 0x0011
     dae:	0280                	.insn	2, 0x0280
     db0:	9f32                	.insn	2, 0x9f32
     db2:	0011d007          	.insn	4, 0x0011d007
     db6:	ec80                	.insn	2, 0xec80
     db8:	0011                	.insn	2, 0x0011
     dba:	0180                	.insn	2, 0x0180
     dbc:	12080767          	jalr	a4,288(a6) # 121551c <__stack_size-0xdeaae4>
     dc0:	8000                	.insn	2, 0x8000
     dc2:	1244                	.insn	2, 0x1244
     dc4:	8000                	.insn	2, 0x8000
     dc6:	6701                	.insn	2, 0x6701
     dc8:	00128007          	.insn	4, 0x00128007
     dcc:	9480                	.insn	2, 0x9480
     dce:	0012                	.insn	2, 0x0012
     dd0:	0180                	.insn	2, 0x0180
     dd2:	3c070067          	jalr	zero,960(a4)
     dd6:	000e                	.insn	2, 0x000e
     dd8:	5080                	.insn	2, 0x5080
     dda:	000e                	.insn	2, 0x000e
     ddc:	0180                	.insn	2, 0x0180
     dde:	075f 0e50 8000      	.insn	6, 0x80000e50075f
     de4:	0e60                	.insn	2, 0x0e60
     de6:	8000                	.insn	2, 0x8000
     de8:	6501                	.insn	2, 0x6501
     dea:	000fc407          	.insn	4, 0x000fc407
     dee:	1480                	.insn	2, 0x1480
     df0:	0010                	.insn	2, 0x0010
     df2:	0180                	.insn	2, 0x0180
     df4:	0765                	.insn	2, 0x0765
     df6:	1014                	.insn	2, 0x1014
     df8:	8000                	.insn	2, 0x8000
     dfa:	102c                	.insn	2, 0x102c
     dfc:	8000                	.insn	2, 0x8000
     dfe:	5a01                	.insn	2, 0x5a01
     e00:	00102c07          	.insn	4, 0x00102c07
     e04:	4c80                	.insn	2, 0x4c80
     e06:	0011                	.insn	2, 0x0011
     e08:	0180                	.insn	2, 0x0180
     e0a:	0765                	.insn	2, 0x0765
     e0c:	1168                	.insn	2, 0x1168
     e0e:	8000                	.insn	2, 0x8000
     e10:	1174                	.insn	2, 0x1174
     e12:	8000                	.insn	2, 0x8000
     e14:	6501                	.insn	2, 0x6501
     e16:	00119007          	.insn	4, 0x00119007
     e1a:	9c80                	.insn	2, 0x9c80
     e1c:	0011                	.insn	2, 0x0011
     e1e:	0180                	.insn	2, 0x0180
     e20:	0765                	.insn	2, 0x0765
     e22:	1224                	.insn	2, 0x1224
     e24:	8000                	.insn	2, 0x8000
     e26:	1228                	.insn	2, 0x1228
     e28:	8000                	.insn	2, 0x8000
     e2a:	5f01                	.insn	2, 0x5f01
     e2c:	00123807          	.insn	4, 0x00123807
     e30:	5480                	.insn	2, 0x5480
     e32:	0012                	.insn	2, 0x0012
     e34:	0180                	.insn	2, 0x0180
     e36:	0765                	.insn	2, 0x0765
     e38:	1280                	.insn	2, 0x1280
     e3a:	8000                	.insn	2, 0x8000
     e3c:	128c                	.insn	2, 0x128c
     e3e:	8000                	.insn	2, 0x8000
     e40:	5f01                	.insn	2, 0x5f01
     e42:	0700                	.insn	2, 0x0700
     e44:	0cc4                	.insn	2, 0x0cc4
     e46:	8000                	.insn	2, 0x8000
     e48:	0d04                	.insn	2, 0x0d04
     e4a:	8000                	.insn	2, 0x8000
     e4c:	5a01                	.insn	2, 0x5a01
     e4e:	000d0c07          	.insn	4, 0x000d0c07
     e52:	6080                	.insn	2, 0x6080
     e54:	000d                	.insn	2, 0x000d
     e56:	0180                	.insn	2, 0x0180
     e58:	075a                	.insn	2, 0x075a
     e5a:	0d64                	.insn	2, 0x0d64
     e5c:	8000                	.insn	2, 0x8000
     e5e:	0dbc                	.insn	2, 0x0dbc
     e60:	8000                	.insn	2, 0x8000
     e62:	5a01                	.insn	2, 0x5a01
     e64:	000dc007          	.insn	4, 0x000dc007
     e68:	6c80                	.insn	2, 0x6c80
     e6a:	000e                	.insn	2, 0x000e
     e6c:	0180                	.insn	2, 0x0180
     e6e:	075a                	.insn	2, 0x075a
     e70:	0e88                	.insn	2, 0x0e88
     e72:	8000                	.insn	2, 0x8000
     e74:	0e9c                	.insn	2, 0x0e9c
     e76:	8000                	.insn	2, 0x8000
     e78:	5a01                	.insn	2, 0x5a01
     e7a:	000fa407          	.insn	4, 0x000fa407
     e7e:	e880                	.insn	2, 0xe880
     e80:	0180000f          	fence	w,i
     e84:	075a                	.insn	2, 0x075a
     e86:	114c                	.insn	2, 0x114c
     e88:	8000                	.insn	2, 0x8000
     e8a:	11a8                	.insn	2, 0x11a8
     e8c:	8000                	.insn	2, 0x8000
     e8e:	5a01                	.insn	2, 0x5a01
     e90:	0011b007          	.insn	4, 0x0011b007
     e94:	d080                	.insn	2, 0xd080
     e96:	0011                	.insn	2, 0x0011
     e98:	0180                	.insn	2, 0x0180
     e9a:	075a                	.insn	2, 0x075a
     e9c:	11e0                	.insn	2, 0x11e0
     e9e:	8000                	.insn	2, 0x8000
     ea0:	11ec                	.insn	2, 0x11ec
     ea2:	8000                	.insn	2, 0x8000
     ea4:	5a01                	.insn	2, 0x5a01
     ea6:	00120807          	.insn	4, 0x00120807
     eaa:	4480                	.insn	2, 0x4480
     eac:	0012                	.insn	2, 0x0012
     eae:	0180                	.insn	2, 0x0180
     eb0:	075a                	.insn	2, 0x075a
     eb2:	1280                	.insn	2, 0x1280
     eb4:	8000                	.insn	2, 0x8000
     eb6:	1294                	.insn	2, 0x1294
     eb8:	8000                	.insn	2, 0x8000
     eba:	5a01                	.insn	2, 0x5a01
     ebc:	0700                	.insn	2, 0x0700
     ebe:	0d80                	.insn	2, 0x0d80
     ec0:	8000                	.insn	2, 0x8000
     ec2:	0d94                	.insn	2, 0x0d94
     ec4:	8000                	.insn	2, 0x8000
     ec6:	5a01                	.insn	2, 0x5a01
     ec8:	000d9407          	.insn	4, 0x000d9407
     ecc:	b880                	.insn	2, 0xb880
     ece:	000d                	.insn	2, 0x000d
     ed0:	0180                	.insn	2, 0x0180
     ed2:	075c                	.insn	2, 0x075c
     ed4:	0e04                	.insn	2, 0x0e04
     ed6:	8000                	.insn	2, 0x8000
     ed8:	0ea4                	.insn	2, 0x0ea4
     eda:	8000                	.insn	2, 0x8000
     edc:	5c01                	.insn	2, 0x5c01
     ede:	000fa407          	.insn	4, 0x000fa407
     ee2:	e880                	.insn	2, 0xe880
     ee4:	0180000f          	fence	w,i
     ee8:	075c                	.insn	2, 0x075c
     eea:	1010                	.insn	2, 0x1010
     eec:	8000                	.insn	2, 0x8000
     eee:	1020                	.insn	2, 0x1020
     ef0:	8000                	.insn	2, 0x8000
     ef2:	5f01                	.insn	2, 0x5f01
     ef4:	00102007          	.insn	4, 0x00102007
     ef8:	2480                	.insn	2, 0x2480
     efa:	0010                	.insn	2, 0x0010
     efc:	0180                	.insn	2, 0x0180
     efe:	0758                	.insn	2, 0x0758
     f00:	1024                	.insn	2, 0x1024
     f02:	8000                	.insn	2, 0x8000
     f04:	1030                	.insn	2, 0x1030
     f06:	8000                	.insn	2, 0x8000
     f08:	5f01                	.insn	2, 0x5f01
     f0a:	00107407          	.insn	4, 0x00107407
     f0e:	4c80                	.insn	2, 0x4c80
     f10:	0011                	.insn	2, 0x0011
     f12:	0180                	.insn	2, 0x0180
     f14:	076a                	.insn	2, 0x076a
     f16:	114c                	.insn	2, 0x114c
     f18:	8000                	.insn	2, 0x8000
     f1a:	119c                	.insn	2, 0x119c
     f1c:	8000                	.insn	2, 0x8000
     f1e:	5c01                	.insn	2, 0x5c01
     f20:	0011d007          	.insn	4, 0x0011d007
     f24:	ec80                	.insn	2, 0xec80
     f26:	0011                	.insn	2, 0x0011
     f28:	0180                	.insn	2, 0x0180
     f2a:	075c                	.insn	2, 0x075c
     f2c:	1208                	.insn	2, 0x1208
     f2e:	8000                	.insn	2, 0x8000
     f30:	1244                	.insn	2, 0x1244
     f32:	8000                	.insn	2, 0x8000
     f34:	5c01                	.insn	2, 0x5c01
     f36:	00124407          	.insn	4, 0x00124407
     f3a:	5480                	.insn	2, 0x5480
     f3c:	0012                	.insn	2, 0x0012
     f3e:	0180                	.insn	2, 0x0180
     f40:	076a                	.insn	2, 0x076a
     f42:	1254                	.insn	2, 0x1254
     f44:	8000                	.insn	2, 0x8000
     f46:	1268                	.insn	2, 0x1268
     f48:	8000                	.insn	2, 0x8000
     f4a:	5c01                	.insn	2, 0x5c01
     f4c:	00127407          	.insn	4, 0x00127407
     f50:	9480                	.insn	2, 0x9480
     f52:	0012                	.insn	2, 0x0012
     f54:	0180                	.insn	2, 0x0180
     f56:	005c                	.insn	2, 0x005c
     f58:	000e0407          	.insn	4, 0x000e0407
     f5c:	1c80                	.insn	2, 0x1c80
     f5e:	000e                	.insn	2, 0x000e
     f60:	0180                	.insn	2, 0x0180
     f62:	075a                	.insn	2, 0x075a
     f64:	11e0                	.insn	2, 0x11e0
     f66:	8000                	.insn	2, 0x8000
     f68:	11ec                	.insn	2, 0x11ec
     f6a:	8000                	.insn	2, 0x8000
     f6c:	5a01                	.insn	2, 0x5a01
     f6e:	0700                	.insn	2, 0x0700
     f70:	11e0                	.insn	2, 0x11e0
     f72:	8000                	.insn	2, 0x8000
     f74:	11ec                	.insn	2, 0x11ec
     f76:	8000                	.insn	2, 0x8000
     f78:	5a01                	.insn	2, 0x5a01
     f7a:	0700                	.insn	2, 0x0700
     f7c:	0cec                	.insn	2, 0x0cec
     f7e:	8000                	.insn	2, 0x8000
     f80:	0d04                	.insn	2, 0x0d04
     f82:	8000                	.insn	2, 0x8000
     f84:	5a01                	.insn	2, 0x5a01
     f86:	00119c07          	.insn	4, 0x00119c07
     f8a:	a880                	.insn	2, 0xa880
     f8c:	0011                	.insn	2, 0x0011
     f8e:	0180                	.insn	2, 0x0180
     f90:	005a                	.insn	2, 0x005a
     f92:	00119c07          	.insn	4, 0x00119c07
     f96:	a880                	.insn	2, 0xa880
     f98:	0011                	.insn	2, 0x0011
     f9a:	0180                	.insn	2, 0x0180
     f9c:	005a                	.insn	2, 0x005a
     f9e:	000e7007          	.insn	4, 0x000e7007
     fa2:	8880                	.insn	2, 0x8880
     fa4:	000e                	.insn	2, 0x000e
     fa6:	0180                	.insn	2, 0x0180
     fa8:	075a                	.insn	2, 0x075a
     faa:	11d0                	.insn	2, 0x11d0
     fac:	8000                	.insn	2, 0x8000
     fae:	11e0                	.insn	2, 0x11e0
     fb0:	8000                	.insn	2, 0x8000
     fb2:	5a01                	.insn	2, 0x5a01
     fb4:	0700                	.insn	2, 0x0700
     fb6:	11d0                	.insn	2, 0x11d0
     fb8:	8000                	.insn	2, 0x8000
     fba:	11e0                	.insn	2, 0x11e0
     fbc:	8000                	.insn	2, 0x8000
     fbe:	5a01                	.insn	2, 0x5a01
     fc0:	0700                	.insn	2, 0x0700
     fc2:	0ed0                	.insn	2, 0x0ed0
     fc4:	8000                	.insn	2, 0x8000
     fc6:	0ee0                	.insn	2, 0x0ee0
     fc8:	8000                	.insn	2, 0x8000
     fca:	9f200803          	lb	a6,-1550(zero) # fffff9f2 <_sp+0x77fff9f2>
     fce:	000eec07          	.insn	4, 0x000eec07
     fd2:	0480                	.insn	2, 0x0480
     fd4:	0380000f          	fence	rw,i
     fd8:	2008                	.insn	2, 0x2008
     fda:	009f f407 000e      	.insn	6, 0x000ef407009f
     fe0:	0480                	.insn	2, 0x0480
     fe2:	0380000f          	fence	rw,i
     fe6:	2008                	.insn	2, 0x2008
     fe8:	009f 2407 000f      	.insn	6, 0x000f2407009f
     fee:	2880                	.insn	2, 0x2880
     ff0:	0180000f          	fence	w,i
     ff4:	0758                	.insn	2, 0x0758
     ff6:	0f74                	.insn	2, 0x0f74
     ff8:	8000                	.insn	2, 0x8000
     ffa:	0fa4                	.insn	2, 0x0fa4
     ffc:	8000                	.insn	2, 0x8000
     ffe:	5801                	.insn	2, 0x5801
    1000:	00120007          	.insn	4, 0x00120007
    1004:	0880                	.insn	2, 0x0880
    1006:	0012                	.insn	2, 0x0012
    1008:	0180                	.insn	2, 0x0180
    100a:	0058                	.insn	2, 0x0058
    100c:	000f7407          	.insn	4, 0x000f7407
    1010:	8080                	.insn	2, 0x8080
    1012:	0180000f          	fence	w,i
    1016:	075a                	.insn	2, 0x075a
    1018:	0f90                	.insn	2, 0x0f90
    101a:	8000                	.insn	2, 0x8000
    101c:	0f9f 8000 5a01      	.insn	6, 0x5a0180000f9f
    1022:	0700                	.insn	2, 0x0700
    1024:	0f94                	.insn	2, 0x0f94
    1026:	8000                	.insn	2, 0x8000
    1028:	0f9f 8000 5a01      	.insn	6, 0x5a0180000f9f
    102e:	0700                	.insn	2, 0x0700
    1030:	0f30                	.insn	2, 0x0f30
    1032:	8000                	.insn	2, 0x8000
    1034:	0f40                	.insn	2, 0x0f40
    1036:	8000                	.insn	2, 0x8000
    1038:	9f200803          	lb	a6,-1550(zero) # fffff9f2 <_sp+0x77fff9f2>
    103c:	000f4c07          	.insn	4, 0x000f4c07
    1040:	6480                	.insn	2, 0x6480
    1042:	0380000f          	fence	rw,i
    1046:	2008                	.insn	2, 0x2008
    1048:	009f 5407 000f      	.insn	6, 0x000f5407009f
    104e:	6480                	.insn	2, 0x6480
    1050:	0380000f          	fence	rw,i
    1054:	2008                	.insn	2, 0x2008
    1056:	009f 8407 0010      	.insn	6, 0x00108407009f
    105c:	9c80                	.insn	2, 0x9c80
    105e:	0010                	.insn	2, 0x0010
    1060:	0180                	.insn	2, 0x0180
    1062:	006a                	.insn	2, 0x006a
    1064:	00113007          	.insn	4, 0x00113007
    1068:	4c80                	.insn	2, 0x4c80
    106a:	0011                	.insn	2, 0x0011
    106c:	0180                	.insn	2, 0x0180
    106e:	006a                	.insn	2, 0x006a
    1070:	0010ac07          	.insn	4, 0x0010ac07
    1074:	b880                	.insn	2, 0xb880
    1076:	0010                	.insn	2, 0x0010
    1078:	0180                	.insn	2, 0x0180
    107a:	075a                	.insn	2, 0x075a
    107c:	10c8                	.insn	2, 0x10c8
    107e:	8000                	.insn	2, 0x8000
    1080:	800010db          	.insn	4, 0x800010db
    1084:	5a01                	.insn	2, 0x5a01
    1086:	0700                	.insn	2, 0x0700
    1088:	10cc                	.insn	2, 0x10cc
    108a:	8000                	.insn	2, 0x8000
    108c:	800010db          	.insn	4, 0x800010db
    1090:	5a01                	.insn	2, 0x5a01
    1092:	0700                	.insn	2, 0x0700
    1094:	10ec                	.insn	2, 0x10ec
    1096:	8000                	.insn	2, 0x8000
    1098:	10fc                	.insn	2, 0x10fc
    109a:	8000                	.insn	2, 0x8000
    109c:	9f200803          	lb	a6,-1550(zero) # fffff9f2 <_sp+0x77fff9f2>
    10a0:	00110807          	.insn	4, 0x00110807
    10a4:	2480                	.insn	2, 0x2480
    10a6:	0011                	.insn	2, 0x0011
    10a8:	0380                	.insn	2, 0x0380
    10aa:	2008                	.insn	2, 0x2008
    10ac:	009f 1007 0011      	.insn	6, 0x00111007009f
    10b2:	2480                	.insn	2, 0x2480
    10b4:	0011                	.insn	2, 0x0011
    10b6:	0380                	.insn	2, 0x0380
    10b8:	2008                	.insn	2, 0x2008
    10ba:	009f b407 000b      	.insn	6, 0x000bb407009f
    10c0:	df80                	.insn	2, 0xdf80
    10c2:	0180000b          	.insn	4, 0x0180000b
    10c6:	075a                	.insn	2, 0x075a
    10c8:	0bdf 8000 0be0      	.insn	6, 0x0be080000bdf
    10ce:	8000                	.insn	2, 0x8000
    10d0:	a304                	.insn	2, 0xa304
    10d2:	5a01                	.insn	2, 0x5a01
    10d4:	079f 0be0 8000      	.insn	6, 0x80000be0079f
    10da:	0be4                	.insn	2, 0x0be4
    10dc:	8000                	.insn	2, 0x8000
    10de:	5a01                	.insn	2, 0x5a01
    10e0:	0700                	.insn	2, 0x0700
    10e2:	0bd0                	.insn	2, 0x0bd0
    10e4:	8000                	.insn	2, 0x8000
    10e6:	0bdf 8000 5a01      	.insn	6, 0x5a0180000bdf
    10ec:	000be007          	.insn	4, 0x000be007
    10f0:	e480                	.insn	2, 0xe480
    10f2:	0180000b          	.insn	4, 0x0180000b
    10f6:	005a                	.insn	2, 0x005a
    10f8:	000be407          	.insn	4, 0x000be407
    10fc:	0080                	.insn	2, 0x0080
    10fe:	000c                	.insn	2, 0x000c
    1100:	0180                	.insn	2, 0x0180
    1102:	075a                	.insn	2, 0x075a
    1104:	0c00                	.insn	2, 0x0c00
    1106:	8000                	.insn	2, 0x8000
    1108:	0c4c                	.insn	2, 0x0c4c
    110a:	8000                	.insn	2, 0x8000
    110c:	5801                	.insn	2, 0x5801
    110e:	0700                	.insn	2, 0x0700
    1110:	0c10                	.insn	2, 0x0c10
    1112:	8000                	.insn	2, 0x8000
    1114:	0c18                	.insn	2, 0x0c18
    1116:	8000                	.insn	2, 0x8000
    1118:	5a01                	.insn	2, 0x5a01
    111a:	000c2807          	.insn	4, 0x000c2807
    111e:	3b80                	.insn	2, 0x3b80
    1120:	000c                	.insn	2, 0x000c
    1122:	0180                	.insn	2, 0x0180
    1124:	005a                	.insn	2, 0x005a
    1126:	000c1007          	.insn	4, 0x000c1007
    112a:	1880                	.insn	2, 0x1880
    112c:	000c                	.insn	2, 0x000c
    112e:	0180                	.insn	2, 0x0180
    1130:	075a                	.insn	2, 0x075a
    1132:	0c20                	.insn	2, 0x0c20
    1134:	8000                	.insn	2, 0x8000
    1136:	80000c3b          	.insn	4, 0x80000c3b
    113a:	5a01                	.insn	2, 0x5a01
	...

Disassembly of section .debug_rnglists:

00000000 <.debug_rnglists>:
   0:	0326                	.insn	2, 0x0326
   2:	0000                	.insn	2, 0x0000
   4:	0005                	.insn	2, 0x0005
   6:	0004                	.insn	2, 0x0004
   8:	0000                	.insn	2, 0x0000
   a:	0000                	.insn	2, 0x0000
   c:	8806                	.insn	2, 0x8806
   e:	0008                	.insn	2, 0x0008
  10:	8880                	.insn	2, 0x8880
  12:	0008                	.insn	2, 0x0008
  14:	0680                	.insn	2, 0x0680
  16:	088c                	.insn	2, 0x088c
  18:	8000                	.insn	2, 0x8000
  1a:	0898                	.insn	2, 0x0898
  1c:	8000                	.insn	2, 0x8000
  1e:	0600                	.insn	2, 0x0600
  20:	09bc                	.insn	2, 0x09bc
  22:	8000                	.insn	2, 0x8000
  24:	09d4                	.insn	2, 0x09d4
  26:	8000                	.insn	2, 0x8000
  28:	d806                	.insn	2, 0xd806
  2a:	0009                	.insn	2, 0x0009
  2c:	dc80                	.insn	2, 0xdc80
  2e:	0009                	.insn	2, 0x0009
  30:	0080                	.insn	2, 0x0080
  32:	c406                	.insn	2, 0xc406
  34:	0009                	.insn	2, 0x0009
  36:	c880                	.insn	2, 0xc880
  38:	0009                	.insn	2, 0x0009
  3a:	0680                	.insn	2, 0x0680
  3c:	09cc                	.insn	2, 0x09cc
  3e:	8000                	.insn	2, 0x8000
  40:	09d4                	.insn	2, 0x09d4
  42:	8000                	.insn	2, 0x8000
  44:	d806                	.insn	2, 0xd806
  46:	0009                	.insn	2, 0x0009
  48:	dc80                	.insn	2, 0xdc80
  4a:	0009                	.insn	2, 0x0009
  4c:	0080                	.insn	2, 0x0080
  4e:	7006                	.insn	2, 0x7006
  50:	000a                	.insn	2, 0x000a
  52:	7480                	.insn	2, 0x7480
  54:	000a                	.insn	2, 0x000a
  56:	0680                	.insn	2, 0x0680
  58:	0a78                	.insn	2, 0x0a78
  5a:	8000                	.insn	2, 0x8000
  5c:	0a78                	.insn	2, 0x0a78
  5e:	8000                	.insn	2, 0x8000
  60:	7c06                	.insn	2, 0x7c06
  62:	000a                	.insn	2, 0x000a
  64:	8080                	.insn	2, 0x8080
  66:	000a                	.insn	2, 0x000a
  68:	0080                	.insn	2, 0x0080
  6a:	5006                	.insn	2, 0x5006
  6c:	6080000b          	.insn	4, 0x6080000b
  70:	0680000b          	.insn	4, 0x0680000b
  74:	0b8c                	.insn	2, 0x0b8c
  76:	8000                	.insn	2, 0x8000
  78:	0b98                	.insn	2, 0x0b98
  7a:	8000                	.insn	2, 0x8000
  7c:	0600                	.insn	2, 0x0600
  7e:	001c                	.insn	2, 0x001c
  80:	8000                	.insn	2, 0x8000
  82:	0024                	.insn	2, 0x0024
  84:	8000                	.insn	2, 0x8000
  86:	5c06                	.insn	2, 0x5c06
  88:	0000                	.insn	2, 0x0000
  8a:	7880                	.insn	2, 0x7880
  8c:	0000                	.insn	2, 0x0000
  8e:	0680                	.insn	2, 0x0680
  90:	0084                	.insn	2, 0x0084
  92:	8000                	.insn	2, 0x8000
  94:	0088                	.insn	2, 0x0088
  96:	8000                	.insn	2, 0x8000
  98:	0600                	.insn	2, 0x0600
  9a:	0080                	.insn	2, 0x0080
  9c:	8000                	.insn	2, 0x8000
  9e:	0084                	.insn	2, 0x0084
  a0:	8000                	.insn	2, 0x8000
  a2:	8806                	.insn	2, 0x8806
  a4:	0000                	.insn	2, 0x0000
  a6:	a080                	.insn	2, 0xa080
  a8:	0000                	.insn	2, 0x0000
  aa:	0680                	.insn	2, 0x0680
  ac:	00c0                	.insn	2, 0x00c0
  ae:	8000                	.insn	2, 0x8000
  b0:	00c4                	.insn	2, 0x00c4
  b2:	8000                	.insn	2, 0x8000
  b4:	d406                	.insn	2, 0xd406
  b6:	0000                	.insn	2, 0x0000
  b8:	d880                	.insn	2, 0xd880
  ba:	0000                	.insn	2, 0x0000
  bc:	0080                	.insn	2, 0x0080
  be:	1c06                	.insn	2, 0x1c06
  c0:	0002                	.insn	2, 0x0002
  c2:	3880                	.insn	2, 0x3880
  c4:	0002                	.insn	2, 0x0002
  c6:	0680                	.insn	2, 0x0680
  c8:	0388                	.insn	2, 0x0388
  ca:	8000                	.insn	2, 0x8000
  cc:	038c                	.insn	2, 0x038c
  ce:	8000                	.insn	2, 0x8000
  d0:	a006                	.insn	2, 0xa006
  d2:	a8800003          	lb	zero,-1400(zero) # fffffa88 <_sp+0x77fffa88>
  d6:	00800003          	lb	zero,8(zero) # 8 <__stack_size-0x1fffff8>
  da:	1c06                	.insn	2, 0x1c06
  dc:	0002                	.insn	2, 0x0002
  de:	2080                	.insn	2, 0x2080
  e0:	0002                	.insn	2, 0x0002
  e2:	0680                	.insn	2, 0x0680
  e4:	0220                	.insn	2, 0x0220
  e6:	8000                	.insn	2, 0x8000
  e8:	022c                	.insn	2, 0x022c
  ea:	8000                	.insn	2, 0x8000
  ec:	a006                	.insn	2, 0xa006
  ee:	a8800003          	lb	zero,-1400(zero) # fffffa88 <_sp+0x77fffa88>
  f2:	00800003          	lb	zero,8(zero) # 8 <__stack_size-0x1fffff8>
  f6:	3806                	.insn	2, 0x3806
  f8:	0002                	.insn	2, 0x0002
  fa:	4480                	.insn	2, 0x4480
  fc:	0002                	.insn	2, 0x0002
  fe:	0680                	.insn	2, 0x0680
 100:	0248                	.insn	2, 0x0248
 102:	8000                	.insn	2, 0x8000
 104:	025c                	.insn	2, 0x025c
 106:	8000                	.insn	2, 0x8000
 108:	6006                	.insn	2, 0x6006
 10a:	0002                	.insn	2, 0x0002
 10c:	7080                	.insn	2, 0x7080
 10e:	0002                	.insn	2, 0x0002
 110:	0680                	.insn	2, 0x0680
 112:	0274                	.insn	2, 0x0274
 114:	8000                	.insn	2, 0x8000
 116:	0274                	.insn	2, 0x0274
 118:	8000                	.insn	2, 0x8000
 11a:	8c06                	.insn	2, 0x8c06
 11c:	94800003          	lb	zero,-1720(zero) # fffff948 <_sp+0x77fff948>
 120:	00800003          	lb	zero,8(zero) # 8 <__stack_size-0x1fffff8>
 124:	9806                	.insn	2, 0x9806
 126:	0002                	.insn	2, 0x0002
 128:	9c80                	.insn	2, 0x9c80
 12a:	0002                	.insn	2, 0x0002
 12c:	0680                	.insn	2, 0x0680
 12e:	02a4                	.insn	2, 0x02a4
 130:	8000                	.insn	2, 0x8000
 132:	02a4                	.insn	2, 0x02a4
 134:	8000                	.insn	2, 0x8000
 136:	a806                	.insn	2, 0xa806
 138:	0002                	.insn	2, 0x0002
 13a:	b080                	.insn	2, 0xb080
 13c:	0002                	.insn	2, 0x0002
 13e:	0680                	.insn	2, 0x0680
 140:	0314                	.insn	2, 0x0314
 142:	8000                	.insn	2, 0x8000
 144:	0314                	.insn	2, 0x0314
 146:	8000                	.insn	2, 0x8000
 148:	9406                	.insn	2, 0x9406
 14a:	a0800003          	lb	zero,-1528(zero) # fffffa08 <_sp+0x77fffa08>
 14e:	00800003          	lb	zero,8(zero) # 8 <__stack_size-0x1fffff8>
 152:	b006                	.insn	2, 0xb006
 154:	0002                	.insn	2, 0x0002
 156:	b080                	.insn	2, 0xb080
 158:	0002                	.insn	2, 0x0002
 15a:	0680                	.insn	2, 0x0680
 15c:	0310                	.insn	2, 0x0310
 15e:	8000                	.insn	2, 0x8000
 160:	0314                	.insn	2, 0x0314
 162:	8000                	.insn	2, 0x8000
 164:	0600                	.insn	2, 0x0600
 166:	035c                	.insn	2, 0x035c
 168:	8000                	.insn	2, 0x8000
 16a:	0370                	.insn	2, 0x0370
 16c:	8000                	.insn	2, 0x8000
 16e:	a806                	.insn	2, 0xa806
 170:	b4800003          	lb	zero,-1208(zero) # fffffb48 <_sp+0x77fffb48>
 174:	06800003          	lb	zero,104(zero) # 68 <__stack_size-0x1ffff98>
 178:	03bc                	.insn	2, 0x03bc
 17a:	8000                	.insn	2, 0x8000
 17c:	03c4                	.insn	2, 0x03c4
 17e:	8000                	.insn	2, 0x8000
 180:	0600                	.insn	2, 0x0600
 182:	03d4                	.insn	2, 0x03d4
 184:	8000                	.insn	2, 0x8000
 186:	03d8                	.insn	2, 0x03d8
 188:	8000                	.insn	2, 0x8000
 18a:	e006                	.insn	2, 0xe006
 18c:	e8800003          	lb	zero,-376(zero) # fffffe88 <_sp+0x77fffe88>
 190:	06800003          	lb	zero,104(zero) # 68 <__stack_size-0x1ffff98>
 194:	03f0                	.insn	2, 0x03f0
 196:	8000                	.insn	2, 0x8000
 198:	03f8                	.insn	2, 0x03f8
 19a:	8000                	.insn	2, 0x8000
 19c:	0600                	.insn	2, 0x0600
 19e:	0414                	.insn	2, 0x0414
 1a0:	8000                	.insn	2, 0x8000
 1a2:	041c                	.insn	2, 0x041c
 1a4:	8000                	.insn	2, 0x8000
 1a6:	2806                	.insn	2, 0x2806
 1a8:	0004                	.insn	2, 0x0004
 1aa:	2c80                	.insn	2, 0x2c80
 1ac:	0004                	.insn	2, 0x0004
 1ae:	0080                	.insn	2, 0x0080
 1b0:	4806                	.insn	2, 0x4806
 1b2:	0004                	.insn	2, 0x0004
 1b4:	5080                	.insn	2, 0x5080
 1b6:	0004                	.insn	2, 0x0004
 1b8:	0680                	.insn	2, 0x0680
 1ba:	045c                	.insn	2, 0x045c
 1bc:	8000                	.insn	2, 0x8000
 1be:	0460                	.insn	2, 0x0460
 1c0:	8000                	.insn	2, 0x8000
 1c2:	0600                	.insn	2, 0x0600
 1c4:	047c                	.insn	2, 0x047c
 1c6:	8000                	.insn	2, 0x8000
 1c8:	0484                	.insn	2, 0x0484
 1ca:	8000                	.insn	2, 0x8000
 1cc:	9006                	.insn	2, 0x9006
 1ce:	0004                	.insn	2, 0x0004
 1d0:	9480                	.insn	2, 0x9480
 1d2:	0004                	.insn	2, 0x0004
 1d4:	0080                	.insn	2, 0x0080
 1d6:	b006                	.insn	2, 0xb006
 1d8:	0004                	.insn	2, 0x0004
 1da:	b880                	.insn	2, 0xb880
 1dc:	0004                	.insn	2, 0x0004
 1de:	0680                	.insn	2, 0x0680
 1e0:	04c4                	.insn	2, 0x04c4
 1e2:	8000                	.insn	2, 0x8000
 1e4:	04c8                	.insn	2, 0x04c8
 1e6:	8000                	.insn	2, 0x8000
 1e8:	0600                	.insn	2, 0x0600
 1ea:	04e4                	.insn	2, 0x04e4
 1ec:	8000                	.insn	2, 0x8000
 1ee:	04f0                	.insn	2, 0x04f0
 1f0:	8000                	.insn	2, 0x8000
 1f2:	fc06                	.insn	2, 0xfc06
 1f4:	0004                	.insn	2, 0x0004
 1f6:	0080                	.insn	2, 0x0080
 1f8:	0005                	.insn	2, 0x0005
 1fa:	0080                	.insn	2, 0x0080
 1fc:	2006                	.insn	2, 0x2006
 1fe:	0005                	.insn	2, 0x0005
 200:	2480                	.insn	2, 0x2480
 202:	0005                	.insn	2, 0x0005
 204:	0680                	.insn	2, 0x0680
 206:	0530                	.insn	2, 0x0530
 208:	8000                	.insn	2, 0x8000
 20a:	0534                	.insn	2, 0x0534
 20c:	8000                	.insn	2, 0x8000
 20e:	0600                	.insn	2, 0x0600
 210:	0554                	.insn	2, 0x0554
 212:	8000                	.insn	2, 0x8000
 214:	0558                	.insn	2, 0x0558
 216:	8000                	.insn	2, 0x8000
 218:	5c06                	.insn	2, 0x5c06
 21a:	0005                	.insn	2, 0x0005
 21c:	6080                	.insn	2, 0x6080
 21e:	0005                	.insn	2, 0x0005
 220:	0680                	.insn	2, 0x0680
 222:	056c                	.insn	2, 0x056c
 224:	8000                	.insn	2, 0x8000
 226:	0570                	.insn	2, 0x0570
 228:	8000                	.insn	2, 0x8000
 22a:	0600                	.insn	2, 0x0600
 22c:	0590                	.insn	2, 0x0590
 22e:	8000                	.insn	2, 0x8000
 230:	0594                	.insn	2, 0x0594
 232:	8000                	.insn	2, 0x8000
 234:	9806                	.insn	2, 0x9806
 236:	0005                	.insn	2, 0x0005
 238:	9c80                	.insn	2, 0x9c80
 23a:	0005                	.insn	2, 0x0005
 23c:	0680                	.insn	2, 0x0680
 23e:	05a8                	.insn	2, 0x05a8
 240:	8000                	.insn	2, 0x8000
 242:	05ac                	.insn	2, 0x05ac
 244:	8000                	.insn	2, 0x8000
 246:	0600                	.insn	2, 0x0600
 248:	05e4                	.insn	2, 0x05e4
 24a:	8000                	.insn	2, 0x8000
 24c:	05ec                	.insn	2, 0x05ec
 24e:	8000                	.insn	2, 0x8000
 250:	f806                	.insn	2, 0xf806
 252:	0005                	.insn	2, 0x0005
 254:	fc80                	.insn	2, 0xfc80
 256:	0005                	.insn	2, 0x0005
 258:	0080                	.insn	2, 0x0080
 25a:	1c06                	.insn	2, 0x1c06
 25c:	0006                	.insn	2, 0x0006
 25e:	2080                	.insn	2, 0x2080
 260:	0006                	.insn	2, 0x0006
 262:	0680                	.insn	2, 0x0680
 264:	062c                	.insn	2, 0x062c
 266:	8000                	.insn	2, 0x8000
 268:	0630                	.insn	2, 0x0630
 26a:	8000                	.insn	2, 0x8000
 26c:	0600                	.insn	2, 0x0600
 26e:	0650                	.insn	2, 0x0650
 270:	8000                	.insn	2, 0x8000
 272:	0654                	.insn	2, 0x0654
 274:	8000                	.insn	2, 0x8000
 276:	5806                	.insn	2, 0x5806
 278:	0006                	.insn	2, 0x0006
 27a:	5c80                	.insn	2, 0x5c80
 27c:	0006                	.insn	2, 0x0006
 27e:	0680                	.insn	2, 0x0680
 280:	0668                	.insn	2, 0x0668
 282:	8000                	.insn	2, 0x8000
 284:	066c                	.insn	2, 0x066c
 286:	8000                	.insn	2, 0x8000
 288:	0600                	.insn	2, 0x0600
 28a:	068c                	.insn	2, 0x068c
 28c:	8000                	.insn	2, 0x8000
 28e:	0690                	.insn	2, 0x0690
 290:	8000                	.insn	2, 0x8000
 292:	9406                	.insn	2, 0x9406
 294:	0006                	.insn	2, 0x0006
 296:	9880                	.insn	2, 0x9880
 298:	0006                	.insn	2, 0x0006
 29a:	0680                	.insn	2, 0x0680
 29c:	06a4                	.insn	2, 0x06a4
 29e:	8000                	.insn	2, 0x8000
 2a0:	06a8                	.insn	2, 0x06a8
 2a2:	8000                	.insn	2, 0x8000
 2a4:	0600                	.insn	2, 0x0600
 2a6:	06e0                	.insn	2, 0x06e0
 2a8:	8000                	.insn	2, 0x8000
 2aa:	06e8                	.insn	2, 0x06e8
 2ac:	8000                	.insn	2, 0x8000
 2ae:	f406                	.insn	2, 0xf406
 2b0:	0006                	.insn	2, 0x0006
 2b2:	f880                	.insn	2, 0xf880
 2b4:	0006                	.insn	2, 0x0006
 2b6:	0080                	.insn	2, 0x0080
 2b8:	0c06                	.insn	2, 0x0c06
 2ba:	14800007          	.insn	4, 0x14800007
 2be:	06800007          	.insn	4, 0x06800007
 2c2:	0720                	.insn	2, 0x0720
 2c4:	8000                	.insn	2, 0x8000
 2c6:	0724                	.insn	2, 0x0724
 2c8:	8000                	.insn	2, 0x8000
 2ca:	0600                	.insn	2, 0x0600
 2cc:	0738                	.insn	2, 0x0738
 2ce:	8000                	.insn	2, 0x8000
 2d0:	0740                	.insn	2, 0x0740
 2d2:	8000                	.insn	2, 0x8000
 2d4:	4c06                	.insn	2, 0x4c06
 2d6:	50800007          	.insn	4, 0x50800007
 2da:	00800007          	.insn	4, 0x00800007
 2de:	6406                	.insn	2, 0x6406
 2e0:	68800007          	.insn	4, 0x68800007
 2e4:	06800007          	.insn	4, 0x06800007
 2e8:	0774                	.insn	2, 0x0774
 2ea:	8000                	.insn	2, 0x8000
 2ec:	0778                	.insn	2, 0x0778
 2ee:	8000                	.insn	2, 0x8000
 2f0:	0600                	.insn	2, 0x0600
 2f2:	079c                	.insn	2, 0x079c
 2f4:	8000                	.insn	2, 0x8000
 2f6:	07a0                	.insn	2, 0x07a0
 2f8:	8000                	.insn	2, 0x8000
 2fa:	ac06                	.insn	2, 0xac06
 2fc:	b0800007          	.insn	4, 0xb0800007
 300:	00800007          	.insn	4, 0x00800007
 304:	d006                	.insn	2, 0xd006
 306:	d4800007          	.insn	4, 0xd4800007
 30a:	06800007          	.insn	4, 0x06800007
 30e:	07e0                	.insn	2, 0x07e0
 310:	8000                	.insn	2, 0x8000
 312:	07e4                	.insn	2, 0x07e4
 314:	8000                	.insn	2, 0x8000
 316:	0600                	.insn	2, 0x0600
 318:	0840                	.insn	2, 0x0840
 31a:	8000                	.insn	2, 0x8000
 31c:	0bb4                	.insn	2, 0x0bb4
 31e:	8000                	.insn	2, 0x8000
 320:	1c06                	.insn	2, 0x1c06
 322:	0000                	.insn	2, 0x0000
 324:	4080                	.insn	2, 0x4080
 326:	0008                	.insn	2, 0x0008
 328:	0080                	.insn	2, 0x0080
 32a:	01d1                	.insn	2, 0x01d1
 32c:	0000                	.insn	2, 0x0000
 32e:	0005                	.insn	2, 0x0005
 330:	0004                	.insn	2, 0x0004
 332:	0000                	.insn	2, 0x0000
 334:	0000                	.insn	2, 0x0000
 336:	0806                	.insn	2, 0x0806
 338:	000c                	.insn	2, 0x000c
 33a:	1880                	.insn	2, 0x1880
 33c:	000c                	.insn	2, 0x000c
 33e:	0680                	.insn	2, 0x0680
 340:	0c20                	.insn	2, 0x0c20
 342:	8000                	.insn	2, 0x8000
 344:	0c24                	.insn	2, 0x0c24
 346:	8000                	.insn	2, 0x8000
 348:	2806                	.insn	2, 0x2806
 34a:	000c                	.insn	2, 0x000c
 34c:	3c80                	.insn	2, 0x3c80
 34e:	000c                	.insn	2, 0x000c
 350:	0080                	.insn	2, 0x0080
 352:	0806                	.insn	2, 0x0806
 354:	000c                	.insn	2, 0x000c
 356:	1080                	.insn	2, 0x1080
 358:	000c                	.insn	2, 0x000c
 35a:	0680                	.insn	2, 0x0680
 35c:	0c20                	.insn	2, 0x0c20
 35e:	8000                	.insn	2, 0x8000
 360:	0c20                	.insn	2, 0x0c20
 362:	8000                	.insn	2, 0x8000
 364:	3006                	.insn	2, 0x3006
 366:	000c                	.insn	2, 0x000c
 368:	3c80                	.insn	2, 0x3c80
 36a:	000c                	.insn	2, 0x000c
 36c:	0080                	.insn	2, 0x0080
 36e:	b406                	.insn	2, 0xb406
 370:	000c                	.insn	2, 0x000c
 372:	b880                	.insn	2, 0xb880
 374:	000c                	.insn	2, 0x000c
 376:	0680                	.insn	2, 0x0680
 378:	0cc4                	.insn	2, 0x0cc4
 37a:	8000                	.insn	2, 0x8000
 37c:	0dc8                	.insn	2, 0x0dc8
 37e:	8000                	.insn	2, 0x8000
 380:	0406                	.insn	2, 0x0406
 382:	000e                	.insn	2, 0x000e
 384:	9480                	.insn	2, 0x9480
 386:	0012                	.insn	2, 0x0012
 388:	0080                	.insn	2, 0x0080
 38a:	d406                	.insn	2, 0xd406
 38c:	000c                	.insn	2, 0x000c
 38e:	dc80                	.insn	2, 0xdc80
 390:	000c                	.insn	2, 0x000c
 392:	0680                	.insn	2, 0x0680
 394:	0e04                	.insn	2, 0x0e04
 396:	8000                	.insn	2, 0x8000
 398:	0e1c                	.insn	2, 0x0e1c
 39a:	8000                	.insn	2, 0x8000
 39c:	a806                	.insn	2, 0xa806
 39e:	0011                	.insn	2, 0x0011
 3a0:	b080                	.insn	2, 0xb080
 3a2:	0011                	.insn	2, 0x0011
 3a4:	0680                	.insn	2, 0x0680
 3a6:	11e0                	.insn	2, 0x11e0
 3a8:	8000                	.insn	2, 0x8000
 3aa:	11ec                	.insn	2, 0x11ec
 3ac:	8000                	.insn	2, 0x8000
 3ae:	0600                	.insn	2, 0x0600
 3b0:	0cd8                	.insn	2, 0x0cd8
 3b2:	8000                	.insn	2, 0x8000
 3b4:	0cdc                	.insn	2, 0x0cdc
 3b6:	8000                	.insn	2, 0x8000
 3b8:	a806                	.insn	2, 0xa806
 3ba:	0011                	.insn	2, 0x0011
 3bc:	b080                	.insn	2, 0xb080
 3be:	0011                	.insn	2, 0x0011
 3c0:	0680                	.insn	2, 0x0680
 3c2:	11e0                	.insn	2, 0x11e0
 3c4:	8000                	.insn	2, 0x8000
 3c6:	11ec                	.insn	2, 0x11ec
 3c8:	8000                	.insn	2, 0x8000
 3ca:	0600                	.insn	2, 0x0600
 3cc:	0cec                	.insn	2, 0x0cec
 3ce:	8000                	.insn	2, 0x8000
 3d0:	0d04                	.insn	2, 0x0d04
 3d2:	8000                	.insn	2, 0x8000
 3d4:	6c06                	.insn	2, 0x6c06
 3d6:	0010                	.insn	2, 0x0010
 3d8:	7080                	.insn	2, 0x7080
 3da:	0010                	.insn	2, 0x0010
 3dc:	0680                	.insn	2, 0x0680
 3de:	119c                	.insn	2, 0x119c
 3e0:	8000                	.insn	2, 0x8000
 3e2:	11a8                	.insn	2, 0x11a8
 3e4:	8000                	.insn	2, 0x8000
 3e6:	0600                	.insn	2, 0x0600
 3e8:	0e64                	.insn	2, 0x0e64
 3ea:	8000                	.insn	2, 0x8000
 3ec:	0e68                	.insn	2, 0x0e68
 3ee:	8000                	.insn	2, 0x8000
 3f0:	7006                	.insn	2, 0x7006
 3f2:	000e                	.insn	2, 0x000e
 3f4:	8080                	.insn	2, 0x8080
 3f6:	000e                	.insn	2, 0x000e
 3f8:	0680                	.insn	2, 0x0680
 3fa:	0e84                	.insn	2, 0x0e84
 3fc:	8000                	.insn	2, 0x8000
 3fe:	0e88                	.insn	2, 0x0e88
 400:	8000                	.insn	2, 0x8000
 402:	d006                	.insn	2, 0xd006
 404:	0011                	.insn	2, 0x0011
 406:	d480                	.insn	2, 0xd480
 408:	0011                	.insn	2, 0x0011
 40a:	0680                	.insn	2, 0x0680
 40c:	11d8                	.insn	2, 0x11d8
 40e:	8000                	.insn	2, 0x8000
 410:	11e0                	.insn	2, 0x11e0
 412:	8000                	.insn	2, 0x8000
 414:	0600                	.insn	2, 0x0600
 416:	11d0                	.insn	2, 0x11d0
 418:	8000                	.insn	2, 0x8000
 41a:	11d4                	.insn	2, 0x11d4
 41c:	8000                	.insn	2, 0x8000
 41e:	d806                	.insn	2, 0xd806
 420:	0011                	.insn	2, 0x0011
 422:	e080                	.insn	2, 0xe080
 424:	0011                	.insn	2, 0x0011
 426:	0080                	.insn	2, 0x0080
 428:	d006                	.insn	2, 0xd006
 42a:	000e                	.insn	2, 0x000e
 42c:	e080                	.insn	2, 0xe080
 42e:	000e                	.insn	2, 0x000e
 430:	0680                	.insn	2, 0x0680
 432:	0eec                	.insn	2, 0x0eec
 434:	8000                	.insn	2, 0x8000
 436:	0f04                	.insn	2, 0x0f04
 438:	8000                	.insn	2, 0x8000
 43a:	0600                	.insn	2, 0x0600
 43c:	0f14                	.insn	2, 0x0f14
 43e:	8000                	.insn	2, 0x8000
 440:	0f18                	.insn	2, 0x0f18
 442:	8000                	.insn	2, 0x8000
 444:	2406                	.insn	2, 0x2406
 446:	2880000f          	.insn	4, 0x2880000f
 44a:	0680000f          	fence	or,i
 44e:	0f74                	.insn	2, 0x0f74
 450:	8000                	.insn	2, 0x8000
 452:	0fa4                	.insn	2, 0x0fa4
 454:	8000                	.insn	2, 0x8000
 456:	ec06                	.insn	2, 0xec06
 458:	0011                	.insn	2, 0x0011
 45a:	f080                	.insn	2, 0xf080
 45c:	0011                	.insn	2, 0x0011
 45e:	0680                	.insn	2, 0x0680
 460:	1200                	.insn	2, 0x1200
 462:	8000                	.insn	2, 0x8000
 464:	1208                	.insn	2, 0x1208
 466:	8000                	.insn	2, 0x8000
 468:	0600                	.insn	2, 0x0600
 46a:	0f74                	.insn	2, 0x0f74
 46c:	8000                	.insn	2, 0x8000
 46e:	0f80                	.insn	2, 0x0f80
 470:	8000                	.insn	2, 0x8000
 472:	8806                	.insn	2, 0x8806
 474:	8c80000f          	.insn	4, 0x8c80000f
 478:	0680000f          	fence	or,i
 47c:	0f90                	.insn	2, 0x0f90
 47e:	8000                	.insn	2, 0x8000
 480:	0fa4                	.insn	2, 0x0fa4
 482:	8000                	.insn	2, 0x8000
 484:	0600                	.insn	2, 0x0600
 486:	0f30                	.insn	2, 0x0f30
 488:	8000                	.insn	2, 0x8000
 48a:	0f40                	.insn	2, 0x0f40
 48c:	8000                	.insn	2, 0x8000
 48e:	4c06                	.insn	2, 0x4c06
 490:	6480000f          	.insn	4, 0x6480000f
 494:	0080000f          	fence	unknown,i
 498:	8406                	.insn	2, 0x8406
 49a:	0010                	.insn	2, 0x0010
 49c:	9c80                	.insn	2, 0x9c80
 49e:	0010                	.insn	2, 0x0010
 4a0:	0680                	.insn	2, 0x0680
 4a2:	1130                	.insn	2, 0x1130
 4a4:	8000                	.insn	2, 0x8000
 4a6:	1140                	.insn	2, 0x1140
 4a8:	8000                	.insn	2, 0x8000
 4aa:	0600                	.insn	2, 0x0600
 4ac:	10ac                	.insn	2, 0x10ac
 4ae:	8000                	.insn	2, 0x8000
 4b0:	10b8                	.insn	2, 0x10b8
 4b2:	8000                	.insn	2, 0x8000
 4b4:	c806                	.insn	2, 0xc806
 4b6:	0010                	.insn	2, 0x0010
 4b8:	d480                	.insn	2, 0xd480
 4ba:	0010                	.insn	2, 0x0010
 4bc:	0680                	.insn	2, 0x0680
 4be:	10d8                	.insn	2, 0x10d8
 4c0:	8000                	.insn	2, 0x8000
 4c2:	10dc                	.insn	2, 0x10dc
 4c4:	8000                	.insn	2, 0x8000
 4c6:	4006                	.insn	2, 0x4006
 4c8:	0011                	.insn	2, 0x0011
 4ca:	4c80                	.insn	2, 0x4c80
 4cc:	0011                	.insn	2, 0x0011
 4ce:	0080                	.insn	2, 0x0080
 4d0:	cc06                	.insn	2, 0xcc06
 4d2:	0010                	.insn	2, 0x0010
 4d4:	d480                	.insn	2, 0xd480
 4d6:	0010                	.insn	2, 0x0010
 4d8:	0680                	.insn	2, 0x0680
 4da:	10d8                	.insn	2, 0x10d8
 4dc:	8000                	.insn	2, 0x8000
 4de:	10dc                	.insn	2, 0x10dc
 4e0:	8000                	.insn	2, 0x8000
 4e2:	0600                	.insn	2, 0x0600
 4e4:	10c0                	.insn	2, 0x10c0
 4e6:	8000                	.insn	2, 0x8000
 4e8:	10c4                	.insn	2, 0x10c4
 4ea:	8000                	.insn	2, 0x8000
 4ec:	ec06                	.insn	2, 0xec06
 4ee:	0010                	.insn	2, 0x0010
 4f0:	fc80                	.insn	2, 0xfc80
 4f2:	0010                	.insn	2, 0x0010
 4f4:	0680                	.insn	2, 0x0680
 4f6:	1108                	.insn	2, 0x1108
 4f8:	8000                	.insn	2, 0x8000
 4fa:	1124                	.insn	2, 0x1124
 4fc:	8000                	.insn	2, 0x8000
	...

Disassembly of section .debug_frame:

00000000 <.debug_frame>:
   0:	000c                	.insn	2, 0x000c
   2:	0000                	.insn	2, 0x0000
   4:	ffff                	.insn	2, 0xffff
   6:	ffff                	.insn	2, 0xffff
   8:	7c010003          	lb	zero,1984(sp) # 490028e8 <__stack_size+0x470028e8>
   c:	0d01                	.insn	2, 0x0d01
   e:	0002                	.insn	2, 0x0002
  10:	000c                	.insn	2, 0x000c
  12:	0000                	.insn	2, 0x0000
  14:	0000                	.insn	2, 0x0000
  16:	0000                	.insn	2, 0x0000
  18:	0840                	.insn	2, 0x0840
  1a:	8000                	.insn	2, 0x8000
  1c:	0030                	.insn	2, 0x0030
  1e:	0000                	.insn	2, 0x0000
  20:	000c                	.insn	2, 0x000c
  22:	0000                	.insn	2, 0x0000
  24:	0000                	.insn	2, 0x0000
  26:	0000                	.insn	2, 0x0000
  28:	0870                	.insn	2, 0x0870
  2a:	8000                	.insn	2, 0x8000
  2c:	002c                	.insn	2, 0x002c
  2e:	0000                	.insn	2, 0x0000
  30:	000c                	.insn	2, 0x000c
  32:	0000                	.insn	2, 0x0000
  34:	0000                	.insn	2, 0x0000
  36:	0000                	.insn	2, 0x0000
  38:	089c                	.insn	2, 0x089c
  3a:	8000                	.insn	2, 0x8000
  3c:	0030                	.insn	2, 0x0030
  3e:	0000                	.insn	2, 0x0000
  40:	000c                	.insn	2, 0x000c
  42:	0000                	.insn	2, 0x0000
  44:	0000                	.insn	2, 0x0000
  46:	0000                	.insn	2, 0x0000
  48:	08cc                	.insn	2, 0x08cc
  4a:	8000                	.insn	2, 0x8000
  4c:	0018                	.insn	2, 0x0018
  4e:	0000                	.insn	2, 0x0000
  50:	000c                	.insn	2, 0x000c
  52:	0000                	.insn	2, 0x0000
  54:	0000                	.insn	2, 0x0000
  56:	0000                	.insn	2, 0x0000
  58:	08e4                	.insn	2, 0x08e4
  5a:	8000                	.insn	2, 0x8000
  5c:	0054                	.insn	2, 0x0054
  5e:	0000                	.insn	2, 0x0000
  60:	0030                	.insn	2, 0x0030
  62:	0000                	.insn	2, 0x0000
  64:	0000                	.insn	2, 0x0000
  66:	0000                	.insn	2, 0x0000
  68:	0938                	.insn	2, 0x0938
  6a:	8000                	.insn	2, 0x8000
  6c:	0158                	.insn	2, 0x0158
  6e:	0000                	.insn	2, 0x0000
  70:	0e4c                	.insn	2, 0x0e4c
  72:	4810                	.insn	2, 0x4810
  74:	0288                	.insn	2, 0x0288
  76:	8974                	.insn	2, 0x8974
  78:	02018103          	lb	sp,32(gp) # 1020 <__stack_size-0x1ffefe0>
  7c:	0a6c                	.insn	2, 0x0a6c
  7e:	44c1                	.insn	2, 0x44c1
  80:	02c8                	.insn	2, 0x02c8
  82:	c964                	.insn	2, 0xc964
  84:	0e44                	.insn	2, 0x0e44
  86:	4400                	.insn	2, 0x4400
  88:	48c1600b          	.insn	4, 0x48c1600b
  8c:	44c8                	.insn	2, 0x44c8
  8e:	44c9                	.insn	2, 0x44c9
  90:	000e                	.insn	2, 0x000e
  92:	0000                	.insn	2, 0x0000
  94:	000c                	.insn	2, 0x000c
  96:	0000                	.insn	2, 0x0000
  98:	0000                	.insn	2, 0x0000
  9a:	0000                	.insn	2, 0x0000
  9c:	0a90                	.insn	2, 0x0a90
  9e:	8000                	.insn	2, 0x8000
  a0:	0010                	.insn	2, 0x0010
  a2:	0000                	.insn	2, 0x0000
  a4:	000c                	.insn	2, 0x000c
  a6:	0000                	.insn	2, 0x0000
  a8:	0000                	.insn	2, 0x0000
  aa:	0000                	.insn	2, 0x0000
  ac:	0aa0                	.insn	2, 0x0aa0
  ae:	8000                	.insn	2, 0x8000
  b0:	0074                	.insn	2, 0x0074
  b2:	0000                	.insn	2, 0x0000
  b4:	000c                	.insn	2, 0x000c
  b6:	0000                	.insn	2, 0x0000
  b8:	0000                	.insn	2, 0x0000
  ba:	0000                	.insn	2, 0x0000
  bc:	0b14                	.insn	2, 0x0b14
  be:	8000                	.insn	2, 0x8000
  c0:	0024                	.insn	2, 0x0024
  c2:	0000                	.insn	2, 0x0000
  c4:	001c                	.insn	2, 0x001c
  c6:	0000                	.insn	2, 0x0000
  c8:	0000                	.insn	2, 0x0000
  ca:	0000                	.insn	2, 0x0000
  cc:	0b38                	.insn	2, 0x0b38
  ce:	8000                	.insn	2, 0x8000
  d0:	0060                	.insn	2, 0x0060
  d2:	0000                	.insn	2, 0x0000
  d4:	0e44                	.insn	2, 0x0e44
  d6:	4410                	.insn	2, 0x4410
  d8:	0181                	.insn	2, 0x0181
  da:	4002                	.insn	2, 0x4002
  dc:	c10a                	.insn	2, 0xc10a
  de:	0e48                	.insn	2, 0x0e48
  e0:	4400                	.insn	2, 0x4400
  e2:	000c000b          	.insn	4, 0x000c000b
  e6:	0000                	.insn	2, 0x0000
  e8:	0000                	.insn	2, 0x0000
  ea:	0000                	.insn	2, 0x0000
  ec:	0b98                	.insn	2, 0x0b98
  ee:	8000                	.insn	2, 0x8000
  f0:	000c                	.insn	2, 0x000c
  f2:	0000                	.insn	2, 0x0000
  f4:	000c                	.insn	2, 0x000c
  f6:	0000                	.insn	2, 0x0000
  f8:	0000                	.insn	2, 0x0000
  fa:	0000                	.insn	2, 0x0000
  fc:	0ba4                	.insn	2, 0x0ba4
  fe:	8000                	.insn	2, 0x8000
 100:	0010                	.insn	2, 0x0010
 102:	0000                	.insn	2, 0x0000
 104:	0050                	.insn	2, 0x0050
 106:	0000                	.insn	2, 0x0000
 108:	0000                	.insn	2, 0x0000
 10a:	0000                	.insn	2, 0x0000
 10c:	001c                	.insn	2, 0x001c
 10e:	8000                	.insn	2, 0x8000
 110:	0824                	.insn	2, 0x0824
 112:	0000                	.insn	2, 0x0000
 114:	0e4c                	.insn	2, 0x0e4c
 116:	01b0                	.insn	2, 0x01b0
 118:	8174                	.insn	2, 0x8174
 11a:	8801                	.insn	2, 0x8801
 11c:	8902                	.insn	2, 0x8902
 11e:	93049203          	lh	tp,-1744(s1)
 122:	9405                	.insn	2, 0x9405
 124:	9506                	.insn	2, 0x9506
 126:	97089607          	.insn	4, 0x97089607
 12a:	9809                	.insn	2, 0x9809
 12c:	990a                	.insn	2, 0x990a
 12e:	9b0c9a0b          	.insn	4, 0x9b0c9a0b
 132:	030d                	.insn	2, 0x030d
 134:	07a0                	.insn	2, 0x07a0
 136:	c10a                	.insn	2, 0xc10a
 138:	c844                	.insn	2, 0xc844
 13a:	c944                	.insn	2, 0xc944
 13c:	d244                	.insn	2, 0xd244
 13e:	d344                	.insn	2, 0xd344
 140:	d444                	.insn	2, 0xd444
 142:	d544                	.insn	2, 0xd544
 144:	d644                	.insn	2, 0xd644
 146:	d744                	.insn	2, 0xd744
 148:	d844                	.insn	2, 0xd844
 14a:	d944                	.insn	2, 0xd944
 14c:	da44                	.insn	2, 0xda44
 14e:	db44                	.insn	2, 0xdb44
 150:	0e48                	.insn	2, 0x0e48
 152:	4400                	.insn	2, 0x4400
 154:	0000000b          	.insn	4, 0x000b
 158:	000c                	.insn	2, 0x000c
 15a:	0000                	.insn	2, 0x0000
 15c:	ffff                	.insn	2, 0xffff
 15e:	ffff                	.insn	2, 0xffff
 160:	7c010003          	lb	zero,1984(sp)
 164:	0d01                	.insn	2, 0x0d01
 166:	0002                	.insn	2, 0x0002
 168:	000c                	.insn	2, 0x000c
 16a:	0000                	.insn	2, 0x0000
 16c:	0158                	.insn	2, 0x0158
 16e:	0000                	.insn	2, 0x0000
 170:	0bb4                	.insn	2, 0x0bb4
 172:	8000                	.insn	2, 0x8000
 174:	0030                	.insn	2, 0x0030
 176:	0000                	.insn	2, 0x0000
 178:	0024                	.insn	2, 0x0024
 17a:	0000                	.insn	2, 0x0000
 17c:	0158                	.insn	2, 0x0158
 17e:	0000                	.insn	2, 0x0000
 180:	0be4                	.insn	2, 0x0be4
 182:	8000                	.insn	2, 0x8000
 184:	0078                	.insn	2, 0x0078
 186:	0000                	.insn	2, 0x0000
 188:	0e44                	.insn	2, 0x0e44
 18a:	5010                	.insn	2, 0x5010
 18c:	0288                	.insn	2, 0x0288
 18e:	0181                	.insn	2, 0x0181
 190:	0389                	.insn	2, 0x0389
 192:	0492                	.insn	2, 0x0492
 194:	5002                	.insn	2, 0x5002
 196:	44c1                	.insn	2, 0x44c1
 198:	44c8                	.insn	2, 0x44c8
 19a:	44c9                	.insn	2, 0x44c9
 19c:	44d2                	.insn	2, 0x44d2
 19e:	000e                	.insn	2, 0x000e
 1a0:	0050                	.insn	2, 0x0050
 1a2:	0000                	.insn	2, 0x0000
 1a4:	0158                	.insn	2, 0x0158
 1a6:	0000                	.insn	2, 0x0000
 1a8:	0c5c                	.insn	2, 0x0c5c
 1aa:	8000                	.insn	2, 0x8000
 1ac:	0638                	.insn	2, 0x0638
 1ae:	0000                	.insn	2, 0x0000
 1b0:	0e44                	.insn	2, 0x0e44
 1b2:	0190                	.insn	2, 0x0190
 1b4:	9574                	.insn	2, 0x9574
 1b6:	8112980f          	.insn	4, 0x8112980f
 1ba:	8809                	.insn	2, 0x8809
 1bc:	890a                	.insn	2, 0x890a
 1be:	930c920b          	.insn	4, 0x930c920b
 1c2:	940d                	.insn	2, 0x940d
 1c4:	960e                	.insn	2, 0x960e
 1c6:	9710                	.insn	2, 0x9710
 1c8:	9911                	.insn	2, 0x9911
 1ca:	9b149a13          	.insn	4, 0x9b149a13
 1ce:	0315                	.insn	2, 0x0315
 1d0:	0138                	.insn	2, 0x0138
 1d2:	c10a                	.insn	2, 0xc10a
 1d4:	c844                	.insn	2, 0xc844
 1d6:	c944                	.insn	2, 0xc944
 1d8:	d244                	.insn	2, 0xd244
 1da:	d344                	.insn	2, 0xd344
 1dc:	d444                	.insn	2, 0xd444
 1de:	d544                	.insn	2, 0xd544
 1e0:	d644                	.insn	2, 0xd644
 1e2:	d744                	.insn	2, 0xd744
 1e4:	d844                	.insn	2, 0xd844
 1e6:	d944                	.insn	2, 0xd944
 1e8:	da44                	.insn	2, 0xda44
 1ea:	db44                	.insn	2, 0xdb44
 1ec:	0e44                	.insn	2, 0x0e44
 1ee:	4400                	.insn	2, 0x4400
 1f0:	0000000b          	.insn	4, 0x000b
