
dry:     file format elf32-littleriscv
dry


Disassembly of section .init:

80000000 <_start>:
_start():
/home/tututu/qimeng/simulator/baremetal/rt-thread-am-master/bsp/abstract-machine/../../../start.S:9
80000000:	00005197          	auipc	gp,0x5
80000004:	e4018193          	addi	gp,gp,-448 # 80004e40 <__global_pointer>
/home/tututu/qimeng/simulator/baremetal/rt-thread-am-master/bsp/abstract-machine/../../../start.S:10
80000008:	08000117          	auipc	sp,0x8000
8000000c:	ff810113          	addi	sp,sp,-8 # 88000000 <_sp>
/home/tututu/qimeng/simulator/baremetal/rt-thread-am-master/bsp/abstract-machine/../../../start.S:12
80000010:	00c000ef          	jal	ra,8000001c <main>
/home/tututu/qimeng/simulator/baremetal/rt-thread-am-master/bsp/abstract-machine/../../../start.S:13
80000014:	00100073          	ebreak

80000018 <loop>:
loop():
/home/tututu/qimeng/simulator/baremetal/rt-thread-am-master/bsp/abstract-machine/../../../start.S:16
80000018:	0000006f          	jal	zero,80000018 <loop>

Disassembly of section .text:

8000001c <main>:
myalloc():
/home/tututu/qimeng/simulator/baremetal/benchmarks/dhrystone/dry.c:446

static char memory[1024];
static char *free_mem = &memory[0];

static char *myalloc(size_t size) {
  while ((unsigned long)free_mem % 4 != 0)
8000001c:	800046b7          	lui	a3,0x80004
80000020:	6446a783          	lw	a5,1604(a3) # 80004644 <_sp+0xf8004644>
main():
/home/tututu/qimeng/simulator/baremetal/benchmarks/dhrystone/dry.c:725
int main()
/*****/

/* main program, corresponds to procedures        */
/* Main and Proc_0 in the Ada version             */
{
80000024:	f5010113          	addi	sp,sp,-176
80000028:	0a112623          	sw	ra,172(sp)
8000002c:	0a812423          	sw	s0,168(sp)
80000030:	0a912223          	sw	s1,164(sp)
80000034:	0b212023          	sw	s2,160(sp)
80000038:	09312e23          	sw	s3,156(sp)
8000003c:	09412c23          	sw	s4,152(sp)
80000040:	09512a23          	sw	s5,148(sp)
80000044:	09612823          	sw	s6,144(sp)
80000048:	09712623          	sw	s7,140(sp)
8000004c:	09812423          	sw	s8,136(sp)
80000050:	09912223          	sw	s9,132(sp)
80000054:	09a12023          	sw	s10,128(sp)
80000058:	07b12e23          	sw	s11,124(sp)
myalloc():
/home/tututu/qimeng/simulator/baremetal/benchmarks/dhrystone/dry.c:446
  while ((unsigned long)free_mem % 4 != 0)
8000005c:	0037f713          	andi	a4,a5,3
80000060:	00070c63          	beq	a4,zero,80000078 <main+0x5c>
80000064:	00178713          	addi	a4,a5,1
80000068:	00377613          	andi	a2,a4,3
/home/tututu/qimeng/simulator/baremetal/benchmarks/dhrystone/dry.c:447
    free_mem++;
8000006c:	00070793          	addi	a5,a4,0
/home/tututu/qimeng/simulator/baremetal/benchmarks/dhrystone/dry.c:446
  while ((unsigned long)free_mem % 4 != 0)
80000070:	00170713          	addi	a4,a4,1
80000074:	fe061ae3          	bne	a2,zero,80000068 <main+0x4c>
main():
/home/tututu/qimeng/simulator/baremetal/benchmarks/dhrystone/dry.c:742

  Number_Of_Runs = NUMBER_OF_RUNS;

  /* Initializations */

  Next_Ptr_Glob = (Rec_Pointer)myalloc(sizeof(Rec_Type));
80000078:	80004737          	lui	a4,0x80004
8000007c:	62f72823          	sw	a5,1584(a4) # 80004630 <_sp+0xf8004630>
myalloc():
/home/tututu/qimeng/simulator/baremetal/benchmarks/dhrystone/dry.c:446
  while ((unsigned long)free_mem % 4 != 0)
80000080:	0037f713          	andi	a4,a5,3
/home/tututu/qimeng/simulator/baremetal/benchmarks/dhrystone/dry.c:449
  free_mem += size;
80000084:	03078a13          	addi	s4,a5,48
/home/tututu/qimeng/simulator/baremetal/benchmarks/dhrystone/dry.c:446
  while ((unsigned long)free_mem % 4 != 0)
80000088:	00070c63          	beq	a4,zero,800000a0 <main+0x84>
8000008c:	03178713          	addi	a4,a5,49
80000090:	00377613          	andi	a2,a4,3
/home/tututu/qimeng/simulator/baremetal/benchmarks/dhrystone/dry.c:447
    free_mem++;
80000094:	00070a13          	addi	s4,a4,0
/home/tututu/qimeng/simulator/baremetal/benchmarks/dhrystone/dry.c:446
  while ((unsigned long)free_mem % 4 != 0)
80000098:	00170713          	addi	a4,a4,1
8000009c:	fe061ae3          	bne	a2,zero,80000090 <main+0x74>
main():
/home/tututu/qimeng/simulator/baremetal/benchmarks/dhrystone/dry.c:743
  Ptr_Glob = (Rec_Pointer)myalloc(sizeof(Rec_Type));
800000a0:	80004737          	lui	a4,0x80004
800000a4:	63472a23          	sw	s4,1588(a4) # 80004634 <_sp+0xf8004634>
/home/tututu/qimeng/simulator/baremetal/benchmarks/dhrystone/dry.c:745

  Ptr_Glob->Ptr_Comp = Next_Ptr_Glob;
800000a8:	00fa2023          	sw	a5,0(s4)
/home/tututu/qimeng/simulator/baremetal/benchmarks/dhrystone/dry.c:747
  Ptr_Glob->Discr = Ident_1;
  Ptr_Glob->variant.var_1.Enum_Comp = Ident_3;
800000ac:	00200793          	addi	a5,zero,2
800000b0:	00fa2423          	sw	a5,8(s4)
/home/tututu/qimeng/simulator/baremetal/benchmarks/dhrystone/dry.c:748
  Ptr_Glob->variant.var_1.Int_Comp = 40;
800000b4:	02800793          	addi	a5,zero,40
800000b8:	00fa2623          	sw	a5,12(s4)
/home/tututu/qimeng/simulator/baremetal/benchmarks/dhrystone/dry.c:749
  strcpy(Ptr_Glob->variant.var_1.Str_Comp, "DHRYSTONE PROGRAM, SOME STRING");
800000bc:	800017b7          	lui	a5,0x80001
myalloc():
/home/tututu/qimeng/simulator/baremetal/benchmarks/dhrystone/dry.c:449
  free_mem += size;
800000c0:	030a0713          	addi	a4,s4,48
main():
/home/tututu/qimeng/simulator/baremetal/benchmarks/dhrystone/dry.c:749
  strcpy(Ptr_Glob->variant.var_1.Str_Comp, "DHRYSTONE PROGRAM, SOME STRING");
800000c4:	5e478593          	addi	a1,a5,1508 # 800015e4 <_sp+0xf80015e4>
800000c8:	01f00613          	addi	a2,zero,31
/home/tututu/qimeng/simulator/baremetal/benchmarks/dhrystone/dry.c:746
  Ptr_Glob->Discr = Ident_1;
800000cc:	000a2223          	sw	zero,4(s4)
/home/tututu/qimeng/simulator/baremetal/benchmarks/dhrystone/dry.c:749
  strcpy(Ptr_Glob->variant.var_1.Str_Comp, "DHRYSTONE PROGRAM, SOME STRING");
800000d0:	010a0513          	addi	a0,s4,16
myalloc():
/home/tututu/qimeng/simulator/baremetal/benchmarks/dhrystone/dry.c:449
  free_mem += size;
800000d4:	64e6a223          	sw	a4,1604(a3)
main():
/home/tututu/qimeng/simulator/baremetal/benchmarks/dhrystone/dry.c:749
  strcpy(Ptr_Glob->variant.var_1.Str_Comp, "DHRYSTONE PROGRAM, SOME STRING");
800000d8:	268010ef          	jal	ra,80001340 <memcpy>
/home/tututu/qimeng/simulator/baremetal/benchmarks/dhrystone/dry.c:750
  strcpy(Str_1_Loc, "DHRYSTONE PROGRAM, 1'ST STRING");
800000dc:	800027b7          	lui	a5,0x80002
800000e0:	8cc78713          	addi	a4,a5,-1844 # 800018cc <_sp+0xf80018cc>
800000e4:	800027b7          	lui	a5,0x80002
800000e8:	94078793          	addi	a5,a5,-1728 # 80001940 <_sp+0xf8001940>
/home/tututu/qimeng/simulator/baremetal/benchmarks/dhrystone/dry.c:776
      Proc_5();
      Proc_4();
      /* Ch_1_Glob == 'A', Ch_2_Glob == 'B', Bool_Glob == true */
      Int_1_Loc = 2;
      Int_2_Loc = 3;
      strcpy(Str_2_Loc, "DHRYSTONE PROGRAM, 2'ND STRING");
800000ec:	0007ae83          	lw	t4,0(a5)
/home/tututu/qimeng/simulator/baremetal/benchmarks/dhrystone/dry.c:750
  strcpy(Str_1_Loc, "DHRYSTONE PROGRAM, 1'ST STRING");
800000f0:	00072e03          	lw	t3,0(a4)
800000f4:	00472303          	lw	t1,4(a4)
/home/tututu/qimeng/simulator/baremetal/benchmarks/dhrystone/dry.c:776
      strcpy(Str_2_Loc, "DHRYSTONE PROGRAM, 2'ND STRING");
800000f8:	01d12623          	sw	t4,12(sp)
800000fc:	0047ae83          	lw	t4,4(a5)
/home/tututu/qimeng/simulator/baremetal/benchmarks/dhrystone/dry.c:750
  strcpy(Str_1_Loc, "DHRYSTONE PROGRAM, 1'ST STRING");
80000100:	00872883          	lw	a7,8(a4)
80000104:	00c72803          	lw	a6,12(a4)
/home/tututu/qimeng/simulator/baremetal/benchmarks/dhrystone/dry.c:776
      strcpy(Str_2_Loc, "DHRYSTONE PROGRAM, 2'ND STRING");
80000108:	01d12823          	sw	t4,16(sp)
8000010c:	0087ae83          	lw	t4,8(a5)
/home/tututu/qimeng/simulator/baremetal/benchmarks/dhrystone/dry.c:750
  strcpy(Str_1_Loc, "DHRYSTONE PROGRAM, 1'ST STRING");
80000110:	01072503          	lw	a0,16(a4)
80000114:	01872603          	lw	a2,24(a4)
/home/tututu/qimeng/simulator/baremetal/benchmarks/dhrystone/dry.c:776
      strcpy(Str_2_Loc, "DHRYSTONE PROGRAM, 2'ND STRING");
80000118:	01d12a23          	sw	t4,20(sp)
8000011c:	00c7ae83          	lw	t4,12(a5)
/home/tututu/qimeng/simulator/baremetal/benchmarks/dhrystone/dry.c:750
  strcpy(Str_1_Loc, "DHRYSTONE PROGRAM, 1'ST STRING");
80000120:	01472583          	lw	a1,20(a4)
80000124:	01c75683          	lhu	a3,28(a4)
/home/tututu/qimeng/simulator/baremetal/benchmarks/dhrystone/dry.c:776
      strcpy(Str_2_Loc, "DHRYSTONE PROGRAM, 2'ND STRING");
80000128:	01d12c23          	sw	t4,24(sp)
8000012c:	0107ae83          	lw	t4,16(a5)
/home/tututu/qimeng/simulator/baremetal/benchmarks/dhrystone/dry.c:750
  strcpy(Str_1_Loc, "DHRYSTONE PROGRAM, 1'ST STRING");
80000130:	01e74703          	lbu	a4,30(a4)
80000134:	03c12823          	sw	t3,48(sp)
/home/tututu/qimeng/simulator/baremetal/benchmarks/dhrystone/dry.c:776
      strcpy(Str_2_Loc, "DHRYSTONE PROGRAM, 2'ND STRING");
80000138:	01d12e23          	sw	t4,28(sp)
8000013c:	0147ae83          	lw	t4,20(a5)
/home/tututu/qimeng/simulator/baremetal/benchmarks/dhrystone/dry.c:750
  strcpy(Str_1_Loc, "DHRYSTONE PROGRAM, 1'ST STRING");
80000140:	02612a23          	sw	t1,52(sp)
80000144:	03112c23          	sw	a7,56(sp)
/home/tututu/qimeng/simulator/baremetal/benchmarks/dhrystone/dry.c:776
      strcpy(Str_2_Loc, "DHRYSTONE PROGRAM, 2'ND STRING");
80000148:	03d12023          	sw	t4,32(sp)
8000014c:	0187ae83          	lw	t4,24(a5)
/home/tututu/qimeng/simulator/baremetal/benchmarks/dhrystone/dry.c:750
  strcpy(Str_1_Loc, "DHRYSTONE PROGRAM, 1'ST STRING");
80000150:	03012e23          	sw	a6,60(sp)
80000154:	04a12023          	sw	a0,64(sp)
/home/tututu/qimeng/simulator/baremetal/benchmarks/dhrystone/dry.c:776
      strcpy(Str_2_Loc, "DHRYSTONE PROGRAM, 2'ND STRING");
80000158:	03d12223          	sw	t4,36(sp)
8000015c:	01c7de83          	lhu	t4,28(a5)
80000160:	01e7c783          	lbu	a5,30(a5)
80000164:	80002937          	lui	s2,0x80002
80000168:	03d12423          	sw	t4,40(sp)
8000016c:	02f12623          	sw	a5,44(sp)
/home/tututu/qimeng/simulator/baremetal/benchmarks/dhrystone/dry.c:750
  strcpy(Str_1_Loc, "DHRYSTONE PROGRAM, 1'ST STRING");
80000170:	04b12223          	sw	a1,68(sp)
/home/tututu/qimeng/simulator/baremetal/benchmarks/dhrystone/dry.c:760
  Done = false;
80000174:	800047b7          	lui	a5,0x80004
/home/tututu/qimeng/simulator/baremetal/benchmarks/dhrystone/dry.c:750
  strcpy(Str_1_Loc, "DHRYSTONE PROGRAM, 1'ST STRING");
80000178:	04c12423          	sw	a2,72(sp)
8000017c:	80002437          	lui	s0,0x80002
80000180:	80003c37          	lui	s8,0x80003
/home/tututu/qimeng/simulator/baremetal/benchmarks/dhrystone/dry.c:799
      {
        if (Enum_Loc == Func_1(Ch_Index, 'C'))
        /* then, not executed */
        {
          Proc_6(Ident_1, &Enum_Loc);
          strcpy(Str_2_Loc, "DHRYSTONE PROGRAM, 3'RD STRING");
80000184:	80002637          	lui	a2,0x80002
/home/tututu/qimeng/simulator/baremetal/benchmarks/dhrystone/dry.c:750
  strcpy(Str_1_Loc, "DHRYSTONE PROGRAM, 1'ST STRING");
80000188:	04e10723          	sb	a4,78(sp)
8000018c:	04d11623          	sh	a3,76(sp)
/home/tututu/qimeng/simulator/baremetal/benchmarks/dhrystone/dry.c:760
  Done = false;
80000190:	6007ae23          	sw	zero,1564(a5) # 8000461c <_sp+0xf800461c>
80000194:	00a00493          	addi	s1,zero,10
80000198:	05200713          	addi	a4,zero,82
/home/tututu/qimeng/simulator/baremetal/benchmarks/dhrystone/dry.c:769
    for (Run_Index = 1; Run_Index <= Number_Of_Runs; ++Run_Index) {
8000019c:	00100993          	addi	s3,zero,1
800001a0:	80004bb7          	lui	s7,0x80004
800001a4:	80004ab7          	lui	s5,0x80004
800001a8:	80004cb7          	lui	s9,0x80004
800001ac:	a3090913          	addi	s2,s2,-1488 # 80001a30 <_sp+0xf8001a30>
800001b0:	ef840413          	addi	s0,s0,-264 # 80001ef8 <_sp+0xf8001ef8>
800001b4:	ef8c0c13          	addi	s8,s8,-264 # 80002ef8 <_sp+0xf8002ef8>
800001b8:	80004b37          	lui	s6,0x80004
/home/tututu/qimeng/simulator/baremetal/benchmarks/dhrystone/dry.c:799
          strcpy(Str_2_Loc, "DHRYSTONE PROGRAM, 3'RD STRING");
800001bc:	9b460d93          	addi	s11,a2,-1612 # 800019b4 <_sp+0xf80019b4>
Proc_5():
/home/tututu/qimeng/simulator/baremetal/benchmarks/dhrystone/dry.c:542
  Ch_1_Glob = 'A';
800001c0:	04100793          	addi	a5,zero,65
800001c4:	62fb82a3          	sb	a5,1573(s7) # 80004625 <_sp+0xf8004625>
Proc_4():
/home/tututu/qimeng/simulator/baremetal/benchmarks/dhrystone/dry.c:535
  Ch_2_Glob = 'B';
800001c8:	04200793          	addi	a5,zero,66
800001cc:	62fa8223          	sb	a5,1572(s5) # 80004624 <_sp+0xf8004624>
main():
/home/tututu/qimeng/simulator/baremetal/benchmarks/dhrystone/dry.c:776
      strcpy(Str_2_Loc, "DHRYSTONE PROGRAM, 2'ND STRING");
800001d0:	00c12783          	lw	a5,12(sp)
800001d4:	00000693          	addi	a3,zero,0
800001d8:	04f12823          	sw	a5,80(sp)
800001dc:	01012783          	lw	a5,16(sp)
800001e0:	04f12a23          	sw	a5,84(sp)
800001e4:	01412783          	lw	a5,20(sp)
800001e8:	04f12c23          	sw	a5,88(sp)
800001ec:	01812783          	lw	a5,24(sp)
800001f0:	04f12e23          	sw	a5,92(sp)
800001f4:	01c12783          	lw	a5,28(sp)
800001f8:	06f12023          	sw	a5,96(sp)
800001fc:	02012783          	lw	a5,32(sp)
80000200:	06f12223          	sw	a5,100(sp)
80000204:	02412783          	lw	a5,36(sp)
80000208:	06f12423          	sw	a5,104(sp)
8000020c:	02812783          	lw	a5,40(sp)
80000210:	06f11623          	sh	a5,108(sp)
80000214:	02c12783          	lw	a5,44(sp)
80000218:	06f10723          	sb	a5,110(sp)
Func_1():
/home/tututu/qimeng/simulator/baremetal/benchmarks/dhrystone/dry.c:651
  if (Ch_2_Loc != Ch_2_Par_Val)
8000021c:	05900793          	addi	a5,zero,89
80000220:	16f70e63          	beq	a4,a5,8000039c <main+0x380>
80000224:	00068463          	beq	a3,zero,8000022c <main+0x210>
80000228:	62fb82a3          	sb	a5,1573(s7)
Func_2():
/home/tututu/qimeng/simulator/baremetal/benchmarks/dhrystone/dry.c:689
    if (strcmp(Str_1_Par_Ref, Str_2_Par_Ref) > 0) {
8000022c:	05010593          	addi	a1,sp,80
80000230:	03010513          	addi	a0,sp,48
80000234:	234010ef          	jal	ra,80001468 <strcmp>
Proc_8():
/home/tututu/qimeng/simulator/baremetal/benchmarks/dhrystone/dry.c:628
  Arr_1_Par_Ref[Int_Loc + 30] = Int_Loc;
80000238:	00800713          	addi	a4,zero,8
/home/tututu/qimeng/simulator/baremetal/benchmarks/dhrystone/dry.c:626
  Arr_1_Par_Ref[Int_Loc] = Int_2_Par_Val;
8000023c:	00700793          	addi	a5,zero,7
/home/tututu/qimeng/simulator/baremetal/benchmarks/dhrystone/dry.c:631
  Arr_2_Par_Ref[Int_Loc][Int_Loc - 1] += 1;
80000240:	00148493          	addi	s1,s1,1
main():
/home/tututu/qimeng/simulator/baremetal/benchmarks/dhrystone/dry.c:778
      Bool_Glob = !Func_2(Str_1_Loc, Str_2_Loc);
80000244:	00152693          	slti	a3,a0,1
Proc_8():
/home/tututu/qimeng/simulator/baremetal/benchmarks/dhrystone/dry.c:626
  Arr_1_Par_Ref[Int_Loc] = Int_2_Par_Val;
80000248:	02f92023          	sw	a5,32(s2)
/home/tututu/qimeng/simulator/baremetal/benchmarks/dhrystone/dry.c:627
  Arr_1_Par_Ref[Int_Loc + 1] = Arr_1_Par_Ref[Int_Loc];
8000024c:	02f92223          	sw	a5,36(s2)
/home/tututu/qimeng/simulator/baremetal/benchmarks/dhrystone/dry.c:630
    Arr_2_Par_Ref[Int_Loc][Int_Index] = Int_Loc;
80000250:	66e42023          	sw	a4,1632(s0)
80000254:	66e42223          	sw	a4,1636(s0)
/home/tututu/qimeng/simulator/baremetal/benchmarks/dhrystone/dry.c:632
  Arr_2_Par_Ref[Int_Loc + 20][Int_Loc] = Arr_1_Par_Ref[Int_Loc];
80000258:	60fc2023          	sw	a5,1536(s8)
main():
/home/tututu/qimeng/simulator/baremetal/benchmarks/dhrystone/dry.c:791
      Proc_1(Ptr_Glob);
8000025c:	000a0513          	addi	a0,s4,0
Proc_8():
/home/tututu/qimeng/simulator/baremetal/benchmarks/dhrystone/dry.c:633
  Int_Glob = 5;
80000260:	00500793          	addi	a5,zero,5
/home/tututu/qimeng/simulator/baremetal/benchmarks/dhrystone/dry.c:631
  Arr_2_Par_Ref[Int_Loc][Int_Loc - 1] += 1;
80000264:	64942e23          	sw	s1,1628(s0)
/home/tututu/qimeng/simulator/baremetal/benchmarks/dhrystone/dry.c:628
  Arr_1_Par_Ref[Int_Loc + 30] = Int_Loc;
80000268:	08e92c23          	sw	a4,152(s2)
/home/tututu/qimeng/simulator/baremetal/benchmarks/dhrystone/dry.c:633
  Int_Glob = 5;
8000026c:	62fb2623          	sw	a5,1580(s6) # 8000462c <_sp+0xf800462c>
main():
/home/tututu/qimeng/simulator/baremetal/benchmarks/dhrystone/dry.c:778
      Bool_Glob = !Func_2(Str_1_Loc, Str_2_Loc);
80000270:	62dca423          	sw	a3,1576(s9) # 80004628 <_sp+0xf8004628>
/home/tututu/qimeng/simulator/baremetal/benchmarks/dhrystone/dry.c:791
      Proc_1(Ptr_Glob);
80000274:	6bc000ef          	jal	ra,80000930 <Proc_1>
/home/tututu/qimeng/simulator/baremetal/benchmarks/dhrystone/dry.c:792
      for (Ch_Index = 'A'; Ch_Index <= Ch_2_Glob; ++Ch_Index)
80000278:	624ac703          	lbu	a4,1572(s5)
8000027c:	04000793          	addi	a5,zero,64
80000280:	12e7f263          	bgeu	a5,a4,800003a4 <main+0x388>
80000284:	00000813          	addi	a6,zero,0
80000288:	04100793          	addi	a5,zero,65
8000028c:	00000513          	addi	a0,zero,0
/home/tututu/qimeng/simulator/baremetal/benchmarks/dhrystone/dry.c:777
      Enum_Loc = Ident_2;
80000290:	00100493          	addi	s1,zero,1
/home/tututu/qimeng/simulator/baremetal/benchmarks/dhrystone/dry.c:775
      Int_2_Loc = 3;
80000294:	00300593          	addi	a1,zero,3
Func_1():
/home/tututu/qimeng/simulator/baremetal/benchmarks/dhrystone/dry.c:651
  if (Ch_2_Loc != Ch_2_Par_Val)
80000298:	04300613          	addi	a2,zero,67
main():
/home/tututu/qimeng/simulator/baremetal/benchmarks/dhrystone/dry.c:792 (discriminator 2)
      for (Ch_Index = 'A'; Ch_Index <= Ch_2_Glob; ++Ch_Index)
8000029c:	00178793          	addi	a5,a5,1
800002a0:	0ff7f793          	andi	a5,a5,255
800002a4:	06f76a63          	bltu	a4,a5,80000318 <main+0x2fc>
Func_1():
/home/tututu/qimeng/simulator/baremetal/benchmarks/dhrystone/dry.c:653
    return (Ident_1);
800002a8:	00000693          	addi	a3,zero,0
/home/tututu/qimeng/simulator/baremetal/benchmarks/dhrystone/dry.c:651
  if (Ch_2_Loc != Ch_2_Par_Val)
800002ac:	0ec78263          	beq	a5,a2,80000390 <main+0x374>
main():
/home/tututu/qimeng/simulator/baremetal/benchmarks/dhrystone/dry.c:795
        if (Enum_Loc == Func_1(Ch_Index, 'C'))
800002b0:	fed496e3          	bne	s1,a3,8000029c <main+0x280>
/home/tututu/qimeng/simulator/baremetal/benchmarks/dhrystone/dry.c:799
          strcpy(Str_2_Loc, "DHRYSTONE PROGRAM, 3'RD STRING");
800002b4:	018da503          	lw	a0,24(s11)
800002b8:	01cdd583          	lhu	a1,28(s11)
800002bc:	000daf83          	lw	t6,0(s11)
800002c0:	004daf03          	lw	t5,4(s11)
800002c4:	008dae83          	lw	t4,8(s11)
800002c8:	00cdae03          	lw	t3,12(s11)
800002cc:	010da303          	lw	t1,16(s11)
800002d0:	014da883          	lw	a7,20(s11)
800002d4:	01edc683          	lbu	a3,30(s11)
/home/tututu/qimeng/simulator/baremetal/benchmarks/dhrystone/dry.c:792
      for (Ch_Index = 'A'; Ch_Index <= Ch_2_Glob; ++Ch_Index)
800002d8:	00178793          	addi	a5,a5,1
/home/tututu/qimeng/simulator/baremetal/benchmarks/dhrystone/dry.c:799
          strcpy(Str_2_Loc, "DHRYSTONE PROGRAM, 3'RD STRING");
800002dc:	06a12423          	sw	a0,104(sp)
800002e0:	06b11623          	sh	a1,108(sp)
800002e4:	05f12823          	sw	t6,80(sp)
800002e8:	05e12a23          	sw	t5,84(sp)
800002ec:	05d12c23          	sw	t4,88(sp)
800002f0:	05c12e23          	sw	t3,92(sp)
800002f4:	06612023          	sw	t1,96(sp)
800002f8:	07112223          	sw	a7,100(sp)
800002fc:	06d10723          	sb	a3,110(sp)
/home/tututu/qimeng/simulator/baremetal/benchmarks/dhrystone/dry.c:792
      for (Ch_Index = 'A'; Ch_Index <= Ch_2_Glob; ++Ch_Index)
80000300:	0ff7f793          	andi	a5,a5,255
/home/tututu/qimeng/simulator/baremetal/benchmarks/dhrystone/dry.c:801
          Int_2_Loc = Run_Index;
          Int_Glob = Run_Index;
80000304:	00098d13          	addi	s10,s3,0
/home/tututu/qimeng/simulator/baremetal/benchmarks/dhrystone/dry.c:799
          strcpy(Str_2_Loc, "DHRYSTONE PROGRAM, 3'RD STRING");
80000308:	00098593          	addi	a1,s3,0
8000030c:	00100513          	addi	a0,zero,1
Proc_6():
/home/tututu/qimeng/simulator/baremetal/benchmarks/dhrystone/dry.c:584
    *Enum_Ref_Par = Ident_1;
80000310:	00000493          	addi	s1,zero,0
main():
/home/tututu/qimeng/simulator/baremetal/benchmarks/dhrystone/dry.c:792
      for (Ch_Index = 'A'; Ch_Index <= Ch_2_Glob; ++Ch_Index)
80000314:	f8f77ae3          	bgeu	a4,a5,800002a8 <main+0x28c>
80000318:	00050463          	beq	a0,zero,80000320 <main+0x304>
8000031c:	63ab2623          	sw	s10,1580(s6)
80000320:	08080c63          	beq	a6,zero,800003b8 <main+0x39c>
80000324:	04300793          	addi	a5,zero,67
80000328:	62fb82a3          	sb	a5,1573(s7)
/home/tututu/qimeng/simulator/baremetal/benchmarks/dhrystone/dry.c:775
      Int_2_Loc = 3;
8000032c:	04300713          	addi	a4,zero,67
/home/tututu/qimeng/simulator/baremetal/benchmarks/dhrystone/dry.c:805
        }
      }
      /* Int_1_Loc == 3, Int_2_Loc == 3, Int_3_Loc == 7 */
      Int_2_Loc = Int_2_Loc * Int_1_Loc;
80000330:	00159a13          	slli	s4,a1,0x1
80000334:	00ba0a33          	add	s4,s4,a1
/home/tututu/qimeng/simulator/baremetal/benchmarks/dhrystone/dry.c:806
      Int_1_Loc = Int_2_Loc / Int_3_Loc;
80000338:	000a0513          	addi	a0,s4,0
8000033c:	00700593          	addi	a1,zero,7
80000340:	00e12423          	sw	a4,8(sp)
/home/tututu/qimeng/simulator/baremetal/benchmarks/dhrystone/dry.c:807
      Int_2_Loc = 7 * (Int_2_Loc - Int_3_Loc) - Int_1_Loc;
80000344:	ff9a0a13          	addi	s4,s4,-7
/home/tututu/qimeng/simulator/baremetal/benchmarks/dhrystone/dry.c:806
      Int_1_Loc = Int_2_Loc / Int_3_Loc;
80000348:	745000ef          	jal	ra,8000128c <__divsi3>
/home/tututu/qimeng/simulator/baremetal/benchmarks/dhrystone/dry.c:807
      Int_2_Loc = 7 * (Int_2_Loc - Int_3_Loc) - Int_1_Loc;
8000034c:	003a1793          	slli	a5,s4,0x3
80000350:	00812703          	lw	a4,8(sp)
80000354:	414787b3          	sub	a5,a5,s4
80000358:	40a787b3          	sub	a5,a5,a0
Proc_2():
/home/tututu/qimeng/simulator/baremetal/benchmarks/dhrystone/dry.c:503 (discriminator 2)
    if (Ch_1_Glob == 'A')
8000035c:	04100693          	addi	a3,zero,65
80000360:	00d71863          	bne	a4,a3,80000370 <main+0x354>
/home/tututu/qimeng/simulator/baremetal/benchmarks/dhrystone/dry.c:507
      *Int_Par_Ref = Int_Loc - Int_Glob;
80000364:	62cb2703          	lw	a4,1580(s6)
/home/tututu/qimeng/simulator/baremetal/benchmarks/dhrystone/dry.c:506
      Int_Loc -= 1;
80000368:	00950513          	addi	a0,a0,9
/home/tututu/qimeng/simulator/baremetal/benchmarks/dhrystone/dry.c:507
      *Int_Par_Ref = Int_Loc - Int_Glob;
8000036c:	40e50533          	sub	a0,a0,a4
main():
/home/tututu/qimeng/simulator/baremetal/benchmarks/dhrystone/dry.c:769
    for (Run_Index = 1; Run_Index <= Number_Of_Runs; ++Run_Index) {
80000370:	00198993          	addi	s3,s3,1
80000374:	3e900713          	addi	a4,zero,1001
80000378:	04e98463          	beq	s3,a4,800003c0 <main+0x3a4>
/home/tututu/qimeng/simulator/baremetal/benchmarks/dhrystone/dry.c:791
      Proc_1(Ptr_Glob);
8000037c:	800047b7          	lui	a5,0x80004
80000380:	6347aa03          	lw	s4,1588(a5) # 80004634 <_sp+0xf8004634>
Func_2():
/home/tututu/qimeng/simulator/baremetal/benchmarks/dhrystone/dry.c:675
    if (Func_1(Str_1_Par_Ref[Int_Loc], Str_2_Par_Ref[Int_Loc + 1]) == Ident_1)
80000384:	03214703          	lbu	a4,50(sp)
Proc_8():
/home/tututu/qimeng/simulator/baremetal/benchmarks/dhrystone/dry.c:631
  Arr_2_Par_Ref[Int_Loc][Int_Loc - 1] += 1;
80000388:	65c42483          	lw	s1,1628(s0)
8000038c:	e35ff06f          	jal	zero,800001c0 <main+0x1a4>
Func_1():
/home/tututu/qimeng/simulator/baremetal/benchmarks/dhrystone/dry.c:657
    return (Ident_2);
80000390:	00100693          	addi	a3,zero,1
80000394:	00100813          	addi	a6,zero,1
80000398:	f19ff06f          	jal	zero,800002b0 <main+0x294>
8000039c:	00100693          	addi	a3,zero,1
800003a0:	e81ff06f          	jal	zero,80000220 <main+0x204>
Proc_2():
/home/tututu/qimeng/simulator/baremetal/benchmarks/dhrystone/dry.c:503
    if (Ch_1_Glob == 'A')
800003a4:	625bc703          	lbu	a4,1573(s7)
800003a8:	00d00793          	addi	a5,zero,13
800003ac:	00100513          	addi	a0,zero,1
main():
/home/tututu/qimeng/simulator/baremetal/benchmarks/dhrystone/dry.c:777
      Enum_Loc = Ident_2;
800003b0:	00100493          	addi	s1,zero,1
800003b4:	fa9ff06f          	jal	zero,8000035c <main+0x340>
Proc_2():
/home/tututu/qimeng/simulator/baremetal/benchmarks/dhrystone/dry.c:503
    if (Ch_1_Glob == 'A')
800003b8:	625bc703          	lbu	a4,1573(s7)
800003bc:	f75ff06f          	jal	zero,80000330 <main+0x314>
main():
/home/tututu/qimeng/simulator/baremetal/benchmarks/dhrystone/dry.c:821
    /**************/

    Done = true;
  }

  if (!check(Int_Glob == 5)) {
800003c0:	62cb2583          	lw	a1,1580(s6)
/home/tututu/qimeng/simulator/baremetal/benchmarks/dhrystone/dry.c:818
    Done = true;
800003c4:	00100713          	addi	a4,zero,1
800003c8:	800046b7          	lui	a3,0x80004
800003cc:	60e6ae23          	sw	a4,1564(a3) # 8000461c <_sp+0xf800461c>
check():
/home/tututu/qimeng/simulator/baremetal/benchmarks/dhrystone/dry.c:716
  if (!cond)
800003d0:	00500713          	addi	a4,zero,5
main():
/home/tututu/qimeng/simulator/baremetal/benchmarks/dhrystone/dry.c:821
  if (!check(Int_Glob == 5)) {
800003d4:	00078a13          	addi	s4,a5,0
800003d8:	00050793          	addi	a5,a0,0
check():
/home/tututu/qimeng/simulator/baremetal/benchmarks/dhrystone/dry.c:716
  if (!cond)
800003dc:	44e58a63          	beq	a1,a4,80000830 <main+0x814>
800003e0:	00a12423          	sw	a0,8(sp)
main():
/home/tututu/qimeng/simulator/baremetal/benchmarks/dhrystone/dry.c:822
    xprintf("Int_Glob:            %d\n", Int_Glob);
800003e4:	80001537          	lui	a0,0x80001
800003e8:	60450513          	addi	a0,a0,1540 # 80001604 <_sp+0xf8001604>
check():
/home/tututu/qimeng/simulator/baremetal/benchmarks/dhrystone/dry.c:717
    pass = false;
800003ec:	800049b7          	lui	s3,0x80004
800003f0:	6409a023          	sw	zero,1600(s3) # 80004640 <_sp+0xf8004640>
main():
/home/tututu/qimeng/simulator/baremetal/benchmarks/dhrystone/dry.c:822
    xprintf("Int_Glob:            %d\n", Int_Glob);
800003f4:	061000ef          	jal	ra,80000c54 <xprintf>
/home/tututu/qimeng/simulator/baremetal/benchmarks/dhrystone/dry.c:823
    xprintf("        should be:   %d\n", 5);
800003f8:	80001537          	lui	a0,0x80001
800003fc:	00500593          	addi	a1,zero,5
80000400:	62050513          	addi	a0,a0,1568 # 80001620 <_sp+0xf8001620>
80000404:	051000ef          	jal	ra,80000c54 <xprintf>
80000408:	00812783          	lw	a5,8(sp)
/home/tututu/qimeng/simulator/baremetal/benchmarks/dhrystone/dry.c:825
  }
  if (!check(Bool_Glob == 1)) {
8000040c:	628ca583          	lw	a1,1576(s9)
check():
/home/tututu/qimeng/simulator/baremetal/benchmarks/dhrystone/dry.c:716
  if (!cond)
80000410:	00100713          	addi	a4,zero,1
80000414:	02e58663          	beq	a1,a4,80000440 <main+0x424>
main():
/home/tututu/qimeng/simulator/baremetal/benchmarks/dhrystone/dry.c:826
    xprintf("Bool_Glob:           %d\n", Bool_Glob);
80000418:	80001537          	lui	a0,0x80001
8000041c:	63c50513          	addi	a0,a0,1596 # 8000163c <_sp+0xf800163c>
80000420:	00f12423          	sw	a5,8(sp)
check():
/home/tututu/qimeng/simulator/baremetal/benchmarks/dhrystone/dry.c:717
    pass = false;
80000424:	6409a023          	sw	zero,1600(s3)
main():
/home/tututu/qimeng/simulator/baremetal/benchmarks/dhrystone/dry.c:826
    xprintf("Bool_Glob:           %d\n", Bool_Glob);
80000428:	02d000ef          	jal	ra,80000c54 <xprintf>
/home/tututu/qimeng/simulator/baremetal/benchmarks/dhrystone/dry.c:827
    xprintf("        should be:   %d\n", 1);
8000042c:	80001537          	lui	a0,0x80001
80000430:	00100593          	addi	a1,zero,1
80000434:	62050513          	addi	a0,a0,1568 # 80001620 <_sp+0xf8001620>
80000438:	01d000ef          	jal	ra,80000c54 <xprintf>
8000043c:	00812783          	lw	a5,8(sp)
/home/tututu/qimeng/simulator/baremetal/benchmarks/dhrystone/dry.c:829
  }
  if (!check(Ch_1_Glob == 'A')) {
80000440:	625bc583          	lbu	a1,1573(s7)
check():
/home/tututu/qimeng/simulator/baremetal/benchmarks/dhrystone/dry.c:716
  if (!cond)
80000444:	04100713          	addi	a4,zero,65
80000448:	02e58663          	beq	a1,a4,80000474 <main+0x458>
main():
/home/tututu/qimeng/simulator/baremetal/benchmarks/dhrystone/dry.c:830
    xprintf("Ch_1_Glob:           %c\n", Ch_1_Glob);
8000044c:	80001537          	lui	a0,0x80001
80000450:	65850513          	addi	a0,a0,1624 # 80001658 <_sp+0xf8001658>
80000454:	00f12423          	sw	a5,8(sp)
check():
/home/tututu/qimeng/simulator/baremetal/benchmarks/dhrystone/dry.c:717
    pass = false;
80000458:	6409a023          	sw	zero,1600(s3)
main():
/home/tututu/qimeng/simulator/baremetal/benchmarks/dhrystone/dry.c:830
    xprintf("Ch_1_Glob:           %c\n", Ch_1_Glob);
8000045c:	7f8000ef          	jal	ra,80000c54 <xprintf>
/home/tututu/qimeng/simulator/baremetal/benchmarks/dhrystone/dry.c:831
    xprintf("        should be:   %c\n", 'A');
80000460:	80001537          	lui	a0,0x80001
80000464:	04100593          	addi	a1,zero,65
80000468:	67450513          	addi	a0,a0,1652 # 80001674 <_sp+0xf8001674>
8000046c:	7e8000ef          	jal	ra,80000c54 <xprintf>
80000470:	00812783          	lw	a5,8(sp)
/home/tututu/qimeng/simulator/baremetal/benchmarks/dhrystone/dry.c:833
  }
  if (!check(Ch_2_Glob == 'B')) {
80000474:	624ac583          	lbu	a1,1572(s5)
check():
/home/tututu/qimeng/simulator/baremetal/benchmarks/dhrystone/dry.c:716
  if (!cond)
80000478:	04200713          	addi	a4,zero,66
8000047c:	02e58663          	beq	a1,a4,800004a8 <main+0x48c>
main():
/home/tututu/qimeng/simulator/baremetal/benchmarks/dhrystone/dry.c:834
    xprintf("Ch_2_Glob:           %c\n", Ch_2_Glob);
80000480:	80001537          	lui	a0,0x80001
80000484:	69050513          	addi	a0,a0,1680 # 80001690 <_sp+0xf8001690>
80000488:	00f12423          	sw	a5,8(sp)
check():
/home/tututu/qimeng/simulator/baremetal/benchmarks/dhrystone/dry.c:717
    pass = false;
8000048c:	6409a023          	sw	zero,1600(s3)
main():
/home/tututu/qimeng/simulator/baremetal/benchmarks/dhrystone/dry.c:834
    xprintf("Ch_2_Glob:           %c\n", Ch_2_Glob);
80000490:	7c4000ef          	jal	ra,80000c54 <xprintf>
/home/tututu/qimeng/simulator/baremetal/benchmarks/dhrystone/dry.c:835
    xprintf("        should be:   %c\n", 'B');
80000494:	80001537          	lui	a0,0x80001
80000498:	04200593          	addi	a1,zero,66
8000049c:	67450513          	addi	a0,a0,1652 # 80001674 <_sp+0xf8001674>
800004a0:	7b4000ef          	jal	ra,80000c54 <xprintf>
800004a4:	00812783          	lw	a5,8(sp)
/home/tututu/qimeng/simulator/baremetal/benchmarks/dhrystone/dry.c:837
  }
  if (!check(Arr_1_Glob[8] == 7)) {
800004a8:	02092583          	lw	a1,32(s2)
check():
/home/tututu/qimeng/simulator/baremetal/benchmarks/dhrystone/dry.c:716
  if (!cond)
800004ac:	00700713          	addi	a4,zero,7
800004b0:	02e58663          	beq	a1,a4,800004dc <main+0x4c0>
main():
/home/tututu/qimeng/simulator/baremetal/benchmarks/dhrystone/dry.c:838
    xprintf("Arr_1_Glob[8]:       %d\n", Arr_1_Glob[8]);
800004b4:	80001537          	lui	a0,0x80001
800004b8:	6ac50513          	addi	a0,a0,1708 # 800016ac <_sp+0xf80016ac>
800004bc:	00f12423          	sw	a5,8(sp)
check():
/home/tututu/qimeng/simulator/baremetal/benchmarks/dhrystone/dry.c:717
    pass = false;
800004c0:	6409a023          	sw	zero,1600(s3)
main():
/home/tututu/qimeng/simulator/baremetal/benchmarks/dhrystone/dry.c:838
    xprintf("Arr_1_Glob[8]:       %d\n", Arr_1_Glob[8]);
800004c4:	790000ef          	jal	ra,80000c54 <xprintf>
/home/tututu/qimeng/simulator/baremetal/benchmarks/dhrystone/dry.c:839
    xprintf("        should be:   %d\n", 7);
800004c8:	80001537          	lui	a0,0x80001
800004cc:	00700593          	addi	a1,zero,7
800004d0:	62050513          	addi	a0,a0,1568 # 80001620 <_sp+0xf8001620>
800004d4:	780000ef          	jal	ra,80000c54 <xprintf>
800004d8:	00812783          	lw	a5,8(sp)
/home/tututu/qimeng/simulator/baremetal/benchmarks/dhrystone/dry.c:841
  }
  if (!check(Arr_2_Glob[8][7] == Number_Of_Runs + 10)) {
800004dc:	65c42583          	lw	a1,1628(s0)
check():
/home/tututu/qimeng/simulator/baremetal/benchmarks/dhrystone/dry.c:716
  if (!cond)
800004e0:	3f200713          	addi	a4,zero,1010
800004e4:	02e58463          	beq	a1,a4,8000050c <main+0x4f0>
main():
/home/tututu/qimeng/simulator/baremetal/benchmarks/dhrystone/dry.c:842
    xprintf("Arr_2_Glob[8][7]:    %d\n", Arr_2_Glob[8][7]);
800004e8:	80001537          	lui	a0,0x80001
800004ec:	6c850513          	addi	a0,a0,1736 # 800016c8 <_sp+0xf80016c8>
800004f0:	00f12423          	sw	a5,8(sp)
check():
/home/tututu/qimeng/simulator/baremetal/benchmarks/dhrystone/dry.c:717
    pass = false;
800004f4:	6409a023          	sw	zero,1600(s3)
main():
/home/tututu/qimeng/simulator/baremetal/benchmarks/dhrystone/dry.c:842
    xprintf("Arr_2_Glob[8][7]:    %d\n", Arr_2_Glob[8][7]);
800004f8:	75c000ef          	jal	ra,80000c54 <xprintf>
/home/tututu/qimeng/simulator/baremetal/benchmarks/dhrystone/dry.c:843
    xprintf("        should be:   Number_Of_Runs + 10\n");
800004fc:	80001537          	lui	a0,0x80001
80000500:	6e450513          	addi	a0,a0,1764 # 800016e4 <_sp+0xf80016e4>
80000504:	750000ef          	jal	ra,80000c54 <xprintf>
80000508:	00812783          	lw	a5,8(sp)
/home/tututu/qimeng/simulator/baremetal/benchmarks/dhrystone/dry.c:846
  }

  if (!check((int)Ptr_Glob->Discr == 0)) {
8000050c:	80004737          	lui	a4,0x80004
80000510:	63472703          	lw	a4,1588(a4) # 80004634 <_sp+0xf8004634>
80000514:	00472583          	lw	a1,4(a4)
check():
/home/tututu/qimeng/simulator/baremetal/benchmarks/dhrystone/dry.c:716
  if (!cond)
80000518:	02058663          	beq	a1,zero,80000544 <main+0x528>
main():
/home/tututu/qimeng/simulator/baremetal/benchmarks/dhrystone/dry.c:847
    xprintf("Ptr_Glob->Discr:             %d\n", Ptr_Glob->Discr);
8000051c:	80001537          	lui	a0,0x80001
80000520:	71050513          	addi	a0,a0,1808 # 80001710 <_sp+0xf8001710>
80000524:	00f12423          	sw	a5,8(sp)
check():
/home/tututu/qimeng/simulator/baremetal/benchmarks/dhrystone/dry.c:717
    pass = false;
80000528:	6409a023          	sw	zero,1600(s3)
main():
/home/tututu/qimeng/simulator/baremetal/benchmarks/dhrystone/dry.c:847
    xprintf("Ptr_Glob->Discr:             %d\n", Ptr_Glob->Discr);
8000052c:	728000ef          	jal	ra,80000c54 <xprintf>
/home/tututu/qimeng/simulator/baremetal/benchmarks/dhrystone/dry.c:848
    xprintf("        should be:   %d\n", 0);
80000530:	80001537          	lui	a0,0x80001
80000534:	00000593          	addi	a1,zero,0
80000538:	62050513          	addi	a0,a0,1568 # 80001620 <_sp+0xf8001620>
8000053c:	718000ef          	jal	ra,80000c54 <xprintf>
80000540:	00812783          	lw	a5,8(sp)
/home/tututu/qimeng/simulator/baremetal/benchmarks/dhrystone/dry.c:850
  }
  if (!check(Ptr_Glob->variant.var_1.Enum_Comp == 2)) {
80000544:	80004737          	lui	a4,0x80004
80000548:	63472683          	lw	a3,1588(a4) # 80004634 <_sp+0xf8004634>
check():
/home/tututu/qimeng/simulator/baremetal/benchmarks/dhrystone/dry.c:716
  if (!cond)
8000054c:	00200713          	addi	a4,zero,2
main():
/home/tututu/qimeng/simulator/baremetal/benchmarks/dhrystone/dry.c:850
  if (!check(Ptr_Glob->variant.var_1.Enum_Comp == 2)) {
80000550:	0086a583          	lw	a1,8(a3)
check():
/home/tututu/qimeng/simulator/baremetal/benchmarks/dhrystone/dry.c:716
  if (!cond)
80000554:	02e58663          	beq	a1,a4,80000580 <main+0x564>
main():
/home/tututu/qimeng/simulator/baremetal/benchmarks/dhrystone/dry.c:851
    xprintf("Ptr_Glob->Enum_Comp:         %d\n",
80000558:	80001537          	lui	a0,0x80001
8000055c:	73450513          	addi	a0,a0,1844 # 80001734 <_sp+0xf8001734>
80000560:	00f12423          	sw	a5,8(sp)
check():
/home/tututu/qimeng/simulator/baremetal/benchmarks/dhrystone/dry.c:717
    pass = false;
80000564:	6409a023          	sw	zero,1600(s3)
main():
/home/tututu/qimeng/simulator/baremetal/benchmarks/dhrystone/dry.c:851
    xprintf("Ptr_Glob->Enum_Comp:         %d\n",
80000568:	6ec000ef          	jal	ra,80000c54 <xprintf>
/home/tututu/qimeng/simulator/baremetal/benchmarks/dhrystone/dry.c:853
            Ptr_Glob->variant.var_1.Enum_Comp);
    xprintf("        should be:   %d\n", 2);
8000056c:	80001537          	lui	a0,0x80001
80000570:	00200593          	addi	a1,zero,2
80000574:	62050513          	addi	a0,a0,1568 # 80001620 <_sp+0xf8001620>
80000578:	6dc000ef          	jal	ra,80000c54 <xprintf>
8000057c:	00812783          	lw	a5,8(sp)
/home/tututu/qimeng/simulator/baremetal/benchmarks/dhrystone/dry.c:855
  }
  if (!check(Ptr_Glob->variant.var_1.Int_Comp == 17)) {
80000580:	80004737          	lui	a4,0x80004
80000584:	63472683          	lw	a3,1588(a4) # 80004634 <_sp+0xf8004634>
check():
/home/tututu/qimeng/simulator/baremetal/benchmarks/dhrystone/dry.c:716
  if (!cond)
80000588:	01100713          	addi	a4,zero,17
main():
/home/tututu/qimeng/simulator/baremetal/benchmarks/dhrystone/dry.c:855
  if (!check(Ptr_Glob->variant.var_1.Int_Comp == 17)) {
8000058c:	00c6a583          	lw	a1,12(a3)
check():
/home/tututu/qimeng/simulator/baremetal/benchmarks/dhrystone/dry.c:716
  if (!cond)
80000590:	02e58663          	beq	a1,a4,800005bc <main+0x5a0>
main():
/home/tututu/qimeng/simulator/baremetal/benchmarks/dhrystone/dry.c:856
    xprintf("Ptr_Glob->Int_Comp:          %d\n",
80000594:	80001537          	lui	a0,0x80001
80000598:	75850513          	addi	a0,a0,1880 # 80001758 <_sp+0xf8001758>
8000059c:	00f12423          	sw	a5,8(sp)
check():
/home/tututu/qimeng/simulator/baremetal/benchmarks/dhrystone/dry.c:717
    pass = false;
800005a0:	6409a023          	sw	zero,1600(s3)
main():
/home/tututu/qimeng/simulator/baremetal/benchmarks/dhrystone/dry.c:856
    xprintf("Ptr_Glob->Int_Comp:          %d\n",
800005a4:	6b0000ef          	jal	ra,80000c54 <xprintf>
/home/tututu/qimeng/simulator/baremetal/benchmarks/dhrystone/dry.c:858
            Ptr_Glob->variant.var_1.Int_Comp);
    xprintf("        should be:   %d\n", 17);
800005a8:	80001537          	lui	a0,0x80001
800005ac:	01100593          	addi	a1,zero,17
800005b0:	62050513          	addi	a0,a0,1568 # 80001620 <_sp+0xf8001620>
800005b4:	6a0000ef          	jal	ra,80000c54 <xprintf>
800005b8:	00812783          	lw	a5,8(sp)
/home/tututu/qimeng/simulator/baremetal/benchmarks/dhrystone/dry.c:860
  }
  if (!check(strcmp(Ptr_Glob->variant.var_1.Str_Comp,
800005bc:	00f12423          	sw	a5,8(sp)
800005c0:	800047b7          	lui	a5,0x80004
800005c4:	6347a403          	lw	s0,1588(a5) # 80004634 <_sp+0xf8004634>
800005c8:	800017b7          	lui	a5,0x80001
800005cc:	5e478593          	addi	a1,a5,1508 # 800015e4 <_sp+0xf80015e4>
800005d0:	01040413          	addi	s0,s0,16
800005d4:	00040513          	addi	a0,s0,0
800005d8:	691000ef          	jal	ra,80001468 <strcmp>
check():
/home/tututu/qimeng/simulator/baremetal/benchmarks/dhrystone/dry.c:716
  if (!cond)
800005dc:	00812783          	lw	a5,8(sp)
800005e0:	02050463          	beq	a0,zero,80000608 <main+0x5ec>
main():
/home/tututu/qimeng/simulator/baremetal/benchmarks/dhrystone/dry.c:862
                    "DHRYSTONE PROGRAM, SOME STRING") == 0)) {
    xprintf("Ptr_Glob->Str_Comp:          %s\n",
800005e4:	80001537          	lui	a0,0x80001
800005e8:	77c50513          	addi	a0,a0,1916 # 8000177c <_sp+0xf800177c>
800005ec:	00040593          	addi	a1,s0,0
check():
/home/tututu/qimeng/simulator/baremetal/benchmarks/dhrystone/dry.c:717
    pass = false;
800005f0:	6409a023          	sw	zero,1600(s3)
main():
/home/tututu/qimeng/simulator/baremetal/benchmarks/dhrystone/dry.c:862
    xprintf("Ptr_Glob->Str_Comp:          %s\n",
800005f4:	660000ef          	jal	ra,80000c54 <xprintf>
/home/tututu/qimeng/simulator/baremetal/benchmarks/dhrystone/dry.c:864
            Ptr_Glob->variant.var_1.Str_Comp);
    xprintf("        should be:   DHRYSTONE PROGRAM, SOME STRING\n");
800005f8:	80001537          	lui	a0,0x80001
800005fc:	7a050513          	addi	a0,a0,1952 # 800017a0 <_sp+0xf80017a0>
80000600:	654000ef          	jal	ra,80000c54 <xprintf>
80000604:	00812783          	lw	a5,8(sp)
/home/tututu/qimeng/simulator/baremetal/benchmarks/dhrystone/dry.c:867
  }

  if (!check((int)Next_Ptr_Glob->Discr == 0)) {
80000608:	80004737          	lui	a4,0x80004
8000060c:	63072703          	lw	a4,1584(a4) # 80004630 <_sp+0xf8004630>
80000610:	00472583          	lw	a1,4(a4)
check():
/home/tututu/qimeng/simulator/baremetal/benchmarks/dhrystone/dry.c:716
  if (!cond)
80000614:	02058663          	beq	a1,zero,80000640 <main+0x624>
main():
/home/tututu/qimeng/simulator/baremetal/benchmarks/dhrystone/dry.c:868
    xprintf("Next_Ptr_Glob->Discr:             %d\n", Next_Ptr_Glob->Discr);
80000618:	80001537          	lui	a0,0x80001
8000061c:	7d850513          	addi	a0,a0,2008 # 800017d8 <_sp+0xf80017d8>
80000620:	00f12423          	sw	a5,8(sp)
check():
/home/tututu/qimeng/simulator/baremetal/benchmarks/dhrystone/dry.c:717
    pass = false;
80000624:	6409a023          	sw	zero,1600(s3)
main():
/home/tututu/qimeng/simulator/baremetal/benchmarks/dhrystone/dry.c:868
    xprintf("Next_Ptr_Glob->Discr:             %d\n", Next_Ptr_Glob->Discr);
80000628:	62c000ef          	jal	ra,80000c54 <xprintf>
/home/tututu/qimeng/simulator/baremetal/benchmarks/dhrystone/dry.c:869
    xprintf("        should be:   %d\n", 0);
8000062c:	80001537          	lui	a0,0x80001
80000630:	00000593          	addi	a1,zero,0
80000634:	62050513          	addi	a0,a0,1568 # 80001620 <_sp+0xf8001620>
80000638:	61c000ef          	jal	ra,80000c54 <xprintf>
8000063c:	00812783          	lw	a5,8(sp)
/home/tututu/qimeng/simulator/baremetal/benchmarks/dhrystone/dry.c:871
  }
  if (!check(Next_Ptr_Glob->variant.var_1.Enum_Comp == 1)) {
80000640:	80004737          	lui	a4,0x80004
80000644:	63072683          	lw	a3,1584(a4) # 80004630 <_sp+0xf8004630>
check():
/home/tututu/qimeng/simulator/baremetal/benchmarks/dhrystone/dry.c:716
  if (!cond)
80000648:	00100713          	addi	a4,zero,1
main():
/home/tututu/qimeng/simulator/baremetal/benchmarks/dhrystone/dry.c:871
  if (!check(Next_Ptr_Glob->variant.var_1.Enum_Comp == 1)) {
8000064c:	0086a583          	lw	a1,8(a3)
check():
/home/tututu/qimeng/simulator/baremetal/benchmarks/dhrystone/dry.c:716
  if (!cond)
80000650:	02e58663          	beq	a1,a4,8000067c <main+0x660>
main():
/home/tututu/qimeng/simulator/baremetal/benchmarks/dhrystone/dry.c:872
    xprintf("Next_Ptr_Glob->Enum_Comp:         %d\n",
80000654:	80002537          	lui	a0,0x80002
80000658:	80050513          	addi	a0,a0,-2048 # 80001800 <_sp+0xf8001800>
8000065c:	00f12423          	sw	a5,8(sp)
check():
/home/tututu/qimeng/simulator/baremetal/benchmarks/dhrystone/dry.c:717
    pass = false;
80000660:	6409a023          	sw	zero,1600(s3)
main():
/home/tututu/qimeng/simulator/baremetal/benchmarks/dhrystone/dry.c:872
    xprintf("Next_Ptr_Glob->Enum_Comp:         %d\n",
80000664:	5f0000ef          	jal	ra,80000c54 <xprintf>
/home/tututu/qimeng/simulator/baremetal/benchmarks/dhrystone/dry.c:874
            Next_Ptr_Glob->variant.var_1.Enum_Comp);
    xprintf("        should be:   %d\n", 1);
80000668:	80001537          	lui	a0,0x80001
8000066c:	00100593          	addi	a1,zero,1
80000670:	62050513          	addi	a0,a0,1568 # 80001620 <_sp+0xf8001620>
80000674:	5e0000ef          	jal	ra,80000c54 <xprintf>
80000678:	00812783          	lw	a5,8(sp)
/home/tututu/qimeng/simulator/baremetal/benchmarks/dhrystone/dry.c:876
  }
  if (!check(Next_Ptr_Glob->variant.var_1.Int_Comp == 18)) {
8000067c:	80004737          	lui	a4,0x80004
80000680:	63072683          	lw	a3,1584(a4) # 80004630 <_sp+0xf8004630>
check():
/home/tututu/qimeng/simulator/baremetal/benchmarks/dhrystone/dry.c:716
  if (!cond)
80000684:	01200713          	addi	a4,zero,18
main():
/home/tututu/qimeng/simulator/baremetal/benchmarks/dhrystone/dry.c:876
  if (!check(Next_Ptr_Glob->variant.var_1.Int_Comp == 18)) {
80000688:	00c6a583          	lw	a1,12(a3)
check():
/home/tututu/qimeng/simulator/baremetal/benchmarks/dhrystone/dry.c:716
  if (!cond)
8000068c:	02e58663          	beq	a1,a4,800006b8 <main+0x69c>
main():
/home/tututu/qimeng/simulator/baremetal/benchmarks/dhrystone/dry.c:877
    xprintf("Next_Ptr_Glob->Int_Comp:          %d\n",
80000690:	80002537          	lui	a0,0x80002
80000694:	82850513          	addi	a0,a0,-2008 # 80001828 <_sp+0xf8001828>
80000698:	00f12423          	sw	a5,8(sp)
check():
/home/tututu/qimeng/simulator/baremetal/benchmarks/dhrystone/dry.c:717
    pass = false;
8000069c:	6409a023          	sw	zero,1600(s3)
main():
/home/tututu/qimeng/simulator/baremetal/benchmarks/dhrystone/dry.c:877
    xprintf("Next_Ptr_Glob->Int_Comp:          %d\n",
800006a0:	5b4000ef          	jal	ra,80000c54 <xprintf>
/home/tututu/qimeng/simulator/baremetal/benchmarks/dhrystone/dry.c:879
            Next_Ptr_Glob->variant.var_1.Int_Comp);
    xprintf("        should be:   %d\n", 18);
800006a4:	80001537          	lui	a0,0x80001
800006a8:	01200593          	addi	a1,zero,18
800006ac:	62050513          	addi	a0,a0,1568 # 80001620 <_sp+0xf8001620>
800006b0:	5a4000ef          	jal	ra,80000c54 <xprintf>
800006b4:	00812783          	lw	a5,8(sp)
/home/tututu/qimeng/simulator/baremetal/benchmarks/dhrystone/dry.c:881
  }
  if (!check(strcmp(Next_Ptr_Glob->variant.var_1.Str_Comp,
800006b8:	00f12423          	sw	a5,8(sp)
800006bc:	800047b7          	lui	a5,0x80004
800006c0:	6307a403          	lw	s0,1584(a5) # 80004630 <_sp+0xf8004630>
800006c4:	800017b7          	lui	a5,0x80001
800006c8:	5e478593          	addi	a1,a5,1508 # 800015e4 <_sp+0xf80015e4>
800006cc:	01040413          	addi	s0,s0,16
800006d0:	00040513          	addi	a0,s0,0
800006d4:	595000ef          	jal	ra,80001468 <strcmp>
check():
/home/tututu/qimeng/simulator/baremetal/benchmarks/dhrystone/dry.c:716
  if (!cond)
800006d8:	00812783          	lw	a5,8(sp)
800006dc:	02050463          	beq	a0,zero,80000704 <main+0x6e8>
main():
/home/tututu/qimeng/simulator/baremetal/benchmarks/dhrystone/dry.c:883
                    "DHRYSTONE PROGRAM, SOME STRING") == 0)) {
    xprintf("Next_Ptr_Glob->Str_Comp:          %s\n",
800006e0:	80002537          	lui	a0,0x80002
800006e4:	85050513          	addi	a0,a0,-1968 # 80001850 <_sp+0xf8001850>
800006e8:	00040593          	addi	a1,s0,0
check():
/home/tututu/qimeng/simulator/baremetal/benchmarks/dhrystone/dry.c:717
    pass = false;
800006ec:	6409a023          	sw	zero,1600(s3)
main():
/home/tututu/qimeng/simulator/baremetal/benchmarks/dhrystone/dry.c:883
    xprintf("Next_Ptr_Glob->Str_Comp:          %s\n",
800006f0:	564000ef          	jal	ra,80000c54 <xprintf>
/home/tututu/qimeng/simulator/baremetal/benchmarks/dhrystone/dry.c:885
            Next_Ptr_Glob->variant.var_1.Str_Comp);
    xprintf("        should be:   DHRYSTONE PROGRAM, SOME STRING\n");
800006f4:	80001537          	lui	a0,0x80001
800006f8:	7a050513          	addi	a0,a0,1952 # 800017a0 <_sp+0xf80017a0>
800006fc:	558000ef          	jal	ra,80000c54 <xprintf>
80000700:	00812783          	lw	a5,8(sp)
check():
/home/tututu/qimeng/simulator/baremetal/benchmarks/dhrystone/dry.c:716
  if (!cond)
80000704:	00500713          	addi	a4,zero,5
80000708:	02e78463          	beq	a5,a4,80000730 <main+0x714>
main():
/home/tututu/qimeng/simulator/baremetal/benchmarks/dhrystone/dry.c:889
  }

  if (!check(Int_1_Loc == 5)) {
    xprintf("Int_1_Loc:           %d\n", Int_1_Loc);
8000070c:	80002537          	lui	a0,0x80002
80000710:	00078593          	addi	a1,a5,0
80000714:	87850513          	addi	a0,a0,-1928 # 80001878 <_sp+0xf8001878>
check():
/home/tututu/qimeng/simulator/baremetal/benchmarks/dhrystone/dry.c:717
    pass = false;
80000718:	6409a023          	sw	zero,1600(s3)
main():
/home/tututu/qimeng/simulator/baremetal/benchmarks/dhrystone/dry.c:889
    xprintf("Int_1_Loc:           %d\n", Int_1_Loc);
8000071c:	538000ef          	jal	ra,80000c54 <xprintf>
/home/tututu/qimeng/simulator/baremetal/benchmarks/dhrystone/dry.c:890
    xprintf("        should be:   %d\n", 5);
80000720:	80001537          	lui	a0,0x80001
80000724:	00500593          	addi	a1,zero,5
80000728:	62050513          	addi	a0,a0,1568 # 80001620 <_sp+0xf8001620>
8000072c:	528000ef          	jal	ra,80000c54 <xprintf>
check():
/home/tututu/qimeng/simulator/baremetal/benchmarks/dhrystone/dry.c:716
  if (!cond)
80000730:	00d00793          	addi	a5,zero,13
80000734:	02fa0463          	beq	s4,a5,8000075c <main+0x740>
main():
/home/tututu/qimeng/simulator/baremetal/benchmarks/dhrystone/dry.c:893
  }
  if (!check(Int_2_Loc == 13)) {
    xprintf("Int_2_Loc:           %d\n", Int_2_Loc);
80000738:	80002537          	lui	a0,0x80002
8000073c:	000a0593          	addi	a1,s4,0
80000740:	89450513          	addi	a0,a0,-1900 # 80001894 <_sp+0xf8001894>
check():
/home/tututu/qimeng/simulator/baremetal/benchmarks/dhrystone/dry.c:717
    pass = false;
80000744:	6409a023          	sw	zero,1600(s3)
main():
/home/tututu/qimeng/simulator/baremetal/benchmarks/dhrystone/dry.c:893
    xprintf("Int_2_Loc:           %d\n", Int_2_Loc);
80000748:	50c000ef          	jal	ra,80000c54 <xprintf>
/home/tututu/qimeng/simulator/baremetal/benchmarks/dhrystone/dry.c:894
    xprintf("        should be:   %d\n", 13);
8000074c:	80001537          	lui	a0,0x80001
80000750:	00d00593          	addi	a1,zero,13
80000754:	62050513          	addi	a0,a0,1568 # 80001620 <_sp+0xf8001620>
80000758:	4fc000ef          	jal	ra,80000c54 <xprintf>
check():
/home/tututu/qimeng/simulator/baremetal/benchmarks/dhrystone/dry.c:716
  if (!cond)
8000075c:	02049463          	bne	s1,zero,80000784 <main+0x768>
main():
/home/tututu/qimeng/simulator/baremetal/benchmarks/dhrystone/dry.c:901
  if (!check(Int_3_Loc == 7)) {
    xprintf("Int_3_Loc:           %d\n", Int_3_Loc);
    xprintf("        should be:   %d\n", 7);
  }
  if (!check(Enum_Loc == 1)) {
    xprintf("Enum_Loc:            %d\n", Enum_Loc);
80000760:	80002537          	lui	a0,0x80002
80000764:	00000593          	addi	a1,zero,0
80000768:	8b050513          	addi	a0,a0,-1872 # 800018b0 <_sp+0xf80018b0>
check():
/home/tututu/qimeng/simulator/baremetal/benchmarks/dhrystone/dry.c:717
    pass = false;
8000076c:	6409a023          	sw	zero,1600(s3)
main():
/home/tututu/qimeng/simulator/baremetal/benchmarks/dhrystone/dry.c:901
    xprintf("Enum_Loc:            %d\n", Enum_Loc);
80000770:	4e4000ef          	jal	ra,80000c54 <xprintf>
/home/tututu/qimeng/simulator/baremetal/benchmarks/dhrystone/dry.c:902
    xprintf("        should be:   %d\n", 1);
80000774:	80001537          	lui	a0,0x80001
80000778:	00100593          	addi	a1,zero,1
8000077c:	62050513          	addi	a0,a0,1568 # 80001620 <_sp+0xf8001620>
80000780:	4d4000ef          	jal	ra,80000c54 <xprintf>
/home/tututu/qimeng/simulator/baremetal/benchmarks/dhrystone/dry.c:905
  }

  if (!check(strcmp(Str_1_Loc, "DHRYSTONE PROGRAM, 1'ST STRING") == 0)) {
80000784:	800027b7          	lui	a5,0x80002
80000788:	8cc78593          	addi	a1,a5,-1844 # 800018cc <_sp+0xf80018cc>
8000078c:	03010513          	addi	a0,sp,48
80000790:	4d9000ef          	jal	ra,80001468 <strcmp>
check():
/home/tututu/qimeng/simulator/baremetal/benchmarks/dhrystone/dry.c:716
  if (!cond)
80000794:	02050263          	beq	a0,zero,800007b8 <main+0x79c>
main():
/home/tututu/qimeng/simulator/baremetal/benchmarks/dhrystone/dry.c:906
    xprintf("Str_1_Loc:           %s\n", Str_1_Loc);
80000798:	80002537          	lui	a0,0x80002
8000079c:	8ec50513          	addi	a0,a0,-1812 # 800018ec <_sp+0xf80018ec>
800007a0:	03010593          	addi	a1,sp,48
check():
/home/tututu/qimeng/simulator/baremetal/benchmarks/dhrystone/dry.c:717
    pass = false;
800007a4:	6409a023          	sw	zero,1600(s3)
main():
/home/tututu/qimeng/simulator/baremetal/benchmarks/dhrystone/dry.c:906
    xprintf("Str_1_Loc:           %s\n", Str_1_Loc);
800007a8:	4ac000ef          	jal	ra,80000c54 <xprintf>
/home/tututu/qimeng/simulator/baremetal/benchmarks/dhrystone/dry.c:907
    xprintf("        should be:   DHRYSTONE PROGRAM, 1'ST STRING\n");
800007ac:	80002537          	lui	a0,0x80002
800007b0:	90850513          	addi	a0,a0,-1784 # 80001908 <_sp+0xf8001908>
800007b4:	4a0000ef          	jal	ra,80000c54 <xprintf>
/home/tututu/qimeng/simulator/baremetal/benchmarks/dhrystone/dry.c:909
  }
  if (!check(strcmp(Str_2_Loc, "DHRYSTONE PROGRAM, 2'ND STRING") == 0)) {
800007b8:	800027b7          	lui	a5,0x80002
800007bc:	94078593          	addi	a1,a5,-1728 # 80001940 <_sp+0xf8001940>
800007c0:	05010513          	addi	a0,sp,80
800007c4:	4a5000ef          	jal	ra,80001468 <strcmp>
check():
/home/tututu/qimeng/simulator/baremetal/benchmarks/dhrystone/dry.c:716
  if (!cond)
800007c8:	02050263          	beq	a0,zero,800007ec <main+0x7d0>
main():
/home/tututu/qimeng/simulator/baremetal/benchmarks/dhrystone/dry.c:910
    xprintf("Str_2_Loc:           %s\n", Str_2_Loc);
800007cc:	80002537          	lui	a0,0x80002
800007d0:	96050513          	addi	a0,a0,-1696 # 80001960 <_sp+0xf8001960>
800007d4:	05010593          	addi	a1,sp,80
check():
/home/tututu/qimeng/simulator/baremetal/benchmarks/dhrystone/dry.c:717
    pass = false;
800007d8:	6409a023          	sw	zero,1600(s3)
main():
/home/tututu/qimeng/simulator/baremetal/benchmarks/dhrystone/dry.c:910
    xprintf("Str_2_Loc:           %s\n", Str_2_Loc);
800007dc:	478000ef          	jal	ra,80000c54 <xprintf>
/home/tututu/qimeng/simulator/baremetal/benchmarks/dhrystone/dry.c:911
    xprintf("        should be:   DHRYSTONE PROGRAM, 2'ND STRING\n");
800007e0:	80002537          	lui	a0,0x80002
800007e4:	97c50513          	addi	a0,a0,-1668 # 8000197c <_sp+0xf800197c>
800007e8:	46c000ef          	jal	ra,80000c54 <xprintf>
/home/tututu/qimeng/simulator/baremetal/benchmarks/dhrystone/dry.c:920
  // xprintf("==================================================\n");
  // xprintf("Dhrystone %s         %d Marks\n", pass ? "PASS" : "FAIL",
  //         880900 / (int)User_Time * NUMBER_OF_RUNS / 500000);
  // xprintf("                   vs. 100000 Marks (i7-7700K @ 4.20GHz)\n");

  return (pass ? 0 : 1);
800007ec:	6409a503          	lw	a0,1600(s3)
/home/tututu/qimeng/simulator/baremetal/benchmarks/dhrystone/dry.c:921
}
800007f0:	0ac12083          	lw	ra,172(sp)
800007f4:	0a812403          	lw	s0,168(sp)
800007f8:	0a412483          	lw	s1,164(sp)
800007fc:	0a012903          	lw	s2,160(sp)
80000800:	09c12983          	lw	s3,156(sp)
80000804:	09812a03          	lw	s4,152(sp)
80000808:	09412a83          	lw	s5,148(sp)
8000080c:	09012b03          	lw	s6,144(sp)
80000810:	08c12b83          	lw	s7,140(sp)
80000814:	08812c03          	lw	s8,136(sp)
80000818:	08412c83          	lw	s9,132(sp)
8000081c:	08012d03          	lw	s10,128(sp)
80000820:	07c12d83          	lw	s11,124(sp)
80000824:	00153513          	sltiu	a0,a0,1
80000828:	0b010113          	addi	sp,sp,176
8000082c:	00008067          	jalr	zero,0(ra)
80000830:	800049b7          	lui	s3,0x80004
80000834:	bd9ff06f          	jal	zero,8000040c <main+0x3f0>

80000838 <Proc_2>:
Proc_2():
/home/tututu/qimeng/simulator/baremetal/benchmarks/dhrystone/dry.c:503
    if (Ch_1_Glob == 'A')
80000838:	800047b7          	lui	a5,0x80004
8000083c:	6257c703          	lbu	a4,1573(a5) # 80004625 <_sp+0xf8004625>
80000840:	04100793          	addi	a5,zero,65
80000844:	00f70463          	beq	a4,a5,8000084c <Proc_2+0x14>
/home/tututu/qimeng/simulator/baremetal/benchmarks/dhrystone/dry.c:511
} /* Proc_2 */
80000848:	00008067          	jalr	zero,0(ra)
/home/tututu/qimeng/simulator/baremetal/benchmarks/dhrystone/dry.c:506
      Int_Loc -= 1;
8000084c:	00052783          	lw	a5,0(a0)
/home/tututu/qimeng/simulator/baremetal/benchmarks/dhrystone/dry.c:507
      *Int_Par_Ref = Int_Loc - Int_Glob;
80000850:	80004737          	lui	a4,0x80004
80000854:	62c72703          	lw	a4,1580(a4) # 8000462c <_sp+0xf800462c>
/home/tututu/qimeng/simulator/baremetal/benchmarks/dhrystone/dry.c:506
      Int_Loc -= 1;
80000858:	00978793          	addi	a5,a5,9
/home/tututu/qimeng/simulator/baremetal/benchmarks/dhrystone/dry.c:507
      *Int_Par_Ref = Int_Loc - Int_Glob;
8000085c:	40e787b3          	sub	a5,a5,a4
80000860:	00f52023          	sw	a5,0(a0)
/home/tututu/qimeng/simulator/baremetal/benchmarks/dhrystone/dry.c:511
} /* Proc_2 */
80000864:	00008067          	jalr	zero,0(ra)

80000868 <Proc_3>:
Proc_3():
/home/tututu/qimeng/simulator/baremetal/benchmarks/dhrystone/dry.c:521
  if (Ptr_Glob != Null)
80000868:	80004737          	lui	a4,0x80004
8000086c:	63472783          	lw	a5,1588(a4) # 80004634 <_sp+0xf8004634>
80000870:	00078863          	beq	a5,zero,80000880 <Proc_3+0x18>
/home/tututu/qimeng/simulator/baremetal/benchmarks/dhrystone/dry.c:523
    *Ptr_Ref_Par = Ptr_Glob->Ptr_Comp;
80000874:	0007a783          	lw	a5,0(a5)
80000878:	00f52023          	sw	a5,0(a0)
/home/tututu/qimeng/simulator/baremetal/benchmarks/dhrystone/dry.c:524
  Proc_7(10, Int_Glob, &Ptr_Glob->variant.var_1.Int_Comp);
8000087c:	63472783          	lw	a5,1588(a4)
80000880:	80004737          	lui	a4,0x80004
Proc_7():
/home/tututu/qimeng/simulator/baremetal/benchmarks/dhrystone/dry.c:609
  *Int_Par_Ref = Int_2_Par_Val + Int_Loc;
80000884:	62c72703          	lw	a4,1580(a4) # 8000462c <_sp+0xf800462c>
80000888:	00c70713          	addi	a4,a4,12
8000088c:	00e7a623          	sw	a4,12(a5)
Proc_3():
/home/tututu/qimeng/simulator/baremetal/benchmarks/dhrystone/dry.c:525
} /* Proc_3 */
80000890:	00008067          	jalr	zero,0(ra)

80000894 <Proc_4>:
Proc_4():
/home/tututu/qimeng/simulator/baremetal/benchmarks/dhrystone/dry.c:533
  Bool_Loc = Ch_1_Glob == 'A';
80000894:	800047b7          	lui	a5,0x80004
80000898:	6257c783          	lbu	a5,1573(a5) # 80004625 <_sp+0xf8004625>
/home/tututu/qimeng/simulator/baremetal/benchmarks/dhrystone/dry.c:534
  Bool_Glob = Bool_Loc | Bool_Glob;
8000089c:	80004737          	lui	a4,0x80004
800008a0:	62872683          	lw	a3,1576(a4) # 80004628 <_sp+0xf8004628>
/home/tututu/qimeng/simulator/baremetal/benchmarks/dhrystone/dry.c:533
  Bool_Loc = Ch_1_Glob == 'A';
800008a4:	fbf78793          	addi	a5,a5,-65
800008a8:	0017b793          	sltiu	a5,a5,1
/home/tututu/qimeng/simulator/baremetal/benchmarks/dhrystone/dry.c:534
  Bool_Glob = Bool_Loc | Bool_Glob;
800008ac:	00d7e7b3          	or	a5,a5,a3
800008b0:	62f72423          	sw	a5,1576(a4)
/home/tututu/qimeng/simulator/baremetal/benchmarks/dhrystone/dry.c:535
  Ch_2_Glob = 'B';
800008b4:	800047b7          	lui	a5,0x80004
800008b8:	04200713          	addi	a4,zero,66
800008bc:	62e78223          	sb	a4,1572(a5) # 80004624 <_sp+0xf8004624>
/home/tututu/qimeng/simulator/baremetal/benchmarks/dhrystone/dry.c:536
} /* Proc_4 */
800008c0:	00008067          	jalr	zero,0(ra)

800008c4 <Proc_5>:
Proc_5():
/home/tututu/qimeng/simulator/baremetal/benchmarks/dhrystone/dry.c:542
  Ch_1_Glob = 'A';
800008c4:	800047b7          	lui	a5,0x80004
800008c8:	04100713          	addi	a4,zero,65
800008cc:	62e782a3          	sb	a4,1573(a5) # 80004625 <_sp+0xf8004625>
/home/tututu/qimeng/simulator/baremetal/benchmarks/dhrystone/dry.c:543
  Bool_Glob = false;
800008d0:	800047b7          	lui	a5,0x80004
800008d4:	6207a423          	sw	zero,1576(a5) # 80004628 <_sp+0xf8004628>
/home/tututu/qimeng/simulator/baremetal/benchmarks/dhrystone/dry.c:544
} /* Proc_5 */
800008d8:	00008067          	jalr	zero,0(ra)

800008dc <Proc_6>:
Func_3():
/home/tututu/qimeng/simulator/baremetal/benchmarks/dhrystone/dry.c:707
  if (Enum_Loc == Ident_3)
800008dc:	00200713          	addi	a4,zero,2
800008e0:	04e50263          	beq	a0,a4,80000924 <Proc_6+0x48>
Proc_6():
/home/tututu/qimeng/simulator/baremetal/benchmarks/dhrystone/dry.c:581
    *Enum_Ref_Par = Ident_4;
800008e4:	00300793          	addi	a5,zero,3
800008e8:	00f5a023          	sw	a5,0(a1)
/home/tututu/qimeng/simulator/baremetal/benchmarks/dhrystone/dry.c:582
  switch (Enum_Val_Par) {
800008ec:	00100793          	addi	a5,zero,1
800008f0:	00f50c63          	beq	a0,a5,80000908 <Proc_6+0x2c>
800008f4:	02a7f263          	bgeu	a5,a0,80000918 <Proc_6+0x3c>
800008f8:	00400793          	addi	a5,zero,4
800008fc:	02f51263          	bne	a0,a5,80000920 <Proc_6+0x44>
/home/tututu/qimeng/simulator/baremetal/benchmarks/dhrystone/dry.c:599
    *Enum_Ref_Par = Ident_3;
80000900:	00e5a023          	sw	a4,0(a1)
/home/tututu/qimeng/simulator/baremetal/benchmarks/dhrystone/dry.c:602
} /* Proc_6 */
80000904:	00008067          	jalr	zero,0(ra)
/home/tututu/qimeng/simulator/baremetal/benchmarks/dhrystone/dry.c:587
    if (Int_Glob > 100)
80000908:	800047b7          	lui	a5,0x80004
8000090c:	62c7a703          	lw	a4,1580(a5) # 8000462c <_sp+0xf800462c>
80000910:	06400793          	addi	a5,zero,100
80000914:	fee7d8e3          	bge	a5,a4,80000904 <Proc_6+0x28>
/home/tututu/qimeng/simulator/baremetal/benchmarks/dhrystone/dry.c:589
      *Enum_Ref_Par = Ident_1;
80000918:	0005a023          	sw	zero,0(a1)
8000091c:	00008067          	jalr	zero,0(ra)
80000920:	00008067          	jalr	zero,0(ra)
/home/tututu/qimeng/simulator/baremetal/benchmarks/dhrystone/dry.c:594
    *Enum_Ref_Par = Ident_2;
80000924:	00100793          	addi	a5,zero,1
80000928:	00f5a023          	sw	a5,0(a1)
/home/tututu/qimeng/simulator/baremetal/benchmarks/dhrystone/dry.c:595
    break;
8000092c:	00008067          	jalr	zero,0(ra)

80000930 <Proc_1>:
Proc_1():
/home/tututu/qimeng/simulator/baremetal/benchmarks/dhrystone/dry.c:471
  structassign(*Ptr_Val_Par->Ptr_Comp, *Ptr_Glob);
80000930:	800046b7          	lui	a3,0x80004
80000934:	6346a783          	lw	a5,1588(a3) # 80004634 <_sp+0xf8004634>
/home/tututu/qimeng/simulator/baremetal/benchmarks/dhrystone/dry.c:465
{
80000938:	ff010113          	addi	sp,sp,-16
8000093c:	00812423          	sw	s0,8(sp)
/home/tututu/qimeng/simulator/baremetal/benchmarks/dhrystone/dry.c:471
  structassign(*Ptr_Val_Par->Ptr_Comp, *Ptr_Glob);
80000940:	0007a603          	lw	a2,0(a5)
/home/tututu/qimeng/simulator/baremetal/benchmarks/dhrystone/dry.c:466
  REG Rec_Pointer Next_Record = Ptr_Val_Par->Ptr_Comp;
80000944:	00052403          	lw	s0,0(a0)
/home/tututu/qimeng/simulator/baremetal/benchmarks/dhrystone/dry.c:471
  structassign(*Ptr_Val_Par->Ptr_Comp, *Ptr_Glob);
80000948:	02c7a703          	lw	a4,44(a5)
8000094c:	0047a283          	lw	t0,4(a5)
80000950:	0087af83          	lw	t6,8(a5)
80000954:	0107af03          	lw	t5,16(a5)
80000958:	0147ae83          	lw	t4,20(a5)
8000095c:	0187ae03          	lw	t3,24(a5)
80000960:	01c7a303          	lw	t1,28(a5)
80000964:	0207a883          	lw	a7,32(a5)
80000968:	0247a803          	lw	a6,36(a5)
8000096c:	0287a583          	lw	a1,40(a5)
/home/tututu/qimeng/simulator/baremetal/benchmarks/dhrystone/dry.c:465
{
80000970:	00912223          	sw	s1,4(sp)
80000974:	00112623          	sw	ra,12(sp)
/home/tututu/qimeng/simulator/baremetal/benchmarks/dhrystone/dry.c:471
  structassign(*Ptr_Val_Par->Ptr_Comp, *Ptr_Glob);
80000978:	00c42023          	sw	a2,0(s0)
/home/tututu/qimeng/simulator/baremetal/benchmarks/dhrystone/dry.c:474
  Next_Record->Ptr_Comp = Ptr_Val_Par->Ptr_Comp;
8000097c:	00052603          	lw	a2,0(a0)
/home/tututu/qimeng/simulator/baremetal/benchmarks/dhrystone/dry.c:471
  structassign(*Ptr_Val_Par->Ptr_Comp, *Ptr_Glob);
80000980:	02e42623          	sw	a4,44(s0)
80000984:	00542223          	sw	t0,4(s0)
80000988:	01f42423          	sw	t6,8(s0)
8000098c:	01e42823          	sw	t5,16(s0)
80000990:	01d42a23          	sw	t4,20(s0)
80000994:	01c42c23          	sw	t3,24(s0)
80000998:	00642e23          	sw	t1,28(s0)
8000099c:	03142023          	sw	a7,32(s0)
800009a0:	03042223          	sw	a6,36(s0)
800009a4:	02b42423          	sw	a1,40(s0)
/home/tututu/qimeng/simulator/baremetal/benchmarks/dhrystone/dry.c:472
  Ptr_Val_Par->variant.var_1.Int_Comp = 5;
800009a8:	00500713          	addi	a4,zero,5
800009ac:	00e52623          	sw	a4,12(a0)
/home/tututu/qimeng/simulator/baremetal/benchmarks/dhrystone/dry.c:474
  Next_Record->Ptr_Comp = Ptr_Val_Par->Ptr_Comp;
800009b0:	00c42023          	sw	a2,0(s0)
Proc_3():
/home/tututu/qimeng/simulator/baremetal/benchmarks/dhrystone/dry.c:523
    *Ptr_Ref_Par = Ptr_Glob->Ptr_Comp;
800009b4:	0007a483          	lw	s1,0(a5)
/home/tututu/qimeng/simulator/baremetal/benchmarks/dhrystone/dry.c:524
  Proc_7(10, Int_Glob, &Ptr_Glob->variant.var_1.Int_Comp);
800009b8:	800047b7          	lui	a5,0x80004
Proc_7():
/home/tututu/qimeng/simulator/baremetal/benchmarks/dhrystone/dry.c:609
  *Int_Par_Ref = Int_2_Par_Val + Int_Loc;
800009bc:	62c7a783          	lw	a5,1580(a5) # 8000462c <_sp+0xf800462c>
Proc_3():
/home/tututu/qimeng/simulator/baremetal/benchmarks/dhrystone/dry.c:523
    *Ptr_Ref_Par = Ptr_Glob->Ptr_Comp;
800009c0:	00942023          	sw	s1,0(s0)
Proc_7():
/home/tututu/qimeng/simulator/baremetal/benchmarks/dhrystone/dry.c:609
  *Int_Par_Ref = Int_2_Par_Val + Int_Loc;
800009c4:	6346a683          	lw	a3,1588(a3)
800009c8:	00c78793          	addi	a5,a5,12
Proc_1():
/home/tututu/qimeng/simulator/baremetal/benchmarks/dhrystone/dry.c:473
  Next_Record->variant.var_1.Int_Comp = Ptr_Val_Par->variant.var_1.Int_Comp;
800009cc:	00e42623          	sw	a4,12(s0)
Proc_7():
/home/tututu/qimeng/simulator/baremetal/benchmarks/dhrystone/dry.c:609
  *Int_Par_Ref = Int_2_Par_Val + Int_Loc;
800009d0:	00f6a623          	sw	a5,12(a3)
Proc_1():
/home/tututu/qimeng/simulator/baremetal/benchmarks/dhrystone/dry.c:478
  if (Next_Record->Discr == Ident_1)
800009d4:	00442783          	lw	a5,4(s0)
800009d8:	06078e63          	beq	a5,zero,80000a54 <Proc_1+0x124>
/home/tututu/qimeng/simulator/baremetal/benchmarks/dhrystone/dry.c:488
    structassign(*Ptr_Val_Par, *Ptr_Val_Par->Ptr_Comp);
800009dc:	00052783          	lw	a5,0(a0)
/home/tututu/qimeng/simulator/baremetal/benchmarks/dhrystone/dry.c:489
} /* Proc_1 */
800009e0:	00c12083          	lw	ra,12(sp)
800009e4:	00812403          	lw	s0,8(sp)
/home/tututu/qimeng/simulator/baremetal/benchmarks/dhrystone/dry.c:488
    structassign(*Ptr_Val_Par, *Ptr_Val_Par->Ptr_Comp);
800009e8:	0007af83          	lw	t6,0(a5)
800009ec:	0047af03          	lw	t5,4(a5)
800009f0:	0087ae83          	lw	t4,8(a5)
800009f4:	00c7ae03          	lw	t3,12(a5)
800009f8:	0107a303          	lw	t1,16(a5)
800009fc:	0147a883          	lw	a7,20(a5)
80000a00:	0187a803          	lw	a6,24(a5)
80000a04:	01c7a583          	lw	a1,28(a5)
80000a08:	0207a603          	lw	a2,32(a5)
80000a0c:	0247a683          	lw	a3,36(a5)
80000a10:	0287a703          	lw	a4,40(a5)
80000a14:	02c7a783          	lw	a5,44(a5)
80000a18:	01f52023          	sw	t6,0(a0)
80000a1c:	01e52223          	sw	t5,4(a0)
80000a20:	01d52423          	sw	t4,8(a0)
80000a24:	01c52623          	sw	t3,12(a0)
80000a28:	00652823          	sw	t1,16(a0)
80000a2c:	01152a23          	sw	a7,20(a0)
80000a30:	01052c23          	sw	a6,24(a0)
80000a34:	00b52e23          	sw	a1,28(a0)
80000a38:	02c52023          	sw	a2,32(a0)
80000a3c:	02d52223          	sw	a3,36(a0)
80000a40:	02e52423          	sw	a4,40(a0)
80000a44:	02f52623          	sw	a5,44(a0)
/home/tututu/qimeng/simulator/baremetal/benchmarks/dhrystone/dry.c:489
} /* Proc_1 */
80000a48:	00412483          	lw	s1,4(sp)
80000a4c:	01010113          	addi	sp,sp,16
80000a50:	00008067          	jalr	zero,0(ra)
/home/tututu/qimeng/simulator/baremetal/benchmarks/dhrystone/dry.c:482
    Proc_6(Ptr_Val_Par->variant.var_1.Enum_Comp,
80000a54:	00852503          	lw	a0,8(a0)
/home/tututu/qimeng/simulator/baremetal/benchmarks/dhrystone/dry.c:481
    Next_Record->variant.var_1.Int_Comp = 6;
80000a58:	00600793          	addi	a5,zero,6
80000a5c:	00f42623          	sw	a5,12(s0)
/home/tututu/qimeng/simulator/baremetal/benchmarks/dhrystone/dry.c:482
    Proc_6(Ptr_Val_Par->variant.var_1.Enum_Comp,
80000a60:	00840593          	addi	a1,s0,8
80000a64:	e79ff0ef          	jal	ra,800008dc <Proc_6>
Proc_7():
/home/tututu/qimeng/simulator/baremetal/benchmarks/dhrystone/dry.c:609
  *Int_Par_Ref = Int_2_Par_Val + Int_Loc;
80000a68:	01200793          	addi	a5,zero,18
Proc_1():
/home/tututu/qimeng/simulator/baremetal/benchmarks/dhrystone/dry.c:484
    Next_Record->Ptr_Comp = Ptr_Glob->Ptr_Comp;
80000a6c:	00942023          	sw	s1,0(s0)
/home/tututu/qimeng/simulator/baremetal/benchmarks/dhrystone/dry.c:489
} /* Proc_1 */
80000a70:	00c12083          	lw	ra,12(sp)
Proc_7():
/home/tututu/qimeng/simulator/baremetal/benchmarks/dhrystone/dry.c:609
  *Int_Par_Ref = Int_2_Par_Val + Int_Loc;
80000a74:	00f42623          	sw	a5,12(s0)
Proc_1():
/home/tututu/qimeng/simulator/baremetal/benchmarks/dhrystone/dry.c:489
} /* Proc_1 */
80000a78:	00812403          	lw	s0,8(sp)
80000a7c:	00412483          	lw	s1,4(sp)
80000a80:	01010113          	addi	sp,sp,16
80000a84:	00008067          	jalr	zero,0(ra)

80000a88 <Proc_7>:
Proc_7():
/home/tututu/qimeng/simulator/baremetal/benchmarks/dhrystone/dry.c:608
  Int_Loc = Int_1_Par_Val + 2;
80000a88:	00250513          	addi	a0,a0,2
/home/tututu/qimeng/simulator/baremetal/benchmarks/dhrystone/dry.c:609
  *Int_Par_Ref = Int_2_Par_Val + Int_Loc;
80000a8c:	00b50533          	add	a0,a0,a1
80000a90:	00a62023          	sw	a0,0(a2)
/home/tututu/qimeng/simulator/baremetal/benchmarks/dhrystone/dry.c:610
} /* Proc_7 */
80000a94:	00008067          	jalr	zero,0(ra)

80000a98 <Proc_8>:
Proc_8():
/home/tututu/qimeng/simulator/baremetal/benchmarks/dhrystone/dry.c:625
  Int_Loc = Int_1_Par_Val + 5;
80000a98:	00560713          	addi	a4,a2,5
/home/tututu/qimeng/simulator/baremetal/benchmarks/dhrystone/dry.c:630
    Arr_2_Par_Ref[Int_Loc][Int_Index] = Int_Loc;
80000a9c:	00171793          	slli	a5,a4,0x1
80000aa0:	00e787b3          	add	a5,a5,a4
80000aa4:	00379793          	slli	a5,a5,0x3
80000aa8:	00e787b3          	add	a5,a5,a4
80000aac:	00379793          	slli	a5,a5,0x3
/home/tututu/qimeng/simulator/baremetal/benchmarks/dhrystone/dry.c:626
  Arr_1_Par_Ref[Int_Loc] = Int_2_Par_Val;
80000ab0:	00271813          	slli	a6,a4,0x2
80000ab4:	00261613          	slli	a2,a2,0x2
80000ab8:	01050533          	add	a0,a0,a6
80000abc:	00c78833          	add	a6,a5,a2
80000ac0:	00d52023          	sw	a3,0(a0)
/home/tututu/qimeng/simulator/baremetal/benchmarks/dhrystone/dry.c:627
  Arr_1_Par_Ref[Int_Loc + 1] = Arr_1_Par_Ref[Int_Loc];
80000ac4:	00d52223          	sw	a3,4(a0)
/home/tututu/qimeng/simulator/baremetal/benchmarks/dhrystone/dry.c:628
  Arr_1_Par_Ref[Int_Loc + 30] = Int_Loc;
80000ac8:	06e52c23          	sw	a4,120(a0)
/home/tututu/qimeng/simulator/baremetal/benchmarks/dhrystone/dry.c:630
    Arr_2_Par_Ref[Int_Loc][Int_Index] = Int_Loc;
80000acc:	010586b3          	add	a3,a1,a6
/home/tututu/qimeng/simulator/baremetal/benchmarks/dhrystone/dry.c:631
  Arr_2_Par_Ref[Int_Loc][Int_Loc - 1] += 1;
80000ad0:	0106a803          	lw	a6,16(a3)
/home/tututu/qimeng/simulator/baremetal/benchmarks/dhrystone/dry.c:630
    Arr_2_Par_Ref[Int_Loc][Int_Index] = Int_Loc;
80000ad4:	00e6aa23          	sw	a4,20(a3)
80000ad8:	00e6ac23          	sw	a4,24(a3)
/home/tututu/qimeng/simulator/baremetal/benchmarks/dhrystone/dry.c:631
  Arr_2_Par_Ref[Int_Loc][Int_Loc - 1] += 1;
80000adc:	00180713          	addi	a4,a6,1
80000ae0:	00e6a823          	sw	a4,16(a3)
/home/tututu/qimeng/simulator/baremetal/benchmarks/dhrystone/dry.c:632
  Arr_2_Par_Ref[Int_Loc + 20][Int_Loc] = Arr_1_Par_Ref[Int_Loc];
80000ae4:	00052703          	lw	a4,0(a0)
80000ae8:	00f585b3          	add	a1,a1,a5
80000aec:	00c585b3          	add	a1,a1,a2
80000af0:	000017b7          	lui	a5,0x1
80000af4:	00b787b3          	add	a5,a5,a1
80000af8:	fae7aa23          	sw	a4,-76(a5) # fb4 <__stack_size-0x1fff04c>
/home/tututu/qimeng/simulator/baremetal/benchmarks/dhrystone/dry.c:633
  Int_Glob = 5;
80000afc:	800047b7          	lui	a5,0x80004
80000b00:	00500713          	addi	a4,zero,5
80000b04:	62e7a623          	sw	a4,1580(a5) # 8000462c <_sp+0xf800462c>
/home/tututu/qimeng/simulator/baremetal/benchmarks/dhrystone/dry.c:634
} /* Proc_8 */
80000b08:	00008067          	jalr	zero,0(ra)

80000b0c <Func_1>:
Func_1():
/home/tututu/qimeng/simulator/baremetal/benchmarks/dhrystone/dry.c:645
{
80000b0c:	0ff57513          	andi	a0,a0,255
80000b10:	0ff5f593          	andi	a1,a1,255
/home/tututu/qimeng/simulator/baremetal/benchmarks/dhrystone/dry.c:651
  if (Ch_2_Loc != Ch_2_Par_Val)
80000b14:	00b50663          	beq	a0,a1,80000b20 <Func_1+0x14>
/home/tututu/qimeng/simulator/baremetal/benchmarks/dhrystone/dry.c:653
    return (Ident_1);
80000b18:	00000513          	addi	a0,zero,0
/home/tututu/qimeng/simulator/baremetal/benchmarks/dhrystone/dry.c:659
} /* Func_1 */
80000b1c:	00008067          	jalr	zero,0(ra)
/home/tututu/qimeng/simulator/baremetal/benchmarks/dhrystone/dry.c:656
    Ch_1_Glob = Ch_1_Loc;
80000b20:	800047b7          	lui	a5,0x80004
80000b24:	62a782a3          	sb	a0,1573(a5) # 80004625 <_sp+0xf8004625>
/home/tututu/qimeng/simulator/baremetal/benchmarks/dhrystone/dry.c:657
    return (Ident_2);
80000b28:	00100513          	addi	a0,zero,1
80000b2c:	00008067          	jalr	zero,0(ra)

80000b30 <Func_2>:
Func_2():
/home/tututu/qimeng/simulator/baremetal/benchmarks/dhrystone/dry.c:669
{
80000b30:	ff010113          	addi	sp,sp,-16
80000b34:	00112623          	sw	ra,12(sp)
/home/tututu/qimeng/simulator/baremetal/benchmarks/dhrystone/dry.c:675
    if (Func_1(Str_1_Par_Ref[Int_Loc], Str_2_Par_Ref[Int_Loc + 1]) == Ident_1)
80000b38:	00254783          	lbu	a5,2(a0)
80000b3c:	0035c703          	lbu	a4,3(a1)
/home/tututu/qimeng/simulator/baremetal/benchmarks/dhrystone/dry.c:669
{
80000b40:	00000613          	addi	a2,zero,0
/home/tututu/qimeng/simulator/baremetal/benchmarks/dhrystone/dry.c:675
    if (Func_1(Str_1_Par_Ref[Int_Loc], Str_2_Par_Ref[Int_Loc + 1]) == Ident_1)
80000b44:	00000693          	addi	a3,zero,0
Func_1():
/home/tututu/qimeng/simulator/baremetal/benchmarks/dhrystone/dry.c:651
  if (Ch_2_Loc != Ch_2_Par_Val)
80000b48:	02e78e63          	beq	a5,a4,80000b84 <Func_2+0x54>
80000b4c:	00068663          	beq	a3,zero,80000b58 <Func_2+0x28>
80000b50:	800047b7          	lui	a5,0x80004
80000b54:	62c782a3          	sb	a2,1573(a5) # 80004625 <_sp+0xf8004625>
Func_2():
/home/tututu/qimeng/simulator/baremetal/benchmarks/dhrystone/dry.c:689
    if (strcmp(Str_1_Par_Ref, Str_2_Par_Ref) > 0) {
80000b58:	111000ef          	jal	ra,80001468 <strcmp>
/home/tututu/qimeng/simulator/baremetal/benchmarks/dhrystone/dry.c:694
      return (false);
80000b5c:	00000793          	addi	a5,zero,0
/home/tututu/qimeng/simulator/baremetal/benchmarks/dhrystone/dry.c:689
    if (strcmp(Str_1_Par_Ref, Str_2_Par_Ref) > 0) {
80000b60:	00a05a63          	bge	zero,a0,80000b74 <Func_2+0x44>
/home/tututu/qimeng/simulator/baremetal/benchmarks/dhrystone/dry.c:691
      Int_Glob = Int_Loc;
80000b64:	800047b7          	lui	a5,0x80004
80000b68:	00a00713          	addi	a4,zero,10
80000b6c:	62e7a623          	sw	a4,1580(a5) # 8000462c <_sp+0xf800462c>
/home/tututu/qimeng/simulator/baremetal/benchmarks/dhrystone/dry.c:692
      return (true);
80000b70:	00100793          	addi	a5,zero,1
/home/tututu/qimeng/simulator/baremetal/benchmarks/dhrystone/dry.c:696
} /* Func_2 */
80000b74:	00c12083          	lw	ra,12(sp)
80000b78:	00078513          	addi	a0,a5,0
80000b7c:	01010113          	addi	sp,sp,16
80000b80:	00008067          	jalr	zero,0(ra)
Func_1():
/home/tututu/qimeng/simulator/baremetal/benchmarks/dhrystone/dry.c:696
80000b84:	00100693          	addi	a3,zero,1
80000b88:	00078613          	addi	a2,a5,0
80000b8c:	fbdff06f          	jal	zero,80000b48 <Func_2+0x18>

80000b90 <Func_3>:
Func_3():
/home/tututu/qimeng/simulator/baremetal/benchmarks/dhrystone/dry.c:707
  if (Enum_Loc == Ident_3)
80000b90:	ffe50513          	addi	a0,a0,-2
/home/tututu/qimeng/simulator/baremetal/benchmarks/dhrystone/dry.c:712
} /* Func_3 */
80000b94:	00153513          	sltiu	a0,a0,1
80000b98:	00008067          	jalr	zero,0(ra)

80000b9c <check>:
check():
/home/tututu/qimeng/simulator/baremetal/benchmarks/dhrystone/dry.c:716
  if (!cond)
80000b9c:	00051663          	bne	a0,zero,80000ba8 <check+0xc>
/home/tututu/qimeng/simulator/baremetal/benchmarks/dhrystone/dry.c:717
    pass = false;
80000ba0:	800047b7          	lui	a5,0x80004
80000ba4:	6407a023          	sw	zero,1600(a5) # 80004640 <_sp+0xf8004640>
/home/tututu/qimeng/simulator/baremetal/benchmarks/dhrystone/dry.c:719
}
80000ba8:	00008067          	jalr	zero,0(ra)

80000bac <xputc>:
xputc():
/home/tututu/qimeng/simulator/baremetal/rt-thread-am-master/bsp/abstract-machine/../../../lib/xprintf.c:30
80000bac:	800046b7          	lui	a3,0x80004
80000bb0:	6386a703          	lw	a4,1592(a3) # 80004638 <_sp+0xf8004638>
80000bb4:	00070a63          	beq	a4,zero,80000bc8 <xputc+0x1c>
/home/tututu/qimeng/simulator/baremetal/rt-thread-am-master/bsp/abstract-machine/../../../lib/xprintf.c:31
80000bb8:	00170613          	addi	a2,a4,1
80000bbc:	62c6ac23          	sw	a2,1592(a3)
80000bc0:	00a70023          	sb	a0,0(a4)
/home/tututu/qimeng/simulator/baremetal/rt-thread-am-master/bsp/abstract-machine/../../../lib/xprintf.c:32
80000bc4:	00008067          	jalr	zero,0(ra)
/home/tututu/qimeng/simulator/baremetal/rt-thread-am-master/bsp/abstract-machine/../../../lib/xprintf.c:35
80000bc8:	800047b7          	lui	a5,0x80004
80000bcc:	63c7a783          	lw	a5,1596(a5) # 8000463c <_sp+0xf800463c>
80000bd0:	00078463          	beq	a5,zero,80000bd8 <xputc+0x2c>
80000bd4:	00078067          	jalr	zero,0(a5)
/home/tututu/qimeng/simulator/baremetal/rt-thread-am-master/bsp/abstract-machine/../../../lib/xprintf.c:36
80000bd8:	00008067          	jalr	zero,0(ra)

80000bdc <xputs>:
xputs():
/home/tututu/qimeng/simulator/baremetal/rt-thread-am-master/bsp/abstract-machine/../../../lib/xprintf.c:46
80000bdc:	ff010113          	addi	sp,sp,-16
80000be0:	00812423          	sw	s0,8(sp)
80000be4:	00112623          	sw	ra,12(sp)
80000be8:	00912223          	sw	s1,4(sp)
80000bec:	01212023          	sw	s2,0(sp)
80000bf0:	00050413          	addi	s0,a0,0
/home/tututu/qimeng/simulator/baremetal/rt-thread-am-master/bsp/abstract-machine/../../../lib/xprintf.c:47
80000bf4:	00054503          	lbu	a0,0(a0)
80000bf8:	04050263          	beq	a0,zero,80000c3c <xputs+0x60>
80000bfc:	800044b7          	lui	s1,0x80004
xputc():
/home/tututu/qimeng/simulator/baremetal/rt-thread-am-master/bsp/abstract-machine/../../../lib/xprintf.c:35
80000c00:	80004937          	lui	s2,0x80004
80000c04:	0140006f          	jal	zero,80000c18 <xputs+0x3c>
/home/tututu/qimeng/simulator/baremetal/rt-thread-am-master/bsp/abstract-machine/../../../lib/xprintf.c:31
80000c08:	62e4ac23          	sw	a4,1592(s1) # 80004638 <_sp+0xf8004638>
80000c0c:	00a78023          	sb	a0,0(a5)
xputs():
/home/tututu/qimeng/simulator/baremetal/rt-thread-am-master/bsp/abstract-machine/../../../lib/xprintf.c:47
80000c10:	00044503          	lbu	a0,0(s0)
80000c14:	02050463          	beq	a0,zero,80000c3c <xputs+0x60>
xputc():
/home/tututu/qimeng/simulator/baremetal/rt-thread-am-master/bsp/abstract-machine/../../../lib/xprintf.c:30
80000c18:	6384a783          	lw	a5,1592(s1)
xputs():
/home/tututu/qimeng/simulator/baremetal/rt-thread-am-master/bsp/abstract-machine/../../../lib/xprintf.c:48
80000c1c:	00140413          	addi	s0,s0,1
xputc():
/home/tututu/qimeng/simulator/baremetal/rt-thread-am-master/bsp/abstract-machine/../../../lib/xprintf.c:31
80000c20:	00178713          	addi	a4,a5,1
/home/tututu/qimeng/simulator/baremetal/rt-thread-am-master/bsp/abstract-machine/../../../lib/xprintf.c:30
80000c24:	fe0792e3          	bne	a5,zero,80000c08 <xputs+0x2c>
/home/tututu/qimeng/simulator/baremetal/rt-thread-am-master/bsp/abstract-machine/../../../lib/xprintf.c:35
80000c28:	63c92783          	lw	a5,1596(s2) # 8000463c <_sp+0xf800463c>
80000c2c:	fe0782e3          	beq	a5,zero,80000c10 <xputs+0x34>
80000c30:	000780e7          	jalr	ra,0(a5)
xputs():
/home/tututu/qimeng/simulator/baremetal/rt-thread-am-master/bsp/abstract-machine/../../../lib/xprintf.c:47
80000c34:	00044503          	lbu	a0,0(s0)
80000c38:	fe0510e3          	bne	a0,zero,80000c18 <xputs+0x3c>
/home/tututu/qimeng/simulator/baremetal/rt-thread-am-master/bsp/abstract-machine/../../../lib/xprintf.c:49
80000c3c:	00c12083          	lw	ra,12(sp)
80000c40:	00812403          	lw	s0,8(sp)
80000c44:	00412483          	lw	s1,4(sp)
80000c48:	00012903          	lw	s2,0(sp)
80000c4c:	01010113          	addi	sp,sp,16
80000c50:	00008067          	jalr	zero,0(ra)

80000c54 <xprintf>:
xprintf():
/home/tututu/qimeng/simulator/baremetal/rt-thread-am-master/bsp/abstract-machine/../../../lib/xprintf.c:150
80000c54:	f7010113          	addi	sp,sp,-144
80000c58:	05512a23          	sw	s5,84(sp)
80000c5c:	05812423          	sw	s8,72(sp)
80000c60:	06112623          	sw	ra,108(sp)
80000c64:	06812423          	sw	s0,104(sp)
80000c68:	06912223          	sw	s1,100(sp)
80000c6c:	07212023          	sw	s2,96(sp)
80000c70:	05312e23          	sw	s3,92(sp)
80000c74:	05412c23          	sw	s4,88(sp)
80000c78:	05612823          	sw	s6,80(sp)
80000c7c:	05712623          	sw	s7,76(sp)
80000c80:	05912223          	sw	s9,68(sp)
80000c84:	05a12023          	sw	s10,64(sp)
80000c88:	03b12e23          	sw	s11,60(sp)
80000c8c:	06b12a23          	sw	a1,116(sp)
80000c90:	06c12c23          	sw	a2,120(sp)
80000c94:	06d12e23          	sw	a3,124(sp)
80000c98:	08e12023          	sw	a4,128(sp)
80000c9c:	08f12223          	sw	a5,132(sp)
80000ca0:	09012423          	sw	a6,136(sp)
80000ca4:	09112623          	sw	a7,140(sp)
80000ca8:	00050c13          	addi	s8,a0,0
xvprintf():
/home/tututu/qimeng/simulator/baremetal/rt-thread-am-master/bsp/abstract-machine/../../../lib/xprintf.c:81
80000cac:	00054503          	lbu	a0,0(a0)
xprintf():
/home/tututu/qimeng/simulator/baremetal/rt-thread-am-master/bsp/abstract-machine/../../../lib/xprintf.c:154
80000cb0:	07410a93          	addi	s5,sp,116
80000cb4:	01512e23          	sw	s5,28(sp)
/home/tututu/qimeng/simulator/baremetal/rt-thread-am-master/bsp/abstract-machine/../../../lib/xprintf.c:155
80000cb8:	01512223          	sw	s5,4(sp)
xvprintf():
/home/tututu/qimeng/simulator/baremetal/rt-thread-am-master/bsp/abstract-machine/../../../lib/xprintf.c:82
80000cbc:	10050263          	beq	a0,zero,80000dc0 <xprintf+0x16c>
/home/tututu/qimeng/simulator/baremetal/rt-thread-am-master/bsp/abstract-machine/../../../lib/xprintf.c:103
80000cc0:	800027b7          	lui	a5,0x80002
80000cc4:	9d478793          	addi	a5,a5,-1580 # 800019d4 <_sp+0xf80019d4>
80000cc8:	001c0693          	addi	a3,s8,1
xputc():
/home/tututu/qimeng/simulator/baremetal/rt-thread-am-master/bsp/abstract-machine/../../../lib/xprintf.c:30
80000ccc:	80004b37          	lui	s6,0x80004
/home/tututu/qimeng/simulator/baremetal/rt-thread-am-master/bsp/abstract-machine/../../../lib/xprintf.c:35
80000cd0:	800049b7          	lui	s3,0x80004
xvprintf():
/home/tututu/qimeng/simulator/baremetal/rt-thread-am-master/bsp/abstract-machine/../../../lib/xprintf.c:103
80000cd4:	00f12623          	sw	a5,12(sp)
/home/tututu/qimeng/simulator/baremetal/rt-thread-am-master/bsp/abstract-machine/../../../lib/xprintf.c:121
80000cd8:	01000a13          	addi	s4,zero,16
80000cdc:	02010913          	addi	s2,sp,32
80000ce0:	0280006f          	jal	zero,80000d08 <xprintf+0xb4>
xputc():
/home/tututu/qimeng/simulator/baremetal/rt-thread-am-master/bsp/abstract-machine/../../../lib/xprintf.c:30
80000ce4:	638b2783          	lw	a5,1592(s6) # 80004638 <_sp+0xf8004638>
80000ce8:	4a078663          	beq	a5,zero,80001194 <xprintf+0x540>
/home/tututu/qimeng/simulator/baremetal/rt-thread-am-master/bsp/abstract-machine/../../../lib/xprintf.c:31
80000cec:	00178613          	addi	a2,a5,1
80000cf0:	62cb2c23          	sw	a2,1592(s6)
80000cf4:	00a78023          	sb	a0,0(a5)
/home/tututu/qimeng/simulator/baremetal/rt-thread-am-master/bsp/abstract-machine/../../../lib/xprintf.c:32
80000cf8:	00068c13          	addi	s8,a3,0
xvprintf():
/home/tututu/qimeng/simulator/baremetal/rt-thread-am-master/bsp/abstract-machine/../../../lib/xprintf.c:81
80000cfc:	000c4503          	lbu	a0,0(s8)
80000d00:	001c0693          	addi	a3,s8,1
/home/tututu/qimeng/simulator/baremetal/rt-thread-am-master/bsp/abstract-machine/../../../lib/xprintf.c:82
80000d04:	0a050e63          	beq	a0,zero,80000dc0 <xprintf+0x16c>
/home/tututu/qimeng/simulator/baremetal/rt-thread-am-master/bsp/abstract-machine/../../../lib/xprintf.c:83
80000d08:	02500793          	addi	a5,zero,37
80000d0c:	fcf51ce3          	bne	a0,a5,80000ce4 <xprintf+0x90>
/home/tututu/qimeng/simulator/baremetal/rt-thread-am-master/bsp/abstract-machine/../../../lib/xprintf.c:87
80000d10:	001c4503          	lbu	a0,1(s8)
/home/tututu/qimeng/simulator/baremetal/rt-thread-am-master/bsp/abstract-machine/../../../lib/xprintf.c:88
80000d14:	03000793          	addi	a5,zero,48
80000d18:	48f50863          	beq	a0,a5,800011a8 <xprintf+0x554>
/home/tututu/qimeng/simulator/baremetal/rt-thread-am-master/bsp/abstract-machine/../../../lib/xprintf.c:91
80000d1c:	02d00793          	addi	a5,zero,45
80000d20:	48f50c63          	beq	a0,a5,800011b8 <xprintf+0x564>
/home/tututu/qimeng/simulator/baremetal/rt-thread-am-master/bsp/abstract-machine/../../../lib/xprintf.c:87
80000d24:	002c0c13          	addi	s8,s8,2
/home/tututu/qimeng/simulator/baremetal/rt-thread-am-master/bsp/abstract-machine/../../../lib/xprintf.c:86
80000d28:	00000b93          	addi	s7,zero,0
/home/tututu/qimeng/simulator/baremetal/rt-thread-am-master/bsp/abstract-machine/../../../lib/xprintf.c:95
80000d2c:	fd050793          	addi	a5,a0,-48
80000d30:	0ff7f793          	andi	a5,a5,255
80000d34:	00900693          	addi	a3,zero,9
80000d38:	00000493          	addi	s1,zero,0
80000d3c:	02f6e663          	bltu	a3,a5,80000d68 <xprintf+0x114>
/home/tututu/qimeng/simulator/baremetal/rt-thread-am-master/bsp/abstract-machine/../../../lib/xprintf.c:96
80000d40:	00249793          	slli	a5,s1,0x2
80000d44:	009787b3          	add	a5,a5,s1
80000d48:	00179793          	slli	a5,a5,0x1
/home/tututu/qimeng/simulator/baremetal/rt-thread-am-master/bsp/abstract-machine/../../../lib/xprintf.c:95
80000d4c:	001c0c13          	addi	s8,s8,1
/home/tututu/qimeng/simulator/baremetal/rt-thread-am-master/bsp/abstract-machine/../../../lib/xprintf.c:96
80000d50:	00a787b3          	add	a5,a5,a0
/home/tututu/qimeng/simulator/baremetal/rt-thread-am-master/bsp/abstract-machine/../../../lib/xprintf.c:95
80000d54:	fffc4503          	lbu	a0,-1(s8)
/home/tututu/qimeng/simulator/baremetal/rt-thread-am-master/bsp/abstract-machine/../../../lib/xprintf.c:96
80000d58:	fd078493          	addi	s1,a5,-48
/home/tututu/qimeng/simulator/baremetal/rt-thread-am-master/bsp/abstract-machine/../../../lib/xprintf.c:95
80000d5c:	fd050793          	addi	a5,a0,-48
80000d60:	0ff7f793          	andi	a5,a5,255
80000d64:	fcf6fee3          	bgeu	a3,a5,80000d40 <xprintf+0xec>
/home/tututu/qimeng/simulator/baremetal/rt-thread-am-master/bsp/abstract-machine/../../../lib/xprintf.c:97
80000d68:	0df57793          	andi	a5,a0,223
80000d6c:	04c00693          	addi	a3,zero,76
80000d70:	04d78063          	beq	a5,a3,80000db0 <xprintf+0x15c>
/home/tututu/qimeng/simulator/baremetal/rt-thread-am-master/bsp/abstract-machine/../../../lib/xprintf.c:100
80000d74:	04050663          	beq	a0,zero,80000dc0 <xprintf+0x16c>
/home/tututu/qimeng/simulator/baremetal/rt-thread-am-master/bsp/abstract-machine/../../../lib/xprintf.c:102
80000d78:	06000793          	addi	a5,zero,96
80000d7c:	00050613          	addi	a2,a0,0
80000d80:	00a7f663          	bgeu	a5,a0,80000d8c <xprintf+0x138>
80000d84:	fe050613          	addi	a2,a0,-32
80000d88:	0ff67613          	andi	a2,a2,255
/home/tututu/qimeng/simulator/baremetal/rt-thread-am-master/bsp/abstract-machine/../../../lib/xprintf.c:103
80000d8c:	fbe60793          	addi	a5,a2,-66
80000d90:	0ff7f793          	andi	a5,a5,255
80000d94:	01600693          	addi	a3,zero,22
80000d98:	06f6e263          	bltu	a3,a5,80000dfc <xprintf+0x1a8>
80000d9c:	00c12703          	lw	a4,12(sp)
80000da0:	00279793          	slli	a5,a5,0x2
80000da4:	00e787b3          	add	a5,a5,a4
80000da8:	0007a783          	lw	a5,0(a5)
80000dac:	00078067          	jalr	zero,0(a5)
/home/tututu/qimeng/simulator/baremetal/rt-thread-am-master/bsp/abstract-machine/../../../lib/xprintf.c:98
80000db0:	000c4503          	lbu	a0,0(s8)
80000db4:	004beb93          	ori	s7,s7,4
80000db8:	001c0c13          	addi	s8,s8,1
/home/tututu/qimeng/simulator/baremetal/rt-thread-am-master/bsp/abstract-machine/../../../lib/xprintf.c:100
80000dbc:	fa051ee3          	bne	a0,zero,80000d78 <xprintf+0x124>
xprintf():
/home/tututu/qimeng/simulator/baremetal/rt-thread-am-master/bsp/abstract-machine/../../../lib/xprintf.c:157
80000dc0:	06c12083          	lw	ra,108(sp)
80000dc4:	06812403          	lw	s0,104(sp)
80000dc8:	06412483          	lw	s1,100(sp)
80000dcc:	06012903          	lw	s2,96(sp)
80000dd0:	05c12983          	lw	s3,92(sp)
80000dd4:	05812a03          	lw	s4,88(sp)
80000dd8:	05412a83          	lw	s5,84(sp)
80000ddc:	05012b03          	lw	s6,80(sp)
80000de0:	04c12b83          	lw	s7,76(sp)
80000de4:	04812c03          	lw	s8,72(sp)
80000de8:	04412c83          	lw	s9,68(sp)
80000dec:	04012d03          	lw	s10,64(sp)
80000df0:	03c12d83          	lw	s11,60(sp)
80000df4:	09010113          	addi	sp,sp,144
80000df8:	00008067          	jalr	zero,0(ra)
xputc():
/home/tututu/qimeng/simulator/baremetal/rt-thread-am-master/bsp/abstract-machine/../../../lib/xprintf.c:30
80000dfc:	638b2783          	lw	a5,1592(s6)
80000e00:	3c078c63          	beq	a5,zero,800011d8 <xprintf+0x584>
/home/tututu/qimeng/simulator/baremetal/rt-thread-am-master/bsp/abstract-machine/../../../lib/xprintf.c:31
80000e04:	00178693          	addi	a3,a5,1
80000e08:	62db2c23          	sw	a3,1592(s6)
80000e0c:	00a78023          	sb	a0,0(a5)
/home/tututu/qimeng/simulator/baremetal/rt-thread-am-master/bsp/abstract-machine/../../../lib/xprintf.c:32
80000e10:	eedff06f          	jal	zero,80000cfc <xprintf+0xa8>
xvprintf():
/home/tututu/qimeng/simulator/baremetal/rt-thread-am-master/bsp/abstract-machine/../../../lib/xprintf.c:127
80000e14:	004bf793          	andi	a5,s7,4
80000e18:	3e078463          	beq	a5,zero,80001200 <xprintf+0x5ac>
80000e1c:	00412783          	lw	a5,4(sp)
/home/tututu/qimeng/simulator/baremetal/rt-thread-am-master/bsp/abstract-machine/../../../lib/xprintf.c:128
80000e20:	04400593          	addi	a1,zero,68
/home/tututu/qimeng/simulator/baremetal/rt-thread-am-master/bsp/abstract-machine/../../../lib/xprintf.c:127
80000e24:	0007aa83          	lw	s5,0(a5)
80000e28:	00478793          	addi	a5,a5,4
80000e2c:	00f12223          	sw	a5,4(sp)
80000e30:	000a8793          	addi	a5,s5,0
/home/tututu/qimeng/simulator/baremetal/rt-thread-am-master/bsp/abstract-machine/../../../lib/xprintf.c:128
80000e34:	44b61263          	bne	a2,a1,80001278 <xprintf+0x624>
80000e38:	00012423          	sw	zero,8(sp)
80000e3c:	00a00d13          	addi	s10,zero,10
80000e40:	1607de63          	bge	a5,zero,80000fbc <xprintf+0x368>
/home/tututu/qimeng/simulator/baremetal/rt-thread-am-master/bsp/abstract-machine/../../../lib/xprintf.c:130
80000e44:	00800793          	addi	a5,zero,8
/home/tututu/qimeng/simulator/baremetal/rt-thread-am-master/bsp/abstract-machine/../../../lib/xprintf.c:129
80000e48:	41500ab3          	sub	s5,zero,s5
/home/tututu/qimeng/simulator/baremetal/rt-thread-am-master/bsp/abstract-machine/../../../lib/xprintf.c:130
80000e4c:	008beb93          	ori	s7,s7,8
80000e50:	00f12423          	sw	a5,8(sp)
80000e54:	1680006f          	jal	zero,80000fbc <xprintf+0x368>
/home/tututu/qimeng/simulator/baremetal/rt-thread-am-master/bsp/abstract-machine/../../../lib/xprintf.c:112
80000e58:	00412703          	lw	a4,4(sp)
xputc():
/home/tututu/qimeng/simulator/baremetal/rt-thread-am-master/bsp/abstract-machine/../../../lib/xprintf.c:30
80000e5c:	638b2783          	lw	a5,1592(s6)
xvprintf():
/home/tututu/qimeng/simulator/baremetal/rt-thread-am-master/bsp/abstract-machine/../../../lib/xprintf.c:112
80000e60:	00074503          	lbu	a0,0(a4)
80000e64:	00470a93          	addi	s5,a4,4
xputc():
/home/tututu/qimeng/simulator/baremetal/rt-thread-am-master/bsp/abstract-machine/../../../lib/xprintf.c:30
80000e68:	36078063          	beq	a5,zero,800011c8 <xprintf+0x574>
/home/tututu/qimeng/simulator/baremetal/rt-thread-am-master/bsp/abstract-machine/../../../lib/xprintf.c:31
80000e6c:	00178693          	addi	a3,a5,1
80000e70:	62db2c23          	sw	a3,1592(s6)
80000e74:	00a78023          	sb	a0,0(a5)
xvprintf():
/home/tututu/qimeng/simulator/baremetal/rt-thread-am-master/bsp/abstract-machine/../../../lib/xprintf.c:112
80000e78:	01512223          	sw	s5,4(sp)
xputc():
/home/tututu/qimeng/simulator/baremetal/rt-thread-am-master/bsp/abstract-machine/../../../lib/xprintf.c:32
80000e7c:	e81ff06f          	jal	zero,80000cfc <xprintf+0xa8>
xvprintf():
/home/tututu/qimeng/simulator/baremetal/rt-thread-am-master/bsp/abstract-machine/../../../lib/xprintf.c:105
80000e80:	00412783          	lw	a5,4(sp)
/home/tututu/qimeng/simulator/baremetal/rt-thread-am-master/bsp/abstract-machine/../../../lib/xprintf.c:107
80000e84:	002bfb93          	andi	s7,s7,2
/home/tututu/qimeng/simulator/baremetal/rt-thread-am-master/bsp/abstract-machine/../../../lib/xprintf.c:105
80000e88:	0007a403          	lw	s0,0(a5)
80000e8c:	00478a93          	addi	s5,a5,4
/home/tututu/qimeng/simulator/baremetal/rt-thread-am-master/bsp/abstract-machine/../../../lib/xprintf.c:106
80000e90:	00044503          	lbu	a0,0(s0)
80000e94:	3a050c63          	beq	a0,zero,8000124c <xprintf+0x5f8>
80000e98:	00000693          	addi	a3,zero,0
80000e9c:	00068793          	addi	a5,a3,0
80000ea0:	00168693          	addi	a3,a3,1
80000ea4:	00d40633          	add	a2,s0,a3
80000ea8:	00064603          	lbu	a2,0(a2)
80000eac:	fe0618e3          	bne	a2,zero,80000e9c <xprintf+0x248>
/home/tututu/qimeng/simulator/baremetal/rt-thread-am-master/bsp/abstract-machine/../../../lib/xprintf.c:107
80000eb0:	00278c93          	addi	s9,a5,2
80000eb4:	3a0b9663          	bne	s7,zero,80001260 <xprintf+0x60c>
80000eb8:	00378b93          	addi	s7,a5,3
80000ebc:	0c96f263          	bgeu	a3,s1,80000f80 <xprintf+0x32c>
80000ec0:	000c8b93          	addi	s7,s9,0
80000ec4:	0200006f          	jal	zero,80000ee4 <xprintf+0x290>
xputc():
/home/tututu/qimeng/simulator/baremetal/rt-thread-am-master/bsp/abstract-machine/../../../lib/xprintf.c:31
80000ec8:	00178693          	addi	a3,a5,1
80000ecc:	62db2c23          	sw	a3,1592(s6)
80000ed0:	02000693          	addi	a3,zero,32
80000ed4:	00d78023          	sb	a3,0(a5)
xvprintf():
/home/tututu/qimeng/simulator/baremetal/rt-thread-am-master/bsp/abstract-machine/../../../lib/xprintf.c:107
80000ed8:	001b8793          	addi	a5,s7,1
80000edc:	029bf463          	bgeu	s7,s1,80000f04 <xprintf+0x2b0>
80000ee0:	00078b93          	addi	s7,a5,0
xputc():
/home/tututu/qimeng/simulator/baremetal/rt-thread-am-master/bsp/abstract-machine/../../../lib/xprintf.c:30
80000ee4:	638b2783          	lw	a5,1592(s6)
80000ee8:	fe0790e3          	bne	a5,zero,80000ec8 <xprintf+0x274>
/home/tututu/qimeng/simulator/baremetal/rt-thread-am-master/bsp/abstract-machine/../../../lib/xprintf.c:35
80000eec:	63c9a783          	lw	a5,1596(s3) # 8000463c <_sp+0xf800463c>
80000ef0:	fe0784e3          	beq	a5,zero,80000ed8 <xprintf+0x284>
80000ef4:	02000513          	addi	a0,zero,32
80000ef8:	000780e7          	jalr	ra,0(a5)
xvprintf():
/home/tututu/qimeng/simulator/baremetal/rt-thread-am-master/bsp/abstract-machine/../../../lib/xprintf.c:107
80000efc:	001b8793          	addi	a5,s7,1
80000f00:	fe9be0e3          	bltu	s7,s1,80000ee0 <xprintf+0x28c>
80000f04:	00000793          	addi	a5,zero,0
80000f08:	2d94fe63          	bgeu	s1,s9,800011e4 <xprintf+0x590>
xputs():
/home/tututu/qimeng/simulator/baremetal/rt-thread-am-master/bsp/abstract-machine/../../../lib/xprintf.c:47
80000f0c:	00044503          	lbu	a0,0(s0)
xvprintf():
/home/tututu/qimeng/simulator/baremetal/rt-thread-am-master/bsp/abstract-machine/../../../lib/xprintf.c:107
80000f10:	001c8c93          	addi	s9,s9,1
80000f14:	01978cb3          	add	s9,a5,s9
/home/tututu/qimeng/simulator/baremetal/rt-thread-am-master/bsp/abstract-machine/../../../lib/xprintf.c:109
80000f18:	001c8b93          	addi	s7,s9,1
xputs():
/home/tututu/qimeng/simulator/baremetal/rt-thread-am-master/bsp/abstract-machine/../../../lib/xprintf.c:47
80000f1c:	06051263          	bne	a0,zero,80000f80 <xprintf+0x32c>
xvprintf():
/home/tututu/qimeng/simulator/baremetal/rt-thread-am-master/bsp/abstract-machine/../../../lib/xprintf.c:109
80000f20:	029ce263          	bltu	s9,s1,80000f44 <xprintf+0x2f0>
80000f24:	0400006f          	jal	zero,80000f64 <xprintf+0x310>
xputc():
/home/tututu/qimeng/simulator/baremetal/rt-thread-am-master/bsp/abstract-machine/../../../lib/xprintf.c:31
80000f28:	00178693          	addi	a3,a5,1
80000f2c:	62db2c23          	sw	a3,1592(s6)
80000f30:	02000693          	addi	a3,zero,32
80000f34:	00d78023          	sb	a3,0(a5)
xvprintf():
/home/tututu/qimeng/simulator/baremetal/rt-thread-am-master/bsp/abstract-machine/../../../lib/xprintf.c:109
80000f38:	001b8793          	addi	a5,s7,1
80000f3c:	029bf463          	bgeu	s7,s1,80000f64 <xprintf+0x310>
80000f40:	00078b93          	addi	s7,a5,0
xputc():
/home/tututu/qimeng/simulator/baremetal/rt-thread-am-master/bsp/abstract-machine/../../../lib/xprintf.c:30
80000f44:	638b2783          	lw	a5,1592(s6)
80000f48:	fe0790e3          	bne	a5,zero,80000f28 <xprintf+0x2d4>
/home/tututu/qimeng/simulator/baremetal/rt-thread-am-master/bsp/abstract-machine/../../../lib/xprintf.c:35
80000f4c:	63c9a783          	lw	a5,1596(s3)
80000f50:	fe0784e3          	beq	a5,zero,80000f38 <xprintf+0x2e4>
80000f54:	02000513          	addi	a0,zero,32
80000f58:	000780e7          	jalr	ra,0(a5)
xvprintf():
/home/tututu/qimeng/simulator/baremetal/rt-thread-am-master/bsp/abstract-machine/../../../lib/xprintf.c:109
80000f5c:	001b8793          	addi	a5,s7,1
80000f60:	fe9be0e3          	bltu	s7,s1,80000f40 <xprintf+0x2ec>
/home/tututu/qimeng/simulator/baremetal/rt-thread-am-master/bsp/abstract-machine/../../../lib/xprintf.c:105
80000f64:	01512223          	sw	s5,4(sp)
80000f68:	d95ff06f          	jal	zero,80000cfc <xprintf+0xa8>
xputc():
/home/tututu/qimeng/simulator/baremetal/rt-thread-am-master/bsp/abstract-machine/../../../lib/xprintf.c:31
80000f6c:	00178693          	addi	a3,a5,1
80000f70:	62db2c23          	sw	a3,1592(s6)
80000f74:	00a78023          	sb	a0,0(a5)
xputs():
/home/tututu/qimeng/simulator/baremetal/rt-thread-am-master/bsp/abstract-machine/../../../lib/xprintf.c:47
80000f78:	00044503          	lbu	a0,0(s0)
80000f7c:	fa0502e3          	beq	a0,zero,80000f20 <xprintf+0x2cc>
xputc():
/home/tututu/qimeng/simulator/baremetal/rt-thread-am-master/bsp/abstract-machine/../../../lib/xprintf.c:30
80000f80:	638b2783          	lw	a5,1592(s6)
xputs():
/home/tututu/qimeng/simulator/baremetal/rt-thread-am-master/bsp/abstract-machine/../../../lib/xprintf.c:48
80000f84:	00140413          	addi	s0,s0,1
xputc():
/home/tututu/qimeng/simulator/baremetal/rt-thread-am-master/bsp/abstract-machine/../../../lib/xprintf.c:30
80000f88:	fe0792e3          	bne	a5,zero,80000f6c <xprintf+0x318>
/home/tututu/qimeng/simulator/baremetal/rt-thread-am-master/bsp/abstract-machine/../../../lib/xprintf.c:35
80000f8c:	63c9a783          	lw	a5,1596(s3)
80000f90:	fe0784e3          	beq	a5,zero,80000f78 <xprintf+0x324>
80000f94:	000780e7          	jalr	ra,0(a5)
80000f98:	fe1ff06f          	jal	zero,80000f78 <xprintf+0x324>
xvprintf():
/home/tututu/qimeng/simulator/baremetal/rt-thread-am-master/bsp/abstract-machine/../../../lib/xprintf.c:127
80000f9c:	004bf793          	andi	a5,s7,4
/home/tututu/qimeng/simulator/baremetal/rt-thread-am-master/bsp/abstract-machine/../../../lib/xprintf.c:116
80000fa0:	00800d13          	addi	s10,zero,8
/home/tututu/qimeng/simulator/baremetal/rt-thread-am-master/bsp/abstract-machine/../../../lib/xprintf.c:127
80000fa4:	26079e63          	bne	a5,zero,80001220 <xprintf+0x5cc>
80000fa8:	00412783          	lw	a5,4(sp)
80000fac:	00012423          	sw	zero,8(sp)
80000fb0:	0007aa83          	lw	s5,0(a5)
80000fb4:	00478793          	addi	a5,a5,4
80000fb8:	00f12223          	sw	a5,4(sp)
/home/tututu/qimeng/simulator/baremetal/rt-thread-am-master/bsp/abstract-machine/../../../lib/xprintf.c:132
80000fbc:	07800793          	addi	a5,zero,120
80000fc0:	00700d93          	addi	s11,zero,7
80000fc4:	00f51463          	bne	a0,a5,80000fcc <xprintf+0x378>
80000fc8:	02700d93          	addi	s11,zero,39
80000fcc:	0ffdf793          	andi	a5,s11,255
80000fd0:	00f12023          	sw	a5,0(sp)
80000fd4:	00000d93          	addi	s11,zero,0
/home/tututu/qimeng/simulator/baremetal/rt-thread-am-master/bsp/abstract-machine/../../../lib/xprintf.c:135
80000fd8:	00900c93          	addi	s9,zero,9
80000fdc:	0080006f          	jal	zero,80000fe4 <xprintf+0x390>
80000fe0:	00040d93          	addi	s11,s0,0
/home/tututu/qimeng/simulator/baremetal/rt-thread-am-master/bsp/abstract-machine/../../../lib/xprintf.c:134
80000fe4:	000d0593          	addi	a1,s10,0
80000fe8:	000a8513          	addi	a0,s5,0
80000fec:	2f0000ef          	jal	ra,800012dc <__umodsi3>
80000ff0:	00050413          	addi	s0,a0,0
80000ff4:	000d0593          	addi	a1,s10,0
80000ff8:	000a8513          	addi	a0,s5,0
80000ffc:	298000ef          	jal	ra,80001294 <__udivsi3>
80001000:	000a8813          	addi	a6,s5,0
80001004:	0ff47793          	andi	a5,s0,255
80001008:	00050a93          	addi	s5,a0,0
/home/tututu/qimeng/simulator/baremetal/rt-thread-am-master/bsp/abstract-machine/../../../lib/xprintf.c:135
8000100c:	008cf863          	bgeu	s9,s0,8000101c <xprintf+0x3c8>
80001010:	00012703          	lw	a4,0(sp)
80001014:	00e787b3          	add	a5,a5,a4
80001018:	0ff7f793          	andi	a5,a5,255
/home/tututu/qimeng/simulator/baremetal/rt-thread-am-master/bsp/abstract-machine/../../../lib/xprintf.c:136
8000101c:	001d8413          	addi	s0,s11,1
80001020:	00890533          	add	a0,s2,s0
80001024:	03078793          	addi	a5,a5,48
80001028:	fef50fa3          	sb	a5,-1(a0)
/home/tututu/qimeng/simulator/baremetal/rt-thread-am-master/bsp/abstract-machine/../../../lib/xprintf.c:137
8000102c:	01a86663          	bltu	a6,s10,80001038 <xprintf+0x3e4>
80001030:	fb4418e3          	bne	s0,s4,80000fe0 <xprintf+0x38c>
80001034:	00f00d93          	addi	s11,zero,15
/home/tututu/qimeng/simulator/baremetal/rt-thread-am-master/bsp/abstract-machine/../../../lib/xprintf.c:138
80001038:	00812783          	lw	a5,8(sp)
8000103c:	00078e63          	beq	a5,zero,80001058 <xprintf+0x404>
80001040:	02040793          	addi	a5,s0,32
80001044:	01010713          	addi	a4,sp,16
80001048:	00e78433          	add	s0,a5,a4
8000104c:	02d00793          	addi	a5,zero,45
80001050:	fef40823          	sb	a5,-16(s0)
80001054:	002d8413          	addi	s0,s11,2
/home/tututu/qimeng/simulator/baremetal/rt-thread-am-master/bsp/abstract-machine/../../../lib/xprintf.c:139
80001058:	001bfd13          	andi	s10,s7,1
8000105c:	004d1d13          	slli	s10,s10,0x4
/home/tututu/qimeng/simulator/baremetal/rt-thread-am-master/bsp/abstract-machine/../../../lib/xprintf.c:140
80001060:	002bfb93          	andi	s7,s7,2
xputc():
/home/tututu/qimeng/simulator/baremetal/rt-thread-am-master/bsp/abstract-machine/../../../lib/xprintf.c:30
80001064:	638b2783          	lw	a5,1592(s6)
xvprintf():
/home/tututu/qimeng/simulator/baremetal/rt-thread-am-master/bsp/abstract-machine/../../../lib/xprintf.c:139
80001068:	020d0d13          	addi	s10,s10,32
/home/tututu/qimeng/simulator/baremetal/rt-thread-am-master/bsp/abstract-machine/../../../lib/xprintf.c:140
8000106c:	00140c93          	addi	s9,s0,1
80001070:	1c0b9663          	bne	s7,zero,8000123c <xprintf+0x5e8>
80001074:	1c947863          	bgeu	s0,s1,80001244 <xprintf+0x5f0>
80001078:	00148b93          	addi	s7,s1,1
xputc():
/home/tututu/qimeng/simulator/baremetal/rt-thread-am-master/bsp/abstract-machine/../../../lib/xprintf.c:30
8000107c:	0a078663          	beq	a5,zero,80001128 <xprintf+0x4d4>
/home/tututu/qimeng/simulator/baremetal/rt-thread-am-master/bsp/abstract-machine/../../../lib/xprintf.c:31
80001080:	00178613          	addi	a2,a5,1
80001084:	01a78023          	sb	s10,0(a5)
80001088:	62cb2c23          	sw	a2,1592(s6)
/home/tututu/qimeng/simulator/baremetal/rt-thread-am-master/bsp/abstract-machine/../../../lib/xprintf.c:32
8000108c:	000c8693          	addi	a3,s9,0
80001090:	00060793          	addi	a5,a2,0
xvprintf():
/home/tututu/qimeng/simulator/baremetal/rt-thread-am-master/bsp/abstract-machine/../../../lib/xprintf.c:140
80001094:	001c8c93          	addi	s9,s9,1
80001098:	fe9692e3          	bne	a3,s1,8000107c <xprintf+0x428>
8000109c:	00890433          	add	s0,s2,s0
800010a0:	01c0006f          	jal	zero,800010bc <xprintf+0x468>
xputc():
/home/tututu/qimeng/simulator/baremetal/rt-thread-am-master/bsp/abstract-machine/../../../lib/xprintf.c:31
800010a4:	00178693          	addi	a3,a5,1
800010a8:	62db2c23          	sw	a3,1592(s6)
800010ac:	00a78023          	sb	a0,0(a5)
xvprintf():
/home/tututu/qimeng/simulator/baremetal/rt-thread-am-master/bsp/abstract-machine/../../../lib/xprintf.c:141
800010b0:	fff40413          	addi	s0,s0,-1
800010b4:	02890263          	beq	s2,s0,800010d8 <xprintf+0x484>
xputc():
/home/tututu/qimeng/simulator/baremetal/rt-thread-am-master/bsp/abstract-machine/../../../lib/xprintf.c:30
800010b8:	638b2783          	lw	a5,1592(s6)
xvprintf():
/home/tututu/qimeng/simulator/baremetal/rt-thread-am-master/bsp/abstract-machine/../../../lib/xprintf.c:141
800010bc:	fff44503          	lbu	a0,-1(s0)
xputc():
/home/tututu/qimeng/simulator/baremetal/rt-thread-am-master/bsp/abstract-machine/../../../lib/xprintf.c:30
800010c0:	fe0792e3          	bne	a5,zero,800010a4 <xprintf+0x450>
/home/tututu/qimeng/simulator/baremetal/rt-thread-am-master/bsp/abstract-machine/../../../lib/xprintf.c:35
800010c4:	63c9a783          	lw	a5,1596(s3)
800010c8:	fe0784e3          	beq	a5,zero,800010b0 <xprintf+0x45c>
xvprintf():
/home/tututu/qimeng/simulator/baremetal/rt-thread-am-master/bsp/abstract-machine/../../../lib/xprintf.c:141
800010cc:	fff40413          	addi	s0,s0,-1
xputc():
/home/tututu/qimeng/simulator/baremetal/rt-thread-am-master/bsp/abstract-machine/../../../lib/xprintf.c:35
800010d0:	000780e7          	jalr	ra,0(a5)
xvprintf():
/home/tututu/qimeng/simulator/baremetal/rt-thread-am-master/bsp/abstract-machine/../../../lib/xprintf.c:141
800010d4:	fe8912e3          	bne	s2,s0,800010b8 <xprintf+0x464>
/home/tututu/qimeng/simulator/baremetal/rt-thread-am-master/bsp/abstract-machine/../../../lib/xprintf.c:142
800010d8:	001b8413          	addi	s0,s7,1
800010dc:	029be263          	bltu	s7,s1,80001100 <xprintf+0x4ac>
800010e0:	c1dff06f          	jal	zero,80000cfc <xprintf+0xa8>
xputc():
/home/tututu/qimeng/simulator/baremetal/rt-thread-am-master/bsp/abstract-machine/../../../lib/xprintf.c:31
800010e4:	00178693          	addi	a3,a5,1
800010e8:	62db2c23          	sw	a3,1592(s6)
800010ec:	02000693          	addi	a3,zero,32
800010f0:	00d78023          	sb	a3,0(a5)
xvprintf():
/home/tututu/qimeng/simulator/baremetal/rt-thread-am-master/bsp/abstract-machine/../../../lib/xprintf.c:142
800010f4:	00140793          	addi	a5,s0,1
800010f8:	c08482e3          	beq	s1,s0,80000cfc <xprintf+0xa8>
800010fc:	00078413          	addi	s0,a5,0
xputc():
/home/tututu/qimeng/simulator/baremetal/rt-thread-am-master/bsp/abstract-machine/../../../lib/xprintf.c:30
80001100:	638b2783          	lw	a5,1592(s6)
80001104:	fe0790e3          	bne	a5,zero,800010e4 <xprintf+0x490>
/home/tututu/qimeng/simulator/baremetal/rt-thread-am-master/bsp/abstract-machine/../../../lib/xprintf.c:35
80001108:	63c9a783          	lw	a5,1596(s3)
8000110c:	fe0784e3          	beq	a5,zero,800010f4 <xprintf+0x4a0>
80001110:	02000513          	addi	a0,zero,32
80001114:	000780e7          	jalr	ra,0(a5)
80001118:	fddff06f          	jal	zero,800010f4 <xprintf+0x4a0>
xvprintf():
/home/tututu/qimeng/simulator/baremetal/rt-thread-am-master/bsp/abstract-machine/../../../lib/xprintf.c:140
8000111c:	001c8693          	addi	a3,s9,1
80001120:	f69c8ee3          	beq	s9,s1,8000109c <xprintf+0x448>
80001124:	00068c93          	addi	s9,a3,0
xputc():
/home/tututu/qimeng/simulator/baremetal/rt-thread-am-master/bsp/abstract-machine/../../../lib/xprintf.c:35
80001128:	63c9a683          	lw	a3,1596(s3)
8000112c:	fe0688e3          	beq	a3,zero,8000111c <xprintf+0x4c8>
80001130:	000d0513          	addi	a0,s10,0
80001134:	000680e7          	jalr	ra,0(a3)
/home/tututu/qimeng/simulator/baremetal/rt-thread-am-master/bsp/abstract-machine/../../../lib/xprintf.c:30
80001138:	638b2783          	lw	a5,1592(s6)
8000113c:	000c8693          	addi	a3,s9,0
80001140:	f55ff06f          	jal	zero,80001094 <xprintf+0x440>
xvprintf():
/home/tututu/qimeng/simulator/baremetal/rt-thread-am-master/bsp/abstract-machine/../../../lib/xprintf.c:127
80001144:	004bf793          	andi	a5,s7,4
/home/tututu/qimeng/simulator/baremetal/rt-thread-am-master/bsp/abstract-machine/../../../lib/xprintf.c:121
80001148:	01000d13          	addi	s10,zero,16
/home/tututu/qimeng/simulator/baremetal/rt-thread-am-master/bsp/abstract-machine/../../../lib/xprintf.c:127
8000114c:	e4078ee3          	beq	a5,zero,80000fa8 <xprintf+0x354>
80001150:	00412783          	lw	a5,4(sp)
80001154:	00012423          	sw	zero,8(sp)
/home/tututu/qimeng/simulator/baremetal/rt-thread-am-master/bsp/abstract-machine/../../../lib/xprintf.c:121
80001158:	01000d13          	addi	s10,zero,16
/home/tututu/qimeng/simulator/baremetal/rt-thread-am-master/bsp/abstract-machine/../../../lib/xprintf.c:127
8000115c:	0007aa83          	lw	s5,0(a5)
80001160:	00478793          	addi	a5,a5,4
80001164:	00f12223          	sw	a5,4(sp)
80001168:	e55ff06f          	jal	zero,80000fbc <xprintf+0x368>
8000116c:	004bf793          	andi	a5,s7,4
/home/tututu/qimeng/simulator/baremetal/rt-thread-am-master/bsp/abstract-machine/../../../lib/xprintf.c:114
80001170:	00200d13          	addi	s10,zero,2
/home/tututu/qimeng/simulator/baremetal/rt-thread-am-master/bsp/abstract-machine/../../../lib/xprintf.c:127
80001174:	e2078ae3          	beq	a5,zero,80000fa8 <xprintf+0x354>
80001178:	00412783          	lw	a5,4(sp)
/home/tututu/qimeng/simulator/baremetal/rt-thread-am-master/bsp/abstract-machine/../../../lib/xprintf.c:114
8000117c:	00200d13          	addi	s10,zero,2
/home/tututu/qimeng/simulator/baremetal/rt-thread-am-master/bsp/abstract-machine/../../../lib/xprintf.c:127
80001180:	00012423          	sw	zero,8(sp)
80001184:	0007aa83          	lw	s5,0(a5)
80001188:	00478793          	addi	a5,a5,4
8000118c:	00f12223          	sw	a5,4(sp)
80001190:	e2dff06f          	jal	zero,80000fbc <xprintf+0x368>
xputc():
/home/tututu/qimeng/simulator/baremetal/rt-thread-am-master/bsp/abstract-machine/../../../lib/xprintf.c:35
80001194:	63c9a783          	lw	a5,1596(s3)
80001198:	00068c13          	addi	s8,a3,0
8000119c:	b60780e3          	beq	a5,zero,80000cfc <xprintf+0xa8>
800011a0:	000780e7          	jalr	ra,0(a5)
800011a4:	b59ff06f          	jal	zero,80000cfc <xprintf+0xa8>
xvprintf():
/home/tututu/qimeng/simulator/baremetal/rt-thread-am-master/bsp/abstract-machine/../../../lib/xprintf.c:89
800011a8:	002c4503          	lbu	a0,2(s8)
800011ac:	00100b93          	addi	s7,zero,1
800011b0:	003c0c13          	addi	s8,s8,3
800011b4:	b79ff06f          	jal	zero,80000d2c <xprintf+0xd8>
/home/tututu/qimeng/simulator/baremetal/rt-thread-am-master/bsp/abstract-machine/../../../lib/xprintf.c:92
800011b8:	002c4503          	lbu	a0,2(s8)
800011bc:	00200b93          	addi	s7,zero,2
800011c0:	003c0c13          	addi	s8,s8,3
800011c4:	b69ff06f          	jal	zero,80000d2c <xprintf+0xd8>
xputc():
/home/tututu/qimeng/simulator/baremetal/rt-thread-am-master/bsp/abstract-machine/../../../lib/xprintf.c:35
800011c8:	63c9a783          	lw	a5,1596(s3)
xvprintf():
/home/tututu/qimeng/simulator/baremetal/rt-thread-am-master/bsp/abstract-machine/../../../lib/xprintf.c:112
800011cc:	01512223          	sw	s5,4(sp)
xputc():
/home/tututu/qimeng/simulator/baremetal/rt-thread-am-master/bsp/abstract-machine/../../../lib/xprintf.c:35
800011d0:	fc0798e3          	bne	a5,zero,800011a0 <xprintf+0x54c>
800011d4:	b29ff06f          	jal	zero,80000cfc <xprintf+0xa8>
800011d8:	63c9a783          	lw	a5,1596(s3)
800011dc:	fc0792e3          	bne	a5,zero,800011a0 <xprintf+0x54c>
800011e0:	b1dff06f          	jal	zero,80000cfc <xprintf+0xa8>
xputs():
/home/tututu/qimeng/simulator/baremetal/rt-thread-am-master/bsp/abstract-machine/../../../lib/xprintf.c:47
800011e4:	00044503          	lbu	a0,0(s0)
xvprintf():
/home/tututu/qimeng/simulator/baremetal/rt-thread-am-master/bsp/abstract-machine/../../../lib/xprintf.c:107
800011e8:	419487b3          	sub	a5,s1,s9
800011ec:	001c8c93          	addi	s9,s9,1
800011f0:	01978cb3          	add	s9,a5,s9
/home/tututu/qimeng/simulator/baremetal/rt-thread-am-master/bsp/abstract-machine/../../../lib/xprintf.c:109
800011f4:	001c8b93          	addi	s7,s9,1
xputs():
/home/tututu/qimeng/simulator/baremetal/rt-thread-am-master/bsp/abstract-machine/../../../lib/xprintf.c:47
800011f8:	d80514e3          	bne	a0,zero,80000f80 <xprintf+0x32c>
800011fc:	d25ff06f          	jal	zero,80000f20 <xprintf+0x2cc>
xvprintf():
/home/tututu/qimeng/simulator/baremetal/rt-thread-am-master/bsp/abstract-machine/../../../lib/xprintf.c:127
80001200:	04400793          	addi	a5,zero,68
80001204:	08f61063          	bne	a2,a5,80001284 <xprintf+0x630>
/home/tututu/qimeng/simulator/baremetal/rt-thread-am-master/bsp/abstract-machine/../../../lib/xprintf.c:105
80001208:	00412703          	lw	a4,4(sp)
8000120c:	00072783          	lw	a5,0(a4)
/home/tututu/qimeng/simulator/baremetal/rt-thread-am-master/bsp/abstract-machine/../../../lib/xprintf.c:127
80001210:	00470713          	addi	a4,a4,4
80001214:	00e12223          	sw	a4,4(sp)
80001218:	00078a93          	addi	s5,a5,0
/home/tututu/qimeng/simulator/baremetal/rt-thread-am-master/bsp/abstract-machine/../../../lib/xprintf.c:128
8000121c:	c1dff06f          	jal	zero,80000e38 <xprintf+0x1e4>
/home/tututu/qimeng/simulator/baremetal/rt-thread-am-master/bsp/abstract-machine/../../../lib/xprintf.c:127
80001220:	00412783          	lw	a5,4(sp)
/home/tututu/qimeng/simulator/baremetal/rt-thread-am-master/bsp/abstract-machine/../../../lib/xprintf.c:116
80001224:	00800d13          	addi	s10,zero,8
/home/tututu/qimeng/simulator/baremetal/rt-thread-am-master/bsp/abstract-machine/../../../lib/xprintf.c:127
80001228:	00012423          	sw	zero,8(sp)
8000122c:	0007aa83          	lw	s5,0(a5)
80001230:	00478793          	addi	a5,a5,4
80001234:	00f12223          	sw	a5,4(sp)
80001238:	d85ff06f          	jal	zero,80000fbc <xprintf+0x368>
/home/tututu/qimeng/simulator/baremetal/rt-thread-am-master/bsp/abstract-machine/../../../lib/xprintf.c:140
8000123c:	00040b93          	addi	s7,s0,0
80001240:	e5dff06f          	jal	zero,8000109c <xprintf+0x448>
80001244:	000c8b93          	addi	s7,s9,0
80001248:	e55ff06f          	jal	zero,8000109c <xprintf+0x448>
/home/tututu/qimeng/simulator/baremetal/rt-thread-am-master/bsp/abstract-machine/../../../lib/xprintf.c:107
8000124c:	020b9063          	bne	s7,zero,8000126c <xprintf+0x618>
80001250:	00100c93          	addi	s9,zero,1
80001254:	c60496e3          	bne	s1,zero,80000ec0 <xprintf+0x26c>
/home/tututu/qimeng/simulator/baremetal/rt-thread-am-master/bsp/abstract-machine/../../../lib/xprintf.c:105
80001258:	01512223          	sw	s5,4(sp)
8000125c:	aa1ff06f          	jal	zero,80000cfc <xprintf+0xa8>
/home/tututu/qimeng/simulator/baremetal/rt-thread-am-master/bsp/abstract-machine/../../../lib/xprintf.c:107
80001260:	000c8b93          	addi	s7,s9,0
/home/tututu/qimeng/simulator/baremetal/rt-thread-am-master/bsp/abstract-machine/../../../lib/xprintf.c:106
80001264:	00068c93          	addi	s9,a3,0
80001268:	d19ff06f          	jal	zero,80000f80 <xprintf+0x32c>
/home/tututu/qimeng/simulator/baremetal/rt-thread-am-master/bsp/abstract-machine/../../../lib/xprintf.c:107
8000126c:	00100b93          	addi	s7,zero,1
/home/tututu/qimeng/simulator/baremetal/rt-thread-am-master/bsp/abstract-machine/../../../lib/xprintf.c:106
80001270:	00000c93          	addi	s9,zero,0
80001274:	cadff06f          	jal	zero,80000f20 <xprintf+0x2cc>
80001278:	00a00d13          	addi	s10,zero,10
/home/tututu/qimeng/simulator/baremetal/rt-thread-am-master/bsp/abstract-machine/../../../lib/xprintf.c:127
8000127c:	00012423          	sw	zero,8(sp)
80001280:	d3dff06f          	jal	zero,80000fbc <xprintf+0x368>
80001284:	00a00d13          	addi	s10,zero,10
80001288:	d21ff06f          	jal	zero,80000fa8 <xprintf+0x354>

8000128c <__divsi3>:
__divsi3():
/home/jinpengwei/riscv-gnu-toolchain/build-gcc-newlib-stage2/riscv32-unknown-elf/libgcc/../../.././riscv-gcc/libgcc/config/riscv/div.S:69
8000128c:	06054063          	blt	a0,zero,800012ec <__umodsi3+0x10>
/home/jinpengwei/riscv-gnu-toolchain/build-gcc-newlib-stage2/riscv32-unknown-elf/libgcc/../../.././riscv-gcc/libgcc/config/riscv/div.S:70
80001290:	0605c663          	blt	a1,zero,800012fc <__umodsi3+0x20>

80001294 <__udivsi3>:
/home/jinpengwei/riscv-gnu-toolchain/build-gcc-newlib-stage2/riscv32-unknown-elf/libgcc/../../.././riscv-gcc/libgcc/config/riscv/div.S:74
80001294:	00058613          	addi	a2,a1,0
/home/jinpengwei/riscv-gnu-toolchain/build-gcc-newlib-stage2/riscv32-unknown-elf/libgcc/../../.././riscv-gcc/libgcc/config/riscv/div.S:75
80001298:	00050593          	addi	a1,a0,0
/home/jinpengwei/riscv-gnu-toolchain/build-gcc-newlib-stage2/riscv32-unknown-elf/libgcc/../../.././riscv-gcc/libgcc/config/riscv/div.S:76
8000129c:	fff00513          	addi	a0,zero,-1
/home/jinpengwei/riscv-gnu-toolchain/build-gcc-newlib-stage2/riscv32-unknown-elf/libgcc/../../.././riscv-gcc/libgcc/config/riscv/div.S:77
800012a0:	02060c63          	beq	a2,zero,800012d8 <__udivsi3+0x44>
/home/jinpengwei/riscv-gnu-toolchain/build-gcc-newlib-stage2/riscv32-unknown-elf/libgcc/../../.././riscv-gcc/libgcc/config/riscv/div.S:78
800012a4:	00100693          	addi	a3,zero,1
/home/jinpengwei/riscv-gnu-toolchain/build-gcc-newlib-stage2/riscv32-unknown-elf/libgcc/../../.././riscv-gcc/libgcc/config/riscv/div.S:79
800012a8:	00b67a63          	bgeu	a2,a1,800012bc <__udivsi3+0x28>
/home/jinpengwei/riscv-gnu-toolchain/build-gcc-newlib-stage2/riscv32-unknown-elf/libgcc/../../.././riscv-gcc/libgcc/config/riscv/div.S:81
800012ac:	00c05863          	bge	zero,a2,800012bc <__udivsi3+0x28>
/home/jinpengwei/riscv-gnu-toolchain/build-gcc-newlib-stage2/riscv32-unknown-elf/libgcc/../../.././riscv-gcc/libgcc/config/riscv/div.S:82
800012b0:	00161613          	slli	a2,a2,0x1
/home/jinpengwei/riscv-gnu-toolchain/build-gcc-newlib-stage2/riscv32-unknown-elf/libgcc/../../.././riscv-gcc/libgcc/config/riscv/div.S:83
800012b4:	00169693          	slli	a3,a3,0x1
/home/jinpengwei/riscv-gnu-toolchain/build-gcc-newlib-stage2/riscv32-unknown-elf/libgcc/../../.././riscv-gcc/libgcc/config/riscv/div.S:84
800012b8:	feb66ae3          	bltu	a2,a1,800012ac <__udivsi3+0x18>
/home/jinpengwei/riscv-gnu-toolchain/build-gcc-newlib-stage2/riscv32-unknown-elf/libgcc/../../.././riscv-gcc/libgcc/config/riscv/div.S:86
800012bc:	00000513          	addi	a0,zero,0
/home/jinpengwei/riscv-gnu-toolchain/build-gcc-newlib-stage2/riscv32-unknown-elf/libgcc/../../.././riscv-gcc/libgcc/config/riscv/div.S:88
800012c0:	00c5e663          	bltu	a1,a2,800012cc <__udivsi3+0x38>
/home/jinpengwei/riscv-gnu-toolchain/build-gcc-newlib-stage2/riscv32-unknown-elf/libgcc/../../.././riscv-gcc/libgcc/config/riscv/div.S:89
800012c4:	40c585b3          	sub	a1,a1,a2
/home/jinpengwei/riscv-gnu-toolchain/build-gcc-newlib-stage2/riscv32-unknown-elf/libgcc/../../.././riscv-gcc/libgcc/config/riscv/div.S:90
800012c8:	00d56533          	or	a0,a0,a3
/home/jinpengwei/riscv-gnu-toolchain/build-gcc-newlib-stage2/riscv32-unknown-elf/libgcc/../../.././riscv-gcc/libgcc/config/riscv/div.S:92
800012cc:	0016d693          	srli	a3,a3,0x1
/home/jinpengwei/riscv-gnu-toolchain/build-gcc-newlib-stage2/riscv32-unknown-elf/libgcc/../../.././riscv-gcc/libgcc/config/riscv/div.S:93
800012d0:	00165613          	srli	a2,a2,0x1
/home/jinpengwei/riscv-gnu-toolchain/build-gcc-newlib-stage2/riscv32-unknown-elf/libgcc/../../.././riscv-gcc/libgcc/config/riscv/div.S:94
800012d4:	fe0696e3          	bne	a3,zero,800012c0 <__udivsi3+0x2c>
/home/jinpengwei/riscv-gnu-toolchain/build-gcc-newlib-stage2/riscv32-unknown-elf/libgcc/../../.././riscv-gcc/libgcc/config/riscv/div.S:96
800012d8:	00008067          	jalr	zero,0(ra)

800012dc <__umodsi3>:
/home/jinpengwei/riscv-gnu-toolchain/build-gcc-newlib-stage2/riscv32-unknown-elf/libgcc/../../.././riscv-gcc/libgcc/config/riscv/div.S:101
800012dc:	00008293          	addi	t0,ra,0
/home/jinpengwei/riscv-gnu-toolchain/build-gcc-newlib-stage2/riscv32-unknown-elf/libgcc/../../.././riscv-gcc/libgcc/config/riscv/div.S:102
800012e0:	fb5ff0ef          	jal	ra,80001294 <__udivsi3>
/home/jinpengwei/riscv-gnu-toolchain/build-gcc-newlib-stage2/riscv32-unknown-elf/libgcc/../../.././riscv-gcc/libgcc/config/riscv/div.S:103
800012e4:	00058513          	addi	a0,a1,0
/home/jinpengwei/riscv-gnu-toolchain/build-gcc-newlib-stage2/riscv32-unknown-elf/libgcc/../../.././riscv-gcc/libgcc/config/riscv/div.S:104
800012e8:	00028067          	jalr	zero,0(t0)
/home/jinpengwei/riscv-gnu-toolchain/build-gcc-newlib-stage2/riscv32-unknown-elf/libgcc/../../.././riscv-gcc/libgcc/config/riscv/div.S:109
800012ec:	40a00533          	sub	a0,zero,a0
/home/jinpengwei/riscv-gnu-toolchain/build-gcc-newlib-stage2/riscv32-unknown-elf/libgcc/../../.././riscv-gcc/libgcc/config/riscv/div.S:111
800012f0:	00b04863          	blt	zero,a1,80001300 <__umodsi3+0x24>
/home/jinpengwei/riscv-gnu-toolchain/build-gcc-newlib-stage2/riscv32-unknown-elf/libgcc/../../.././riscv-gcc/libgcc/config/riscv/div.S:113
800012f4:	40b005b3          	sub	a1,zero,a1
/home/jinpengwei/riscv-gnu-toolchain/build-gcc-newlib-stage2/riscv32-unknown-elf/libgcc/../../.././riscv-gcc/libgcc/config/riscv/div.S:114
800012f8:	f9dff06f          	jal	zero,80001294 <__udivsi3>
/home/jinpengwei/riscv-gnu-toolchain/build-gcc-newlib-stage2/riscv32-unknown-elf/libgcc/../../.././riscv-gcc/libgcc/config/riscv/div.S:116
800012fc:	40b005b3          	sub	a1,zero,a1
/home/jinpengwei/riscv-gnu-toolchain/build-gcc-newlib-stage2/riscv32-unknown-elf/libgcc/../../.././riscv-gcc/libgcc/config/riscv/div.S:118
80001300:	00008293          	addi	t0,ra,0
/home/jinpengwei/riscv-gnu-toolchain/build-gcc-newlib-stage2/riscv32-unknown-elf/libgcc/../../.././riscv-gcc/libgcc/config/riscv/div.S:119
80001304:	f91ff0ef          	jal	ra,80001294 <__udivsi3>
/home/jinpengwei/riscv-gnu-toolchain/build-gcc-newlib-stage2/riscv32-unknown-elf/libgcc/../../.././riscv-gcc/libgcc/config/riscv/div.S:120
80001308:	40a00533          	sub	a0,zero,a0
/home/jinpengwei/riscv-gnu-toolchain/build-gcc-newlib-stage2/riscv32-unknown-elf/libgcc/../../.././riscv-gcc/libgcc/config/riscv/div.S:121
8000130c:	00028067          	jalr	zero,0(t0)

80001310 <__modsi3>:
__modsi3():
/home/jinpengwei/riscv-gnu-toolchain/build-gcc-newlib-stage2/riscv32-unknown-elf/libgcc/../../.././riscv-gcc/libgcc/config/riscv/div.S:125
80001310:	00008293          	addi	t0,ra,0
/home/jinpengwei/riscv-gnu-toolchain/build-gcc-newlib-stage2/riscv32-unknown-elf/libgcc/../../.././riscv-gcc/libgcc/config/riscv/div.S:126
80001314:	0005ca63          	blt	a1,zero,80001328 <__modsi3+0x18>
/home/jinpengwei/riscv-gnu-toolchain/build-gcc-newlib-stage2/riscv32-unknown-elf/libgcc/../../.././riscv-gcc/libgcc/config/riscv/div.S:127
80001318:	00054c63          	blt	a0,zero,80001330 <__modsi3+0x20>
/home/jinpengwei/riscv-gnu-toolchain/build-gcc-newlib-stage2/riscv32-unknown-elf/libgcc/../../.././riscv-gcc/libgcc/config/riscv/div.S:129
8000131c:	f79ff0ef          	jal	ra,80001294 <__udivsi3>
/home/jinpengwei/riscv-gnu-toolchain/build-gcc-newlib-stage2/riscv32-unknown-elf/libgcc/../../.././riscv-gcc/libgcc/config/riscv/div.S:130
80001320:	00058513          	addi	a0,a1,0
/home/jinpengwei/riscv-gnu-toolchain/build-gcc-newlib-stage2/riscv32-unknown-elf/libgcc/../../.././riscv-gcc/libgcc/config/riscv/div.S:131
80001324:	00028067          	jalr	zero,0(t0)
/home/jinpengwei/riscv-gnu-toolchain/build-gcc-newlib-stage2/riscv32-unknown-elf/libgcc/../../.././riscv-gcc/libgcc/config/riscv/div.S:133
80001328:	40b005b3          	sub	a1,zero,a1
/home/jinpengwei/riscv-gnu-toolchain/build-gcc-newlib-stage2/riscv32-unknown-elf/libgcc/../../.././riscv-gcc/libgcc/config/riscv/div.S:134
8000132c:	fe0558e3          	bge	a0,zero,8000131c <__modsi3+0xc>
/home/jinpengwei/riscv-gnu-toolchain/build-gcc-newlib-stage2/riscv32-unknown-elf/libgcc/../../.././riscv-gcc/libgcc/config/riscv/div.S:136
80001330:	40a00533          	sub	a0,zero,a0
/home/jinpengwei/riscv-gnu-toolchain/build-gcc-newlib-stage2/riscv32-unknown-elf/libgcc/../../.././riscv-gcc/libgcc/config/riscv/div.S:137
80001334:	f61ff0ef          	jal	ra,80001294 <__udivsi3>
/home/jinpengwei/riscv-gnu-toolchain/build-gcc-newlib-stage2/riscv32-unknown-elf/libgcc/../../.././riscv-gcc/libgcc/config/riscv/div.S:138
80001338:	40b00533          	sub	a0,zero,a1
/home/jinpengwei/riscv-gnu-toolchain/build-gcc-newlib-stage2/riscv32-unknown-elf/libgcc/../../.././riscv-gcc/libgcc/config/riscv/div.S:139
8000133c:	00028067          	jalr	zero,0(t0)

80001340 <memcpy>:
memcpy():
80001340:	00b547b3          	xor	a5,a0,a1
80001344:	0037f793          	andi	a5,a5,3
80001348:	00c508b3          	add	a7,a0,a2
8000134c:	06079663          	bne	a5,zero,800013b8 <memcpy+0x78>
80001350:	00300793          	addi	a5,zero,3
80001354:	06c7f263          	bgeu	a5,a2,800013b8 <memcpy+0x78>
80001358:	00357793          	andi	a5,a0,3
8000135c:	00050713          	addi	a4,a0,0
80001360:	0c079a63          	bne	a5,zero,80001434 <memcpy+0xf4>
80001364:	ffc8f613          	andi	a2,a7,-4
80001368:	40e606b3          	sub	a3,a2,a4
8000136c:	02000793          	addi	a5,zero,32
80001370:	02000293          	addi	t0,zero,32
80001374:	06d7c263          	blt	a5,a3,800013d8 <memcpy+0x98>
80001378:	00058693          	addi	a3,a1,0
8000137c:	00070793          	addi	a5,a4,0
80001380:	02c77863          	bgeu	a4,a2,800013b0 <memcpy+0x70>
80001384:	0006a803          	lw	a6,0(a3)
80001388:	00478793          	addi	a5,a5,4
8000138c:	00468693          	addi	a3,a3,4
80001390:	ff07ae23          	sw	a6,-4(a5)
80001394:	fec7e8e3          	bltu	a5,a2,80001384 <memcpy+0x44>
80001398:	fff60793          	addi	a5,a2,-1
8000139c:	40e787b3          	sub	a5,a5,a4
800013a0:	ffc7f793          	andi	a5,a5,-4
800013a4:	00478793          	addi	a5,a5,4
800013a8:	00f70733          	add	a4,a4,a5
800013ac:	00f585b3          	add	a1,a1,a5
800013b0:	01176863          	bltu	a4,a7,800013c0 <memcpy+0x80>
800013b4:	00008067          	jalr	zero,0(ra)
800013b8:	00050713          	addi	a4,a0,0
800013bc:	ff157ce3          	bgeu	a0,a7,800013b4 <memcpy+0x74>
800013c0:	0005c783          	lbu	a5,0(a1)
800013c4:	00170713          	addi	a4,a4,1
800013c8:	00158593          	addi	a1,a1,1
800013cc:	fef70fa3          	sb	a5,-1(a4)
800013d0:	ff1768e3          	bltu	a4,a7,800013c0 <memcpy+0x80>
800013d4:	00008067          	jalr	zero,0(ra)
800013d8:	0045a683          	lw	a3,4(a1)
800013dc:	01c5a783          	lw	a5,28(a1)
800013e0:	0005af83          	lw	t6,0(a1)
800013e4:	0085af03          	lw	t5,8(a1)
800013e8:	00c5ae83          	lw	t4,12(a1)
800013ec:	0105ae03          	lw	t3,16(a1)
800013f0:	0145a303          	lw	t1,20(a1)
800013f4:	0185a803          	lw	a6,24(a1)
800013f8:	00d72223          	sw	a3,4(a4)
800013fc:	0205a683          	lw	a3,32(a1)
80001400:	01f72023          	sw	t6,0(a4)
80001404:	01e72423          	sw	t5,8(a4)
80001408:	01d72623          	sw	t4,12(a4)
8000140c:	01c72823          	sw	t3,16(a4)
80001410:	00672a23          	sw	t1,20(a4)
80001414:	01072c23          	sw	a6,24(a4)
80001418:	00f72e23          	sw	a5,28(a4)
8000141c:	02470713          	addi	a4,a4,36
80001420:	40e607b3          	sub	a5,a2,a4
80001424:	fed72e23          	sw	a3,-4(a4)
80001428:	02458593          	addi	a1,a1,36
8000142c:	faf2c6e3          	blt	t0,a5,800013d8 <memcpy+0x98>
80001430:	f49ff06f          	jal	zero,80001378 <memcpy+0x38>
80001434:	0005c683          	lbu	a3,0(a1)
80001438:	00170713          	addi	a4,a4,1
8000143c:	00377793          	andi	a5,a4,3
80001440:	fed70fa3          	sb	a3,-1(a4)
80001444:	00158593          	addi	a1,a1,1
80001448:	f0078ee3          	beq	a5,zero,80001364 <memcpy+0x24>
8000144c:	0005c683          	lbu	a3,0(a1)
80001450:	00170713          	addi	a4,a4,1
80001454:	00377793          	andi	a5,a4,3
80001458:	fed70fa3          	sb	a3,-1(a4)
8000145c:	00158593          	addi	a1,a1,1
80001460:	fc079ae3          	bne	a5,zero,80001434 <memcpy+0xf4>
80001464:	f01ff06f          	jal	zero,80001364 <memcpy+0x24>

80001468 <strcmp>:
strcmp():
80001468:	00b56733          	or	a4,a0,a1
8000146c:	fff00393          	addi	t2,zero,-1
80001470:	00377713          	andi	a4,a4,3
80001474:	10071063          	bne	a4,zero,80001574 <strcmp+0x10c>
80001478:	7f7f87b7          	lui	a5,0x7f7f8
8000147c:	f7f78793          	addi	a5,a5,-129 # 7f7f7f7f <__stack_size+0x7d7f7f7f>
80001480:	00052603          	lw	a2,0(a0)
80001484:	0005a683          	lw	a3,0(a1)
80001488:	00f672b3          	and	t0,a2,a5
8000148c:	00f66333          	or	t1,a2,a5
80001490:	00f282b3          	add	t0,t0,a5
80001494:	0062e2b3          	or	t0,t0,t1
80001498:	10729263          	bne	t0,t2,8000159c <strcmp+0x134>
8000149c:	08d61663          	bne	a2,a3,80001528 <strcmp+0xc0>
800014a0:	00452603          	lw	a2,4(a0)
800014a4:	0045a683          	lw	a3,4(a1)
800014a8:	00f672b3          	and	t0,a2,a5
800014ac:	00f66333          	or	t1,a2,a5
800014b0:	00f282b3          	add	t0,t0,a5
800014b4:	0062e2b3          	or	t0,t0,t1
800014b8:	0c729e63          	bne	t0,t2,80001594 <strcmp+0x12c>
800014bc:	06d61663          	bne	a2,a3,80001528 <strcmp+0xc0>
800014c0:	00852603          	lw	a2,8(a0)
800014c4:	0085a683          	lw	a3,8(a1)
800014c8:	00f672b3          	and	t0,a2,a5
800014cc:	00f66333          	or	t1,a2,a5
800014d0:	00f282b3          	add	t0,t0,a5
800014d4:	0062e2b3          	or	t0,t0,t1
800014d8:	0c729863          	bne	t0,t2,800015a8 <strcmp+0x140>
800014dc:	04d61663          	bne	a2,a3,80001528 <strcmp+0xc0>
800014e0:	00c52603          	lw	a2,12(a0)
800014e4:	00c5a683          	lw	a3,12(a1)
800014e8:	00f672b3          	and	t0,a2,a5
800014ec:	00f66333          	or	t1,a2,a5
800014f0:	00f282b3          	add	t0,t0,a5
800014f4:	0062e2b3          	or	t0,t0,t1
800014f8:	0c729263          	bne	t0,t2,800015bc <strcmp+0x154>
800014fc:	02d61663          	bne	a2,a3,80001528 <strcmp+0xc0>
80001500:	01052603          	lw	a2,16(a0)
80001504:	0105a683          	lw	a3,16(a1)
80001508:	00f672b3          	and	t0,a2,a5
8000150c:	00f66333          	or	t1,a2,a5
80001510:	00f282b3          	add	t0,t0,a5
80001514:	0062e2b3          	or	t0,t0,t1
80001518:	0a729c63          	bne	t0,t2,800015d0 <strcmp+0x168>
8000151c:	01450513          	addi	a0,a0,20
80001520:	01458593          	addi	a1,a1,20
80001524:	f4d60ee3          	beq	a2,a3,80001480 <strcmp+0x18>
80001528:	01061713          	slli	a4,a2,0x10
8000152c:	01069793          	slli	a5,a3,0x10
80001530:	00f71e63          	bne	a4,a5,8000154c <strcmp+0xe4>
80001534:	01065713          	srli	a4,a2,0x10
80001538:	0106d793          	srli	a5,a3,0x10
8000153c:	40f70533          	sub	a0,a4,a5
80001540:	0ff57593          	andi	a1,a0,255
80001544:	02059063          	bne	a1,zero,80001564 <strcmp+0xfc>
80001548:	00008067          	jalr	zero,0(ra)
8000154c:	01075713          	srli	a4,a4,0x10
80001550:	0107d793          	srli	a5,a5,0x10
80001554:	40f70533          	sub	a0,a4,a5
80001558:	0ff57593          	andi	a1,a0,255
8000155c:	00059463          	bne	a1,zero,80001564 <strcmp+0xfc>
80001560:	00008067          	jalr	zero,0(ra)
80001564:	0ff77713          	andi	a4,a4,255
80001568:	0ff7f793          	andi	a5,a5,255
8000156c:	40f70533          	sub	a0,a4,a5
80001570:	00008067          	jalr	zero,0(ra)
80001574:	00054603          	lbu	a2,0(a0)
80001578:	0005c683          	lbu	a3,0(a1)
8000157c:	00150513          	addi	a0,a0,1
80001580:	00158593          	addi	a1,a1,1
80001584:	00d61463          	bne	a2,a3,8000158c <strcmp+0x124>
80001588:	fe0616e3          	bne	a2,zero,80001574 <strcmp+0x10c>
8000158c:	40d60533          	sub	a0,a2,a3
80001590:	00008067          	jalr	zero,0(ra)
80001594:	00450513          	addi	a0,a0,4
80001598:	00458593          	addi	a1,a1,4
8000159c:	fcd61ce3          	bne	a2,a3,80001574 <strcmp+0x10c>
800015a0:	00000513          	addi	a0,zero,0
800015a4:	00008067          	jalr	zero,0(ra)
800015a8:	00850513          	addi	a0,a0,8
800015ac:	00858593          	addi	a1,a1,8
800015b0:	fcd612e3          	bne	a2,a3,80001574 <strcmp+0x10c>
800015b4:	00000513          	addi	a0,zero,0
800015b8:	00008067          	jalr	zero,0(ra)
800015bc:	00c50513          	addi	a0,a0,12
800015c0:	00c58593          	addi	a1,a1,12
800015c4:	fad618e3          	bne	a2,a3,80001574 <strcmp+0x10c>
800015c8:	00000513          	addi	a0,zero,0
800015cc:	00008067          	jalr	zero,0(ra)
800015d0:	01050513          	addi	a0,a0,16
800015d4:	01058593          	addi	a1,a1,16
800015d8:	f8d61ee3          	bne	a2,a3,80001574 <strcmp+0x10c>
800015dc:	00000513          	addi	a0,zero,0
800015e0:	00008067          	jalr	zero,0(ra)

Disassembly of section .rodata.str1.4:

800015e4 <.rodata.str1.4>:
800015e4:	4844                	c.lw	s1,20(s0)
800015e6:	5952                	c.lwsp	s2,52(sp)
800015e8:	4e4f5453          	0x4e4f5453
800015ec:	2045                	c.jal	8000168c <strcmp+0x224>
800015ee:	5250                	c.lw	a2,36(a2)
800015f0:	4152474f          	fnmadd.s	fa4,ft4,fs5,fs0,rmm
800015f4:	2c4d                	c.jal	800018a6 <strcmp+0x43e>
800015f6:	5320                	c.lw	s0,96(a4)
800015f8:	20454d4f          	fnmadd.s	fs10,fa0,ft4,ft4,rmm
800015fc:	49525453          	0x49525453
80001600:	474e                	c.lwsp	a4,208(sp)
80001602:	0000                	c.unimp
80001604:	6e49                	c.lui	t3,0x12
80001606:	5f74                	c.lw	a3,124(a4)
80001608:	626f6c47          	fmsub.d	fs8,ft10,ft6,fa2,unknown
8000160c:	203a                	c.fldsp	ft0,392(sp)
8000160e:	2020                	c.fld	fs0,64(s0)
80001610:	2020                	c.fld	fs0,64(s0)
80001612:	2020                	c.fld	fs0,64(s0)
80001614:	2020                	c.fld	fs0,64(s0)
80001616:	2020                	c.fld	fs0,64(s0)
80001618:	2520                	c.fld	fs0,72(a0)
8000161a:	0a64                	c.addi4spn	s1,sp,284
8000161c:	0000                	c.unimp
8000161e:	0000                	c.unimp
80001620:	2020                	c.fld	fs0,64(s0)
80001622:	2020                	c.fld	fs0,64(s0)
80001624:	2020                	c.fld	fs0,64(s0)
80001626:	2020                	c.fld	fs0,64(s0)
80001628:	756f6873          	csrrsi	a6,0x756,30
8000162c:	646c                	c.flw	fa1,76(s0)
8000162e:	6220                	c.flw	fs0,64(a2)
80001630:	3a65                	c.jal	80000fe8 <xprintf+0x394>
80001632:	2020                	c.fld	fs0,64(s0)
80001634:	2520                	c.fld	fs0,72(a0)
80001636:	0a64                	c.addi4spn	s1,sp,284
80001638:	0000                	c.unimp
8000163a:	0000                	c.unimp
8000163c:	6f42                	c.flwsp	ft10,16(sp)
8000163e:	475f6c6f          	jal	s8,800f82b2 <__global_pointer+0xf3472>
80001642:	6f6c                	c.flw	fa1,92(a4)
80001644:	3a62                	c.fldsp	fs4,56(sp)
80001646:	2020                	c.fld	fs0,64(s0)
80001648:	2020                	c.fld	fs0,64(s0)
8000164a:	2020                	c.fld	fs0,64(s0)
8000164c:	2020                	c.fld	fs0,64(s0)
8000164e:	2020                	c.fld	fs0,64(s0)
80001650:	2520                	c.fld	fs0,72(a0)
80001652:	0a64                	c.addi4spn	s1,sp,284
80001654:	0000                	c.unimp
80001656:	0000                	c.unimp
80001658:	315f6843          	fmadd.s	fa6,ft10,fs5,ft6,unknown
8000165c:	475f 6f6c 3a62      	0x3a626f6c475f
80001662:	2020                	c.fld	fs0,64(s0)
80001664:	2020                	c.fld	fs0,64(s0)
80001666:	2020                	c.fld	fs0,64(s0)
80001668:	2020                	c.fld	fs0,64(s0)
8000166a:	2020                	c.fld	fs0,64(s0)
8000166c:	2520                	c.fld	fs0,72(a0)
8000166e:	00000a63          	beq	zero,zero,80001682 <strcmp+0x21a>
80001672:	0000                	c.unimp
80001674:	2020                	c.fld	fs0,64(s0)
80001676:	2020                	c.fld	fs0,64(s0)
80001678:	2020                	c.fld	fs0,64(s0)
8000167a:	2020                	c.fld	fs0,64(s0)
8000167c:	756f6873          	csrrsi	a6,0x756,30
80001680:	646c                	c.flw	fa1,76(s0)
80001682:	6220                	c.flw	fs0,64(a2)
80001684:	3a65                	c.jal	8000103c <xprintf+0x3e8>
80001686:	2020                	c.fld	fs0,64(s0)
80001688:	2520                	c.fld	fs0,72(a0)
8000168a:	00000a63          	beq	zero,zero,8000169e <strcmp+0x236>
8000168e:	0000                	c.unimp
80001690:	325f6843          	fmadd.d	fa6,ft10,ft5,ft6,unknown
80001694:	475f 6f6c 3a62      	0x3a626f6c475f
8000169a:	2020                	c.fld	fs0,64(s0)
8000169c:	2020                	c.fld	fs0,64(s0)
8000169e:	2020                	c.fld	fs0,64(s0)
800016a0:	2020                	c.fld	fs0,64(s0)
800016a2:	2020                	c.fld	fs0,64(s0)
800016a4:	2520                	c.fld	fs0,72(a0)
800016a6:	00000a63          	beq	zero,zero,800016ba <strcmp+0x252>
800016aa:	0000                	c.unimp
800016ac:	7241                	c.lui	tp,0xffff0
800016ae:	5f72                	c.lwsp	t5,60(sp)
800016b0:	5f31                	c.li	t5,-20
800016b2:	626f6c47          	fmsub.d	fs8,ft10,ft6,fa2,unknown
800016b6:	3a5d385b          	0x3a5d385b
800016ba:	2020                	c.fld	fs0,64(s0)
800016bc:	2020                	c.fld	fs0,64(s0)
800016be:	2020                	c.fld	fs0,64(s0)
800016c0:	2520                	c.fld	fs0,72(a0)
800016c2:	0a64                	c.addi4spn	s1,sp,284
800016c4:	0000                	c.unimp
800016c6:	0000                	c.unimp
800016c8:	7241                	c.lui	tp,0xffff0
800016ca:	5f72                	c.lwsp	t5,60(sp)
800016cc:	5f32                	c.lwsp	t5,44(sp)
800016ce:	626f6c47          	fmsub.d	fs8,ft10,ft6,fa2,unknown
800016d2:	5b5d385b          	0x5b5d385b
800016d6:	203a5d37          	lui	s10,0x203a5
800016da:	2020                	c.fld	fs0,64(s0)
800016dc:	2520                	c.fld	fs0,72(a0)
800016de:	0a64                	c.addi4spn	s1,sp,284
800016e0:	0000                	c.unimp
800016e2:	0000                	c.unimp
800016e4:	2020                	c.fld	fs0,64(s0)
800016e6:	2020                	c.fld	fs0,64(s0)
800016e8:	2020                	c.fld	fs0,64(s0)
800016ea:	2020                	c.fld	fs0,64(s0)
800016ec:	756f6873          	csrrsi	a6,0x756,30
800016f0:	646c                	c.flw	fa1,76(s0)
800016f2:	6220                	c.flw	fs0,64(a2)
800016f4:	3a65                	c.jal	800010ac <xprintf+0x458>
800016f6:	2020                	c.fld	fs0,64(s0)
800016f8:	4e20                	c.lw	s0,88(a2)
800016fa:	6d75                	c.lui	s10,0x1d
800016fc:	6562                	c.flwsp	fa0,24(sp)
800016fe:	5f72                	c.lwsp	t5,60(sp)
80001700:	525f664f          	fnmadd.d	fa2,ft10,ft5,fa0,unknown
80001704:	6e75                	c.lui	t3,0x1d
80001706:	202b2073          	csrrs	zero,0x202,s6
8000170a:	3031                	c.jal	80000f16 <xprintf+0x2c2>
8000170c:	000a                	c.slli	zero,0x2
8000170e:	0000                	c.unimp
80001710:	7450                	c.flw	fa2,44(s0)
80001712:	5f72                	c.lwsp	t5,60(sp)
80001714:	626f6c47          	fmsub.d	fs8,ft10,ft6,fa2,unknown
80001718:	3e2d                	c.jal	80001252 <xprintf+0x5fe>
8000171a:	6944                	c.flw	fs1,20(a0)
8000171c:	3a726373          	csrrsi	t1,0x3a7,4
80001720:	2020                	c.fld	fs0,64(s0)
80001722:	2020                	c.fld	fs0,64(s0)
80001724:	2020                	c.fld	fs0,64(s0)
80001726:	2020                	c.fld	fs0,64(s0)
80001728:	2020                	c.fld	fs0,64(s0)
8000172a:	2020                	c.fld	fs0,64(s0)
8000172c:	2520                	c.fld	fs0,72(a0)
8000172e:	0a64                	c.addi4spn	s1,sp,284
80001730:	0000                	c.unimp
80001732:	0000                	c.unimp
80001734:	7450                	c.flw	fa2,44(s0)
80001736:	5f72                	c.lwsp	t5,60(sp)
80001738:	626f6c47          	fmsub.d	fs8,ft10,ft6,fa2,unknown
8000173c:	3e2d                	c.jal	80001276 <xprintf+0x622>
8000173e:	6e45                	c.lui	t3,0x11
80001740:	6d75                	c.lui	s10,0x1d
80001742:	435f 6d6f 3a70      	0x3a706d6f435f
80001748:	2020                	c.fld	fs0,64(s0)
8000174a:	2020                	c.fld	fs0,64(s0)
8000174c:	2020                	c.fld	fs0,64(s0)
8000174e:	2020                	c.fld	fs0,64(s0)
80001750:	2520                	c.fld	fs0,72(a0)
80001752:	0a64                	c.addi4spn	s1,sp,284
80001754:	0000                	c.unimp
80001756:	0000                	c.unimp
80001758:	7450                	c.flw	fa2,44(s0)
8000175a:	5f72                	c.lwsp	t5,60(sp)
8000175c:	626f6c47          	fmsub.d	fs8,ft10,ft6,fa2,unknown
80001760:	3e2d                	c.jal	8000129a <__udivsi3+0x6>
80001762:	6e49                	c.lui	t3,0x12
80001764:	5f74                	c.lw	a3,124(a4)
80001766:	706d6f43          	fmadd.s	ft10,fs10,ft6,fa4,unknown
8000176a:	203a                	c.fldsp	ft0,392(sp)
8000176c:	2020                	c.fld	fs0,64(s0)
8000176e:	2020                	c.fld	fs0,64(s0)
80001770:	2020                	c.fld	fs0,64(s0)
80001772:	2020                	c.fld	fs0,64(s0)
80001774:	2520                	c.fld	fs0,72(a0)
80001776:	0a64                	c.addi4spn	s1,sp,284
80001778:	0000                	c.unimp
8000177a:	0000                	c.unimp
8000177c:	7450                	c.flw	fa2,44(s0)
8000177e:	5f72                	c.lwsp	t5,60(sp)
80001780:	626f6c47          	fmsub.d	fs8,ft10,ft6,fa2,unknown
80001784:	3e2d                	c.jal	800012be <__udivsi3+0x2a>
80001786:	5f727453          	0x5f727453
8000178a:	706d6f43          	fmadd.s	ft10,fs10,ft6,fa4,unknown
8000178e:	203a                	c.fldsp	ft0,392(sp)
80001790:	2020                	c.fld	fs0,64(s0)
80001792:	2020                	c.fld	fs0,64(s0)
80001794:	2020                	c.fld	fs0,64(s0)
80001796:	2020                	c.fld	fs0,64(s0)
80001798:	2520                	c.fld	fs0,72(a0)
8000179a:	00000a73          	0xa73
8000179e:	0000                	c.unimp
800017a0:	2020                	c.fld	fs0,64(s0)
800017a2:	2020                	c.fld	fs0,64(s0)
800017a4:	2020                	c.fld	fs0,64(s0)
800017a6:	2020                	c.fld	fs0,64(s0)
800017a8:	756f6873          	csrrsi	a6,0x756,30
800017ac:	646c                	c.flw	fa1,76(s0)
800017ae:	6220                	c.flw	fs0,64(a2)
800017b0:	3a65                	c.jal	80001168 <xprintf+0x514>
800017b2:	2020                	c.fld	fs0,64(s0)
800017b4:	4420                	c.lw	s0,72(s0)
800017b6:	5248                	c.lw	a0,36(a2)
800017b8:	5359                	c.li	t1,-10
800017ba:	4f54                	c.lw	a3,28(a4)
800017bc:	454e                	c.lwsp	a0,208(sp)
800017be:	5020                	c.lw	s0,96(s0)
800017c0:	4f52                	c.lwsp	t5,20(sp)
800017c2:	4d415247          	0x4d415247
800017c6:	202c                	c.fld	fa1,64(s0)
800017c8:	454d4f53          	0x454d4f53
800017cc:	5320                	c.lw	s0,96(a4)
800017ce:	5254                	c.lw	a3,36(a2)
800017d0:	4e49                	c.li	t3,18
800017d2:	00000a47          	fmsub.s	fs4,ft0,ft0,ft0,rne
800017d6:	0000                	c.unimp
800017d8:	654e                	c.flwsp	fa0,208(sp)
800017da:	7478                	c.flw	fa4,108(s0)
800017dc:	505f 7274 475f      	0x475f7274505f
800017e2:	6f6c                	c.flw	fa1,92(a4)
800017e4:	2d62                	c.fldsp	fs10,24(sp)
800017e6:	443e                	c.lwsp	s0,204(sp)
800017e8:	7369                	c.lui	t1,0xffffa
800017ea:	203a7263          	bgeu	s4,gp,800019ee <strcmp+0x586>
800017ee:	2020                	c.fld	fs0,64(s0)
800017f0:	2020                	c.fld	fs0,64(s0)
800017f2:	2020                	c.fld	fs0,64(s0)
800017f4:	2020                	c.fld	fs0,64(s0)
800017f6:	2020                	c.fld	fs0,64(s0)
800017f8:	2020                	c.fld	fs0,64(s0)
800017fa:	6425                	c.lui	s0,0x9
800017fc:	000a                	c.slli	zero,0x2
800017fe:	0000                	c.unimp
80001800:	654e                	c.flwsp	fa0,208(sp)
80001802:	7478                	c.flw	fa4,108(s0)
80001804:	505f 7274 475f      	0x475f7274505f
8000180a:	6f6c                	c.flw	fa1,92(a4)
8000180c:	2d62                	c.fldsp	fs10,24(sp)
8000180e:	453e                	c.lwsp	a0,204(sp)
80001810:	756e                	c.flwsp	fa0,248(sp)
80001812:	5f6d                	c.li	t5,-5
80001814:	706d6f43          	fmadd.s	ft10,fs10,ft6,fa4,unknown
80001818:	203a                	c.fldsp	ft0,392(sp)
8000181a:	2020                	c.fld	fs0,64(s0)
8000181c:	2020                	c.fld	fs0,64(s0)
8000181e:	2020                	c.fld	fs0,64(s0)
80001820:	2020                	c.fld	fs0,64(s0)
80001822:	6425                	c.lui	s0,0x9
80001824:	000a                	c.slli	zero,0x2
80001826:	0000                	c.unimp
80001828:	654e                	c.flwsp	fa0,208(sp)
8000182a:	7478                	c.flw	fa4,108(s0)
8000182c:	505f 7274 475f      	0x475f7274505f
80001832:	6f6c                	c.flw	fa1,92(a4)
80001834:	2d62                	c.fldsp	fs10,24(sp)
80001836:	493e                	c.lwsp	s2,204(sp)
80001838:	746e                	c.flwsp	fs0,248(sp)
8000183a:	435f 6d6f 3a70      	0x3a706d6f435f
80001840:	2020                	c.fld	fs0,64(s0)
80001842:	2020                	c.fld	fs0,64(s0)
80001844:	2020                	c.fld	fs0,64(s0)
80001846:	2020                	c.fld	fs0,64(s0)
80001848:	2020                	c.fld	fs0,64(s0)
8000184a:	6425                	c.lui	s0,0x9
8000184c:	000a                	c.slli	zero,0x2
8000184e:	0000                	c.unimp
80001850:	654e                	c.flwsp	fa0,208(sp)
80001852:	7478                	c.flw	fa4,108(s0)
80001854:	505f 7274 475f      	0x475f7274505f
8000185a:	6f6c                	c.flw	fa1,92(a4)
8000185c:	2d62                	c.fldsp	fs10,24(sp)
8000185e:	533e                	c.lwsp	t1,236(sp)
80001860:	7274                	c.flw	fa3,100(a2)
80001862:	435f 6d6f 3a70      	0x3a706d6f435f
80001868:	2020                	c.fld	fs0,64(s0)
8000186a:	2020                	c.fld	fs0,64(s0)
8000186c:	2020                	c.fld	fs0,64(s0)
8000186e:	2020                	c.fld	fs0,64(s0)
80001870:	2020                	c.fld	fs0,64(s0)
80001872:	7325                	c.lui	t1,0xfffe9
80001874:	000a                	c.slli	zero,0x2
80001876:	0000                	c.unimp
80001878:	6e49                	c.lui	t3,0x12
8000187a:	5f74                	c.lw	a3,124(a4)
8000187c:	5f31                	c.li	t5,-20
8000187e:	6f4c                	c.flw	fa1,28(a4)
80001880:	20203a63          	0x20203a63
80001884:	2020                	c.fld	fs0,64(s0)
80001886:	2020                	c.fld	fs0,64(s0)
80001888:	2020                	c.fld	fs0,64(s0)
8000188a:	2020                	c.fld	fs0,64(s0)
8000188c:	2520                	c.fld	fs0,72(a0)
8000188e:	0a64                	c.addi4spn	s1,sp,284
80001890:	0000                	c.unimp
80001892:	0000                	c.unimp
80001894:	6e49                	c.lui	t3,0x12
80001896:	5f74                	c.lw	a3,124(a4)
80001898:	5f32                	c.lwsp	t5,44(sp)
8000189a:	6f4c                	c.flw	fa1,28(a4)
8000189c:	20203a63          	0x20203a63
800018a0:	2020                	c.fld	fs0,64(s0)
800018a2:	2020                	c.fld	fs0,64(s0)
800018a4:	2020                	c.fld	fs0,64(s0)
800018a6:	2020                	c.fld	fs0,64(s0)
800018a8:	2520                	c.fld	fs0,72(a0)
800018aa:	0a64                	c.addi4spn	s1,sp,284
800018ac:	0000                	c.unimp
800018ae:	0000                	c.unimp
800018b0:	6e45                	c.lui	t3,0x11
800018b2:	6d75                	c.lui	s10,0x1d
800018b4:	4c5f 636f 203a      	0x203a636f4c5f
800018ba:	2020                	c.fld	fs0,64(s0)
800018bc:	2020                	c.fld	fs0,64(s0)
800018be:	2020                	c.fld	fs0,64(s0)
800018c0:	2020                	c.fld	fs0,64(s0)
800018c2:	2020                	c.fld	fs0,64(s0)
800018c4:	2520                	c.fld	fs0,72(a0)
800018c6:	0a64                	c.addi4spn	s1,sp,284
800018c8:	0000                	c.unimp
800018ca:	0000                	c.unimp
800018cc:	4844                	c.lw	s1,20(s0)
800018ce:	5952                	c.lwsp	s2,52(sp)
800018d0:	4e4f5453          	0x4e4f5453
800018d4:	2045                	c.jal	80001974 <strcmp+0x50c>
800018d6:	5250                	c.lw	a2,36(a2)
800018d8:	4152474f          	fnmadd.s	fa4,ft4,fs5,fs0,rmm
800018dc:	2c4d                	c.jal	80001b8e <memory+0x96>
800018de:	3120                	c.fld	fs0,96(a0)
800018e0:	20545327          	0x20545327
800018e4:	49525453          	0x49525453
800018e8:	474e                	c.lwsp	a4,208(sp)
800018ea:	0000                	c.unimp
800018ec:	5f727453          	0x5f727453
800018f0:	5f31                	c.li	t5,-20
800018f2:	6f4c                	c.flw	fa1,28(a4)
800018f4:	20203a63          	0x20203a63
800018f8:	2020                	c.fld	fs0,64(s0)
800018fa:	2020                	c.fld	fs0,64(s0)
800018fc:	2020                	c.fld	fs0,64(s0)
800018fe:	2020                	c.fld	fs0,64(s0)
80001900:	2520                	c.fld	fs0,72(a0)
80001902:	00000a73          	0xa73
80001906:	0000                	c.unimp
80001908:	2020                	c.fld	fs0,64(s0)
8000190a:	2020                	c.fld	fs0,64(s0)
8000190c:	2020                	c.fld	fs0,64(s0)
8000190e:	2020                	c.fld	fs0,64(s0)
80001910:	756f6873          	csrrsi	a6,0x756,30
80001914:	646c                	c.flw	fa1,76(s0)
80001916:	6220                	c.flw	fs0,64(a2)
80001918:	3a65                	c.jal	800012d0 <__udivsi3+0x3c>
8000191a:	2020                	c.fld	fs0,64(s0)
8000191c:	4420                	c.lw	s0,72(s0)
8000191e:	5248                	c.lw	a0,36(a2)
80001920:	5359                	c.li	t1,-10
80001922:	4f54                	c.lw	a3,28(a4)
80001924:	454e                	c.lwsp	a0,208(sp)
80001926:	5020                	c.lw	s0,96(s0)
80001928:	4f52                	c.lwsp	t5,20(sp)
8000192a:	4d415247          	0x4d415247
8000192e:	202c                	c.fld	fa1,64(s0)
80001930:	2731                	c.jal	8000203c <Arr_2_Glob+0x144>
80001932:	53205453          	0x53205453
80001936:	5254                	c.lw	a3,36(a2)
80001938:	4e49                	c.li	t3,18
8000193a:	00000a47          	fmsub.s	fs4,ft0,ft0,ft0,rne
8000193e:	0000                	c.unimp
80001940:	4844                	c.lw	s1,20(s0)
80001942:	5952                	c.lwsp	s2,52(sp)
80001944:	4e4f5453          	0x4e4f5453
80001948:	2045                	c.jal	800019e8 <strcmp+0x580>
8000194a:	5250                	c.lw	a2,36(a2)
8000194c:	4152474f          	fnmadd.s	fa4,ft4,fs5,fs0,rmm
80001950:	2c4d                	c.jal	80001c02 <memory+0x10a>
80001952:	3220                	c.fld	fs0,96(a2)
80001954:	20444e27          	fsq	ft4,540(s0) # 921c <__stack_size-0x1ff6de4>
80001958:	49525453          	0x49525453
8000195c:	474e                	c.lwsp	a4,208(sp)
8000195e:	0000                	c.unimp
80001960:	5f727453          	0x5f727453
80001964:	5f32                	c.lwsp	t5,44(sp)
80001966:	6f4c                	c.flw	fa1,28(a4)
80001968:	20203a63          	0x20203a63
8000196c:	2020                	c.fld	fs0,64(s0)
8000196e:	2020                	c.fld	fs0,64(s0)
80001970:	2020                	c.fld	fs0,64(s0)
80001972:	2020                	c.fld	fs0,64(s0)
80001974:	2520                	c.fld	fs0,72(a0)
80001976:	00000a73          	0xa73
8000197a:	0000                	c.unimp
8000197c:	2020                	c.fld	fs0,64(s0)
8000197e:	2020                	c.fld	fs0,64(s0)
80001980:	2020                	c.fld	fs0,64(s0)
80001982:	2020                	c.fld	fs0,64(s0)
80001984:	756f6873          	csrrsi	a6,0x756,30
80001988:	646c                	c.flw	fa1,76(s0)
8000198a:	6220                	c.flw	fs0,64(a2)
8000198c:	3a65                	c.jal	80001344 <memcpy+0x4>
8000198e:	2020                	c.fld	fs0,64(s0)
80001990:	4420                	c.lw	s0,72(s0)
80001992:	5248                	c.lw	a0,36(a2)
80001994:	5359                	c.li	t1,-10
80001996:	4f54                	c.lw	a3,28(a4)
80001998:	454e                	c.lwsp	a0,208(sp)
8000199a:	5020                	c.lw	s0,96(s0)
8000199c:	4f52                	c.lwsp	t5,20(sp)
8000199e:	4d415247          	0x4d415247
800019a2:	202c                	c.fld	fa1,64(s0)
800019a4:	2732                	c.fldsp	fa4,264(sp)
800019a6:	444e                	c.lwsp	s0,208(sp)
800019a8:	5320                	c.lw	s0,96(a4)
800019aa:	5254                	c.lw	a3,36(a2)
800019ac:	4e49                	c.li	t3,18
800019ae:	00000a47          	fmsub.s	fs4,ft0,ft0,ft0,rne
800019b2:	0000                	c.unimp
800019b4:	4844                	c.lw	s1,20(s0)
800019b6:	5952                	c.lwsp	s2,52(sp)
800019b8:	4e4f5453          	0x4e4f5453
800019bc:	2045                	c.jal	80001a5c <Arr_1_Glob+0x2c>
800019be:	5250                	c.lw	a2,36(a2)
800019c0:	4152474f          	fnmadd.s	fa4,ft4,fs5,fs0,rmm
800019c4:	2c4d                	c.jal	80001c76 <memory+0x17e>
800019c6:	3320                	c.fld	fs0,96(a4)
800019c8:	20445227          	0x20445227
800019cc:	49525453          	0x49525453
800019d0:	474e                	c.lwsp	a4,208(sp)
	...

Disassembly of section .rodata:

800019d4 <.rodata>:
800019d4:	116c                	c.addi4spn	a1,sp,172
800019d6:	8000                	0x8000
800019d8:	0e58                	c.addi4spn	a4,sp,788
800019da:	8000                	0x8000
800019dc:	0e14                	c.addi4spn	a3,sp,784
800019de:	8000                	0x8000
800019e0:	0dfc                	c.addi4spn	a5,sp,732
800019e2:	8000                	0x8000
800019e4:	0dfc                	c.addi4spn	a5,sp,732
800019e6:	8000                	0x8000
800019e8:	0dfc                	c.addi4spn	a5,sp,732
800019ea:	8000                	0x8000
800019ec:	0dfc                	c.addi4spn	a5,sp,732
800019ee:	8000                	0x8000
800019f0:	0dfc                	c.addi4spn	a5,sp,732
800019f2:	8000                	0x8000
800019f4:	0dfc                	c.addi4spn	a5,sp,732
800019f6:	8000                	0x8000
800019f8:	0dfc                	c.addi4spn	a5,sp,732
800019fa:	8000                	0x8000
800019fc:	0dfc                	c.addi4spn	a5,sp,732
800019fe:	8000                	0x8000
80001a00:	0dfc                	c.addi4spn	a5,sp,732
80001a02:	8000                	0x8000
80001a04:	0dfc                	c.addi4spn	a5,sp,732
80001a06:	8000                	0x8000
80001a08:	0f9c                	c.addi4spn	a5,sp,976
80001a0a:	8000                	0x8000
80001a0c:	0dfc                	c.addi4spn	a5,sp,732
80001a0e:	8000                	0x8000
80001a10:	0dfc                	c.addi4spn	a5,sp,732
80001a12:	8000                	0x8000
80001a14:	0dfc                	c.addi4spn	a5,sp,732
80001a16:	8000                	0x8000
80001a18:	0e80                	c.addi4spn	s0,sp,848
80001a1a:	8000                	0x8000
80001a1c:	0dfc                	c.addi4spn	a5,sp,732
80001a1e:	8000                	0x8000
80001a20:	0e14                	c.addi4spn	a3,sp,784
80001a22:	8000                	0x8000
80001a24:	0dfc                	c.addi4spn	a5,sp,732
80001a26:	8000                	0x8000
80001a28:	0dfc                	c.addi4spn	a5,sp,732
80001a2a:	8000                	0x8000
80001a2c:	1144                	c.addi4spn	s1,sp,164
80001a2e:	8000                	0x8000

Disassembly of section .bss:

80001a30 <Arr_1_Glob>:
	...

80001af8 <memory>:
	...

80001ef8 <Arr_2_Glob>:
	...

Disassembly of section .sbss:

80004608 <Dhrystones_Per_Second>:
/home/tututu/qimeng/simulator/baremetal/benchmarks/dhrystone/dry.c:438
float Microseconds, Dhrystones_Per_Second;
80004608:	0000                	c.unimp
	...

8000460c <Microseconds>:
8000460c:	0000                	c.unimp
	...

80004610 <User_Time>:
/home/tututu/qimeng/simulator/baremetal/benchmarks/dhrystone/dry.c:437
long Begin_Time, End_Time, User_Time;
80004610:	0000                	c.unimp
	...

80004614 <End_Time>:
80004614:	0000                	c.unimp
	...

80004618 <Begin_Time>:
80004618:	0000                	c.unimp
	...

8000461c <Done>:
/home/tututu/qimeng/simulator/baremetal/benchmarks/dhrystone/dry.c:435
Boolean Done;
8000461c:	0000                	c.unimp
	...

80004620 <Reg>:
/home/tututu/qimeng/simulator/baremetal/benchmarks/dhrystone/dry.c:425
Boolean Reg = false;
80004620:	0000                	c.unimp
	...

80004624 <Ch_2_Glob>:
	...

80004625 <Ch_1_Glob>:
/home/tututu/qimeng/simulator/baremetal/benchmarks/dhrystone/dry.c:417
char Ch_1_Glob, Ch_2_Glob;
80004625:	0000                	c.unimp
	...

80004628 <Bool_Glob>:
/home/tututu/qimeng/simulator/baremetal/benchmarks/dhrystone/dry.c:416
Boolean Bool_Glob;
80004628:	0000                	c.unimp
	...

8000462c <Int_Glob>:
/home/tututu/qimeng/simulator/baremetal/benchmarks/dhrystone/dry.c:415
int Int_Glob;
8000462c:	0000                	c.unimp
	...

80004630 <Next_Ptr_Glob>:
/home/tututu/qimeng/simulator/baremetal/benchmarks/dhrystone/dry.c:414
Rec_Pointer Ptr_Glob, Next_Ptr_Glob;
80004630:	0000                	c.unimp
	...

80004634 <Ptr_Glob>:
80004634:	0000                	c.unimp
	...

80004638 <outptr>:
/home/tututu/qimeng/simulator/baremetal/rt-thread-am-master/bsp/abstract-machine/../../../lib/xprintf.c:20
80004638:	0000                	c.unimp
	...

8000463c <xfunc_out>:
/home/tututu/qimeng/simulator/baremetal/rt-thread-am-master/bsp/abstract-machine/../../../lib/xprintf.c:19
8000463c:	0000                	c.unimp
	...

Disassembly of section .sdata:

80004640 <pass>:
/home/tututu/qimeng/simulator/baremetal/benchmarks/dhrystone/dry.c:714
Boolean pass = true;
80004640:	0001                	c.addi	zero,0
	...

80004644 <free_mem>:
/home/tututu/qimeng/simulator/baremetal/benchmarks/dhrystone/dry.c:443
static char *free_mem = &memory[0];
80004644:	1af8                	c.addi4spn	a4,sp,380
80004646:	8000                	0x8000

Disassembly of section .stack:

86000000 <_sp-0x2000000>:
	...

Disassembly of section .riscv.attributes:

00000000 <.riscv.attributes>:
   0:	2441                	c.jal	280 <__stack_size-0x1fffd80>
   2:	0000                	c.unimp
   4:	7200                	c.flw	fs0,32(a2)
   6:	7369                	c.lui	t1,0xffffa
   8:	01007663          	bgeu	zero,a6,14 <__stack_size-0x1ffffec>
   c:	001a                	c.slli	zero,0x6
   e:	0000                	c.unimp
  10:	1004                	c.addi4spn	s1,sp,32
  12:	7205                	c.lui	tp,0xfffe1
  14:	3376                	c.fldsp	ft6,376(sp)
  16:	6932                	c.flwsp	fs2,12(sp)
  18:	7032                	c.flwsp	ft0,44(sp)
  1a:	5f30                	c.lw	a2,120(a4)
  1c:	3261                	c.jal	fffff9a4 <_sp+0x77fff9a4>
  1e:	3070                	c.fld	fa2,224(s0)
  20:	0800                	c.addi4spn	s0,sp,16
  22:	0a01                	c.addi	s4,0
  24:	0b              	Address 0x0000000000000024 is out of bounds.


Disassembly of section .comment:

00000000 <.comment>:
   0:	3a434347          	fmsub.d	ft6,ft6,ft4,ft7,rmm
   4:	2820                	c.fld	fs0,80(s0)
   6:	29554e47          	fmsub.s	ft8,fa0,fs5,ft5,rmm
   a:	3120                	c.fld	fs0,96(a0)
   c:	2e31                	c.jal	328 <__stack_size-0x1fffcd8>
   e:	2e31                	c.jal	32a <__stack_size-0x1fffcd6>
  10:	0030                	c.addi4spn	a2,sp,8

Disassembly of section .debug_line:

00000000 <.debug_line>:
       0:	005c                	c.addi4spn	a5,sp,4
       2:	0000                	c.unimp
       4:	0005                	c.addi	zero,1
       6:	0004                	0x4
       8:	002e                	c.slli	zero,0xb
       a:	0000                	c.unimp
       c:	0101                	c.addi	sp,0
       e:	fb01                	c.bnez	a4,ffffff1e <_sp+0x77ffff1e>
      10:	0d0e                	c.slli	s10,0x3
      12:	0100                	c.addi4spn	s0,sp,128
      14:	0101                	c.addi	sp,0
      16:	0001                	c.addi	zero,0
      18:	0000                	c.unimp
      1a:	0001                	c.addi	zero,0
      1c:	0100                	c.addi4spn	s0,sp,128
      1e:	0101                	c.addi	sp,0
      20:	021f 0000 0000      	0x21f
      26:	0000                	c.unimp
      28:	0000                	c.unimp
      2a:	0102                	c.slli64	sp
      2c:	021f 020f 0009      	0x9020f021f
      32:	0000                	c.unimp
      34:	0900                	c.addi4spn	s0,sp,144
      36:	0000                	c.unimp
      38:	0100                	c.addi4spn	s0,sp,128
      3a:	0500                	c.addi4spn	s0,sp,640
      3c:	0002                	c.slli64	zero
      3e:	0000                	c.unimp
      40:	1a80                	c.addi4spn	s0,sp,368
      42:	08090103          	lb	sp,128(s2)
      46:	0100                	c.addi4spn	s0,sp,128
      48:	08090203          	lb	tp,128(s2)
      4c:	0100                	c.addi4spn	s0,sp,128
      4e:	04090103          	lb	sp,64(s2)
      52:	0100                	c.addi4spn	s0,sp,128
      54:	04090303          	lb	t1,64(s2)
      58:	0100                	c.addi4spn	s0,sp,128
      5a:	0409                	c.addi	s0,2
      5c:	0000                	c.unimp
      5e:	0101                	c.addi	sp,0
      60:	000015ab          	0x15ab
      64:	0005                	c.addi	zero,1
      66:	0004                	0x4
      68:	0038                	c.addi4spn	a4,sp,8
      6a:	0000                	c.unimp
      6c:	0101                	c.addi	sp,0
      6e:	fb01                	c.bnez	a4,ffffff7e <_sp+0x77ffff7e>
      70:	0d0e                	c.slli	s10,0x3
      72:	0100                	c.addi4spn	s0,sp,128
      74:	0101                	c.addi	sp,0
      76:	0001                	c.addi	zero,0
      78:	0000                	c.unimp
      7a:	0001                	c.addi	zero,0
      7c:	0100                	c.addi4spn	s0,sp,128
      7e:	0101                	c.addi	sp,0
      80:	021f 0017 0000      	0x17021f
      86:	0054                	c.addi4spn	a3,sp,4
      88:	0000                	c.unimp
      8a:	0102                	c.slli64	sp
      8c:	021f 040f 0011      	0x11040f021f
      92:	0000                	c.unimp
      94:	1100                	c.addi4spn	s0,sp,160
      96:	0000                	c.unimp
      98:	0000                	c.unimp
      9a:	0062                	c.slli	zero,0x18
      9c:	0000                	c.unimp
      9e:	6c01                	0x6c01
      a0:	0000                	c.unimp
      a2:	0000                	c.unimp
      a4:	0105                	c.addi	sp,1
      a6:	0500                	c.addi4spn	s0,sp,640
      a8:	3802                	c.fldsp	fa6,32(sp)
      aa:	0008                	0x8
      ac:	0380                	c.addi4spn	s0,sp,448
      ae:	03f0                	c.addi4spn	a2,sp,460
      b0:	0501                	c.addi	a0,0
      b2:	09010303          	lb	t1,144(sp)
      b6:	0000                	c.unimp
      b8:	0301                	c.addi	t1,0
      ba:	0901                	c.addi	s2,0
      bc:	0000                	c.unimp
      be:	0301                	c.addi	t1,0
      c0:	0902                	c.slli64	s2
      c2:	0000                	c.unimp
      c4:	0501                	c.addi	a0,0
      c6:	02030613          	addi	a2,t1,32 # ffffa020 <_sp+0x77ffa020>
      ca:	0009                	c.addi	zero,2
      cc:	0100                	c.addi4spn	s0,sp,128
      ce:	0805                	c.addi	a6,1
      d0:	04090003          	lb	zero,64(s2)
      d4:	0100                	c.addi4spn	s0,sp,128
      d6:	0305                	c.addi	t1,1
      d8:	0306                	c.slli	t1,0x1
      da:	097f                	0x97f
      dc:	0008                	0x8
      de:	0501                	c.addi	a0,0
      e0:	0305                	c.addi	t1,1
      e2:	0901                	c.addi	s2,0
      e4:	0000                	c.unimp
      e6:	0501                	c.addi	a0,0
      e8:	0608                	c.addi4spn	a0,sp,768
      ea:	00090003          	lb	zero,0(s2)
      ee:	0100                	c.addi4spn	s0,sp,128
      f0:	0105                	c.addi	sp,1
      f2:	04090803          	lb	a6,64(s2)
      f6:	0100                	c.addi4spn	s0,sp,128
      f8:	0705                	c.addi	a4,1
      fa:	0306                	c.slli	t1,0x1
      fc:	0004097b          	0x4097b
     100:	0301                	c.addi	t1,0
     102:	0901                	c.addi	s2,0
     104:	0000                	c.unimp
     106:	0501                	c.addi	a0,0
     108:	7f03060f          	0x7f03060f
     10c:	0009                	c.addi	zero,2
     10e:	0100                	c.addi4spn	s0,sp,128
     110:	1e05                	c.addi	t3,-31
     112:	04090103          	lb	sp,64(s2)
     116:	0100                	c.addi4spn	s0,sp,128
     118:	0f05                	c.addi	t5,1
     11a:	08097f03          	0x8097f03
     11e:	0100                	c.addi4spn	s0,sp,128
     120:	1e05                	c.addi	t3,-31
     122:	04090103          	lb	sp,64(s2)
     126:	0100                	c.addi4spn	s0,sp,128
     128:	1405                	c.addi	s0,-31
     12a:	04090003          	lb	zero,64(s2)
     12e:	0100                	c.addi4spn	s0,sp,128
     130:	0705                	c.addi	a4,1
     132:	0306                	c.slli	t1,0x1
     134:	0901                	c.addi	s2,0
     136:	0004                	0x4
     138:	0501                	c.addi	a0,0
     13a:	09020313          	addi	t1,tp,144 # fffe1090 <_sp+0x77fe1090>
     13e:	0000                	c.unimp
     140:	0501                	c.addi	a0,0
     142:	0601                	c.addi	a2,0
     144:	00090103          	lb	sp,0(s2)
     148:	0100                	c.addi4spn	s0,sp,128
     14a:	0306                	c.slli	t1,0x1
     14c:	0909                	c.addi	s2,2
     14e:	0004                	0x4
     150:	0501                	c.addi	a0,0
     152:	09010303          	lb	t1,144(sp)
     156:	0000                	c.unimp
     158:	0501                	c.addi	a0,0
     15a:	0610                	c.addi4spn	a2,sp,768
     15c:	00090003          	lb	zero,0(s2)
     160:	0100                	c.addi4spn	s0,sp,128
     162:	0605                	c.addi	a2,1
     164:	08090003          	lb	zero,128(s2)
     168:	0100                	c.addi4spn	s0,sp,128
     16a:	0505                	c.addi	a0,1
     16c:	0306                	c.slli	t1,0x1
     16e:	0902                	c.slli64	s2
     170:	0004                	0x4
     172:	0501                	c.addi	a0,0
     174:	061c                	c.addi4spn	a5,sp,768
     176:	00090003          	lb	zero,0(s2)
     17a:	0100                	c.addi4spn	s0,sp,128
     17c:	1205                	c.addi	tp,-31
     17e:	04090003          	lb	zero,64(s2)
     182:	0100                	c.addi4spn	s0,sp,128
     184:	2105                	c.jal	5a4 <__stack_size-0x1fffa5c>
     186:	04090103          	lb	sp,64(s2)
     18a:	0100                	c.addi4spn	s0,sp,128
     18c:	0305                	c.addi	t1,1
     18e:	0306                	c.slli	t1,0x1
     190:	0900                	c.addi4spn	s0,sp,144
     192:	0004                	0x4
     194:	0301                	c.addi	t1,0
     196:	00d2                	c.slli	ra,0x14
     198:	0009                	c.addi	zero,2
     19a:	0100                	c.addi4spn	s0,sp,128
     19c:	00090203          	lb	tp,0(s2)
     1a0:	0100                	c.addi4spn	s0,sp,128
     1a2:	00090103          	lb	sp,0(s2)
     1a6:	0100                	c.addi4spn	s0,sp,128
     1a8:	0306                	c.slli	t1,0x1
     1aa:	00097fab          	0x97fab
     1ae:	0100                	c.addi4spn	s0,sp,128
     1b0:	2005                	c.jal	1d0 <__stack_size-0x1fffe30>
     1b2:	0900d503          	lhu	a0,144(ra)
     1b6:	0004                	0x4
     1b8:	0501                	c.addi	a0,0
     1ba:	0310                	c.addi4spn	a2,sp,384
     1bc:	0900                	c.addi4spn	s0,sp,144
     1be:	0008                	0x8
     1c0:	0501                	c.addi	a0,0
     1c2:	0301                	c.addi	t1,0
     1c4:	7fac                	c.flw	fa1,120(a5)
     1c6:	0409                	c.addi	s0,2
     1c8:	0100                	c.addi4spn	s0,sp,128
     1ca:	0306                	c.slli	t1,0x1
     1cc:	0905                	c.addi	s2,1
     1ce:	0004                	0x4
     1d0:	0501                	c.addi	a0,0
     1d2:	09010303          	lb	t1,144(sp)
     1d6:	0000                	c.unimp
     1d8:	0301                	c.addi	t1,0
     1da:	0902                	c.slli64	s2
     1dc:	0000                	c.unimp
     1de:	0301                	c.addi	t1,0
     1e0:	0901                	c.addi	s2,0
     1e2:	0000                	c.unimp
     1e4:	0501                	c.addi	a0,0
     1e6:	0618                	c.addi4spn	a4,sp,768
     1e8:	00097f03          	0x97f03
     1ec:	0100                	c.addi4spn	s0,sp,128
     1ee:	0d05                	c.addi	s10,1
     1f0:	08090103          	lb	sp,128(s2)
     1f4:	0100                	c.addi4spn	s0,sp,128
     1f6:	1805                	c.addi	a6,-31
     1f8:	04090003          	lb	zero,64(s2)
     1fc:	0100                	c.addi4spn	s0,sp,128
     1fe:	04097f03          	0x4097f03
     202:	0100                	c.addi4spn	s0,sp,128
     204:	08090103          	lb	sp,128(s2)
     208:	0100                	c.addi4spn	s0,sp,128
     20a:	0d05                	c.addi	s10,1
     20c:	04090003          	lb	zero,64(s2)
     210:	0100                	c.addi4spn	s0,sp,128
     212:	0305                	c.addi	t1,1
     214:	0306                	c.slli	t1,0x1
     216:	0901                	c.addi	s2,0
     218:	0004                	0x4
     21a:	0501                	c.addi	a0,0
     21c:	060d                	c.addi	a2,3
     21e:	00090003          	lb	zero,0(s2)
     222:	0100                	c.addi4spn	s0,sp,128
     224:	0105                	c.addi	sp,1
     226:	0c090103          	lb	sp,192(s2)
     22a:	0100                	c.addi4spn	s0,sp,128
     22c:	0306                	c.slli	t1,0x1
     22e:	0905                	c.addi	s2,1
     230:	0004                	0x4
     232:	0501                	c.addi	a0,0
     234:	09010303          	lb	t1,144(sp)
     238:	0000                	c.unimp
     23a:	0501                	c.addi	a0,0
     23c:	060d                	c.addi	a2,3
     23e:	00090003          	lb	zero,0(s2)
     242:	0100                	c.addi4spn	s0,sp,128
     244:	0305                	c.addi	t1,1
     246:	0306                	c.slli	t1,0x1
     248:	0901                	c.addi	s2,0
     24a:	000c                	0xc
     24c:	0501                	c.addi	a0,0
     24e:	060d                	c.addi	a2,3
     250:	00090003          	lb	zero,0(s2)
     254:	0100                	c.addi4spn	s0,sp,128
     256:	0105                	c.addi	sp,1
     258:	08090103          	lb	sp,128(s2)
     25c:	0100                	c.addi4spn	s0,sp,128
     25e:	0306                	c.slli	t1,0x1
     260:	0921                	c.addi	s2,8
     262:	0004                	0x4
     264:	0501                	c.addi	a0,0
     266:	09010303          	lb	t1,144(sp)
     26a:	0000                	c.unimp
     26c:	0301                	c.addi	t1,0
     26e:	0901                	c.addi	s2,0
     270:	0000                	c.unimp
     272:	0301                	c.addi	t1,0
     274:	00fd                	c.addi	ra,31
     276:	0009                	c.addi	zero,2
     278:	0100                	c.addi4spn	s0,sp,128
     27a:	00090203          	lb	tp,0(s2)
     27e:	0100                	c.addi4spn	s0,sp,128
     280:	00090103          	lb	sp,0(s2)
     284:	0100                	c.addi4spn	s0,sp,128
     286:	0605                	c.addi	a2,1
     288:	0306                	c.slli	t1,0x1
     28a:	0900                	c.addi4spn	s0,sp,144
     28c:	0000                	c.unimp
     28e:	0501                	c.addi	a0,0
     290:	0605                	c.addi	a2,1
     292:	08090403          	lb	s0,128(s2)
     296:	0100                	c.addi4spn	s0,sp,128
     298:	097efe03          	0x97efe03
     29c:	0000                	c.unimp
     29e:	0501                	c.addi	a0,0
     2a0:	00030613          	addi	a2,t1,0
     2a4:	0009                	c.addi	zero,2
     2a6:	0100                	c.addi4spn	s0,sp,128
     2a8:	0305                	c.addi	t1,1
     2aa:	0306                	c.slli	t1,0x1
     2ac:	0901                	c.addi	s2,0
     2ae:	0008                	0x8
     2b0:	0501                	c.addi	a0,0
     2b2:	0305                	c.addi	t1,1
     2b4:	0911                	c.addi	s2,4
     2b6:	0014                	0x14
     2b8:	0501                	c.addi	a0,0
     2ba:	00030613          	addi	a2,t1,0
     2be:	0009                	c.addi	zero,2
     2c0:	0100                	c.addi4spn	s0,sp,128
     2c2:	0505                	c.addi	a0,1
     2c4:	0306                	c.slli	t1,0x1
     2c6:	0901                	c.addi	s2,0
     2c8:	0004                	0x4
     2ca:	0501                	c.addi	a0,0
     2cc:	0601                	c.addi	a2,0
     2ce:	00090203          	lb	tp,0(s2)
     2d2:	0100                	c.addi4spn	s0,sp,128
     2d4:	0505                	c.addi	a0,1
     2d6:	0306                	c.slli	t1,0x1
     2d8:	0971                	c.addi	s2,28
     2da:	0004                	0x4
     2dc:	0501                	c.addi	a0,0
     2de:	0612                	c.slli	a2,0x4
     2e0:	00090003          	lb	zero,0(s2)
     2e4:	0100                	c.addi4spn	s0,sp,128
     2e6:	0805                	c.addi	a6,1
     2e8:	04090003          	lb	zero,64(s2)
     2ec:	0100                	c.addi4spn	s0,sp,128
     2ee:	0705                	c.addi	a4,1
     2f0:	0306                	c.slli	t1,0x1
     2f2:	0902                	c.slli64	s2
     2f4:	000c                	0xc
     2f6:	0501                	c.addi	a0,0
     2f8:	0615                	c.addi	a2,5
     2fa:	00090003          	lb	zero,0(s2)
     2fe:	0100                	c.addi4spn	s0,sp,128
     300:	0505                	c.addi	a0,1
     302:	0306                	c.slli	t1,0x1
     304:	0905                	c.addi	s2,1
     306:	000c                	0xc
     308:	0501                	c.addi	a0,0
     30a:	00030613          	addi	a2,t1,0
     30e:	0009                	c.addi	zero,2
     310:	0100                	c.addi4spn	s0,sp,128
     312:	0505                	c.addi	a0,1
     314:	0306                	c.slli	t1,0x1
     316:	0901                	c.addi	s2,0
     318:	0008                	0x8
     31a:	0501                	c.addi	a0,0
     31c:	0301                	c.addi	t1,0
     31e:	7efe                	c.flwsp	ft9,252(sp)
     320:	0409                	c.addi	s0,2
     322:	0100                	c.addi4spn	s0,sp,128
     324:	0705                	c.addi	a4,1
     326:	00090103          	lb	sp,0(s2)
     32a:	0100                	c.addi4spn	s0,sp,128
     32c:	0305                	c.addi	t1,1
     32e:	0306                	c.slli	t1,0x1
     330:	0905                	c.addi	s2,1
     332:	0000                	c.unimp
     334:	0501                	c.addi	a0,0
     336:	0301                	c.addi	t1,0
     338:	097a                	c.slli	s2,0x1e
     33a:	0008                	0x8
     33c:	0501                	c.addi	a0,0
     33e:	09060303          	lb	t1,144(a2)
     342:	0008                	0x8
     344:	0501                	c.addi	a0,0
     346:	097b0313          	addi	t1,s6,151
     34a:	0004                	0x4
     34c:	0501                	c.addi	a0,0
     34e:	05030603          	lb	a2,80(t1)
     352:	0409                	c.addi	s0,2
     354:	0100                	c.addi4spn	s0,sp,128
     356:	0105                	c.addi	sp,1
     358:	0306                	c.slli	t1,0x1
     35a:	097a                	c.slli	s2,0x1e
     35c:	0028                	c.addi4spn	a0,sp,8
     35e:	0501                	c.addi	a0,0
     360:	09060303          	lb	t1,144(a2)
     364:	0008                	0x8
     366:	0501                	c.addi	a0,0
     368:	0326                	c.slli	t1,0x9
     36a:	00040903          	lb	s2,0(s0)
     36e:	0501                	c.addi	a0,0
     370:	097d0303          	lb	t1,151(s10) # 1d097 <__stack_size-0x1fe2f69>
     374:	0004                	0x4
     376:	0601                	c.addi	a2,0
     378:	04090103          	lb	sp,64(s2)
     37c:	0100                	c.addi4spn	s0,sp,128
     37e:	0306                	c.slli	t1,0x1
     380:	097f                	0x97f
     382:	0000                	c.unimp
     384:	0501                	c.addi	a0,0
     386:	09010327          	0x9010327
     38a:	0024                	c.addi4spn	s1,sp,8
     38c:	0501                	c.addi	a0,0
     38e:	01030603          	lb	a2,16(t1)
     392:	0809                	c.addi	a6,2
     394:	0100                	c.addi4spn	s0,sp,128
     396:	1905                	c.addi	s2,-31
     398:	0306                	c.slli	t1,0x1
     39a:	0901                	c.addi	s2,0
     39c:	0000                	c.unimp
     39e:	0501                	c.addi	a0,0
     3a0:	031c                	c.addi4spn	a5,sp,384
     3a2:	0931                	c.addi	s2,12
     3a4:	0004                	0x4
     3a6:	0501                	c.addi	a0,0
     3a8:	09010303          	lb	t1,144(sp)
     3ac:	0004                	0x4
     3ae:	0501                	c.addi	a0,0
     3b0:	0320                	c.addi4spn	s0,sp,392
     3b2:	00d5                	c.addi	ra,21
     3b4:	0409                	c.addi	s0,2
     3b6:	0100                	c.addi4spn	s0,sp,128
     3b8:	1205                	c.addi	tp,-31
     3ba:	097faa03          	lw	s4,151(t6)
     3be:	0004                	0x4
     3c0:	0501                	c.addi	a0,0
     3c2:	0310                	c.addi4spn	a2,sp,384
     3c4:	00d6                	c.slli	ra,0x15
     3c6:	0409                	c.addi	s0,2
     3c8:	0100                	c.addi4spn	s0,sp,128
     3ca:	2005                	c.jal	3ea <__stack_size-0x1fffc16>
     3cc:	04090003          	lb	zero,64(s2)
     3d0:	0100                	c.addi4spn	s0,sp,128
     3d2:	2705                	c.jal	af2 <__stack_size-0x1fff50e>
     3d4:	097ef803          	0x97ef803
     3d8:	0004                	0x4
     3da:	0501                	c.addi	a0,0
     3dc:	01030603          	lb	a2,16(t1)
     3e0:	0409                	c.addi	s0,2
     3e2:	0100                	c.addi4spn	s0,sp,128
     3e4:	00090103          	lb	sp,0(s2)
     3e8:	0100                	c.addi4spn	s0,sp,128
     3ea:	00092e03          	lw	t3,0(s2)
     3ee:	0100                	c.addi4spn	s0,sp,128
     3f0:	0505                	c.addi	a0,1
     3f2:	00090203          	lb	tp,0(s2)
     3f6:	0100                	c.addi4spn	s0,sp,128
     3f8:	0305                	c.addi	t1,1
     3fa:	00090103          	lb	sp,0(s2)
     3fe:	0100                	c.addi4spn	s0,sp,128
     400:	0900d203          	lhu	tp,144(ra)
     404:	0000                	c.unimp
     406:	0301                	c.addi	t1,0
     408:	0902                	c.slli64	s2
     40a:	0000                	c.unimp
     40c:	0301                	c.addi	t1,0
     40e:	0901                	c.addi	s2,0
     410:	0000                	c.unimp
     412:	0501                	c.addi	a0,0
     414:	0610                	c.addi4spn	a2,sp,768
     416:	00090003          	lb	zero,0(s2)
     41a:	0100                	c.addi4spn	s0,sp,128
     41c:	0305                	c.addi	t1,1
     41e:	0306                	c.slli	t1,0x1
     420:	7efd                	c.lui	t4,0xfffff
     422:	0409                	c.addi	s0,2
     424:	0100                	c.addi4spn	s0,sp,128
     426:	0605                	c.addi	a2,1
     428:	0306                	c.slli	t1,0x1
     42a:	0900                	c.addi4spn	s0,sp,144
     42c:	0000                	c.unimp
     42e:	0501                	c.addi	a0,0
     430:	0605                	c.addi	a2,1
     432:	08090a03          	lb	s4,128(s2)
     436:	0100                	c.addi4spn	s0,sp,128
     438:	0105                	c.addi	sp,1
     43a:	0306                	c.slli	t1,0x1
     43c:	0901                	c.addi	s2,0
     43e:	0004                	0x4
     440:	0501                	c.addi	a0,0
     442:	0305                	c.addi	t1,1
     444:	097f                	0x97f
     446:	0008                	0x8
     448:	0501                	c.addi	a0,0
     44a:	0301                	c.addi	t1,0
     44c:	0901                	c.addi	s2,0
     44e:	0060                	c.addi4spn	s0,sp,12
     450:	0501                	c.addi	a0,0
     452:	0605                	c.addi	a2,1
     454:	0c097803          	0xc097803
     458:	0100                	c.addi4spn	s0,sp,128
     45a:	0306                	c.slli	t1,0x1
     45c:	0901                	c.addi	s2,0
     45e:	0000                	c.unimp
     460:	0501                	c.addi	a0,0
     462:	0329                	c.addi	t1,10
     464:	097f                	0x97f
     466:	0004                	0x4
     468:	0501                	c.addi	a0,0
     46a:	0605                	c.addi	a2,1
     46c:	08090103          	lb	sp,128(s2)
     470:	0100                	c.addi4spn	s0,sp,128
     472:	08090203          	lb	tp,128(s2)
     476:	0100                	c.addi4spn	s0,sp,128
     478:	1005                	c.addi	zero,-31
     47a:	0306                	c.slli	t1,0x1
     47c:	00fd                	c.addi	ra,31
     47e:	0009                	c.addi	zero,2
     480:	0100                	c.addi4spn	s0,sp,128
     482:	1b05                	c.addi	s6,-31
     484:	097f8303          	lb	t1,151(t6)
     488:	0004                	0x4
     48a:	0501                	c.addi	a0,0
     48c:	0605                	c.addi	a2,1
     48e:	04090103          	lb	sp,64(s2)
     492:	0100                	c.addi4spn	s0,sp,128
     494:	0305                	c.addi	t1,1
     496:	0900f903          	0x900f903
     49a:	0000                	c.unimp
     49c:	0301                	c.addi	t1,0
     49e:	0902                	c.slli64	s2
     4a0:	0000                	c.unimp
     4a2:	0301                	c.addi	t1,0
     4a4:	0901                	c.addi	s2,0
     4a6:	0000                	c.unimp
     4a8:	0501                	c.addi	a0,0
     4aa:	0601                	c.addi	a2,0
     4ac:	097f8803          	lb	a6,151(t6)
     4b0:	0000                	c.unimp
     4b2:	0501                	c.addi	a0,0
     4b4:	0310                	c.addi4spn	a2,sp,384
     4b6:	00f8                	c.addi4spn	a4,sp,76
     4b8:	0409                	c.addi	s0,2
     4ba:	0100                	c.addi4spn	s0,sp,128
     4bc:	0105                	c.addi	sp,1
     4be:	097f8803          	lb	a6,151(t6)
     4c2:	0004                	0x4
     4c4:	0501                	c.addi	a0,0
     4c6:	0625                	c.addi	a2,9
     4c8:	0900f403          	0x900f403
     4cc:	0010                	0x10
     4ce:	0501                	c.addi	a0,0
     4d0:	09010303          	lb	t1,144(sp)
     4d4:	0000                	c.unimp
     4d6:	0301                	c.addi	t1,0
     4d8:	0902                	c.slli64	s2
     4da:	0000                	c.unimp
     4dc:	0301                	c.addi	t1,0
     4de:	0901                	c.addi	s2,0
     4e0:	0000                	c.unimp
     4e2:	0501                	c.addi	a0,0
     4e4:	7f03060b          	0x7f03060b
     4e8:	0009                	c.addi	zero,2
     4ea:	0100                	c.addi4spn	s0,sp,128
     4ec:	2005                	c.jal	50c <__stack_size-0x1fffaf4>
     4ee:	04090103          	lb	sp,64(s2)
     4f2:	0100                	c.addi4spn	s0,sp,128
     4f4:	1005                	c.addi	zero,-31
     4f6:	04090003          	lb	zero,64(s2)
     4fa:	0100                	c.addi4spn	s0,sp,128
     4fc:	0105                	c.addi	sp,1
     4fe:	04090103          	lb	sp,64(s2)
     502:	0100                	c.addi4spn	s0,sp,128
     504:	0306                	c.slli	t1,0x1
     506:	0004090b          	0x4090b
     50a:	0501                	c.addi	a0,0
     50c:	09010303          	lb	t1,144(sp)
     510:	0000                	c.unimp
     512:	0301                	c.addi	t1,0
     514:	0901                	c.addi	s2,0
     516:	0000                	c.unimp
     518:	0301                	c.addi	t1,0
     51a:	0902                	c.slli64	s2
     51c:	0000                	c.unimp
     51e:	0501                	c.addi	a0,0
     520:	0003060b          	0x3060b
     524:	0009                	c.addi	zero,2
     526:	0100                	c.addi4spn	s0,sp,128
     528:	0305                	c.addi	t1,1
     52a:	0306                	c.slli	t1,0x1
     52c:	0901                	c.addi	s2,0
     52e:	0004                	0x4
     530:	0501                	c.addi	a0,0
     532:	0612                	c.slli	a2,0x4
     534:	00090403          	lb	s0,0(s2)
     538:	0100                	c.addi4spn	s0,sp,128
     53a:	1005                	c.addi	zero,-31
     53c:	14097c03          	0x14097c03
     540:	0100                	c.addi4spn	s0,sp,128
     542:	1a05                	c.addi	s4,-31
     544:	10090003          	lb	zero,256(s2)
     548:	0100                	c.addi4spn	s0,sp,128
     54a:	0305                	c.addi	t1,1
     54c:	0306                	c.slli	t1,0x1
     54e:	0901                	c.addi	s2,0
     550:	0004                	0x4
     552:	0501                	c.addi	a0,0
     554:	061e                	c.slli	a2,0x7
     556:	00090003          	lb	zero,0(s2)
     55a:	0100                	c.addi4spn	s0,sp,128
     55c:	0305                	c.addi	t1,1
     55e:	0306                	c.slli	t1,0x1
     560:	0901                	c.addi	s2,0
     562:	0004                	0x4
     564:	0501                	c.addi	a0,0
     566:	061f 0003 0009      	0x90003061f
     56c:	0100                	c.addi4spn	s0,sp,128
     56e:	0305                	c.addi	t1,1
     570:	0306                	c.slli	t1,0x1
     572:	0901                	c.addi	s2,0
     574:	0004                	0x4
     576:	0501                	c.addi	a0,0
     578:	09000327          	0x9000327
     57c:	0000                	c.unimp
     57e:	0501                	c.addi	a0,0
     580:	0305                	c.addi	t1,1
     582:	0901                	c.addi	s2,0
     584:	0000                	c.unimp
     586:	0501                	c.addi	a0,0
     588:	01030627          	0x1030627
     58c:	0409                	c.addi	s0,2
     58e:	0100                	c.addi4spn	s0,sp,128
     590:	04097f03          	0x4097f03
     594:	0100                	c.addi4spn	s0,sp,128
     596:	3705                	c.jal	4b6 <__stack_size-0x1fffb4a>
     598:	0306                	c.slli	t1,0x1
     59a:	097f                	0x97f
     59c:	0004                	0x4
     59e:	0501                	c.addi	a0,0
     5a0:	09000327          	0x9000327
     5a4:	0000                	c.unimp
     5a6:	0501                	c.addi	a0,0
     5a8:	0305                	c.addi	t1,1
     5aa:	0901                	c.addi	s2,0
     5ac:	0000                	c.unimp
     5ae:	0501                	c.addi	a0,0
     5b0:	00030627          	0x30627
     5b4:	0009                	c.addi	zero,2
     5b6:	0100                	c.addi4spn	s0,sp,128
     5b8:	3705                	c.jal	4d8 <__stack_size-0x1fffb28>
     5ba:	0306                	c.slli	t1,0x1
     5bc:	097f                	0x97f
     5be:	0004                	0x4
     5c0:	0501                	c.addi	a0,0
     5c2:	09000327          	0x9000327
     5c6:	0000                	c.unimp
     5c8:	0501                	c.addi	a0,0
     5ca:	09020303          	lb	t1,144(tp) # 90 <__stack_size-0x1ffff70>
     5ce:	0000                	c.unimp
     5d0:	0501                	c.addi	a0,0
     5d2:	00030627          	0x30627
     5d6:	0009                	c.addi	zero,2
     5d8:	0100                	c.addi4spn	s0,sp,128
     5da:	0305                	c.addi	t1,1
     5dc:	0306                	c.slli	t1,0x1
     5de:	0901                	c.addi	s2,0
     5e0:	0008                	0x8
     5e2:	0501                	c.addi	a0,0
     5e4:	00030637          	lui	a2,0x30
     5e8:	0009                	c.addi	zero,2
     5ea:	0100                	c.addi4spn	s0,sp,128
     5ec:	2805                	c.jal	61c <__stack_size-0x1fff9e4>
     5ee:	04090003          	lb	zero,64(s2)
     5f2:	0100                	c.addi4spn	s0,sp,128
     5f4:	0305                	c.addi	t1,1
     5f6:	0306                	c.slli	t1,0x1
     5f8:	0901                	c.addi	s2,0
     5fa:	0014                	0x14
     5fc:	0501                	c.addi	a0,0
     5fe:	060c                	c.addi4spn	a1,sp,768
     600:	00090003          	lb	zero,0(s2)
     604:	0100                	c.addi4spn	s0,sp,128
     606:	0105                	c.addi	sp,1
     608:	0c090103          	lb	sp,192(s2)
     60c:	0100                	c.addi4spn	s0,sp,128
     60e:	0306                	c.slli	t1,0x1
     610:	0004090b          	0x4090b
     614:	0501                	c.addi	a0,0
     616:	09010303          	lb	t1,144(sp)
     61a:	0000                	c.unimp
     61c:	0301                	c.addi	t1,0
     61e:	0901                	c.addi	s2,0
     620:	0000                	c.unimp
     622:	0301                	c.addi	t1,0
     624:	0902                	c.slli64	s2
     626:	0000                	c.unimp
     628:	0501                	c.addi	a0,0
     62a:	0601                	c.addi	a2,0
     62c:	00097c03          	0x97c03
     630:	0100                	c.addi4spn	s0,sp,128
     632:	0305                	c.addi	t1,1
     634:	0306                	c.slli	t1,0x1
     636:	0905                	c.addi	s2,1
     638:	0004                	0x4
     63a:	0301                	c.addi	t1,0
     63c:	0901                	c.addi	s2,0
     63e:	0000                	c.unimp
     640:	0501                	c.addi	a0,0
     642:	0601                	c.addi	a2,0
     644:	00097a03          	0x97a03
     648:	0100                	c.addi4spn	s0,sp,128
     64a:	0605                	c.addi	a2,1
     64c:	04090603          	lb	a2,64(s2)
     650:	0100                	c.addi4spn	s0,sp,128
     652:	0c05                	c.addi	s8,1
     654:	04090203          	lb	tp,64(s2)
     658:	0100                	c.addi4spn	s0,sp,128
     65a:	0105                	c.addi	sp,1
     65c:	04090603          	lb	a2,64(s2)
     660:	0100                	c.addi4spn	s0,sp,128
     662:	0505                	c.addi	a0,1
     664:	0306                	c.slli	t1,0x1
     666:	097d                	c.addi	s2,31
     668:	0004                	0x4
     66a:	0501                	c.addi	a0,0
     66c:	0003060f          	0x3060f
     670:	0009                	c.addi	zero,2
     672:	0100                	c.addi4spn	s0,sp,128
     674:	0505                	c.addi	a0,1
     676:	0306                	c.slli	t1,0x1
     678:	0901                	c.addi	s2,0
     67a:	0008                	0x8
     67c:	0501                	c.addi	a0,0
     67e:	060c                	c.addi4spn	a1,sp,768
     680:	00090003          	lb	zero,0(s2)
     684:	0100                	c.addi4spn	s0,sp,128
     686:	0105                	c.addi	sp,1
     688:	0306                	c.slli	t1,0x1
     68a:	090c                	c.addi4spn	a1,sp,144
     68c:	0008                	0x8
     68e:	0501                	c.addi	a0,0
     690:	09010303          	lb	t1,144(sp)
     694:	0000                	c.unimp
     696:	0301                	c.addi	t1,0
     698:	0901                	c.addi	s2,0
     69a:	0000                	c.unimp
     69c:	0301                	c.addi	t1,0
     69e:	0902                	c.slli64	s2
     6a0:	0000                	c.unimp
     6a2:	0301                	c.addi	t1,0
     6a4:	0901                	c.addi	s2,0
     6a6:	0000                	c.unimp
     6a8:	0501                	c.addi	a0,0
     6aa:	0312                	c.slli	t1,0x4
     6ac:	0900                	c.addi4spn	s0,sp,144
     6ae:	0000                	c.unimp
     6b0:	0501                	c.addi	a0,0
     6b2:	0601                	c.addi	a2,0
     6b4:	00097b03          	0x97b03
     6b8:	0100                	c.addi4spn	s0,sp,128
     6ba:	1d05                	c.addi	s10,-31
     6bc:	08090603          	lb	a2,128(s2)
     6c0:	0100                	c.addi4spn	s0,sp,128
     6c2:	3505                	c.jal	4e2 <__stack_size-0x1fffb1e>
     6c4:	04090003          	lb	zero,64(s2)
     6c8:	0100                	c.addi4spn	s0,sp,128
     6ca:	0105                	c.addi	sp,1
     6cc:	04097a03          	0x4097a03
     6d0:	0100                	c.addi4spn	s0,sp,128
     6d2:	3505                	c.jal	4f2 <__stack_size-0x1fffb0e>
     6d4:	04090603          	lb	a2,64(s2)
     6d8:	0100                	c.addi4spn	s0,sp,128
     6da:	0505                	c.addi	a0,1
     6dc:	0306                	c.slli	t1,0x1
     6de:	0900                	c.addi4spn	s0,sp,144
     6e0:	0004                	0x4
     6e2:	0501                	c.addi	a0,0
     6e4:	09630303          	lb	t1,150(t1)
     6e8:	0000                	c.unimp
     6ea:	0301                	c.addi	t1,0
     6ec:	0901                	c.addi	s2,0
     6ee:	0000                	c.unimp
     6f0:	0301                	c.addi	t1,0
     6f2:	0902                	c.slli64	s2
     6f4:	0000                	c.unimp
     6f6:	0301                	c.addi	t1,0
     6f8:	0901                	c.addi	s2,0
     6fa:	0000                	c.unimp
     6fc:	0301                	c.addi	t1,0
     6fe:	0901                	c.addi	s2,0
     700:	0000                	c.unimp
     702:	0501                	c.addi	a0,0
     704:	0606                	c.slli	a2,0x1
     706:	00090003          	lb	zero,0(s2)
     70a:	0100                	c.addi4spn	s0,sp,128
     70c:	1205                	c.addi	tp,-31
     70e:	0306                	c.slli	t1,0x1
     710:	00100917          	auipc	s2,0x100
     714:	0501                	c.addi	a0,0
     716:	09070303          	lb	t1,144(a4)
     71a:	0000                	c.unimp
     71c:	0301                	c.addi	t1,0
     71e:	00000903          	lb	s2,0(zero) # 0 <__stack_size-0x2000000>
     722:	0501                	c.addi	a0,0
     724:	0305                	c.addi	t1,1
     726:	0905                	c.addi	s2,1
     728:	0000                	c.unimp
     72a:	0501                	c.addi	a0,0
     72c:	0609                	c.addi	a2,2
     72e:	00090003          	lb	zero,0(s2) # 100710 <__stack_size-0x1eff8f0>
     732:	0100                	c.addi4spn	s0,sp,128
     734:	0e05                	c.addi	t3,1
     736:	04090503          	lb	a0,64(s2)
     73a:	0100                	c.addi4spn	s0,sp,128
     73c:	0805                	c.addi	a6,1
     73e:	04097b03          	0x4097b03
     742:	0100                	c.addi4spn	s0,sp,128
     744:	0705                	c.addi	a4,1
     746:	0306                	c.slli	t1,0x1
     748:	0901                	c.addi	s2,0
     74a:	0004                	0x4
     74c:	0301                	c.addi	t1,0
     74e:	0901                	c.addi	s2,0
     750:	0000                	c.unimp
     752:	0501                	c.addi	a0,0
     754:	0610                	c.addi4spn	a2,sp,768
     756:	00090003          	lb	zero,0(s2)
     75a:	0100                	c.addi4spn	s0,sp,128
     75c:	0705                	c.addi	a4,1
     75e:	0306                	c.slli	t1,0x1
     760:	0901                	c.addi	s2,0
     762:	000c                	0xc
     764:	0501                	c.addi	a0,0
     766:	060e                	c.slli	a2,0x3
     768:	00090003          	lb	zero,0(s2)
     76c:	0100                	c.addi4spn	s0,sp,128
     76e:	0105                	c.addi	sp,1
     770:	04090403          	lb	s0,64(s2)
     774:	0100                	c.addi4spn	s0,sp,128
     776:	0306                	c.slli	t1,0x1
     778:	001c0907          	0x1c0907
     77c:	0501                	c.addi	a0,0
     77e:	09010303          	lb	t1,144(sp)
     782:	0000                	c.unimp
     784:	0301                	c.addi	t1,0
     786:	0902                	c.slli64	s2
     788:	0000                	c.unimp
     78a:	0301                	c.addi	t1,0
     78c:	0901                	c.addi	s2,0
     78e:	0000                	c.unimp
     790:	0501                	c.addi	a0,0
     792:	0606                	c.slli	a2,0x1
     794:	00090003          	lb	zero,0(s2)
     798:	0100                	c.addi4spn	s0,sp,128
     79a:	0105                	c.addi	sp,1
     79c:	04090503          	lb	a0,64(s2)
     7a0:	0100                	c.addi4spn	s0,sp,128
     7a2:	1905                	c.addi	s2,-31
     7a4:	0306                	c.slli	t1,0x1
     7a6:	00080903          	lb	s2,0(a6)
     7aa:	0501                	c.addi	a0,0
     7ac:	09010303          	lb	t1,144(sp)
     7b0:	0000                	c.unimp
     7b2:	0501                	c.addi	a0,0
     7b4:	0606                	c.slli	a2,0x1
     7b6:	00090003          	lb	zero,0(s2)
     7ba:	0100                	c.addi4spn	s0,sp,128
     7bc:	0505                	c.addi	a0,1
     7be:	0306                	c.slli	t1,0x1
     7c0:	0901                	c.addi	s2,0
     7c2:	0004                	0x4
     7c4:	0501                	c.addi	a0,0
     7c6:	060a                	c.slli	a2,0x2
     7c8:	00090003          	lb	zero,0(s2)
     7cc:	0100                	c.addi4spn	s0,sp,128
     7ce:	0305                	c.addi	t1,1
     7d0:	0306                	c.slli	t1,0x1
     7d2:	0901                	c.addi	s2,0
     7d4:	0008                	0x8
     7d6:	0501                	c.addi	a0,0
     7d8:	0601                	c.addi	a2,0
     7da:	00090103          	lb	sp,0(s2)
     7de:	0100                	c.addi4spn	s0,sp,128
     7e0:	0409                	c.addi	s0,2
     7e2:	0000                	c.unimp
     7e4:	0101                	c.addi	sp,0
     7e6:	0105                	c.addi	sp,1
     7e8:	0500                	c.addi4spn	s0,sp,640
     7ea:	1c02                	c.slli	s8,0x20
     7ec:	0000                	c.unimp
     7ee:	0380                	c.addi4spn	s0,sp,448
     7f0:	05d4                	c.addi4spn	a3,sp,708
     7f2:	0501                	c.addi	a0,0
     7f4:	09030303          	lb	t1,144(t1)
     7f8:	0000                	c.unimp
     7fa:	0301                	c.addi	t1,0
     7fc:	0901                	c.addi	s2,0
     7fe:	0000                	c.unimp
     800:	0301                	c.addi	t1,0
     802:	0901                	c.addi	s2,0
     804:	0000                	c.unimp
     806:	0301                	c.addi	t1,0
     808:	0901                	c.addi	s2,0
     80a:	0000                	c.unimp
     80c:	0301                	c.addi	t1,0
     80e:	0901                	c.addi	s2,0
     810:	0000                	c.unimp
     812:	0301                	c.addi	t1,0
     814:	0901                	c.addi	s2,0
     816:	0000                	c.unimp
     818:	0301                	c.addi	t1,0
     81a:	0901                	c.addi	s2,0
     81c:	0000                	c.unimp
     81e:	0301                	c.addi	t1,0
     820:	0901                	c.addi	s2,0
     822:	0000                	c.unimp
     824:	0301                	c.addi	t1,0
     826:	0901                	c.addi	s2,0
     828:	0000                	c.unimp
     82a:	0301                	c.addi	t1,0
     82c:	0902                	c.slli64	s2
     82e:	0000                	c.unimp
     830:	0301                	c.addi	t1,0
     832:	0904                	c.addi4spn	s1,sp,144
     834:	0000                	c.unimp
     836:	0301                	c.addi	t1,0
     838:	7dd8                	c.flw	fa4,60(a1)
     83a:	0009                	c.addi	zero,2
     83c:	0100                	c.addi4spn	s0,sp,128
     83e:	2605                	c.jal	b5e <__stack_size-0x1fff4a2>
     840:	00090003          	lb	zero,0(s2)
     844:	0100                	c.addi4spn	s0,sp,128
     846:	0a05                	c.addi	s4,1
     848:	0306                	c.slli	t1,0x1
     84a:	0900                	c.addi4spn	s0,sp,144
     84c:	0000                	c.unimp
     84e:	0501                	c.addi	a0,0
     850:	0301                	c.addi	t1,0
     852:	08090297          	auipc	t0,0x8090
     856:	0100                	c.addi4spn	s0,sp,128
     858:	2205                	c.jal	978 <__stack_size-0x1fff688>
     85a:	097de903          	0x97de903
     85e:	0038                	c.addi4spn	a4,sp,8
     860:	0501                	c.addi	a0,0
     862:	0326                	c.slli	t1,0x9
     864:	0900                	c.addi4spn	s0,sp,144
     866:	0004                	0x4
     868:	0501                	c.addi	a0,0
     86a:	0605                	c.addi	a2,1
     86c:	08090103          	lb	sp,128(s2)
     870:	0100                	c.addi4spn	s0,sp,128
     872:	2205                	c.jal	992 <__stack_size-0x1fff66e>
     874:	0306                	c.slli	t1,0x1
     876:	097f                	0x97f
     878:	0000                	c.unimp
     87a:	0501                	c.addi	a0,0
     87c:	030d                	c.addi	t1,3
     87e:	0901                	c.addi	s2,0
     880:	0004                	0x4
     882:	0501                	c.addi	a0,0
     884:	0626                	c.slli	a2,0x9
     886:	04097f03          	0x4097f03
     88a:	0100                	c.addi4spn	s0,sp,128
     88c:	0305                	c.addi	t1,1
     88e:	08090203          	lb	tp,128(s2)
     892:	0100                	c.addi4spn	s0,sp,128
     894:	00090103          	lb	sp,0(s2)
     898:	0100                	c.addi4spn	s0,sp,128
     89a:	1105                	c.addi	sp,-31
     89c:	0306                	c.slli	t1,0x1
     89e:	02a5                	c.addi	t0,9
     8a0:	0009                	c.addi	zero,2
     8a2:	0100                	c.addi4spn	s0,sp,128
     8a4:	2205                	c.jal	9c4 <__stack_size-0x1fff63c>
     8a6:	097dd803          	lhu	a6,151(s11)
     8aa:	0008                	0x8
     8ac:	0501                	c.addi	a0,0
     8ae:	030c                	c.addi4spn	a1,sp,384
     8b0:	00040903          	lb	s2,0(s0)
     8b4:	0501                	c.addi	a0,0
     8b6:	01030603          	lb	a2,16(t1)
     8ba:	0409                	c.addi	s0,2
     8bc:	0100                	c.addi4spn	s0,sp,128
     8be:	0902a503          	lw	a0,144(t0) # 80908e2 <__stack_size+0x60908e2>
     8c2:	0000                	c.unimp
     8c4:	0501                	c.addi	a0,0
     8c6:	0326                	c.slli	t1,0x9
     8c8:	00097dd7          	0x97dd7
     8cc:	0100                	c.addi4spn	s0,sp,128
     8ce:	0505                	c.addi	a0,1
     8d0:	08090103          	lb	sp,128(s2)
     8d4:	0100                	c.addi4spn	s0,sp,128
     8d6:	2205                	c.jal	9f6 <__stack_size-0x1fff60a>
     8d8:	0306                	c.slli	t1,0x1
     8da:	097f                	0x97f
     8dc:	0000                	c.unimp
     8de:	0501                	c.addi	a0,0
     8e0:	030d                	c.addi	t1,3
     8e2:	0901                	c.addi	s2,0
     8e4:	0004                	0x4
     8e6:	0501                	c.addi	a0,0
     8e8:	0626                	c.slli	a2,0x9
     8ea:	04097f03          	0x4097f03
     8ee:	0100                	c.addi4spn	s0,sp,128
     8f0:	0305                	c.addi	t1,1
     8f2:	08090203          	lb	tp,128(s2)
     8f6:	0100                	c.addi4spn	s0,sp,128
     8f8:	00090103          	lb	sp,0(s2)
     8fc:	0100                	c.addi4spn	s0,sp,128
     8fe:	0c05                	c.addi	s8,1
     900:	0306                	c.slli	t1,0x1
     902:	02a6                	c.slli	t0,0x9
     904:	0009                	c.addi	zero,2
     906:	0100                	c.addi4spn	s0,sp,128
     908:	1605                	c.addi	a2,-31
     90a:	08090203          	lb	tp,128(s2)
     90e:	0100                	c.addi4spn	s0,sp,128
     910:	2505                	c.jal	f30 <__stack_size-0x1fff0d0>
     912:	04090203          	lb	tp,64(s2)
     916:	0100                	c.addi4spn	s0,sp,128
     918:	2405                	c.jal	b38 <__stack_size-0x1fff4c8>
     91a:	08090103          	lb	sp,128(s2)
     91e:	0100                	c.addi4spn	s0,sp,128
     920:	0305                	c.addi	t1,1
     922:	08090103          	lb	sp,128(s2)
     926:	0100                	c.addi4spn	s0,sp,128
     928:	0c05                	c.addi	s8,1
     92a:	097dd403          	lhu	s0,151(s11)
     92e:	0004                	0x4
     930:	0501                	c.addi	a0,0
     932:	02ac0303          	lb	t1,42(s8)
     936:	0409                	c.addi	s0,2
     938:	0100                	c.addi4spn	s0,sp,128
     93a:	1305                	c.addi	t1,-31
     93c:	08097d03          	0x8097d03
     940:	0100                	c.addi4spn	s0,sp,128
     942:	0305                	c.addi	t1,1
     944:	04090303          	lb	t1,64(s2)
     948:	0100                	c.addi4spn	s0,sp,128
     94a:	0c05                	c.addi	s8,1
     94c:	097dd403          	lhu	s0,151(s11)
     950:	0004                	0x4
     952:	0501                	c.addi	a0,0
     954:	01030603          	lb	a2,16(t1)
     958:	0409                	c.addi	s0,2
     95a:	0100                	c.addi4spn	s0,sp,128
     95c:	0902a703          	lw	a4,144(t0)
     960:	0000                	c.unimp
     962:	0301                	c.addi	t1,0
     964:	0901                	c.addi	s2,0
     966:	0000                	c.unimp
     968:	0301                	c.addi	t1,0
     96a:	0901                	c.addi	s2,0
     96c:	0000                	c.unimp
     96e:	0301                	c.addi	t1,0
     970:	0901                	c.addi	s2,0
     972:	0000                	c.unimp
     974:	0301                	c.addi	t1,0
     976:	0901                	c.addi	s2,0
     978:	0000                	c.unimp
     97a:	0301                	c.addi	t1,0
     97c:	0901                	c.addi	s2,0
     97e:	0004                	0x4
     980:	0501                	c.addi	a0,0
     982:	1a030607          	0x1a030607
     986:	1009                	c.addi	zero,-30
     988:	0100                	c.addi4spn	s0,sp,128
     98a:	0305                	c.addi	t1,1
     98c:	04096603          	0x4096603
     990:	0100                	c.addi4spn	s0,sp,128
     992:	0705                	c.addi	a4,1
     994:	08091a03          	lh	s4,128(s2)
     998:	0100                	c.addi4spn	s0,sp,128
     99a:	0305                	c.addi	t1,1
     99c:	08096603          	0x8096603
     9a0:	0100                	c.addi4spn	s0,sp,128
     9a2:	0705                	c.addi	a4,1
     9a4:	08091a03          	lh	s4,128(s2)
     9a8:	0100                	c.addi4spn	s0,sp,128
     9aa:	0305                	c.addi	t1,1
     9ac:	08096603          	0x8096603
     9b0:	0100                	c.addi4spn	s0,sp,128
     9b2:	0705                	c.addi	a4,1
     9b4:	08091a03          	lh	s4,128(s2)
     9b8:	0100                	c.addi4spn	s0,sp,128
     9ba:	0305                	c.addi	t1,1
     9bc:	08096603          	0x8096603
     9c0:	0100                	c.addi4spn	s0,sp,128
     9c2:	0705                	c.addi	a4,1
     9c4:	08091a03          	lh	s4,128(s2)
     9c8:	0100                	c.addi4spn	s0,sp,128
     9ca:	0305                	c.addi	t1,1
     9cc:	08096603          	0x8096603
     9d0:	0100                	c.addi4spn	s0,sp,128
     9d2:	0705                	c.addi	a4,1
     9d4:	08091a03          	lh	s4,128(s2)
     9d8:	0100                	c.addi4spn	s0,sp,128
     9da:	0305                	c.addi	t1,1
     9dc:	08096603          	0x8096603
     9e0:	0100                	c.addi4spn	s0,sp,128
     9e2:	0705                	c.addi	a4,1
     9e4:	08091a03          	lh	s4,128(s2)
     9e8:	0100                	c.addi4spn	s0,sp,128
     9ea:	0305                	c.addi	t1,1
     9ec:	08096603          	0x8096603
     9f0:	0100                	c.addi4spn	s0,sp,128
     9f2:	0705                	c.addi	a4,1
     9f4:	08091a03          	lh	s4,128(s2)
     9f8:	0100                	c.addi4spn	s0,sp,128
     9fa:	0305                	c.addi	t1,1
     9fc:	18096603          	0x18096603
     a00:	0100                	c.addi4spn	s0,sp,128
     a02:	0805                	c.addi	a6,1
     a04:	04090a03          	lb	s4,64(s2)
     a08:	0100                	c.addi4spn	s0,sp,128
     a0a:	0305                	c.addi	t1,1
     a0c:	04097603          	0x4097603
     a10:	0100                	c.addi4spn	s0,sp,128
     a12:	0b05                	c.addi	s6,1
     a14:	0c093103          	0xc093103
     a18:	0100                	c.addi4spn	s0,sp,128
     a1a:	0305                	c.addi	t1,1
     a1c:	04094f03          	lbu	t5,64(s2)
     a20:	0100                	c.addi4spn	s0,sp,128
     a22:	0306                	c.slli	t1,0x1
     a24:	0902                	c.slli64	s2
     a26:	0004                	0x4
     a28:	0301                	c.addi	t1,0
     a2a:	0908                	c.addi4spn	a0,sp,144
     a2c:	0000                	c.unimp
     a2e:	0601                	c.addi	a2,0
     a30:	00097603          	0x97603
     a34:	0100                	c.addi4spn	s0,sp,128
     a36:	0805                	c.addi	a6,1
     a38:	04090a03          	lb	s4,64(s2)
     a3c:	0100                	c.addi4spn	s0,sp,128
     a3e:	0305                	c.addi	t1,1
     a40:	0306                	c.slli	t1,0x1
     a42:	0901                	c.addi	s2,0
     a44:	0004                	0x4
     a46:	0501                	c.addi	a0,0
     a48:	030a                	c.slli	t1,0x2
     a4a:	0900                	c.addi4spn	s0,sp,144
     a4c:	0000                	c.unimp
     a4e:	0501                	c.addi	a0,0
     a50:	0608                	c.addi4spn	a0,sp,768
     a52:	00097f03          	0x97f03
     a56:	0100                	c.addi4spn	s0,sp,128
     a58:	1405                	c.addi	s0,-31
     a5a:	08090903          	lb	s2,128(s2)
     a5e:	0100                	c.addi4spn	s0,sp,128
     a60:	0b05                	c.addi	s6,1
     a62:	20091e03          	lh	t3,512(s2)
     a66:	0100                	c.addi4spn	s0,sp,128
     a68:	0705                	c.addi	a4,1
     a6a:	0306                	c.slli	t1,0x1
     a6c:	0964                	c.addi4spn	s1,sp,156
     a6e:	0004                	0x4
     a70:	0501                	c.addi	a0,0
     a72:	7e9b0303          	lb	t1,2025(s6)
     a76:	0009                	c.addi	zero,2
     a78:	0100                	c.addi4spn	s0,sp,128
     a7a:	0d05                	c.addi	s10,1
     a7c:	0306                	c.slli	t1,0x1
     a7e:	0900                	c.addi4spn	s0,sp,144
     a80:	0000                	c.unimp
     a82:	0501                	c.addi	a0,0
     a84:	01030603          	lb	a2,16(t1)
     a88:	0809                	c.addi	a6,2
     a8a:	0100                	c.addi4spn	s0,sp,128
     a8c:	0705                	c.addi	a4,1
     a8e:	0901e503          	0x901e503
     a92:	0000                	c.unimp
     a94:	0501                	c.addi	a0,0
     a96:	7e8f0303          	lb	t1,2024(t5)
     a9a:	0009                	c.addi	zero,2
     a9c:	0100                	c.addi4spn	s0,sp,128
     a9e:	00090203          	lb	tp,0(s2)
     aa2:	0100                	c.addi4spn	s0,sp,128
     aa4:	00090103          	lb	sp,0(s2)
     aa8:	0100                	c.addi4spn	s0,sp,128
     aaa:	00090103          	lb	sp,0(s2)
     aae:	0100                	c.addi4spn	s0,sp,128
     ab0:	0d05                	c.addi	s10,1
     ab2:	0306                	c.slli	t1,0x1
     ab4:	0900                	c.addi4spn	s0,sp,144
     ab6:	0000                	c.unimp
     ab8:	0501                	c.addi	a0,0
     aba:	ef030607          	0xef030607
     abe:	0901                	c.addi	s2,0
     ac0:	0008                	0x8
     ac2:	0301                	c.addi	t1,0
     ac4:	0901                	c.addi	s2,0
     ac6:	0000                	c.unimp
     ac8:	0301                	c.addi	t1,0
     aca:	0901                	c.addi	s2,0
     acc:	0000                	c.unimp
     ace:	0301                	c.addi	t1,0
     ad0:	0901                	c.addi	s2,0
     ad2:	004c                	c.addi4spn	a1,sp,4
     ad4:	0301                	c.addi	t1,0
     ad6:	0901                	c.addi	s2,0
     ad8:	0000                	c.unimp
     ada:	0501                	c.addi	a0,0
     adc:	0312                	c.slli	t1,0x4
     ade:	7f98                	c.flw	fa4,56(a5)
     ae0:	0009                	c.addi	zero,2
     ae2:	0100                	c.addi4spn	s0,sp,128
     ae4:	0605                	c.addi	a2,1
     ae6:	0306                	c.slli	t1,0x1
     ae8:	0969                	c.addi	s2,26
     aea:	0000                	c.unimp
     aec:	0501                	c.addi	a0,0
     aee:	0605                	c.addi	a2,1
     af0:	04091803          	lh	a6,64(s2)
     af4:	0100                	c.addi4spn	s0,sp,128
     af6:	0305                	c.addi	t1,1
     af8:	00096303          	0x96303
     afc:	0100                	c.addi4spn	s0,sp,128
     afe:	00090103          	lb	sp,0(s2)
     b02:	0100                	c.addi4spn	s0,sp,128
     b04:	00090203          	lb	tp,0(s2)
     b08:	0100                	c.addi4spn	s0,sp,128
     b0a:	00090103          	lb	sp,0(s2)
     b0e:	0100                	c.addi4spn	s0,sp,128
     b10:	00090103          	lb	sp,0(s2)
     b14:	0100                	c.addi4spn	s0,sp,128
     b16:	0605                	c.addi	a2,1
     b18:	0306                	c.slli	t1,0x1
     b1a:	0900                	c.addi4spn	s0,sp,144
     b1c:	0000                	c.unimp
     b1e:	0501                	c.addi	a0,0
     b20:	0612                	c.slli	a2,0x4
     b22:	0c091703          	lh	a4,192(s2)
     b26:	0100                	c.addi4spn	s0,sp,128
     b28:	0305                	c.addi	t1,1
     b2a:	00090703          	lb	a4,0(s2)
     b2e:	0100                	c.addi4spn	s0,sp,128
     b30:	00090303          	lb	t1,0(s2)
     b34:	0100                	c.addi4spn	s0,sp,128
     b36:	0505                	c.addi	a0,1
     b38:	00090503          	lb	a0,0(s2)
     b3c:	0100                	c.addi4spn	s0,sp,128
     b3e:	0905                	c.addi	s2,1
     b40:	0306                	c.slli	t1,0x1
     b42:	0900                	c.addi4spn	s0,sp,144
     b44:	0000                	c.unimp
     b46:	0501                	c.addi	a0,0
     b48:	031f 0943 000c      	0xc0943031f
     b4e:	0501                	c.addi	a0,0
     b50:	031a                	c.slli	t1,0x6
     b52:	097e                	c.slli	s2,0x1f
     b54:	0004                	0x4
     b56:	0501                	c.addi	a0,0
     b58:	09050327          	0x9050327
     b5c:	0004                	0x4
     b5e:	0501                	c.addi	a0,0
     b60:	0311                	c.addi	t1,4
     b62:	04090193          	addi	gp,s2,64
     b66:	0100                	c.addi4spn	s0,sp,128
     b68:	1a05                	c.addi	s4,-31
     b6a:	097ee803          	0x97ee803
     b6e:	0004                	0x4
     b70:	0501                	c.addi	a0,0
     b72:	031e                	c.slli	t1,0x7
     b74:	0901                	c.addi	s2,0
     b76:	0004                	0x4
     b78:	0501                	c.addi	a0,0
     b7a:	09030327          	0x9030327
     b7e:	0004                	0x4
     b80:	0501                	c.addi	a0,0
     b82:	0328                	c.addi4spn	a0,sp,392
     b84:	0902                	c.slli64	s2
     b86:	0008                	0x8
     b88:	0501                	c.addi	a0,0
     b8a:	019f0307          	0x19f0307
     b8e:	0409                	c.addi	s0,2
     b90:	0100                	c.addi4spn	s0,sp,128
     b92:	0c05                	c.addi	s8,1
     b94:	097ee203          	0x97ee203
     b98:	0004                	0x4
     b9a:	0501                	c.addi	a0,0
     b9c:	097e0327          	0x97e0327
     ba0:	0004                	0x4
     ba2:	0501                	c.addi	a0,0
     ba4:	031f 097d 0004      	0x4097d031f
     baa:	0501                	c.addi	a0,0
     bac:	030c                	c.addi4spn	a1,sp,384
     bae:	0905                	c.addi	s2,1
     bb0:	0004                	0x4
     bb2:	0501                	c.addi	a0,0
     bb4:	0311                	c.addi	t1,4
     bb6:	0191                	c.addi	gp,4
     bb8:	0409                	c.addi	s0,2
     bba:	0100                	c.addi4spn	s0,sp,128
     bbc:	0705                	c.addi	a4,1
     bbe:	0306                	c.slli	t1,0x1
     bc0:	0902                	c.slli64	s2
     bc2:	0004                	0x4
     bc4:	0501                	c.addi	a0,0
     bc6:	0318                	c.addi4spn	a4,sp,384
     bc8:	0900                	c.addi4spn	s0,sp,144
     bca:	0000                	c.unimp
     bcc:	0301                	c.addi	t1,0
     bce:	0900                	c.addi4spn	s0,sp,144
     bd0:	0000                	c.unimp
     bd2:	0501                	c.addi	a0,0
     bd4:	09090307          	0x9090307
     bd8:	0000                	c.unimp
     bda:	0501                	c.addi	a0,0
     bdc:	7ed90303          	lb	t1,2029(s2)
     be0:	0009                	c.addi	zero,2
     be2:	0100                	c.addi4spn	s0,sp,128
     be4:	00090103          	lb	sp,0(s2)
     be8:	0100                	c.addi4spn	s0,sp,128
     bea:	00090203          	lb	tp,0(s2)
     bee:	0100                	c.addi4spn	s0,sp,128
     bf0:	00090103          	lb	sp,0(s2)
     bf4:	0100                	c.addi4spn	s0,sp,128
     bf6:	00090103          	lb	sp,0(s2)
     bfa:	0100                	c.addi4spn	s0,sp,128
     bfc:	00090103          	lb	sp,0(s2)
     c00:	0100                	c.addi4spn	s0,sp,128
     c02:	00090103          	lb	sp,0(s2)
     c06:	0100                	c.addi4spn	s0,sp,128
     c08:	2705                	c.jal	1328 <__stack_size-0x1ffecd8>
     c0a:	00090003          	lb	zero,0(s2)
     c0e:	0100                	c.addi4spn	s0,sp,128
     c10:	0505                	c.addi	a0,1
     c12:	00090103          	lb	sp,0(s2)
     c16:	0100                	c.addi4spn	s0,sp,128
     c18:	3705                	c.jal	b38 <__stack_size-0x1fff4c8>
     c1a:	00097f03          	0x97f03
     c1e:	0100                	c.addi4spn	s0,sp,128
     c20:	2705                	c.jal	1340 <__stack_size-0x1ffecc0>
     c22:	00090003          	lb	zero,0(s2)
     c26:	0100                	c.addi4spn	s0,sp,128
     c28:	0505                	c.addi	a0,1
     c2a:	00090103          	lb	sp,0(s2)
     c2e:	0100                	c.addi4spn	s0,sp,128
     c30:	3705                	c.jal	b50 <__stack_size-0x1fff4b0>
     c32:	00097f03          	0x97f03
     c36:	0100                	c.addi4spn	s0,sp,128
     c38:	2705                	c.jal	1358 <__stack_size-0x1ffeca8>
     c3a:	00090003          	lb	zero,0(s2)
     c3e:	0100                	c.addi4spn	s0,sp,128
     c40:	0305                	c.addi	t1,1
     c42:	00090203          	lb	tp,0(s2)
     c46:	0100                	c.addi4spn	s0,sp,128
     c48:	00090103          	lb	sp,0(s2)
     c4c:	0100                	c.addi4spn	s0,sp,128
     c4e:	00090103          	lb	sp,0(s2)
     c52:	0100                	c.addi4spn	s0,sp,128
     c54:	0705                	c.addi	a4,1
     c56:	09019e03          	lh	t3,144(gp)
     c5a:	0000                	c.unimp
     c5c:	0301                	c.addi	t1,0
     c5e:	0901                	c.addi	s2,0
     c60:	0004                	0x4
     c62:	0501                	c.addi	a0,0
     c64:	0325                	c.addi	t1,9
     c66:	0900                	c.addi4spn	s0,sp,144
     c68:	0000                	c.unimp
     c6a:	0501                	c.addi	a0,0
     c6c:	0615                	c.addi	a2,5
     c6e:	10090003          	lb	zero,256(s2)
     c72:	0100                	c.addi4spn	s0,sp,128
     c74:	2505                	c.jal	1294 <__stack_size-0x1ffed6c>
     c76:	04090003          	lb	zero,64(s2)
     c7a:	0100                	c.addi4spn	s0,sp,128
     c7c:	1005                	c.addi	zero,-31
     c7e:	04097103          	0x4097103
     c82:	0100                	c.addi4spn	s0,sp,128
     c84:	1105                	c.addi	sp,-31
     c86:	04097e03          	0x4097e03
     c8a:	0100                	c.addi4spn	s0,sp,128
     c8c:	0605                	c.addi	a2,1
     c8e:	097f8403          	lb	s0,151(t6)
     c92:	0004                	0x4
     c94:	0501                	c.addi	a0,0
     c96:	04020033          	0x4020033
     c9a:	0602                	c.slli64	a2
     c9c:	09018d03          	lb	s10,144(gp)
     ca0:	0004                	0x4
     ca2:	0501                	c.addi	a0,0
     ca4:	0009                	c.addi	zero,2
     ca6:	0402                	c.slli64	s0
     ca8:	0302                	c.slli64	t1
     caa:	00080903          	lb	s2,0(a6)
     cae:	0501                	c.addi	a0,0
     cb0:	04020003          	lb	zero,64(tp) # 40 <__stack_size-0x1ffffc0>
     cb4:	0302                	c.slli64	t1
     cb6:	00097eeb          	0x97eeb
     cba:	0100                	c.addi4spn	s0,sp,128
     cbc:	0200                	c.addi4spn	s0,sp,256
     cbe:	0204                	c.addi4spn	s1,sp,256
     cc0:	00090103          	lb	sp,0(s2)
     cc4:	0100                	c.addi4spn	s0,sp,128
     cc6:	0200                	c.addi4spn	s0,sp,256
     cc8:	0204                	c.addi4spn	s1,sp,256
     cca:	00090203          	lb	tp,0(s2)
     cce:	0100                	c.addi4spn	s0,sp,128
     cd0:	0200                	c.addi4spn	s0,sp,256
     cd2:	0204                	c.addi4spn	s1,sp,256
     cd4:	00090103          	lb	sp,0(s2)
     cd8:	0100                	c.addi4spn	s0,sp,128
     cda:	0200                	c.addi4spn	s0,sp,256
     cdc:	0204                	c.addi4spn	s1,sp,256
     cde:	00090103          	lb	sp,0(s2)
     ce2:	0100                	c.addi4spn	s0,sp,128
     ce4:	2505                	c.jal	1304 <__stack_size-0x1ffecfc>
     ce6:	0200                	c.addi4spn	s0,sp,256
     ce8:	0204                	c.addi4spn	s1,sp,256
     cea:	09018d03          	lb	s10,144(gp)
     cee:	0000                	c.unimp
     cf0:	0501                	c.addi	a0,0
     cf2:	060c                	c.addi4spn	a1,sp,768
     cf4:	097ef503          	0x97ef503
     cf8:	0004                	0x4
     cfa:	0501                	c.addi	a0,0
     cfc:	0306                	c.slli	t1,0x1
     cfe:	097e                	c.slli	s2,0x1f
     d00:	0004                	0x4
     d02:	0501                	c.addi	a0,0
     d04:	9303060b          	0x9303060b
     d08:	0901                	c.addi	s2,0
     d0a:	0004                	0x4
     d0c:	0501                	c.addi	a0,0
     d0e:	7ea40303          	lb	t1,2026(s0)
     d12:	0009                	c.addi	zero,2
     d14:	0100                	c.addi4spn	s0,sp,128
     d16:	00090103          	lb	sp,0(s2)
     d1a:	0100                	c.addi4spn	s0,sp,128
     d1c:	0505                	c.addi	a0,1
     d1e:	00090203          	lb	tp,0(s2)
     d22:	0100                	c.addi4spn	s0,sp,128
     d24:	0305                	c.addi	t1,1
     d26:	00090103          	lb	sp,0(s2)
     d2a:	0100                	c.addi4spn	s0,sp,128
     d2c:	0505                	c.addi	a0,1
     d2e:	00090203          	lb	tp,0(s2)
     d32:	0100                	c.addi4spn	s0,sp,128
     d34:	00090103          	lb	sp,0(s2)
     d38:	0100                	c.addi4spn	s0,sp,128
     d3a:	0b05                	c.addi	s6,1
     d3c:	0901d603          	lhu	a2,144(gp)
     d40:	0000                	c.unimp
     d42:	0501                	c.addi	a0,0
     d44:	060c                	c.addi4spn	a1,sp,768
     d46:	00097c03          	0x97c03
     d4a:	0100                	c.addi4spn	s0,sp,128
     d4c:	0b05                	c.addi	s6,1
     d4e:	04090403          	lb	s0,64(s2)
     d52:	0100                	c.addi4spn	s0,sp,128
     d54:	3305                	c.jal	a74 <__stack_size-0x1fff58c>
     d56:	24097903          	0x24097903
     d5a:	0100                	c.addi4spn	s0,sp,128
     d5c:	0b05                	c.addi	s6,1
     d5e:	04090703          	lb	a4,64(s2)
     d62:	0100                	c.addi4spn	s0,sp,128
     d64:	0306                	c.slli	t1,0x1
     d66:	0901                	c.addi	s2,0
     d68:	0024                	c.addi4spn	s1,sp,8
     d6a:	0301                	c.addi	t1,0
     d6c:	0901                	c.addi	s2,0
     d6e:	0000                	c.unimp
     d70:	0501                	c.addi	a0,0
     d72:	77030633          	0x77030633
     d76:	0009                	c.addi	zero,2
     d78:	0100                	c.addi4spn	s0,sp,128
     d7a:	1405                	c.addi	s0,-31
     d7c:	04090903          	lb	s2,64(s2)
     d80:	0100                	c.addi4spn	s0,sp,128
     d82:	0b05                	c.addi	s6,1
     d84:	04097e03          	0x4097e03
     d88:	0100                	c.addi4spn	s0,sp,128
     d8a:	1305                	c.addi	t1,-31
     d8c:	097ea903          	lw	s2,151(t4) # fffff097 <_sp+0x77fff097>
     d90:	0008                	0x8
     d92:	0501                	c.addi	a0,0
     d94:	d0030633          	0xd0030633
     d98:	0901                	c.addi	s2,0
     d9a:	0004                	0x4
     d9c:	0501                	c.addi	a0,0
     d9e:	0309                	c.addi	t1,2
     da0:	00000903          	lb	s2,0(zero) # 0 <__stack_size-0x2000000>
     da4:	0501                	c.addi	a0,0
     da6:	7eeb0303          	lb	t1,2030(s6)
     daa:	0009                	c.addi	zero,2
     dac:	0100                	c.addi4spn	s0,sp,128
     dae:	00090103          	lb	sp,0(s2)
     db2:	0100                	c.addi4spn	s0,sp,128
     db4:	00090203          	lb	tp,0(s2)
     db8:	0100                	c.addi4spn	s0,sp,128
     dba:	00090103          	lb	sp,0(s2)
     dbe:	0100                	c.addi4spn	s0,sp,128
     dc0:	00090103          	lb	sp,0(s2)
     dc4:	0100                	c.addi4spn	s0,sp,128
     dc6:	2505                	c.jal	13e6 <__stack_size-0x1ffec1a>
     dc8:	09018d03          	lb	s10,144(gp)
     dcc:	0000                	c.unimp
     dce:	0501                	c.addi	a0,0
     dd0:	0611                	c.addi	a2,4
     dd2:	18096f03          	0x18096f03
     dd6:	0100                	c.addi4spn	s0,sp,128
     dd8:	04091e03          	lh	t3,64(s2)
     ddc:	0100                	c.addi4spn	s0,sp,128
     dde:	1d05                	c.addi	s10,-31
     de0:	08090103          	lb	sp,128(s2)
     de4:	0100                	c.addi4spn	s0,sp,128
     de6:	2205                	c.jal	f06 <__stack_size-0x1fff0fa>
     de8:	0c090103          	lb	sp,192(s2)
     dec:	0100                	c.addi4spn	s0,sp,128
     dee:	1d05                	c.addi	s10,-31
     df0:	04097f03          	0x4097f03
     df4:	0100                	c.addi4spn	s0,sp,128
     df6:	1505                	c.addi	a0,-31
     df8:	04090103          	lb	sp,64(s2)
     dfc:	0100                	c.addi4spn	s0,sp,128
     dfe:	1105                	c.addi	sp,-31
     e00:	04090003          	lb	zero,64(s2)
     e04:	0100                	c.addi4spn	s0,sp,128
     e06:	1505                	c.addi	a0,-31
     e08:	04090003          	lb	zero,64(s2)
     e0c:	0100                	c.addi4spn	s0,sp,128
     e0e:	1105                	c.addi	sp,-31
     e10:	04090003          	lb	zero,64(s2)
     e14:	0100                	c.addi4spn	s0,sp,128
     e16:	0705                	c.addi	a4,1
     e18:	0200                	c.addi4spn	s0,sp,256
     e1a:	0204                	c.addi4spn	s1,sp,256
     e1c:	0306                	c.slli	t1,0x1
     e1e:	097e                	c.slli	s2,0x1f
     e20:	0004                	0x4
     e22:	0001                	c.addi	zero,0
     e24:	0402                	c.slli64	s0
     e26:	0302                	c.slli64	t1
     e28:	0901                	c.addi	s2,0
     e2a:	0000                	c.unimp
     e2c:	0001                	c.addi	zero,0
     e2e:	0402                	c.slli64	s0
     e30:	0302                	c.slli64	t1
     e32:	0901                	c.addi	s2,0
     e34:	0000                	c.unimp
     e36:	0001                	c.addi	zero,0
     e38:	0402                	c.slli64	s0
     e3a:	0302                	c.slli64	t1
     e3c:	0902                	c.slli64	s2
     e3e:	0000                	c.unimp
     e40:	0501                	c.addi	a0,0
     e42:	04020003          	lb	zero,64(tp) # 40 <__stack_size-0x1ffffc0>
     e46:	0302                	c.slli64	t1
     e48:	7dc9                	c.lui	s11,0xffff2
     e4a:	0009                	c.addi	zero,2
     e4c:	0100                	c.addi4spn	s0,sp,128
     e4e:	0200                	c.addi4spn	s0,sp,256
     e50:	0204                	c.addi4spn	s1,sp,256
     e52:	00090103          	lb	sp,0(s2)
     e56:	0100                	c.addi4spn	s0,sp,128
     e58:	0200                	c.addi4spn	s0,sp,256
     e5a:	0204                	c.addi4spn	s1,sp,256
     e5c:	00090203          	lb	tp,0(s2)
     e60:	0100                	c.addi4spn	s0,sp,128
     e62:	0200                	c.addi4spn	s0,sp,256
     e64:	0204                	c.addi4spn	s1,sp,256
     e66:	00090103          	lb	sp,0(s2)
     e6a:	0100                	c.addi4spn	s0,sp,128
     e6c:	0505                	c.addi	a0,1
     e6e:	0200                	c.addi4spn	s0,sp,256
     e70:	0204                	c.addi4spn	s1,sp,256
     e72:	00090103          	lb	sp,0(s2)
     e76:	0100                	c.addi4spn	s0,sp,128
     e78:	0805                	c.addi	a6,1
     e7a:	0200                	c.addi4spn	s0,sp,256
     e7c:	0204                	c.addi4spn	s1,sp,256
     e7e:	0306                	c.slli	t1,0x1
     e80:	0900                	c.addi4spn	s0,sp,144
     e82:	0000                	c.unimp
     e84:	0501                	c.addi	a0,0
     e86:	03030607          	0x3030607
     e8a:	0809                	c.addi	a6,2
     e8c:	0100                	c.addi4spn	s0,sp,128
     e8e:	00090103          	lb	sp,0(s2)
     e92:	0100                	c.addi4spn	s0,sp,128
     e94:	1e05                	c.addi	t3,-31
     e96:	0306                	c.slli	t1,0x1
     e98:	0900                	c.addi4spn	s0,sp,144
     e9a:	0000                	c.unimp
     e9c:	0501                	c.addi	a0,0
     e9e:	097f030f          	0x97f030f
     ea2:	0004                	0x4
     ea4:	0501                	c.addi	a0,0
     ea6:	031e                	c.slli	t1,0x7
     ea8:	0901                	c.addi	s2,0
     eaa:	0004                	0x4
     eac:	0501                	c.addi	a0,0
     eae:	01030607          	0x1030607
     eb2:	0409                	c.addi	s0,2
     eb4:	0100                	c.addi4spn	s0,sp,128
     eb6:	1305                	c.addi	t1,-31
     eb8:	00090203          	lb	tp,0(s2)
     ebc:	0100                	c.addi4spn	s0,sp,128
     ebe:	3605                	c.jal	9de <__stack_size-0x1fff622>
     ec0:	09028303          	lb	t1,144(t0)
     ec4:	0000                	c.unimp
     ec6:	0501                	c.addi	a0,0
     ec8:	09000323          	sb	a6,134(zero) # 86 <__stack_size-0x1ffff7a>
     ecc:	0004                	0x4
     ece:	0501                	c.addi	a0,0
     ed0:	16030607          	0x16030607
     ed4:	0809                	c.addi	a6,2
     ed6:	0100                	c.addi4spn	s0,sp,128
     ed8:	1d05                	c.addi	s10,-31
     eda:	097f8c03          	lb	s8,151(t6)
     ede:	0008                	0x8
     ee0:	0501                	c.addi	a0,0
     ee2:	09540327          	0x9540327
     ee6:	0004                	0x4
     ee8:	0501                	c.addi	a0,0
     eea:	030c                	c.addi4spn	a1,sp,384
     eec:	091a                	c.slli	s2,0x6
     eee:	0008                	0x8
     ef0:	0501                	c.addi	a0,0
     ef2:	7ee60313          	addi	t1,a2,2030 # 307ee <__stack_size-0x1fcf812>
     ef6:	1409                	c.addi	s0,-30
     ef8:	0100                	c.addi4spn	s0,sp,128
     efa:	1005                	c.addi	zero,-31
     efc:	09029203          	lh	tp,144(t0)
     f00:	000c                	0xc
     f02:	0501                	c.addi	a0,0
     f04:	7dee0313          	addi	t1,t3,2014 # 117de <__stack_size-0x1fee822>
     f08:	0809                	c.addi	a6,2
     f0a:	0100                	c.addi4spn	s0,sp,128
     f0c:	0805                	c.addi	a6,1
     f0e:	0902be03          	0x902be03
     f12:	0008                	0x8
     f14:	0501                	c.addi	a0,0
     f16:	030a                	c.slli	t1,0x2
     f18:	097d                	c.addi	s2,31
     f1a:	0004                	0x4
     f1c:	0501                	c.addi	a0,0
     f1e:	0306                	c.slli	t1,0x1
     f20:	7f9a                	c.flwsp	ft11,164(sp)
     f22:	0c09                	c.addi	s8,2
     f24:	0100                	c.addi4spn	s0,sp,128
     f26:	0805                	c.addi	a6,1
     f28:	0900e903          	0x900e903
     f2c:	0004                	0x4
     f2e:	0501                	c.addi	a0,0
     f30:	0605                	c.addi	a2,1
     f32:	08097d03          	0x8097d03
     f36:	0100                	c.addi4spn	s0,sp,128
     f38:	0a05                	c.addi	s4,1
     f3a:	00094703          	lbu	a4,0(s2)
     f3e:	0100                	c.addi4spn	s0,sp,128
     f40:	0305                	c.addi	t1,1
     f42:	00093c03          	0x93c03
     f46:	0100                	c.addi4spn	s0,sp,128
     f48:	097f9703          	lh	a4,151(t6)
     f4c:	0000                	c.unimp
     f4e:	0501                	c.addi	a0,0
     f50:	0606                	c.slli	a2,0x1
     f52:	00090003          	lb	zero,0(s2)
     f56:	0100                	c.addi4spn	s0,sp,128
     f58:	0505                	c.addi	a0,1
     f5a:	0306                	c.slli	t1,0x1
     f5c:	0901                	c.addi	s2,0
     f5e:	0008                	0x8
     f60:	0601                	c.addi	a2,0
     f62:	0900e903          	0x900e903
     f66:	0000                	c.unimp
     f68:	0501                	c.addi	a0,0
     f6a:	030a                	c.slli	t1,0x2
     f6c:	08097f97          	auipc	t6,0x8097
     f70:	0100                	c.addi4spn	s0,sp,128
     f72:	0305                	c.addi	t1,1
     f74:	0306                	c.slli	t1,0x1
     f76:	0901                	c.addi	s2,0
     f78:	0008                	0x8
     f7a:	0501                	c.addi	a0,0
     f7c:	0305                	c.addi	t1,1
     f7e:	00e8                	c.addi4spn	a0,sp,76
     f80:	0009                	c.addi	zero,2
     f82:	0100                	c.addi4spn	s0,sp,128
     f84:	04090103          	lb	sp,64(s2)
     f88:	0100                	c.addi4spn	s0,sp,128
     f8a:	0305                	c.addi	t1,1
     f8c:	14090203          	lb	tp,320(s2)
     f90:	0100                	c.addi4spn	s0,sp,128
     f92:	0805                	c.addi	a6,1
     f94:	0306                	c.slli	t1,0x1
     f96:	0900                	c.addi4spn	s0,sp,144
     f98:	0000                	c.unimp
     f9a:	0501                	c.addi	a0,0
     f9c:	93030603          	lb	a2,-1744(t1)
     fa0:	097f                	0x97f
     fa2:	0004                	0x4
     fa4:	0501                	c.addi	a0,0
     fa6:	0606                	c.slli	a2,0x1
     fa8:	00090003          	lb	zero,0(s2)
     fac:	0100                	c.addi4spn	s0,sp,128
     fae:	0505                	c.addi	a0,1
     fb0:	0900ee03          	0x900ee03
     fb4:	0008                	0x8
     fb6:	0601                	c.addi	a2,0
     fb8:	097f9303          	lh	t1,151(t6) # 8098003 <__stack_size+0x6098003>
     fbc:	000c                	0xc
     fbe:	0501                	c.addi	a0,0
     fc0:	060a                	c.slli	a2,0x2
     fc2:	00090003          	lb	zero,0(s2)
     fc6:	0100                	c.addi4spn	s0,sp,128
     fc8:	0305                	c.addi	t1,1
     fca:	0306                	c.slli	t1,0x1
     fcc:	0901                	c.addi	s2,0
     fce:	0004                	0x4
     fd0:	0501                	c.addi	a0,0
     fd2:	0305                	c.addi	t1,1
     fd4:	00ec                	c.addi4spn	a1,sp,76
     fd6:	0009                	c.addi	zero,2
     fd8:	0100                	c.addi4spn	s0,sp,128
     fda:	04090103          	lb	sp,64(s2)
     fde:	0100                	c.addi4spn	s0,sp,128
     fe0:	0305                	c.addi	t1,1
     fe2:	14090203          	lb	tp,320(s2)
     fe6:	0100                	c.addi4spn	s0,sp,128
     fe8:	0805                	c.addi	a6,1
     fea:	0306                	c.slli	t1,0x1
     fec:	0900                	c.addi4spn	s0,sp,144
     fee:	0000                	c.unimp
     ff0:	0501                	c.addi	a0,0
     ff2:	8f030603          	lb	a2,-1808(t1)
     ff6:	097f                	0x97f
     ff8:	0004                	0x4
     ffa:	0501                	c.addi	a0,0
     ffc:	0606                	c.slli	a2,0x1
     ffe:	00090003          	lb	zero,0(s2)
    1002:	0100                	c.addi4spn	s0,sp,128
    1004:	0505                	c.addi	a0,1
    1006:	0900f203          	0x900f203
    100a:	0008                	0x8
    100c:	0601                	c.addi	a2,0
    100e:	097f8f03          	lb	t5,151(t6)
    1012:	000c                	0xc
    1014:	0501                	c.addi	a0,0
    1016:	060a                	c.slli	a2,0x2
    1018:	00090003          	lb	zero,0(s2)
    101c:	0100                	c.addi4spn	s0,sp,128
    101e:	0305                	c.addi	t1,1
    1020:	0306                	c.slli	t1,0x1
    1022:	0901                	c.addi	s2,0
    1024:	0004                	0x4
    1026:	0501                	c.addi	a0,0
    1028:	0305                	c.addi	t1,1
    102a:	00f0                	c.addi4spn	a2,sp,76
    102c:	0009                	c.addi	zero,2
    102e:	0100                	c.addi4spn	s0,sp,128
    1030:	04090103          	lb	sp,64(s2)
    1034:	0100                	c.addi4spn	s0,sp,128
    1036:	0305                	c.addi	t1,1
    1038:	14090203          	lb	tp,320(s2)
    103c:	0100                	c.addi4spn	s0,sp,128
    103e:	0805                	c.addi	a6,1
    1040:	0306                	c.slli	t1,0x1
    1042:	0900                	c.addi4spn	s0,sp,144
    1044:	0000                	c.unimp
    1046:	0501                	c.addi	a0,0
    1048:	8b030603          	lb	a2,-1872(t1)
    104c:	097f                	0x97f
    104e:	0004                	0x4
    1050:	0501                	c.addi	a0,0
    1052:	0606                	c.slli	a2,0x1
    1054:	00090003          	lb	zero,0(s2)
    1058:	0100                	c.addi4spn	s0,sp,128
    105a:	0505                	c.addi	a0,1
    105c:	0900f603          	0x900f603
    1060:	0008                	0x8
    1062:	0601                	c.addi	a2,0
    1064:	097f8b03          	lb	s6,151(t6)
    1068:	000c                	0xc
    106a:	0501                	c.addi	a0,0
    106c:	060a                	c.slli	a2,0x2
    106e:	00090003          	lb	zero,0(s2)
    1072:	0100                	c.addi4spn	s0,sp,128
    1074:	0305                	c.addi	t1,1
    1076:	0306                	c.slli	t1,0x1
    1078:	0901                	c.addi	s2,0
    107a:	0004                	0x4
    107c:	0501                	c.addi	a0,0
    107e:	0305                	c.addi	t1,1
    1080:	00f4                	c.addi4spn	a3,sp,76
    1082:	0009                	c.addi	zero,2
    1084:	0100                	c.addi4spn	s0,sp,128
    1086:	04090103          	lb	sp,64(s2)
    108a:	0100                	c.addi4spn	s0,sp,128
    108c:	0305                	c.addi	t1,1
    108e:	14090203          	lb	tp,320(s2)
    1092:	0100                	c.addi4spn	s0,sp,128
    1094:	1805                	c.addi	a6,-31
    1096:	0306                	c.slli	t1,0x1
    1098:	0900                	c.addi4spn	s0,sp,144
    109a:	0000                	c.unimp
    109c:	0501                	c.addi	a0,0
    109e:	87030603          	lb	a2,-1936(t1)
    10a2:	097f                	0x97f
    10a4:	0004                	0x4
    10a6:	0501                	c.addi	a0,0
    10a8:	0606                	c.slli	a2,0x1
    10aa:	00090003          	lb	zero,0(s2)
    10ae:	0100                	c.addi4spn	s0,sp,128
    10b0:	0505                	c.addi	a0,1
    10b2:	0900fa03          	0x900fa03
    10b6:	0008                	0x8
    10b8:	0601                	c.addi	a2,0
    10ba:	097f8703          	lb	a4,151(t6)
    10be:	000c                	0xc
    10c0:	0501                	c.addi	a0,0
    10c2:	060a                	c.slli	a2,0x2
    10c4:	00090003          	lb	zero,0(s2)
    10c8:	0100                	c.addi4spn	s0,sp,128
    10ca:	0305                	c.addi	t1,1
    10cc:	0306                	c.slli	t1,0x1
    10ce:	0901                	c.addi	s2,0
    10d0:	0004                	0x4
    10d2:	0501                	c.addi	a0,0
    10d4:	0305                	c.addi	t1,1
    10d6:	00f8                	c.addi4spn	a4,sp,76
    10d8:	0009                	c.addi	zero,2
    10da:	0100                	c.addi4spn	s0,sp,128
    10dc:	04090103          	lb	sp,64(s2)
    10e0:	0100                	c.addi4spn	s0,sp,128
    10e2:	0305                	c.addi	t1,1
    10e4:	14090203          	lb	tp,320(s2)
    10e8:	0100                	c.addi4spn	s0,sp,128
    10ea:	1b05                	c.addi	s6,-31
    10ec:	0306                	c.slli	t1,0x1
    10ee:	0900                	c.addi4spn	s0,sp,144
    10f0:	0000                	c.unimp
    10f2:	0501                	c.addi	a0,0
    10f4:	83030603          	lb	a2,-2000(t1)
    10f8:	097f                	0x97f
    10fa:	0004                	0x4
    10fc:	0501                	c.addi	a0,0
    10fe:	0606                	c.slli	a2,0x1
    1100:	00090003          	lb	zero,0(s2)
    1104:	0100                	c.addi4spn	s0,sp,128
    1106:	0505                	c.addi	a0,1
    1108:	0900fe03          	0x900fe03
    110c:	0008                	0x8
    110e:	0601                	c.addi	a2,0
    1110:	097f8303          	lb	t1,151(t6)
    1114:	000c                	0xc
    1116:	0501                	c.addi	a0,0
    1118:	060a                	c.slli	a2,0x2
    111a:	00090003          	lb	zero,0(s2)
    111e:	0100                	c.addi4spn	s0,sp,128
    1120:	0305                	c.addi	t1,1
    1122:	0306                	c.slli	t1,0x1
    1124:	0901                	c.addi	s2,0
    1126:	0004                	0x4
    1128:	0501                	c.addi	a0,0
    112a:	0305                	c.addi	t1,1
    112c:	00fc                	c.addi4spn	a5,sp,76
    112e:	0009                	c.addi	zero,2
    1130:	0100                	c.addi4spn	s0,sp,128
    1132:	04090103          	lb	sp,64(s2)
    1136:	0100                	c.addi4spn	s0,sp,128
    1138:	0305                	c.addi	t1,1
    113a:	10090303          	lb	t1,256(s2)
    113e:	0100                	c.addi4spn	s0,sp,128
    1140:	1b05                	c.addi	s6,-31
    1142:	0306                	c.slli	t1,0x1
    1144:	0900                	c.addi4spn	s0,sp,144
    1146:	0000                	c.unimp
    1148:	0501                	c.addi	a0,0
    114a:	fe030603          	lb	a2,-32(t1)
    114e:	097e                	c.slli	s2,0x1f
    1150:	000c                	0xc
    1152:	0501                	c.addi	a0,0
    1154:	0606                	c.slli	a2,0x1
    1156:	00090003          	lb	zero,0(s2)
    115a:	0100                	c.addi4spn	s0,sp,128
    115c:	0505                	c.addi	a0,1
    115e:	09018303          	lb	t1,144(gp)
    1162:	0004                	0x4
    1164:	0601                	c.addi	a2,0
    1166:	097efe03          	0x97efe03
    116a:	000c                	0xc
    116c:	0501                	c.addi	a0,0
    116e:	060a                	c.slli	a2,0x2
    1170:	00090003          	lb	zero,0(s2)
    1174:	0100                	c.addi4spn	s0,sp,128
    1176:	0305                	c.addi	t1,1
    1178:	0306                	c.slli	t1,0x1
    117a:	0901                	c.addi	s2,0
    117c:	0004                	0x4
    117e:	0501                	c.addi	a0,0
    1180:	0305                	c.addi	t1,1
    1182:	0181                	c.addi	gp,0
    1184:	0009                	c.addi	zero,2
    1186:	0100                	c.addi4spn	s0,sp,128
    1188:	04090103          	lb	sp,64(s2)
    118c:	0100                	c.addi4spn	s0,sp,128
    118e:	0305                	c.addi	t1,1
    1190:	14090203          	lb	tp,320(s2)
    1194:	0100                	c.addi4spn	s0,sp,128
    1196:	2505                	c.jal	17b6 <__stack_size-0x1ffe84a>
    1198:	0306                	c.slli	t1,0x1
    119a:	0900                	c.addi4spn	s0,sp,144
    119c:	0000                	c.unimp
    119e:	0501                	c.addi	a0,0
    11a0:	0306                	c.slli	t1,0x1
    11a2:	7efa                	c.flwsp	ft9,188(sp)
    11a4:	0809                	c.addi	a6,2
    11a6:	0100                	c.addi4spn	s0,sp,128
    11a8:	2505                	c.jal	17c8 <__stack_size-0x1ffe838>
    11aa:	09018603          	lb	a2,144(gp)
    11ae:	0004                	0x4
    11b0:	0501                	c.addi	a0,0
    11b2:	fa030603          	lb	a2,-96(t1)
    11b6:	097e                	c.slli	s2,0x1f
    11b8:	0004                	0x4
    11ba:	0501                	c.addi	a0,0
    11bc:	0606                	c.slli	a2,0x1
    11be:	00090003          	lb	zero,0(s2)
    11c2:	0100                	c.addi4spn	s0,sp,128
    11c4:	0505                	c.addi	a0,1
    11c6:	09018703          	lb	a4,144(gp)
    11ca:	0004                	0x4
    11cc:	0601                	c.addi	a2,0
    11ce:	097efa03          	0x97efa03
    11d2:	000c                	0xc
    11d4:	0501                	c.addi	a0,0
    11d6:	060a                	c.slli	a2,0x2
    11d8:	00090003          	lb	zero,0(s2)
    11dc:	0100                	c.addi4spn	s0,sp,128
    11de:	0305                	c.addi	t1,1
    11e0:	0306                	c.slli	t1,0x1
    11e2:	0901                	c.addi	s2,0
    11e4:	0004                	0x4
    11e6:	0501                	c.addi	a0,0
    11e8:	0305                	c.addi	t1,1
    11ea:	0185                	c.addi	gp,1
    11ec:	0009                	c.addi	zero,2
    11ee:	0100                	c.addi4spn	s0,sp,128
    11f0:	04090203          	lb	tp,64(s2)
    11f4:	0100                	c.addi4spn	s0,sp,128
    11f6:	0305                	c.addi	t1,1
    11f8:	14090203          	lb	tp,320(s2)
    11fc:	0100                	c.addi4spn	s0,sp,128
    11fe:	2505                	c.jal	181e <__stack_size-0x1ffe7e2>
    1200:	0306                	c.slli	t1,0x1
    1202:	0900                	c.addi4spn	s0,sp,144
    1204:	0000                	c.unimp
    1206:	0501                	c.addi	a0,0
    1208:	0306                	c.slli	t1,0x1
    120a:	7ef5                	c.lui	t4,0xffffd
    120c:	0809                	c.addi	a6,2
    120e:	0100                	c.addi4spn	s0,sp,128
    1210:	2505                	c.jal	1830 <__stack_size-0x1ffe7d0>
    1212:	09018b03          	lb	s6,144(gp)
    1216:	0004                	0x4
    1218:	0501                	c.addi	a0,0
    121a:	f5030603          	lb	a2,-176(t1)
    121e:	097e                	c.slli	s2,0x1f
    1220:	0004                	0x4
    1222:	0501                	c.addi	a0,0
    1224:	0606                	c.slli	a2,0x1
    1226:	00090003          	lb	zero,0(s2)
    122a:	0100                	c.addi4spn	s0,sp,128
    122c:	0505                	c.addi	a0,1
    122e:	09018c03          	lb	s8,144(gp)
    1232:	0004                	0x4
    1234:	0601                	c.addi	a2,0
    1236:	097ef503          	0x97ef503
    123a:	000c                	0xc
    123c:	0501                	c.addi	a0,0
    123e:	060a                	c.slli	a2,0x2
    1240:	00090003          	lb	zero,0(s2)
    1244:	0100                	c.addi4spn	s0,sp,128
    1246:	0305                	c.addi	t1,1
    1248:	0306                	c.slli	t1,0x1
    124a:	0901                	c.addi	s2,0
    124c:	0004                	0x4
    124e:	0501                	c.addi	a0,0
    1250:	0305                	c.addi	t1,1
    1252:	018a                	c.slli	gp,0x2
    1254:	0009                	c.addi	zero,2
    1256:	0100                	c.addi4spn	s0,sp,128
    1258:	04090203          	lb	tp,64(s2)
    125c:	0100                	c.addi4spn	s0,sp,128
    125e:	0305                	c.addi	t1,1
    1260:	14090203          	lb	tp,320(s2)
    1264:	0100                	c.addi4spn	s0,sp,128
    1266:	2c05                	c.jal	1496 <__stack_size-0x1ffeb6a>
    1268:	0306                	c.slli	t1,0x1
    126a:	0900                	c.addi4spn	s0,sp,144
    126c:	0004                	0x4
    126e:	0501                	c.addi	a0,0
    1270:	030e                	c.slli	t1,0x3
    1272:	0900                	c.addi4spn	s0,sp,144
    1274:	0008                	0x8
    1276:	0501                	c.addi	a0,0
    1278:	032c                	c.addi4spn	a1,sp,392
    127a:	0900                	c.addi4spn	s0,sp,144
    127c:	0008                	0x8
    127e:	0501                	c.addi	a0,0
    1280:	030e                	c.slli	t1,0x3
    1282:	0900                	c.addi4spn	s0,sp,144
    1284:	0004                	0x4
    1286:	0501                	c.addi	a0,0
    1288:	f0030603          	lb	a2,-256(t1)
    128c:	097e                	c.slli	s2,0x1f
    128e:	0008                	0x8
    1290:	0501                	c.addi	a0,0
    1292:	0606                	c.slli	a2,0x1
    1294:	00090003          	lb	zero,0(s2)
    1298:	0100                	c.addi4spn	s0,sp,128
    129a:	0505                	c.addi	a0,1
    129c:	0306                	c.slli	t1,0x1
    129e:	0901                	c.addi	s2,0
    12a0:	0008                	0x8
    12a2:	0601                	c.addi	a2,0
    12a4:	09019103          	lh	sp,144(gp)
    12a8:	0000                	c.unimp
    12aa:	0501                	c.addi	a0,0
    12ac:	030a                	c.slli	t1,0x2
    12ae:	0c097eef          	jal	t4,9836e <__stack_size-0x1f67c92>
    12b2:	0100                	c.addi4spn	s0,sp,128
    12b4:	0305                	c.addi	t1,1
    12b6:	0306                	c.slli	t1,0x1
    12b8:	0901                	c.addi	s2,0
    12ba:	0004                	0x4
    12bc:	0501                	c.addi	a0,0
    12be:	0305                	c.addi	t1,1
    12c0:	0190                	c.addi4spn	a2,sp,192
    12c2:	0009                	c.addi	zero,2
    12c4:	0100                	c.addi4spn	s0,sp,128
    12c6:	04090203          	lb	tp,64(s2)
    12ca:	0100                	c.addi4spn	s0,sp,128
    12cc:	0305                	c.addi	t1,1
    12ce:	10090303          	lb	t1,256(s2)
    12d2:	0100                	c.addi4spn	s0,sp,128
    12d4:	2005                	c.jal	12f4 <__stack_size-0x1ffed0c>
    12d6:	0306                	c.slli	t1,0x1
    12d8:	0900                	c.addi4spn	s0,sp,144
    12da:	0000                	c.unimp
    12dc:	0501                	c.addi	a0,0
    12de:	e9030603          	lb	a2,-368(t1)
    12e2:	097e                	c.slli	s2,0x1f
    12e4:	000c                	0xc
    12e6:	0501                	c.addi	a0,0
    12e8:	0606                	c.slli	a2,0x1
    12ea:	00090003          	lb	zero,0(s2)
    12ee:	0100                	c.addi4spn	s0,sp,128
    12f0:	0505                	c.addi	a0,1
    12f2:	09019803          	lh	a6,144(gp)
    12f6:	0004                	0x4
    12f8:	0601                	c.addi	a2,0
    12fa:	097ee903          	0x97ee903
    12fe:	000c                	0xc
    1300:	0501                	c.addi	a0,0
    1302:	060a                	c.slli	a2,0x2
    1304:	00090003          	lb	zero,0(s2)
    1308:	0100                	c.addi4spn	s0,sp,128
    130a:	0305                	c.addi	t1,1
    130c:	0306                	c.slli	t1,0x1
    130e:	0901                	c.addi	s2,0
    1310:	0004                	0x4
    1312:	0501                	c.addi	a0,0
    1314:	0305                	c.addi	t1,1
    1316:	0196                	c.slli	gp,0x5
    1318:	0009                	c.addi	zero,2
    131a:	0100                	c.addi4spn	s0,sp,128
    131c:	04090103          	lb	sp,64(s2)
    1320:	0100                	c.addi4spn	s0,sp,128
    1322:	0305                	c.addi	t1,1
    1324:	14090203          	lb	tp,320(s2)
    1328:	0100                	c.addi4spn	s0,sp,128
    132a:	2a05                	c.jal	145a <__stack_size-0x1ffeba6>
    132c:	0306                	c.slli	t1,0x1
    132e:	0900                	c.addi4spn	s0,sp,144
    1330:	0000                	c.unimp
    1332:	0501                	c.addi	a0,0
    1334:	0306                	c.slli	t1,0x1
    1336:	7ee5                	c.lui	t4,0xffff9
    1338:	0809                	c.addi	a6,2
    133a:	0100                	c.addi4spn	s0,sp,128
    133c:	2a05                	c.jal	146c <__stack_size-0x1ffeb94>
    133e:	09019b03          	lh	s6,144(gp)
    1342:	0004                	0x4
    1344:	0501                	c.addi	a0,0
    1346:	e5030603          	lb	a2,-432(t1)
    134a:	097e                	c.slli	s2,0x1f
    134c:	0004                	0x4
    134e:	0501                	c.addi	a0,0
    1350:	0606                	c.slli	a2,0x1
    1352:	00090003          	lb	zero,0(s2)
    1356:	0100                	c.addi4spn	s0,sp,128
    1358:	0505                	c.addi	a0,1
    135a:	09019c03          	lh	s8,144(gp)
    135e:	0004                	0x4
    1360:	0601                	c.addi	a2,0
    1362:	097ee503          	0x97ee503
    1366:	000c                	0xc
    1368:	0501                	c.addi	a0,0
    136a:	060a                	c.slli	a2,0x2
    136c:	00090003          	lb	zero,0(s2)
    1370:	0100                	c.addi4spn	s0,sp,128
    1372:	0305                	c.addi	t1,1
    1374:	0306                	c.slli	t1,0x1
    1376:	0901                	c.addi	s2,0
    1378:	0004                	0x4
    137a:	0501                	c.addi	a0,0
    137c:	0305                	c.addi	t1,1
    137e:	019a                	c.slli	gp,0x6
    1380:	0009                	c.addi	zero,2
    1382:	0100                	c.addi4spn	s0,sp,128
    1384:	04090203          	lb	tp,64(s2)
    1388:	0100                	c.addi4spn	s0,sp,128
    138a:	0305                	c.addi	t1,1
    138c:	14090203          	lb	tp,320(s2)
    1390:	0100                	c.addi4spn	s0,sp,128
    1392:	2a05                	c.jal	14c2 <__stack_size-0x1ffeb3e>
    1394:	0306                	c.slli	t1,0x1
    1396:	0900                	c.addi4spn	s0,sp,144
    1398:	0000                	c.unimp
    139a:	0501                	c.addi	a0,0
    139c:	0306                	c.slli	t1,0x1
    139e:	7ee0                	c.flw	fs0,124(a3)
    13a0:	0809                	c.addi	a6,2
    13a2:	0100                	c.addi4spn	s0,sp,128
    13a4:	2a05                	c.jal	14d4 <__stack_size-0x1ffeb2c>
    13a6:	0901a003          	lw	zero,144(gp)
    13aa:	0004                	0x4
    13ac:	0501                	c.addi	a0,0
    13ae:	e0030603          	lb	a2,-512(t1)
    13b2:	097e                	c.slli	s2,0x1f
    13b4:	0004                	0x4
    13b6:	0501                	c.addi	a0,0
    13b8:	0606                	c.slli	a2,0x1
    13ba:	00090003          	lb	zero,0(s2)
    13be:	0100                	c.addi4spn	s0,sp,128
    13c0:	0505                	c.addi	a0,1
    13c2:	0901a103          	lw	sp,144(gp)
    13c6:	0004                	0x4
    13c8:	0601                	c.addi	a2,0
    13ca:	097ee003          	0x97ee003
    13ce:	000c                	0xc
    13d0:	0501                	c.addi	a0,0
    13d2:	060a                	c.slli	a2,0x2
    13d4:	00090003          	lb	zero,0(s2)
    13d8:	0100                	c.addi4spn	s0,sp,128
    13da:	0305                	c.addi	t1,1
    13dc:	0306                	c.slli	t1,0x1
    13de:	0901                	c.addi	s2,0
    13e0:	0004                	0x4
    13e2:	0501                	c.addi	a0,0
    13e4:	0305                	c.addi	t1,1
    13e6:	019f 0009 0100      	0x1000009019f
    13ec:	04090203          	lb	tp,64(s2)
    13f0:	0100                	c.addi4spn	s0,sp,128
    13f2:	0305                	c.addi	t1,1
    13f4:	14090203          	lb	tp,320(s2)
    13f8:	0100                	c.addi4spn	s0,sp,128
    13fa:	3105                	c.jal	101a <__stack_size-0x1ffefe6>
    13fc:	0306                	c.slli	t1,0x1
    13fe:	0900                	c.addi4spn	s0,sp,144
    1400:	0004                	0x4
    1402:	0501                	c.addi	a0,0
    1404:	030e                	c.slli	t1,0x3
    1406:	0900                	c.addi4spn	s0,sp,144
    1408:	0008                	0x8
    140a:	0501                	c.addi	a0,0
    140c:	0331                	c.addi	t1,12
    140e:	0900                	c.addi4spn	s0,sp,144
    1410:	0008                	0x8
    1412:	0501                	c.addi	a0,0
    1414:	030e                	c.slli	t1,0x3
    1416:	0900                	c.addi4spn	s0,sp,144
    1418:	0004                	0x4
    141a:	0501                	c.addi	a0,0
    141c:	db030603          	lb	a2,-592(t1)
    1420:	097e                	c.slli	s2,0x1f
    1422:	0008                	0x8
    1424:	0501                	c.addi	a0,0
    1426:	0606                	c.slli	a2,0x1
    1428:	00090003          	lb	zero,0(s2)
    142c:	0100                	c.addi4spn	s0,sp,128
    142e:	0505                	c.addi	a0,1
    1430:	0306                	c.slli	t1,0x1
    1432:	0901                	c.addi	s2,0
    1434:	0008                	0x8
    1436:	0601                	c.addi	a2,0
    1438:	0901a603          	lw	a2,144(gp)
    143c:	0000                	c.unimp
    143e:	0501                	c.addi	a0,0
    1440:	030a                	c.slli	t1,0x2
    1442:	7eda                	c.flwsp	ft9,180(sp)
    1444:	0c09                	c.addi	s8,2
    1446:	0100                	c.addi4spn	s0,sp,128
    1448:	0305                	c.addi	t1,1
    144a:	0306                	c.slli	t1,0x1
    144c:	0901                	c.addi	s2,0
    144e:	0004                	0x4
    1450:	0501                	c.addi	a0,0
    1452:	0305                	c.addi	t1,1
    1454:	01a5                	c.addi	gp,9
    1456:	0009                	c.addi	zero,2
    1458:	0100                	c.addi4spn	s0,sp,128
    145a:	04090203          	lb	tp,64(s2)
    145e:	0100                	c.addi4spn	s0,sp,128
    1460:	0305                	c.addi	t1,1
    1462:	10090303          	lb	t1,256(s2)
    1466:	0100                	c.addi4spn	s0,sp,128
    1468:	097ed403          	lhu	s0,151(t4) # ffff9097 <_sp+0x77ff9097>
    146c:	0000                	c.unimp
    146e:	0501                	c.addi	a0,0
    1470:	0606                	c.slli	a2,0x1
    1472:	00090003          	lb	zero,0(s2)
    1476:	0100                	c.addi4spn	s0,sp,128
    1478:	0505                	c.addi	a0,1
    147a:	0306                	c.slli	t1,0x1
    147c:	0901                	c.addi	s2,0
    147e:	0008                	0x8
    1480:	0601                	c.addi	a2,0
    1482:	0901ac03          	lw	s8,144(gp)
    1486:	0000                	c.unimp
    1488:	0501                	c.addi	a0,0
    148a:	030a                	c.slli	t1,0x2
    148c:	7ed4                	c.flw	fa3,60(a3)
    148e:	0c09                	c.addi	s8,2
    1490:	0100                	c.addi4spn	s0,sp,128
    1492:	0305                	c.addi	t1,1
    1494:	0306                	c.slli	t1,0x1
    1496:	0901                	c.addi	s2,0
    1498:	0004                	0x4
    149a:	0501                	c.addi	a0,0
    149c:	0305                	c.addi	t1,1
    149e:	000901ab          	0x901ab
    14a2:	0100                	c.addi4spn	s0,sp,128
    14a4:	04090103          	lb	sp,64(s2)
    14a8:	0100                	c.addi4spn	s0,sp,128
    14aa:	0305                	c.addi	t1,1
    14ac:	10090203          	lb	tp,256(s2)
    14b0:	0100                	c.addi4spn	s0,sp,128
    14b2:	097ed003          	lhu	zero,151(t4)
    14b6:	0000                	c.unimp
    14b8:	0501                	c.addi	a0,0
    14ba:	0606                	c.slli	a2,0x1
    14bc:	00090003          	lb	zero,0(s2)
    14c0:	0100                	c.addi4spn	s0,sp,128
    14c2:	0505                	c.addi	a0,1
    14c4:	0306                	c.slli	t1,0x1
    14c6:	0901                	c.addi	s2,0
    14c8:	0008                	0x8
    14ca:	0601                	c.addi	a2,0
    14cc:	0901b003          	0x901b003
    14d0:	0000                	c.unimp
    14d2:	0501                	c.addi	a0,0
    14d4:	030a                	c.slli	t1,0x2
    14d6:	7ed0                	c.flw	fa2,60(a3)
    14d8:	0c09                	c.addi	s8,2
    14da:	0100                	c.addi4spn	s0,sp,128
    14dc:	0305                	c.addi	t1,1
    14de:	0306                	c.slli	t1,0x1
    14e0:	0901                	c.addi	s2,0
    14e2:	0004                	0x4
    14e4:	0501                	c.addi	a0,0
    14e6:	0305                	c.addi	t1,1
    14e8:	000901af          	0x901af
    14ec:	0100                	c.addi4spn	s0,sp,128
    14ee:	04090103          	lb	sp,64(s2)
    14f2:	0100                	c.addi4spn	s0,sp,128
    14f4:	0305                	c.addi	t1,1
    14f6:	10090203          	lb	tp,256(s2)
    14fa:	0100                	c.addi4spn	s0,sp,128
    14fc:	00090403          	lb	s0,0(s2)
    1500:	0100                	c.addi4spn	s0,sp,128
    1502:	097ec803          	lbu	a6,151(t4)
    1506:	0000                	c.unimp
    1508:	0501                	c.addi	a0,0
    150a:	0606                	c.slli	a2,0x1
    150c:	00090003          	lb	zero,0(s2)
    1510:	0100                	c.addi4spn	s0,sp,128
    1512:	0505                	c.addi	a0,1
    1514:	0306                	c.slli	t1,0x1
    1516:	0901                	c.addi	s2,0
    1518:	0004                	0x4
    151a:	0601                	c.addi	a2,0
    151c:	0901b803          	0x901b803
    1520:	0000                	c.unimp
    1522:	0501                	c.addi	a0,0
    1524:	030a                	c.slli	t1,0x2
    1526:	7ec8                	c.flw	fa0,60(a3)
    1528:	0c09                	c.addi	s8,2
    152a:	0100                	c.addi4spn	s0,sp,128
    152c:	0305                	c.addi	t1,1
    152e:	0306                	c.slli	t1,0x1
    1530:	0901                	c.addi	s2,0
    1532:	0004                	0x4
    1534:	0501                	c.addi	a0,0
    1536:	0305                	c.addi	t1,1
    1538:	000901b7          	lui	gp,0x90
    153c:	0100                	c.addi4spn	s0,sp,128
    153e:	04090103          	lb	sp,64(s2)
    1542:	0100                	c.addi4spn	s0,sp,128
    1544:	0305                	c.addi	t1,1
    1546:	10090303          	lb	t1,256(s2)
    154a:	0100                	c.addi4spn	s0,sp,128
    154c:	0e05                	c.addi	t3,1
    154e:	0306                	c.slli	t1,0x1
    1550:	0900                	c.addi4spn	s0,sp,144
    1552:	0000                	c.unimp
    1554:	0501                	c.addi	a0,0
    1556:	c3030603          	lb	a2,-976(t1)
    155a:	097e                	c.slli	s2,0x1f
    155c:	0010                	0x10
    155e:	0501                	c.addi	a0,0
    1560:	0606                	c.slli	a2,0x1
    1562:	00090003          	lb	zero,0(s2)
    1566:	0100                	c.addi4spn	s0,sp,128
    1568:	0505                	c.addi	a0,1
    156a:	0306                	c.slli	t1,0x1
    156c:	0901                	c.addi	s2,0
    156e:	0004                	0x4
    1570:	0601                	c.addi	a2,0
    1572:	0901bd03          	0x901bd03
    1576:	0000                	c.unimp
    1578:	0501                	c.addi	a0,0
    157a:	030a                	c.slli	t1,0x2
    157c:	0c097ec3          	0xc097ec3
    1580:	0100                	c.addi4spn	s0,sp,128
    1582:	0305                	c.addi	t1,1
    1584:	0306                	c.slli	t1,0x1
    1586:	0901                	c.addi	s2,0
    1588:	0004                	0x4
    158a:	0501                	c.addi	a0,0
    158c:	0305                	c.addi	t1,1
    158e:	01bc                	c.addi4spn	a5,sp,200
    1590:	0009                	c.addi	zero,2
    1592:	0100                	c.addi4spn	s0,sp,128
    1594:	04090103          	lb	sp,64(s2)
    1598:	0100                	c.addi4spn	s0,sp,128
    159a:	0305                	c.addi	t1,1
    159c:	0c090203          	lb	tp,192(s2)
    15a0:	0100                	c.addi4spn	s0,sp,128
    15a2:	0e05                	c.addi	t3,1
    15a4:	0306                	c.slli	t1,0x1
    15a6:	0900                	c.addi4spn	s0,sp,144
    15a8:	0000                	c.unimp
    15aa:	0501                	c.addi	a0,0
    15ac:	bf030603          	lb	a2,-1040(t1)
    15b0:	097e                	c.slli	s2,0x1f
    15b2:	0010                	0x10
    15b4:	0501                	c.addi	a0,0
    15b6:	0606                	c.slli	a2,0x1
    15b8:	00090003          	lb	zero,0(s2)
    15bc:	0100                	c.addi4spn	s0,sp,128
    15be:	0505                	c.addi	a0,1
    15c0:	0306                	c.slli	t1,0x1
    15c2:	0901                	c.addi	s2,0
    15c4:	0004                	0x4
    15c6:	0601                	c.addi	a2,0
    15c8:	0901c103          	lbu	sp,144(gp) # 90090 <__stack_size-0x1f6ff70>
    15cc:	0000                	c.unimp
    15ce:	0501                	c.addi	a0,0
    15d0:	030a                	c.slli	t1,0x2
    15d2:	0c097ebf 03050100 	0x30501000c097ebf
    15da:	0306                	c.slli	t1,0x1
    15dc:	0901                	c.addi	s2,0
    15de:	0004                	0x4
    15e0:	0501                	c.addi	a0,0
    15e2:	0305                	c.addi	t1,1
    15e4:	01c0                	c.addi4spn	s0,sp,196
    15e6:	0009                	c.addi	zero,2
    15e8:	0100                	c.addi4spn	s0,sp,128
    15ea:	04090103          	lb	sp,64(s2)
    15ee:	0100                	c.addi4spn	s0,sp,128
    15f0:	0305                	c.addi	t1,1
    15f2:	0c090903          	lb	s2,192(s2)
    15f6:	0100                	c.addi4spn	s0,sp,128
    15f8:	1405                	c.addi	s0,-31
    15fa:	0306                	c.slli	t1,0x1
    15fc:	0900                	c.addi4spn	s0,sp,144
    15fe:	0000                	c.unimp
    1600:	0501                	c.addi	a0,0
    1602:	0301                	c.addi	t1,0
    1604:	0901                	c.addi	s2,0
    1606:	0004                	0x4
    1608:	0901                	c.addi	s2,0
    160a:	0048                	c.addi4spn	a0,sp,4
    160c:	0100                	c.addi4spn	s0,sp,128
    160e:	9701                	c.srai	a4,0x20
    1610:	000d                	c.addi	zero,3
    1612:	0500                	c.addi4spn	s0,sp,640
    1614:	0400                	c.addi4spn	s0,sp,512
    1616:	4000                	c.lw	s0,0(s0)
    1618:	0000                	c.unimp
    161a:	0100                	c.addi4spn	s0,sp,128
    161c:	0101                	c.addi	sp,0
    161e:	000d0efb          	0xd0efb
    1622:	0101                	c.addi	sp,0
    1624:	0101                	c.addi	sp,0
    1626:	0000                	c.unimp
    1628:	0100                	c.addi4spn	s0,sp,128
    162a:	0000                	c.unimp
    162c:	0101                	c.addi	sp,0
    162e:	1f01                	c.addi	t5,-32
    1630:	8e04                	0x8e04
    1632:	0000                	c.unimp
    1634:	df00                	c.sw	s0,56(a4)
    1636:	0000                	c.unimp
    1638:	ec00                	c.fsw	fs0,24(s0)
    163a:	0000                	c.unimp
    163c:	5400                	c.lw	s0,40(s0)
    163e:	0001                	c.addi	zero,0
    1640:	0200                	c.addi4spn	s0,sp,256
    1642:	1f01                	c.addi	t5,-32
    1644:	0f02                	c.slli64	t5
    1646:	7704                	c.flw	fs1,40(a4)
    1648:	0000                	c.unimp
    164a:	0000                	c.unimp
    164c:	0084                	c.addi4spn	s1,sp,64
    164e:	0000                	c.unimp
    1650:	6c01                	0x6c01
    1652:	0001                	c.addi	zero,0
    1654:	0200                	c.addi4spn	s0,sp,256
    1656:	0062                	c.slli	zero,0x18
    1658:	0000                	c.unimp
    165a:	00010503          	lb	a0,0(sp)
    165e:	0205                	c.addi	tp,1
    1660:	0bac                	c.addi4spn	a1,sp,472
    1662:	8000                	0x8000
    1664:	05011a03          	lh	s4,80(sp)
    1668:	0302                	c.slli64	t1
    166a:	0901                	c.addi	s2,0
    166c:	0000                	c.unimp
    166e:	0301                	c.addi	t1,0
    1670:	0902                	c.slli64	s2
    1672:	0000                	c.unimp
    1674:	0501                	c.addi	a0,0
    1676:	0606                	c.slli	a2,0x1
    1678:	00090003          	lb	zero,0(s2)
    167c:	0100                	c.addi4spn	s0,sp,128
    167e:	0505                	c.addi	a0,1
    1680:	08090003          	lb	zero,128(s2)
    1684:	0100                	c.addi4spn	s0,sp,128
    1686:	0305                	c.addi	t1,1
    1688:	0306                	c.slli	t1,0x1
    168a:	0901                	c.addi	s2,0
    168c:	0004                	0x4
    168e:	0501                	c.addi	a0,0
    1690:	060a                	c.slli	a2,0x2
    1692:	00090003          	lb	zero,0(s2)
    1696:	0100                	c.addi4spn	s0,sp,128
    1698:	0d05                	c.addi	s10,1
    169a:	08090003          	lb	zero,128(s2)
    169e:	0100                	c.addi4spn	s0,sp,128
    16a0:	0305                	c.addi	t1,1
    16a2:	0306                	c.slli	t1,0x1
    16a4:	0901                	c.addi	s2,0
    16a6:	0004                	0x4
    16a8:	0501                	c.addi	a0,0
    16aa:	0302                	c.slli64	t1
    16ac:	00040903          	lb	s2,0(s0)
    16b0:	0501                	c.addi	a0,0
    16b2:	0606                	c.slli	a2,0x1
    16b4:	00090003          	lb	zero,0(s2)
    16b8:	0100                	c.addi4spn	s0,sp,128
    16ba:	0505                	c.addi	a0,1
    16bc:	08090003          	lb	zero,128(s2)
    16c0:	0100                	c.addi4spn	s0,sp,128
    16c2:	1105                	c.addi	sp,-31
    16c4:	0306                	c.slli	t1,0x1
    16c6:	0900                	c.addi4spn	s0,sp,144
    16c8:	0004                	0x4
    16ca:	0501                	c.addi	a0,0
    16cc:	0601                	c.addi	a2,0
    16ce:	04090103          	lb	sp,64(s2)
    16d2:	0100                	c.addi4spn	s0,sp,128
    16d4:	0306                	c.slli	t1,0x1
    16d6:	090a                	c.slli	s2,0x2
    16d8:	0004                	0x4
    16da:	0501                	c.addi	a0,0
    16dc:	0302                	c.slli64	t1
    16de:	0901                	c.addi	s2,0
    16e0:	0000                	c.unimp
    16e2:	0501                	c.addi	a0,0
    16e4:	0601                	c.addi	a2,0
    16e6:	00097f03          	0x97f03
    16ea:	0100                	c.addi4spn	s0,sp,128
    16ec:	14090003          	lb	zero,320(s2)
    16f0:	0100                	c.addi4spn	s0,sp,128
    16f2:	0905                	c.addi	s2,1
    16f4:	0306                	c.slli	t1,0x1
    16f6:	0901                	c.addi	s2,0
    16f8:	0004                	0x4
    16fa:	0501                	c.addi	a0,0
    16fc:	0606                	c.slli	a2,0x1
    16fe:	0c097403          	0xc097403
    1702:	0100                	c.addi4spn	s0,sp,128
    1704:	0a05                	c.addi	s4,1
    1706:	08097c03          	0x8097c03
    170a:	0100                	c.addi4spn	s0,sp,128
    170c:	0d05                	c.addi	s10,1
    170e:	04090003          	lb	zero,64(s2)
    1712:	0100                	c.addi4spn	s0,sp,128
    1714:	0305                	c.addi	t1,1
    1716:	0306                	c.slli	t1,0x1
    1718:	0901                	c.addi	s2,0
    171a:	0004                	0x4
    171c:	0501                	c.addi	a0,0
    171e:	0309                	c.addi	t1,2
    1720:	0000090f          	0x90f
    1724:	0501                	c.addi	a0,0
    1726:	09010303          	lb	t1,144(sp)
    172a:	0008                	0x8
    172c:	0301                	c.addi	t1,0
    172e:	0000096f          	jal	s2,172e <__stack_size-0x1ffe8d2>
    1732:	0501                	c.addi	a0,0
    1734:	0302                	c.slli64	t1
    1736:	0904                	c.addi4spn	s1,sp,144
    1738:	0000                	c.unimp
    173a:	0501                	c.addi	a0,0
    173c:	0606                	c.slli	a2,0x1
    173e:	00097b03          	0x97b03
    1742:	0100                	c.addi4spn	s0,sp,128
    1744:	0d05                	c.addi	s10,1
    1746:	04091203          	lh	tp,64(s2)
    174a:	0100                	c.addi4spn	s0,sp,128
    174c:	0205                	c.addi	tp,1
    174e:	0306                	c.slli	t1,0x1
    1750:	096c                	c.addi4spn	a1,sp,156
    1752:	0004                	0x4
    1754:	0301                	c.addi	t1,0
    1756:	0902                	c.slli64	s2
    1758:	0000                	c.unimp
    175a:	0501                	c.addi	a0,0
    175c:	060a                	c.slli	a2,0x2
    175e:	00090103          	lb	sp,0(s2)
    1762:	0100                	c.addi4spn	s0,sp,128
    1764:	0505                	c.addi	a0,1
    1766:	04097f03          	0x4097f03
    176a:	0100                	c.addi4spn	s0,sp,128
    176c:	1105                	c.addi	sp,-31
    176e:	0306                	c.slli	t1,0x1
    1770:	0905                	c.addi	s2,1
    1772:	0004                	0x4
    1774:	0501                	c.addi	a0,0
    1776:	0606                	c.slli	a2,0x1
    1778:	00090003          	lb	zero,0(s2)
    177c:	0100                	c.addi4spn	s0,sp,128
    177e:	0505                	c.addi	a0,1
    1780:	04090003          	lb	zero,64(s2)
    1784:	0100                	c.addi4spn	s0,sp,128
    1786:	1105                	c.addi	sp,-31
    1788:	04090003          	lb	zero,64(s2)
    178c:	0100                	c.addi4spn	s0,sp,128
    178e:	0905                	c.addi	s2,1
    1790:	0306                	c.slli	t1,0x1
    1792:	090c                	c.addi4spn	a1,sp,144
    1794:	0004                	0x4
    1796:	0501                	c.addi	a0,0
    1798:	0601                	c.addi	a2,0
    179a:	08090203          	lb	tp,128(s2)
    179e:	0100                	c.addi4spn	s0,sp,128
    17a0:	0306                	c.slli	t1,0x1
    17a2:	00e5                	c.addi	ra,25
    17a4:	1809                	c.addi	a6,-30
    17a6:	0100                	c.addi4spn	s0,sp,128
    17a8:	0205                	c.addi	tp,1
    17aa:	00090103          	lb	sp,0(s2)
    17ae:	0100                	c.addi4spn	s0,sp,128
    17b0:	00090303          	lb	t1,0(s2)
    17b4:	0100                	c.addi4spn	s0,sp,128
    17b6:	0105                	c.addi	sp,1
    17b8:	0306                	c.slli	t1,0x1
    17ba:	097c                	c.addi4spn	a5,sp,156
    17bc:	0000                	c.unimp
    17be:	0301                	c.addi	t1,0
    17c0:	0900                	c.addi4spn	s0,sp,144
    17c2:	0038                	c.addi4spn	a4,sp,8
    17c4:	0501                	c.addi	a0,0
    17c6:	0305                	c.addi	t1,1
    17c8:	20097fbb          	0x20097fbb
    17cc:	0100                	c.addi4spn	s0,sp,128
    17ce:	0205                	c.addi	tp,1
    17d0:	0900c903          	lbu	s2,144(ra)
    17d4:	0004                	0x4
    17d6:	0601                	c.addi	a2,0
    17d8:	08090103          	lb	sp,128(s2)
    17dc:	0100                	c.addi4spn	s0,sp,128
    17de:	097fb003          	0x97fb003
    17e2:	0004                	0x4
    17e4:	0301                	c.addi	t1,0
    17e6:	0901                	c.addi	s2,0
    17e8:	0000                	c.unimp
    17ea:	0301                	c.addi	t1,0
    17ec:	0901                	c.addi	s2,0
    17ee:	0000                	c.unimp
    17f0:	0301                	c.addi	t1,0
    17f2:	00000903          	lb	s2,0(zero) # 0 <__stack_size-0x2000000>
    17f6:	0501                	c.addi	a0,0
    17f8:	09010303          	lb	t1,144(sp)
    17fc:	0000                	c.unimp
    17fe:	0301                	c.addi	t1,0
    1800:	0901                	c.addi	s2,0
    1802:	0000                	c.unimp
    1804:	0501                	c.addi	a0,0
    1806:	0606                	c.slli	a2,0x1
    1808:	00090003          	lb	zero,0(s2)
    180c:	0100                	c.addi4spn	s0,sp,128
    180e:	0305                	c.addi	t1,1
    1810:	04091503          	lh	a0,64(s2)
    1814:	0100                	c.addi4spn	s0,sp,128
    1816:	0605                	c.addi	a2,1
    1818:	097fb703          	0x97fb703
    181c:	000c                	0xc
    181e:	0301                	c.addi	t1,0
    1820:	0905                	c.addi	s2,1
    1822:	0004                	0x4
    1824:	0501                	c.addi	a0,0
    1826:	00c40303          	lb	t1,12(s0)
    182a:	0409                	c.addi	s0,2
    182c:	0100                	c.addi4spn	s0,sp,128
    182e:	0605                	c.addi	a2,1
    1830:	04091203          	lh	tp,64(s2)
    1834:	0100                	c.addi4spn	s0,sp,128
    1836:	0405                	c.addi	s0,1
    1838:	0306                	c.slli	t1,0x1
    183a:	000c095b          	0xc095b
    183e:	0501                	c.addi	a0,0
    1840:	0302                	c.slli64	t1
    1842:	0948                	c.addi4spn	a0,sp,148
    1844:	0000                	c.unimp
    1846:	0301                	c.addi	t1,0
    1848:	0902                	c.slli64	s2
    184a:	0000                	c.unimp
    184c:	0501                	c.addi	a0,0
    184e:	0606                	c.slli	a2,0x1
    1850:	00090003          	lb	zero,0(s2)
    1854:	0100                	c.addi4spn	s0,sp,128
    1856:	0505                	c.addi	a0,1
    1858:	04090003          	lb	zero,64(s2)
    185c:	0100                	c.addi4spn	s0,sp,128
    185e:	0305                	c.addi	t1,1
    1860:	0306                	c.slli	t1,0x1
    1862:	0901                	c.addi	s2,0
    1864:	0004                	0x4
    1866:	0501                	c.addi	a0,0
    1868:	060a                	c.slli	a2,0x2
    186a:	00090003          	lb	zero,0(s2)
    186e:	0100                	c.addi4spn	s0,sp,128
    1870:	0d05                	c.addi	s10,1
    1872:	08090003          	lb	zero,128(s2)
    1876:	0100                	c.addi4spn	s0,sp,128
    1878:	0305                	c.addi	t1,1
    187a:	0306                	c.slli	t1,0x1
    187c:	0901                	c.addi	s2,0
    187e:	0004                	0x4
    1880:	0501                	c.addi	a0,0
    1882:	0302                	c.slli64	t1
    1884:	0004092b          	0x4092b
    1888:	0301                	c.addi	t1,0
    188a:	0901                	c.addi	s2,0
    188c:	0000                	c.unimp
    188e:	0301                	c.addi	t1,0
    1890:	0901                	c.addi	s2,0
    1892:	0000                	c.unimp
    1894:	0301                	c.addi	t1,0
    1896:	00000903          	lb	s2,0(zero) # 0 <__stack_size-0x2000000>
    189a:	0501                	c.addi	a0,0
    189c:	09010303          	lb	t1,144(sp)
    18a0:	0000                	c.unimp
    18a2:	0501                	c.addi	a0,0
    18a4:	0605                	c.addi	a2,1
    18a6:	00090003          	lb	zero,0(s2)
    18aa:	0100                	c.addi4spn	s0,sp,128
    18ac:	0b05                	c.addi	s6,1
    18ae:	04090003          	lb	zero,64(s2)
    18b2:	0100                	c.addi4spn	s0,sp,128
    18b4:	0305                	c.addi	t1,1
    18b6:	0306                	c.slli	t1,0x1
    18b8:	0901                	c.addi	s2,0
    18ba:	0004                	0x4
    18bc:	0501                	c.addi	a0,0
    18be:	0606                	c.slli	a2,0x1
    18c0:	00090003          	lb	zero,0(s2)
    18c4:	0100                	c.addi4spn	s0,sp,128
    18c6:	0305                	c.addi	t1,1
    18c8:	0306                	c.slli	t1,0x1
    18ca:	0901                	c.addi	s2,0
    18cc:	0004                	0x4
    18ce:	0501                	c.addi	a0,0
    18d0:	0606                	c.slli	a2,0x1
    18d2:	00090003          	lb	zero,0(s2)
    18d6:	0100                	c.addi4spn	s0,sp,128
    18d8:	0305                	c.addi	t1,1
    18da:	0306                	c.slli	t1,0x1
    18dc:	00080903          	lb	s2,0(a6)
    18e0:	0301                	c.addi	t1,0
    18e2:	0901                	c.addi	s2,0
    18e4:	0000                	c.unimp
    18e6:	0501                	c.addi	a0,0
    18e8:	0605                	c.addi	a2,1
    18ea:	00090003          	lb	zero,0(s2)
    18ee:	0100                	c.addi4spn	s0,sp,128
    18f0:	0305                	c.addi	t1,1
    18f2:	0306                	c.slli	t1,0x1
    18f4:	0901                	c.addi	s2,0
    18f6:	0004                	0x4
    18f8:	0501                	c.addi	a0,0
    18fa:	0606                	c.slli	a2,0x1
    18fc:	00090003          	lb	zero,0(s2)
    1900:	0100                	c.addi4spn	s0,sp,128
    1902:	0405                	c.addi	s0,1
    1904:	0306                	c.slli	t1,0x1
    1906:	00080903          	lb	s2,0(a6)
    190a:	0501                	c.addi	a0,0
    190c:	00030607          	0x30607
    1910:	0009                	c.addi	zero,2
    1912:	0100                	c.addi4spn	s0,sp,128
    1914:	0b05                	c.addi	s6,1
    1916:	08097c03          	0x8097c03
    191a:	0100                	c.addi4spn	s0,sp,128
    191c:	0505                	c.addi	a0,1
    191e:	04097f03          	0x4097f03
    1922:	0100                	c.addi4spn	s0,sp,128
    1924:	0305                	c.addi	t1,1
    1926:	0306                	c.slli	t1,0x1
    1928:	0909                	c.addi	s2,2
    192a:	0004                	0x4
    192c:	0501                	c.addi	a0,0
    192e:	0318                	c.addi4spn	a4,sp,384
    1930:	0900                	c.addi4spn	s0,sp,144
    1932:	0000                	c.unimp
    1934:	0501                	c.addi	a0,0
    1936:	060a                	c.slli	a2,0x2
    1938:	0c090003          	lb	zero,192(s2)
    193c:	0100                	c.addi4spn	s0,sp,128
    193e:	1805                	c.addi	a6,-31
    1940:	04090003          	lb	zero,64(s2)
    1944:	0100                	c.addi4spn	s0,sp,128
    1946:	0405                	c.addi	s0,1
    1948:	0306                	c.slli	t1,0x1
    194a:	0901                	c.addi	s2,0
    194c:	0004                	0x4
    194e:	0501                	c.addi	a0,0
    1950:	060a                	c.slli	a2,0x2
    1952:	00090003          	lb	zero,0(s2)
    1956:	0100                	c.addi4spn	s0,sp,128
    1958:	2d05                	c.jal	1f88 <__stack_size-0x1ffe078>
    195a:	0c097f03          	0xc097f03
    195e:	0100                	c.addi4spn	s0,sp,128
    1960:	0f05                	c.addi	t5,1
    1962:	04090103          	lb	sp,64(s2)
    1966:	0100                	c.addi4spn	s0,sp,128
    1968:	2705                	c.jal	2088 <__stack_size-0x1ffdf78>
    196a:	04097f03          	0x4097f03
    196e:	0100                	c.addi4spn	s0,sp,128
    1970:	0605                	c.addi	a2,1
    1972:	04090103          	lb	sp,64(s2)
    1976:	0100                	c.addi4spn	s0,sp,128
    1978:	2705                	c.jal	2098 <__stack_size-0x1ffdf68>
    197a:	0306                	c.slli	t1,0x1
    197c:	097f                	0x97f
    197e:	0004                	0x4
    1980:	0501                	c.addi	a0,0
    1982:	0318                	c.addi4spn	a4,sp,384
    1984:	0900                	c.addi4spn	s0,sp,144
    1986:	0000                	c.unimp
    1988:	0501                	c.addi	a0,0
    198a:	09020303          	lb	t1,144(tp) # 90 <__stack_size-0x1ffff70>
    198e:	000c                	0xc
    1990:	0501                	c.addi	a0,0
    1992:	0610                	c.addi4spn	a2,sp,768
    1994:	00090003          	lb	zero,0(s2)
    1998:	0100                	c.addi4spn	s0,sp,128
    199a:	0305                	c.addi	t1,1
    199c:	0306                	c.slli	t1,0x1
    199e:	000c0903          	lb	s2,0(s8)
    19a2:	0501                	c.addi	a0,0
    19a4:	0606                	c.slli	a2,0x1
    19a6:	00090003          	lb	zero,0(s2)
    19aa:	0100                	c.addi4spn	s0,sp,128
    19ac:	0305                	c.addi	t1,1
    19ae:	0306                	c.slli	t1,0x1
    19b0:	0901                	c.addi	s2,0
    19b2:	0004                	0x4
    19b4:	0301                	c.addi	t1,0
    19b6:	0901                	c.addi	s2,0
    19b8:	0000                	c.unimp
    19ba:	0501                	c.addi	a0,0
    19bc:	0606                	c.slli	a2,0x1
    19be:	00090003          	lb	zero,0(s2)
    19c2:	0100                	c.addi4spn	s0,sp,128
    19c4:	1105                	c.addi	sp,-31
    19c6:	0306                	c.slli	t1,0x1
    19c8:	0900                	c.addi4spn	s0,sp,144
    19ca:	000c                	0xc
    19cc:	0501                	c.addi	a0,0
    19ce:	00030613          	addi	a2,t1,0
    19d2:	0009                	c.addi	zero,2
    19d4:	0100                	c.addi4spn	s0,sp,128
    19d6:	0305                	c.addi	t1,1
    19d8:	0306                	c.slli	t1,0x1
    19da:	0901                	c.addi	s2,0
    19dc:	0008                	0x8
    19de:	0501                	c.addi	a0,0
    19e0:	0304                	c.addi4spn	s1,sp,384
    19e2:	0024097b          	0x24097b
    19e6:	0501                	c.addi	a0,0
    19e8:	060e                	c.slli	a2,0x3
    19ea:	00090003          	lb	zero,0(s2)
    19ee:	0100                	c.addi4spn	s0,sp,128
    19f0:	0605                	c.addi	a2,1
    19f2:	04090003          	lb	zero,64(s2)
    19f6:	0100                	c.addi4spn	s0,sp,128
    19f8:	0c05                	c.addi	s8,1
    19fa:	0306                	c.slli	t1,0x1
    19fc:	0900                	c.addi4spn	s0,sp,144
    19fe:	0004                	0x4
    1a00:	0501                	c.addi	a0,0
    1a02:	0614                	c.addi4spn	a3,sp,768
    1a04:	00090003          	lb	zero,0(s2)
    1a08:	0100                	c.addi4spn	s0,sp,128
    1a0a:	0305                	c.addi	t1,1
    1a0c:	0306                	c.slli	t1,0x1
    1a0e:	0902                	c.slli64	s2
    1a10:	0004                	0x4
    1a12:	0501                	c.addi	a0,0
    1a14:	0606                	c.slli	a2,0x1
    1a16:	00090003          	lb	zero,0(s2)
    1a1a:	0100                	c.addi4spn	s0,sp,128
    1a1c:	0105                	c.addi	sp,1
    1a1e:	04093903          	0x4093903
    1a22:	0100                	c.addi4spn	s0,sp,128
    1a24:	0405                	c.addi	s0,1
    1a26:	0306                	c.slli	t1,0x1
    1a28:	095e                	c.slli	s2,0x17
    1a2a:	003c                	c.addi4spn	a5,sp,8
    1a2c:	0501                	c.addi	a0,0
    1a2e:	0302                	c.slli64	t1
    1a30:	7fa1                	c.lui	t6,0xfffe8
    1a32:	0009                	c.addi	zero,2
    1a34:	0100                	c.addi4spn	s0,sp,128
    1a36:	00090203          	lb	tp,0(s2)
    1a3a:	0100                	c.addi4spn	s0,sp,128
    1a3c:	0605                	c.addi	a2,1
    1a3e:	0306                	c.slli	t1,0x1
    1a40:	0900                	c.addi4spn	s0,sp,144
    1a42:	0000                	c.unimp
    1a44:	0501                	c.addi	a0,0
    1a46:	0305                	c.addi	t1,1
    1a48:	0900                	c.addi4spn	s0,sp,144
    1a4a:	0004                	0x4
    1a4c:	0501                	c.addi	a0,0
    1a4e:	01030603          	lb	a2,16(t1)
    1a52:	0409                	c.addi	s0,2
    1a54:	0100                	c.addi4spn	s0,sp,128
    1a56:	0a05                	c.addi	s4,1
    1a58:	0306                	c.slli	t1,0x1
    1a5a:	0900                	c.addi4spn	s0,sp,144
    1a5c:	0000                	c.unimp
    1a5e:	0501                	c.addi	a0,0
    1a60:	030d                	c.addi	t1,3
    1a62:	0900                	c.addi4spn	s0,sp,144
    1a64:	0008                	0x8
    1a66:	0501                	c.addi	a0,0
    1a68:	01030603          	lb	a2,16(t1)
    1a6c:	0409                	c.addi	s0,2
    1a6e:	0100                	c.addi4spn	s0,sp,128
    1a70:	0900df03          	lhu	t5,144(ra)
    1a74:	0004                	0x4
    1a76:	0501                	c.addi	a0,0
    1a78:	060a                	c.slli	a2,0x2
    1a7a:	00090003          	lb	zero,0(s2)
    1a7e:	0100                	c.addi4spn	s0,sp,128
    1a80:	2305                	c.jal	1fa0 <__stack_size-0x1ffe060>
    1a82:	04090003          	lb	zero,64(s2)
    1a86:	0100                	c.addi4spn	s0,sp,128
    1a88:	1105                	c.addi	sp,-31
    1a8a:	04090003          	lb	zero,64(s2)
    1a8e:	0100                	c.addi4spn	s0,sp,128
    1a90:	0605                	c.addi	a2,1
    1a92:	04090103          	lb	sp,64(s2)
    1a96:	0100                	c.addi4spn	s0,sp,128
    1a98:	1105                	c.addi	sp,-31
    1a9a:	04097f03          	0x4097f03
    1a9e:	0100                	c.addi4spn	s0,sp,128
    1aa0:	2305                	c.jal	1fc0 <__stack_size-0x1ffe040>
    1aa2:	0c090003          	lb	zero,192(s2)
    1aa6:	0100                	c.addi4spn	s0,sp,128
    1aa8:	0305                	c.addi	t1,1
    1aaa:	0306                	c.slli	t1,0x1
    1aac:	0901                	c.addi	s2,0
    1aae:	0004                	0x4
    1ab0:	0501                	c.addi	a0,0
    1ab2:	0606                	c.slli	a2,0x1
    1ab4:	00090003          	lb	zero,0(s2)
    1ab8:	0100                	c.addi4spn	s0,sp,128
    1aba:	1005                	c.addi	zero,-31
    1abc:	0c090003          	lb	zero,192(s2)
    1ac0:	0100                	c.addi4spn	s0,sp,128
    1ac2:	0405                	c.addi	s0,1
    1ac4:	0306                	c.slli	t1,0x1
    1ac6:	0901                	c.addi	s2,0
    1ac8:	0004                	0x4
    1aca:	0501                	c.addi	a0,0
    1acc:	0606                	c.slli	a2,0x1
    1ace:	00090103          	lb	sp,0(s2)
    1ad2:	0100                	c.addi4spn	s0,sp,128
    1ad4:	04097f03          	0x4097f03
    1ad8:	0100                	c.addi4spn	s0,sp,128
    1ada:	0405                	c.addi	s0,1
    1adc:	0306                	c.slli	t1,0x1
    1ade:	0901                	c.addi	s2,0
    1ae0:	0004                	0x4
    1ae2:	0501                	c.addi	a0,0
    1ae4:	0606                	c.slli	a2,0x1
    1ae6:	00090003          	lb	zero,0(s2)
    1aea:	0100                	c.addi4spn	s0,sp,128
    1aec:	0405                	c.addi	s0,1
    1aee:	0306                	c.slli	t1,0x1
    1af0:	096e                	c.slli	s2,0x1b
    1af2:	000c                	0xc
    1af4:	0501                	c.addi	a0,0
    1af6:	0606                	c.slli	a2,0x1
    1af8:	097fae03          	lw	t3,151(t6) # fffe8097 <_sp+0x77fe8097>
    1afc:	0004                	0x4
    1afe:	0501                	c.addi	a0,0
    1b00:	0304                	c.addi4spn	s1,sp,384
    1b02:	00d2                	c.slli	ra,0x14
    1b04:	0409                	c.addi	s0,2
    1b06:	0100                	c.addi4spn	s0,sp,128
    1b08:	1005                	c.addi	zero,-31
    1b0a:	04090003          	lb	zero,64(s2)
    1b0e:	0100                	c.addi4spn	s0,sp,128
    1b10:	0205                	c.addi	tp,1
    1b12:	0306                	c.slli	t1,0x1
    1b14:	7fac                	c.flw	fa1,120(a5)
    1b16:	0409                	c.addi	s0,2
    1b18:	0100                	c.addi4spn	s0,sp,128
    1b1a:	00090203          	lb	tp,0(s2)
    1b1e:	0100                	c.addi4spn	s0,sp,128
    1b20:	0505                	c.addi	a0,1
    1b22:	0306                	c.slli	t1,0x1
    1b24:	0900                	c.addi4spn	s0,sp,144
    1b26:	0000                	c.unimp
    1b28:	0501                	c.addi	a0,0
    1b2a:	01030603          	lb	a2,16(t1)
    1b2e:	0409                	c.addi	s0,2
    1b30:	0100                	c.addi4spn	s0,sp,128
    1b32:	0a05                	c.addi	s4,1
    1b34:	0306                	c.slli	t1,0x1
    1b36:	0900                	c.addi4spn	s0,sp,144
    1b38:	0000                	c.unimp
    1b3a:	0501                	c.addi	a0,0
    1b3c:	030d                	c.addi	t1,3
    1b3e:	0900                	c.addi4spn	s0,sp,144
    1b40:	0008                	0x8
    1b42:	0501                	c.addi	a0,0
    1b44:	01030603          	lb	a2,16(t1)
    1b48:	0409                	c.addi	s0,2
    1b4a:	0100                	c.addi4spn	s0,sp,128
    1b4c:	1005                	c.addi	zero,-31
    1b4e:	0306                	c.slli	t1,0x1
    1b50:	00d0                	c.addi4spn	a2,sp,68
    1b52:	0009                	c.addi	zero,2
    1b54:	0100                	c.addi4spn	s0,sp,128
    1b56:	0305                	c.addi	t1,1
    1b58:	097fb003          	0x97fb003
    1b5c:	0004                	0x4
    1b5e:	0501                	c.addi	a0,0
    1b60:	0604                	c.addi4spn	s1,sp,768
    1b62:	0900c903          	lbu	s2,144(ra)
    1b66:	0004                	0x4
    1b68:	0501                	c.addi	a0,0
    1b6a:	0606                	c.slli	a2,0x1
    1b6c:	00090003          	lb	zero,0(s2)
    1b70:	0100                	c.addi4spn	s0,sp,128
    1b72:	0f05                	c.addi	t5,1
    1b74:	04090203          	lb	tp,64(s2)
    1b78:	0100                	c.addi4spn	s0,sp,128
    1b7a:	0605                	c.addi	a2,1
    1b7c:	04097e03          	0x4097e03
    1b80:	0100                	c.addi4spn	s0,sp,128
    1b82:	0405                	c.addi	s0,1
    1b84:	0306                	c.slli	t1,0x1
    1b86:	0901                	c.addi	s2,0
    1b88:	0008                	0x8
    1b8a:	0501                	c.addi	a0,0
    1b8c:	0310                	c.addi4spn	a2,sp,384
    1b8e:	0900                	c.addi4spn	s0,sp,144
    1b90:	0000                	c.unimp
    1b92:	0501                	c.addi	a0,0
    1b94:	0611                	c.addi	a2,4
    1b96:	00090003          	lb	zero,0(s2)
    1b9a:	0100                	c.addi4spn	s0,sp,128
    1b9c:	1005                	c.addi	zero,-31
    1b9e:	04090003          	lb	zero,64(s2)
    1ba2:	0100                	c.addi4spn	s0,sp,128
    1ba4:	0b05                	c.addi	s6,1
    1ba6:	04090003          	lb	zero,64(s2)
    1baa:	0100                	c.addi4spn	s0,sp,128
    1bac:	1705                	c.addi	a4,-31
    1bae:	0306                	c.slli	t1,0x1
    1bb0:	0900                	c.addi4spn	s0,sp,144
    1bb2:	0004                	0x4
    1bb4:	0501                	c.addi	a0,0
    1bb6:	0310                	c.addi4spn	a2,sp,384
    1bb8:	0900                	c.addi4spn	s0,sp,144
    1bba:	0008                	0x8
    1bbc:	0501                	c.addi	a0,0
    1bbe:	0611                	c.addi	a2,4
    1bc0:	00090003          	lb	zero,0(s2)
    1bc4:	0100                	c.addi4spn	s0,sp,128
    1bc6:	1005                	c.addi	zero,-31
    1bc8:	04090003          	lb	zero,64(s2)
    1bcc:	0100                	c.addi4spn	s0,sp,128
    1bce:	1405                	c.addi	s0,-31
    1bd0:	0306                	c.slli	t1,0x1
    1bd2:	0901                	c.addi	s2,0
    1bd4:	0008                	0x8
    1bd6:	0501                	c.addi	a0,0
    1bd8:	0618                	c.addi4spn	a4,sp,768
    1bda:	00090003          	lb	zero,0(s2)
    1bde:	0100                	c.addi4spn	s0,sp,128
    1be0:	1405                	c.addi	s0,-31
    1be2:	04090003          	lb	zero,64(s2)
    1be6:	0100                	c.addi4spn	s0,sp,128
    1be8:	1805                	c.addi	a6,-31
    1bea:	04090003          	lb	zero,64(s2)
    1bee:	0100                	c.addi4spn	s0,sp,128
    1bf0:	1405                	c.addi	s0,-31
    1bf2:	04090003          	lb	zero,64(s2)
    1bf6:	0100                	c.addi4spn	s0,sp,128
    1bf8:	1805                	c.addi	a6,-31
    1bfa:	04090003          	lb	zero,64(s2)
    1bfe:	0100                	c.addi4spn	s0,sp,128
    1c00:	0305                	c.addi	t1,1
    1c02:	0306                	c.slli	t1,0x1
    1c04:	7fb4                	c.flw	fa3,120(a5)
    1c06:	0809                	c.addi	a6,2
    1c08:	0100                	c.addi4spn	s0,sp,128
    1c0a:	0a05                	c.addi	s4,1
    1c0c:	0306                	c.slli	t1,0x1
    1c0e:	0900                	c.addi4spn	s0,sp,144
    1c10:	0000                	c.unimp
    1c12:	0501                	c.addi	a0,0
    1c14:	030d                	c.addi	t1,3
    1c16:	0900                	c.addi4spn	s0,sp,144
    1c18:	0008                	0x8
    1c1a:	0501                	c.addi	a0,0
    1c1c:	01030603          	lb	a2,16(t1)
    1c20:	0809                	c.addi	a6,2
    1c22:	0100                	c.addi4spn	s0,sp,128
    1c24:	1405                	c.addi	s0,-31
    1c26:	0900cb03          	lbu	s6,144(ra)
    1c2a:	0000                	c.unimp
    1c2c:	0501                	c.addi	a0,0
    1c2e:	0618                	c.addi4spn	a4,sp,768
    1c30:	00090003          	lb	zero,0(s2)
    1c34:	0100                	c.addi4spn	s0,sp,128
    1c36:	1405                	c.addi	s0,-31
    1c38:	04090003          	lb	zero,64(s2)
    1c3c:	0100                	c.addi4spn	s0,sp,128
    1c3e:	1805                	c.addi	a6,-31
    1c40:	04090003          	lb	zero,64(s2)
    1c44:	0100                	c.addi4spn	s0,sp,128
    1c46:	2005                	c.jal	1c66 <__stack_size-0x1ffe39a>
    1c48:	0306                	c.slli	t1,0x1
    1c4a:	0900                	c.addi4spn	s0,sp,144
    1c4c:	0004                	0x4
    1c4e:	0501                	c.addi	a0,0
    1c50:	0302                	c.slli64	t1
    1c52:	7fb1                	c.lui	t6,0xfffec
    1c54:	0009                	c.addi	zero,2
    1c56:	0100                	c.addi4spn	s0,sp,128
    1c58:	00090203          	lb	tp,0(s2)
    1c5c:	0100                	c.addi4spn	s0,sp,128
    1c5e:	0605                	c.addi	a2,1
    1c60:	0306                	c.slli	t1,0x1
    1c62:	0900                	c.addi4spn	s0,sp,144
    1c64:	0000                	c.unimp
    1c66:	0501                	c.addi	a0,0
    1c68:	0305                	c.addi	t1,1
    1c6a:	0900                	c.addi4spn	s0,sp,144
    1c6c:	0004                	0x4
    1c6e:	0501                	c.addi	a0,0
    1c70:	0602                	c.slli64	a2
    1c72:	04090503          	lb	a0,64(s2)
    1c76:	0100                	c.addi4spn	s0,sp,128
    1c78:	0605                	c.addi	a2,1
    1c7a:	0306                	c.slli	t1,0x1
    1c7c:	0900                	c.addi4spn	s0,sp,144
    1c7e:	0000                	c.unimp
    1c80:	0501                	c.addi	a0,0
    1c82:	0305                	c.addi	t1,1
    1c84:	0900                	c.addi4spn	s0,sp,144
    1c86:	0004                	0x4
    1c88:	0501                	c.addi	a0,0
    1c8a:	0611                	c.addi	a2,4
    1c8c:	04090003          	lb	zero,64(s2)
    1c90:	0100                	c.addi4spn	s0,sp,128
    1c92:	1405                	c.addi	s0,-31
    1c94:	0900c803          	lbu	a6,144(ra)
    1c98:	0008                	0x8
    1c9a:	0501                	c.addi	a0,0
    1c9c:	0618                	c.addi4spn	a4,sp,768
    1c9e:	00090003          	lb	zero,0(s2)
    1ca2:	0100                	c.addi4spn	s0,sp,128
    1ca4:	1405                	c.addi	s0,-31
    1ca6:	04090003          	lb	zero,64(s2)
    1caa:	0100                	c.addi4spn	s0,sp,128
    1cac:	1805                	c.addi	a6,-31
    1cae:	04090003          	lb	zero,64(s2)
    1cb2:	0100                	c.addi4spn	s0,sp,128
    1cb4:	0905                	c.addi	s2,1
    1cb6:	08094403          	lbu	s0,128(s2)
    1cba:	0100                	c.addi4spn	s0,sp,128
    1cbc:	1805                	c.addi	a6,-31
    1cbe:	04093c03          	0x4093c03
    1cc2:	0100                	c.addi4spn	s0,sp,128
    1cc4:	0c05                	c.addi	s8,1
    1cc6:	08090203          	lb	tp,128(s2)
    1cca:	0100                	c.addi4spn	s0,sp,128
    1ccc:	0405                	c.addi	s0,1
    1cce:	0306                	c.slli	t1,0x1
    1cd0:	097f                	0x97f
    1cd2:	0004                	0x4
    1cd4:	0501                	c.addi	a0,0
    1cd6:	0309                	c.addi	t1,2
    1cd8:	00000943          	fmadd.s	fs2,ft0,ft0,ft0,rne
    1cdc:	0501                	c.addi	a0,0
    1cde:	093e030f          	0x93e030f
    1ce2:	0004                	0x4
    1ce4:	0501                	c.addi	a0,0
    1ce6:	7fb20303          	lb	t1,2043(tp) # 7fb <__stack_size-0x1fff805>
    1cea:	0809                	c.addi	a6,2
    1cec:	0100                	c.addi4spn	s0,sp,128
    1cee:	0a05                	c.addi	s4,1
    1cf0:	0306                	c.slli	t1,0x1
    1cf2:	0900                	c.addi4spn	s0,sp,144
    1cf4:	0000                	c.unimp
    1cf6:	0501                	c.addi	a0,0
    1cf8:	030d                	c.addi	t1,3
    1cfa:	0900                	c.addi4spn	s0,sp,144
    1cfc:	0008                	0x8
    1cfe:	0501                	c.addi	a0,0
    1d00:	01030603          	lb	a2,16(t1)
    1d04:	0809                	c.addi	a6,2
    1d06:	0100                	c.addi4spn	s0,sp,128
    1d08:	0f05                	c.addi	t5,1
    1d0a:	0900cd03          	lbu	s10,144(ra)
    1d0e:	0000                	c.unimp
    1d10:	0501                	c.addi	a0,0
    1d12:	060c                	c.addi4spn	a1,sp,768
    1d14:	00090003          	lb	zero,0(s2)
    1d18:	0100                	c.addi4spn	s0,sp,128
    1d1a:	0f05                	c.addi	t5,1
    1d1c:	04090003          	lb	zero,64(s2)
    1d20:	0100                	c.addi4spn	s0,sp,128
    1d22:	0c05                	c.addi	s8,1
    1d24:	04090003          	lb	zero,64(s2)
    1d28:	0100                	c.addi4spn	s0,sp,128
    1d2a:	1405                	c.addi	s0,-31
    1d2c:	0306                	c.slli	t1,0x1
    1d2e:	0900                	c.addi4spn	s0,sp,144
    1d30:	0004                	0x4
    1d32:	0501                	c.addi	a0,0
    1d34:	0302                	c.slli64	t1
    1d36:	00097faf          	0x97faf
    1d3a:	0100                	c.addi4spn	s0,sp,128
    1d3c:	00090203          	lb	tp,0(s2)
    1d40:	0100                	c.addi4spn	s0,sp,128
    1d42:	0605                	c.addi	a2,1
    1d44:	0306                	c.slli	t1,0x1
    1d46:	0900                	c.addi4spn	s0,sp,144
    1d48:	0000                	c.unimp
    1d4a:	0501                	c.addi	a0,0
    1d4c:	0305                	c.addi	t1,1
    1d4e:	0900                	c.addi4spn	s0,sp,144
    1d50:	0004                	0x4
    1d52:	0501                	c.addi	a0,0
    1d54:	0602                	c.slli64	a2
    1d56:	04090503          	lb	a0,64(s2)
    1d5a:	0100                	c.addi4spn	s0,sp,128
    1d5c:	0605                	c.addi	a2,1
    1d5e:	0306                	c.slli	t1,0x1
    1d60:	0900                	c.addi4spn	s0,sp,144
    1d62:	0000                	c.unimp
    1d64:	0501                	c.addi	a0,0
    1d66:	0305                	c.addi	t1,1
    1d68:	0900                	c.addi4spn	s0,sp,144
    1d6a:	0004                	0x4
    1d6c:	0501                	c.addi	a0,0
    1d6e:	0611                	c.addi	a2,4
    1d70:	04090003          	lb	zero,64(s2)
    1d74:	0100                	c.addi4spn	s0,sp,128
    1d76:	0f05                	c.addi	t5,1
    1d78:	0900ca03          	lbu	s4,144(ra)
    1d7c:	0008                	0x8
    1d7e:	0501                	c.addi	a0,0
    1d80:	060c                	c.addi4spn	a1,sp,768
    1d82:	00090003          	lb	zero,0(s2)
    1d86:	0100                	c.addi4spn	s0,sp,128
    1d88:	0f05                	c.addi	t5,1
    1d8a:	04090003          	lb	zero,64(s2)
    1d8e:	0100                	c.addi4spn	s0,sp,128
    1d90:	0605                	c.addi	a2,1
    1d92:	04097c03          	0x4097c03
    1d96:	0100                	c.addi4spn	s0,sp,128
    1d98:	0305                	c.addi	t1,1
    1d9a:	0306                	c.slli	t1,0x1
    1d9c:	7fb6                	c.flwsp	ft11,108(sp)
    1d9e:	0809                	c.addi	a6,2
    1da0:	0100                	c.addi4spn	s0,sp,128
    1da2:	0a05                	c.addi	s4,1
    1da4:	0306                	c.slli	t1,0x1
    1da6:	0900                	c.addi4spn	s0,sp,144
    1da8:	0000                	c.unimp
    1daa:	0501                	c.addi	a0,0
    1dac:	030d                	c.addi	t1,3
    1dae:	0900                	c.addi4spn	s0,sp,144
    1db0:	0008                	0x8
    1db2:	0501                	c.addi	a0,0
    1db4:	01030603          	lb	a2,16(t1)
    1db8:	0409                	c.addi	s0,2
    1dba:	0100                	c.addi4spn	s0,sp,128
    1dbc:	0905                	c.addi	s2,1
    1dbe:	00090f03          	lb	t5,0(s2)
    1dc2:	0100                	c.addi4spn	s0,sp,128
    1dc4:	0305                	c.addi	t1,1
    1dc6:	08090103          	lb	sp,128(s2)
    1dca:	0100                	c.addi4spn	s0,sp,128
    1dcc:	0605                	c.addi	a2,1
    1dce:	0306                	c.slli	t1,0x1
    1dd0:	096e                	c.slli	s2,0x1b
    1dd2:	0000                	c.unimp
    1dd4:	0501                	c.addi	a0,0
    1dd6:	030d                	c.addi	t1,3
    1dd8:	0912                	c.slli	s2,0x4
    1dda:	0004                	0x4
    1ddc:	0501                	c.addi	a0,0
    1dde:	0602                	c.slli64	a2
    1de0:	04096c03          	0x4096c03
    1de4:	0100                	c.addi4spn	s0,sp,128
    1de6:	00090203          	lb	tp,0(s2)
    1dea:	0100                	c.addi4spn	s0,sp,128
    1dec:	0505                	c.addi	a0,1
    1dee:	0306                	c.slli	t1,0x1
    1df0:	0900                	c.addi4spn	s0,sp,144
    1df2:	0000                	c.unimp
    1df4:	0501                	c.addi	a0,0
    1df6:	0602                	c.slli64	a2
    1df8:	04090503          	lb	a0,64(s2)
    1dfc:	0100                	c.addi4spn	s0,sp,128
    1dfe:	0605                	c.addi	a2,1
    1e00:	0306                	c.slli	t1,0x1
    1e02:	0900                	c.addi4spn	s0,sp,144
    1e04:	0000                	c.unimp
    1e06:	0501                	c.addi	a0,0
    1e08:	0305                	c.addi	t1,1
    1e0a:	0900                	c.addi4spn	s0,sp,144
    1e0c:	0004                	0x4
    1e0e:	0501                	c.addi	a0,0
    1e10:	0611                	c.addi	a2,4
    1e12:	04090003          	lb	zero,64(s2)
    1e16:	0100                	c.addi4spn	s0,sp,128
    1e18:	0305                	c.addi	t1,1
    1e1a:	0900dc03          	lhu	s8,144(ra)
    1e1e:	0008                	0x8
    1e20:	0501                	c.addi	a0,0
    1e22:	060a                	c.slli	a2,0x2
    1e24:	00090003          	lb	zero,0(s2)
    1e28:	0100                	c.addi4spn	s0,sp,128
    1e2a:	0605                	c.addi	a2,1
    1e2c:	04097503          	0x4097503
    1e30:	0100                	c.addi4spn	s0,sp,128
    1e32:	2305                	c.jal	2352 <__stack_size-0x1ffdcae>
    1e34:	04090b03          	lb	s6,64(s2)
    1e38:	0100                	c.addi4spn	s0,sp,128
    1e3a:	0305                	c.addi	t1,1
    1e3c:	0306                	c.slli	t1,0x1
    1e3e:	0901                	c.addi	s2,0
    1e40:	0010                	0x10
    1e42:	0501                	c.addi	a0,0
    1e44:	7f030623          	sb	a6,2028(t1)
    1e48:	0009                	c.addi	zero,2
    1e4a:	0100                	c.addi4spn	s0,sp,128
    1e4c:	0305                	c.addi	t1,1
    1e4e:	0306                	c.slli	t1,0x1
    1e50:	0905                	c.addi	s2,1
    1e52:	0008                	0x8
    1e54:	0501                	c.addi	a0,0
    1e56:	0605                	c.addi	a2,1
    1e58:	18090003          	lb	zero,384(s2)
    1e5c:	0100                	c.addi4spn	s0,sp,128
    1e5e:	0705                	c.addi	a4,1
    1e60:	04090303          	lb	t1,64(s2)
    1e64:	0100                	c.addi4spn	s0,sp,128
    1e66:	0305                	c.addi	t1,1
    1e68:	0306                	c.slli	t1,0x1
    1e6a:	097e                	c.slli	s2,0x1f
    1e6c:	000c                	0xc
    1e6e:	0501                	c.addi	a0,0
    1e70:	0304                	c.addi4spn	s1,sp,384
    1e72:	0901                	c.addi	s2,0
    1e74:	0000                	c.unimp
    1e76:	0501                	c.addi	a0,0
    1e78:	0611                	c.addi	a2,4
    1e7a:	00090003          	lb	zero,0(s2)
    1e7e:	0100                	c.addi4spn	s0,sp,128
    1e80:	1905                	c.addi	s2,-31
    1e82:	10090003          	lb	zero,256(s2)
    1e86:	0100                	c.addi4spn	s0,sp,128
    1e88:	0605                	c.addi	a2,1
    1e8a:	10090003          	lb	zero,256(s2)
    1e8e:	0100                	c.addi4spn	s0,sp,128
    1e90:	1705                	c.addi	a4,-31
    1e92:	0306                	c.slli	t1,0x1
    1e94:	0900                	c.addi4spn	s0,sp,144
    1e96:	0004                	0x4
    1e98:	0501                	c.addi	a0,0
    1e9a:	0619                	c.addi	a2,6
    1e9c:	00090003          	lb	zero,0(s2)
    1ea0:	0100                	c.addi4spn	s0,sp,128
    1ea2:	0405                	c.addi	s0,1
    1ea4:	0306                	c.slli	t1,0x1
    1ea6:	0901                	c.addi	s2,0
    1ea8:	0004                	0x4
    1eaa:	0501                	c.addi	a0,0
    1eac:	00030607          	0x30607
    1eb0:	0009                	c.addi	zero,2
    1eb2:	0100                	c.addi4spn	s0,sp,128
    1eb4:	0f05                	c.addi	t5,1
    1eb6:	0306                	c.slli	t1,0x1
    1eb8:	0900                	c.addi4spn	s0,sp,144
    1eba:	0004                	0x4
    1ebc:	0501                	c.addi	a0,0
    1ebe:	0611                	c.addi	a2,4
    1ec0:	00090003          	lb	zero,0(s2)
    1ec4:	0100                	c.addi4spn	s0,sp,128
    1ec6:	0405                	c.addi	s0,1
    1ec8:	0306                	c.slli	t1,0x1
    1eca:	0901                	c.addi	s2,0
    1ecc:	000c                	0xc
    1ece:	0501                	c.addi	a0,0
    1ed0:	00030607          	0x30607
    1ed4:	0009                	c.addi	zero,2
    1ed6:	0100                	c.addi4spn	s0,sp,128
    1ed8:	0b05                	c.addi	s6,1
    1eda:	04090003          	lb	zero,64(s2)
    1ede:	0100                	c.addi4spn	s0,sp,128
    1ee0:	0f05                	c.addi	t5,1
    1ee2:	04090003          	lb	zero,64(s2)
    1ee6:	0100                	c.addi4spn	s0,sp,128
    1ee8:	0b05                	c.addi	s6,1
    1eea:	04090003          	lb	zero,64(s2)
    1eee:	0100                	c.addi4spn	s0,sp,128
    1ef0:	0e05                	c.addi	t3,1
    1ef2:	0306                	c.slli	t1,0x1
    1ef4:	0901                	c.addi	s2,0
    1ef6:	0004                	0x4
    1ef8:	0501                	c.addi	a0,0
    1efa:	09010303          	lb	t1,144(sp)
    1efe:	000c                	0xc
    1f00:	0501                	c.addi	a0,0
    1f02:	0606                	c.slli	a2,0x1
    1f04:	00090003          	lb	zero,0(s2)
    1f08:	0100                	c.addi4spn	s0,sp,128
    1f0a:	0e05                	c.addi	t3,1
    1f0c:	0306                	c.slli	t1,0x1
    1f0e:	0900                	c.addi4spn	s0,sp,144
    1f10:	0008                	0x8
    1f12:	0501                	c.addi	a0,0
    1f14:	0615                	c.addi	a2,5
    1f16:	00090003          	lb	zero,0(s2)
    1f1a:	0100                	c.addi4spn	s0,sp,128
    1f1c:	1105                	c.addi	sp,-31
    1f1e:	14090003          	lb	zero,320(s2)
    1f22:	0100                	c.addi4spn	s0,sp,128
    1f24:	0305                	c.addi	t1,1
    1f26:	0306                	c.slli	t1,0x1
    1f28:	0901                	c.addi	s2,0
    1f2a:	0004                	0x4
    1f2c:	0501                	c.addi	a0,0
    1f2e:	030a                	c.slli	t1,0x2
    1f30:	0900                	c.addi4spn	s0,sp,144
    1f32:	0000                	c.unimp
    1f34:	0501                	c.addi	a0,0
    1f36:	060c                	c.addi4spn	a1,sp,768
    1f38:	00090003          	lb	zero,0(s2)
    1f3c:	0100                	c.addi4spn	s0,sp,128
    1f3e:	0e05                	c.addi	t3,1
    1f40:	08090103          	lb	sp,128(s2)
    1f44:	0100                	c.addi4spn	s0,sp,128
    1f46:	0605                	c.addi	a2,1
    1f48:	097f9203          	lh	tp,151(t6) # fffec097 <_sp+0x77fec097>
    1f4c:	0004                	0x4
    1f4e:	0501                	c.addi	a0,0
    1f50:	030c                	c.addi4spn	a1,sp,384
    1f52:	00ed                	c.addi	ra,27
    1f54:	0409                	c.addi	s0,2
    1f56:	0100                	c.addi4spn	s0,sp,128
    1f58:	0305                	c.addi	t1,1
    1f5a:	0306                	c.slli	t1,0x1
    1f5c:	0901                	c.addi	s2,0
    1f5e:	0004                	0x4
    1f60:	0501                	c.addi	a0,0
    1f62:	09000313          	addi	t1,zero,144
    1f66:	0000                	c.unimp
    1f68:	0501                	c.addi	a0,0
    1f6a:	00030617          	auipc	a2,0x30
    1f6e:	0009                	c.addi	zero,2
    1f70:	0100                	c.addi4spn	s0,sp,128
    1f72:	1305                	c.addi	t1,-31
    1f74:	04090003          	lb	zero,64(s2)
    1f78:	0100                	c.addi4spn	s0,sp,128
    1f7a:	1f05                	c.addi	t5,-31
    1f7c:	0306                	c.slli	t1,0x1
    1f7e:	0900                	c.addi4spn	s0,sp,144
    1f80:	000c                	0xc
    1f82:	0501                	c.addi	a0,0
    1f84:	0302                	c.slli64	t1
    1f86:	7f90                	c.flw	fa2,56(a5)
    1f88:	0009                	c.addi	zero,2
    1f8a:	0100                	c.addi4spn	s0,sp,128
    1f8c:	00090203          	lb	tp,0(s2)
    1f90:	0100                	c.addi4spn	s0,sp,128
    1f92:	0505                	c.addi	a0,1
    1f94:	0306                	c.slli	t1,0x1
    1f96:	0900                	c.addi4spn	s0,sp,144
    1f98:	0000                	c.unimp
    1f9a:	0501                	c.addi	a0,0
    1f9c:	01030603          	lb	a2,16(t1)
    1fa0:	0409                	c.addi	s0,2
    1fa2:	0100                	c.addi4spn	s0,sp,128
    1fa4:	0a05                	c.addi	s4,1
    1fa6:	0306                	c.slli	t1,0x1
    1fa8:	0900                	c.addi4spn	s0,sp,144
    1faa:	0000                	c.unimp
    1fac:	0501                	c.addi	a0,0
    1fae:	030d                	c.addi	t1,3
    1fb0:	0900                	c.addi4spn	s0,sp,144
    1fb2:	0004                	0x4
    1fb4:	0501                	c.addi	a0,0
    1fb6:	01030603          	lb	a2,16(t1)
    1fba:	0409                	c.addi	s0,2
    1fbc:	0100                	c.addi4spn	s0,sp,128
    1fbe:	0a05                	c.addi	s4,1
    1fc0:	0306                	c.slli	t1,0x1
    1fc2:	097f                	0x97f
    1fc4:	0000                	c.unimp
    1fc6:	0501                	c.addi	a0,0
    1fc8:	09010303          	lb	t1,144(sp)
    1fcc:	0004                	0x4
    1fce:	0501                	c.addi	a0,0
    1fd0:	ec030613          	addi	a2,t1,-320
    1fd4:	0900                	c.addi4spn	s0,sp,144
    1fd6:	0008                	0x8
    1fd8:	0501                	c.addi	a0,0
    1fda:	00030617          	auipc	a2,0x30
    1fde:	0009                	c.addi	zero,2
    1fe0:	0100                	c.addi4spn	s0,sp,128
    1fe2:	1305                	c.addi	t1,-31
    1fe4:	04090003          	lb	zero,64(s2)
    1fe8:	0100                	c.addi4spn	s0,sp,128
    1fea:	0305                	c.addi	t1,1
    1fec:	0306                	c.slli	t1,0x1
    1fee:	0c097f93          	andi	t6,s2,192
    1ff2:	0100                	c.addi4spn	s0,sp,128
    1ff4:	0a05                	c.addi	s4,1
    1ff6:	0306                	c.slli	t1,0x1
    1ff8:	0900                	c.addi4spn	s0,sp,144
    1ffa:	0000                	c.unimp
    1ffc:	0501                	c.addi	a0,0
    1ffe:	030d                	c.addi	t1,3
    2000:	0900                	c.addi4spn	s0,sp,144
    2002:	0008                	0x8
    2004:	0501                	c.addi	a0,0
    2006:	01030603          	lb	a2,16(t1)
    200a:	0409                	c.addi	s0,2
    200c:	0100                	c.addi4spn	s0,sp,128
    200e:	1b05                	c.addi	s6,-31
    2010:	0900ed03          	0x900ed03
    2014:	0000                	c.unimp
    2016:	0501                	c.addi	a0,0
    2018:	0606                	c.slli	a2,0x1
    201a:	097f9103          	lh	sp,151(t6)
    201e:	0008                	0x8
    2020:	0501                	c.addi	a0,0
    2022:	ef030603          	lb	a2,-272(t1)
    2026:	0900                	c.addi4spn	s0,sp,144
    2028:	0004                	0x4
    202a:	0501                	c.addi	a0,0
    202c:	0306                	c.slli	t1,0x1
    202e:	0900                	c.addi4spn	s0,sp,144
    2030:	0000                	c.unimp
    2032:	0501                	c.addi	a0,0
    2034:	0302                	c.slli64	t1
    2036:	04097f8f          	0x4097f8f
    203a:	0100                	c.addi4spn	s0,sp,128
    203c:	00090203          	lb	tp,0(s2)
    2040:	0100                	c.addi4spn	s0,sp,128
    2042:	0505                	c.addi	a0,1
    2044:	0306                	c.slli	t1,0x1
    2046:	0900                	c.addi4spn	s0,sp,144
    2048:	0000                	c.unimp
    204a:	0501                	c.addi	a0,0
    204c:	0602                	c.slli64	a2
    204e:	04090503          	lb	a0,64(s2)
    2052:	0100                	c.addi4spn	s0,sp,128
    2054:	0605                	c.addi	a2,1
    2056:	0306                	c.slli	t1,0x1
    2058:	0900                	c.addi4spn	s0,sp,144
    205a:	0000                	c.unimp
    205c:	0501                	c.addi	a0,0
    205e:	0305                	c.addi	t1,1
    2060:	0900                	c.addi4spn	s0,sp,144
    2062:	0004                	0x4
    2064:	0501                	c.addi	a0,0
    2066:	0611                	c.addi	a2,4
    2068:	04090003          	lb	zero,64(s2)
    206c:	0100                	c.addi4spn	s0,sp,128
    206e:	1b05                	c.addi	s6,-31
    2070:	0306                	c.slli	t1,0x1
    2072:	00ea                	c.slli	ra,0x1a
    2074:	0009                	c.addi	zero,2
    2076:	0100                	c.addi4spn	s0,sp,128
    2078:	1105                	c.addi	sp,-31
    207a:	097f9603          	lh	a2,151(t6)
    207e:	0004                	0x4
    2080:	0501                	c.addi	a0,0
    2082:	ea03061b          	0xea03061b
    2086:	0900                	c.addi4spn	s0,sp,144
    2088:	0004                	0x4
    208a:	0501                	c.addi	a0,0
    208c:	030e                	c.slli	t1,0x3
    208e:	0901                	c.addi	s2,0
    2090:	0004                	0x4
    2092:	0501                	c.addi	a0,0
    2094:	0003060b          	0x3060b
    2098:	0009                	c.addi	zero,2
    209a:	0100                	c.addi4spn	s0,sp,128
    209c:	0e05                	c.addi	t3,1
    209e:	04090003          	lb	zero,64(s2)
    20a2:	0100                	c.addi4spn	s0,sp,128
    20a4:	0305                	c.addi	t1,1
    20a6:	0306                	c.slli	t1,0x1
    20a8:	7f91                	c.lui	t6,0xfffe4
    20aa:	0809                	c.addi	a6,2
    20ac:	0100                	c.addi4spn	s0,sp,128
    20ae:	0a05                	c.addi	s4,1
    20b0:	0306                	c.slli	t1,0x1
    20b2:	0900                	c.addi4spn	s0,sp,144
    20b4:	0000                	c.unimp
    20b6:	0501                	c.addi	a0,0
    20b8:	030d                	c.addi	t1,3
    20ba:	0900                	c.addi4spn	s0,sp,144
    20bc:	0008                	0x8
    20be:	0501                	c.addi	a0,0
    20c0:	01030603          	lb	a2,16(t1)
    20c4:	0809                	c.addi	a6,2
    20c6:	0100                	c.addi4spn	s0,sp,128
    20c8:	0e05                	c.addi	t3,1
    20ca:	0900ee03          	0x900ee03
    20ce:	0000                	c.unimp
    20d0:	0501                	c.addi	a0,0
    20d2:	0003060b          	0x3060b
    20d6:	0009                	c.addi	zero,2
    20d8:	0100                	c.addi4spn	s0,sp,128
    20da:	0e05                	c.addi	t3,1
    20dc:	04090003          	lb	zero,64(s2)
    20e0:	0100                	c.addi4spn	s0,sp,128
    20e2:	1305                	c.addi	t1,-31
    20e4:	0306                	c.slli	t1,0x1
    20e6:	0900                	c.addi4spn	s0,sp,144
    20e8:	0008                	0x8
    20ea:	0501                	c.addi	a0,0
    20ec:	0302                	c.slli64	t1
    20ee:	7f8e                	c.flwsp	ft11,224(sp)
    20f0:	0009                	c.addi	zero,2
    20f2:	0100                	c.addi4spn	s0,sp,128
    20f4:	00090203          	lb	tp,0(s2)
    20f8:	0100                	c.addi4spn	s0,sp,128
    20fa:	0605                	c.addi	a2,1
    20fc:	0306                	c.slli	t1,0x1
    20fe:	0900                	c.addi4spn	s0,sp,144
    2100:	0000                	c.unimp
    2102:	0501                	c.addi	a0,0
    2104:	0305                	c.addi	t1,1
    2106:	0900                	c.addi4spn	s0,sp,144
    2108:	0004                	0x4
    210a:	0501                	c.addi	a0,0
    210c:	0602                	c.slli64	a2
    210e:	04090503          	lb	a0,64(s2)
    2112:	0100                	c.addi4spn	s0,sp,128
    2114:	0605                	c.addi	a2,1
    2116:	0306                	c.slli	t1,0x1
    2118:	0900                	c.addi4spn	s0,sp,144
    211a:	0000                	c.unimp
    211c:	0501                	c.addi	a0,0
    211e:	0305                	c.addi	t1,1
    2120:	0900                	c.addi4spn	s0,sp,144
    2122:	0004                	0x4
    2124:	0501                	c.addi	a0,0
    2126:	0611                	c.addi	a2,4
    2128:	04090003          	lb	zero,64(s2)
    212c:	0100                	c.addi4spn	s0,sp,128
    212e:	1305                	c.addi	t1,-31
    2130:	0900e903          	0x900e903
    2134:	000c                	0xc
    2136:	0501                	c.addi	a0,0
    2138:	00030617          	auipc	a2,0x30
    213c:	0009                	c.addi	zero,2
    213e:	0100                	c.addi4spn	s0,sp,128
    2140:	1305                	c.addi	t1,-31
    2142:	04090003          	lb	zero,64(s2)
    2146:	0100                	c.addi4spn	s0,sp,128
    2148:	1705                	c.addi	a4,-31
    214a:	04090003          	lb	zero,64(s2)
    214e:	0100                	c.addi4spn	s0,sp,128
    2150:	0205                	c.addi	tp,1
    2152:	0306                	c.slli	t1,0x1
    2154:	04097f97          	auipc	t6,0x4097
    2158:	0100                	c.addi4spn	s0,sp,128
    215a:	0605                	c.addi	a2,1
    215c:	0306                	c.slli	t1,0x1
    215e:	0900                	c.addi4spn	s0,sp,144
    2160:	0000                	c.unimp
    2162:	0501                	c.addi	a0,0
    2164:	0305                	c.addi	t1,1
    2166:	0900                	c.addi4spn	s0,sp,144
    2168:	0004                	0x4
    216a:	0501                	c.addi	a0,0
    216c:	0611                	c.addi	a2,4
    216e:	04090003          	lb	zero,64(s2)
    2172:	0100                	c.addi4spn	s0,sp,128
    2174:	0605                	c.addi	a2,1
    2176:	0306                	c.slli	t1,0x1
    2178:	0008097b          	0x8097b
    217c:	0501                	c.addi	a0,0
    217e:	0604                	c.addi4spn	s1,sp,768
    2180:	0900db03          	lhu	s6,144(ra)
    2184:	000c                	0xc
    2186:	0501                	c.addi	a0,0
    2188:	030c                	c.addi4spn	a1,sp,384
    218a:	0900                	c.addi4spn	s0,sp,144
    218c:	0000                	c.unimp
    218e:	0501                	c.addi	a0,0
    2190:	09060303          	lb	t1,144(a2) # 321c8 <__stack_size-0x1fcde38>
    2194:	0000                	c.unimp
    2196:	0501                	c.addi	a0,0
    2198:	060a                	c.slli	a2,0x2
    219a:	00090003          	lb	zero,0(s2)
    219e:	0100                	c.addi4spn	s0,sp,128
    21a0:	0605                	c.addi	a2,1
    21a2:	04097a03          	0x4097a03
    21a6:	0100                	c.addi4spn	s0,sp,128
    21a8:	2305                	c.jal	26c8 <__stack_size-0x1ffd938>
    21aa:	04090603          	lb	a2,64(s2)
    21ae:	0100                	c.addi4spn	s0,sp,128
    21b0:	0605                	c.addi	a2,1
    21b2:	0c097a03          	0xc097a03
    21b6:	0100                	c.addi4spn	s0,sp,128
    21b8:	2305                	c.jal	26d8 <__stack_size-0x1ffd928>
    21ba:	04090603          	lb	a2,64(s2)
    21be:	0100                	c.addi4spn	s0,sp,128
    21c0:	0305                	c.addi	t1,1
    21c2:	0306                	c.slli	t1,0x1
    21c4:	0901                	c.addi	s2,0
    21c6:	0004                	0x4
    21c8:	0501                	c.addi	a0,0
    21ca:	0611                	c.addi	a2,4
    21cc:	00097f03          	0x97f03
    21d0:	0100                	c.addi4spn	s0,sp,128
    21d2:	0305                	c.addi	t1,1
    21d4:	0306                	c.slli	t1,0x1
    21d6:	0900                	c.addi4spn	s0,sp,144
    21d8:	000c                	0xc
    21da:	0501                	c.addi	a0,0
    21dc:	060a                	c.slli	a2,0x2
    21de:	00090003          	lb	zero,0(s2)
    21e2:	0100                	c.addi4spn	s0,sp,128
    21e4:	0605                	c.addi	a2,1
    21e6:	04097303          	0x4097303
    21ea:	0100                	c.addi4spn	s0,sp,128
    21ec:	2305                	c.jal	270c <__stack_size-0x1ffd8f4>
    21ee:	04090d03          	lb	s10,64(s2)
    21f2:	0100                	c.addi4spn	s0,sp,128
    21f4:	0605                	c.addi	a2,1
    21f6:	08097303          	0x8097303
    21fa:	0100                	c.addi4spn	s0,sp,128
    21fc:	3905                	c.jal	1e2c <__stack_size-0x1ffe1d4>
    21fe:	04090d03          	lb	s10,64(s2)
    2202:	0100                	c.addi4spn	s0,sp,128
    2204:	2305                	c.jal	2724 <__stack_size-0x1ffd8dc>
    2206:	04090003          	lb	zero,64(s2)
    220a:	0100                	c.addi4spn	s0,sp,128
    220c:	0305                	c.addi	t1,1
    220e:	0306                	c.slli	t1,0x1
    2210:	0901                	c.addi	s2,0
    2212:	0004                	0x4
    2214:	0501                	c.addi	a0,0
    2216:	0611                	c.addi	a2,4
    2218:	00097f03          	0x97f03
    221c:	0100                	c.addi4spn	s0,sp,128
    221e:	0205                	c.addi	tp,1
    2220:	0306                	c.slli	t1,0x1
    2222:	7fa4                	c.flw	fs1,120(a5)
    2224:	0c09                	c.addi	s8,2
    2226:	0100                	c.addi4spn	s0,sp,128
    2228:	0605                	c.addi	a2,1
    222a:	0306                	c.slli	t1,0x1
    222c:	0900                	c.addi4spn	s0,sp,144
    222e:	0000                	c.unimp
    2230:	0501                	c.addi	a0,0
    2232:	0305                	c.addi	t1,1
    2234:	0900                	c.addi4spn	s0,sp,144
    2236:	0008                	0x8
    2238:	0501                	c.addi	a0,0
    223a:	0611                	c.addi	a2,4
    223c:	04090003          	lb	zero,64(s2)
    2240:	0100                	c.addi4spn	s0,sp,128
    2242:	0405                	c.addi	s0,1
    2244:	08093603          	0x8093603
    2248:	0100                	c.addi4spn	s0,sp,128
    224a:	0b05                	c.addi	s6,1
    224c:	00090003          	lb	zero,0(s2)
    2250:	0100                	c.addi4spn	s0,sp,128
    2252:	0d05                	c.addi	s10,1
    2254:	0306                	c.slli	t1,0x1
    2256:	0900                	c.addi4spn	s0,sp,144
    2258:	0000                	c.unimp
    225a:	0501                	c.addi	a0,0
    225c:	0306                	c.slli	t1,0x1
    225e:	0900                	c.addi4spn	s0,sp,144
    2260:	0004                	0x4
    2262:	0501                	c.addi	a0,0
    2264:	09000313          	addi	t1,zero,144
    2268:	0004                	0x4
    226a:	0501                	c.addi	a0,0
    226c:	0605                	c.addi	a2,1
    226e:	08090303          	lb	t1,128(s2)
    2272:	0100                	c.addi4spn	s0,sp,128
    2274:	0c05                	c.addi	s8,1
    2276:	00090003          	lb	zero,0(s2)
    227a:	0100                	c.addi4spn	s0,sp,128
    227c:	0e05                	c.addi	t3,1
    227e:	0306                	c.slli	t1,0x1
    2280:	0900                	c.addi4spn	s0,sp,144
    2282:	0000                	c.unimp
    2284:	0501                	c.addi	a0,0
    2286:	09000307          	0x9000307
    228a:	0004                	0x4
    228c:	0501                	c.addi	a0,0
    228e:	0314                	c.addi4spn	a3,sp,384
    2290:	0900                	c.addi4spn	s0,sp,144
    2292:	0004                	0x4
    2294:	0501                	c.addi	a0,0
    2296:	0602                	c.slli64	a2
    2298:	08094703          	lbu	a4,128(s2)
    229c:	0100                	c.addi4spn	s0,sp,128
    229e:	0605                	c.addi	a2,1
    22a0:	0306                	c.slli	t1,0x1
    22a2:	0900                	c.addi4spn	s0,sp,144
    22a4:	0000                	c.unimp
    22a6:	0501                	c.addi	a0,0
    22a8:	0310                	c.addi4spn	a2,sp,384
    22aa:	00cd                	c.addi	ra,19
    22ac:	0409                	c.addi	s0,2
    22ae:	0100                	c.addi4spn	s0,sp,128
    22b0:	0505                	c.addi	a0,1
    22b2:	097fb303          	0x97fb303
    22b6:	0004                	0x4
    22b8:	0501                	c.addi	a0,0
    22ba:	0602                	c.slli64	a2
    22bc:	08090003          	lb	zero,128(s2)
    22c0:	0100                	c.addi4spn	s0,sp,128
    22c2:	0605                	c.addi	a2,1
    22c4:	0306                	c.slli	t1,0x1
    22c6:	0900                	c.addi4spn	s0,sp,144
    22c8:	0000                	c.unimp
    22ca:	0501                	c.addi	a0,0
    22cc:	0305                	c.addi	t1,1
    22ce:	0900                	c.addi4spn	s0,sp,144
    22d0:	0004                	0x4
    22d2:	0501                	c.addi	a0,0
    22d4:	0309                	c.addi	t1,2
    22d6:	090c                	c.addi4spn	a1,sp,144
    22d8:	0008                	0x8
    22da:	0501                	c.addi	a0,0
    22dc:	0318                	c.addi4spn	a4,sp,384
    22de:	093c                	c.addi4spn	a5,sp,152
    22e0:	0004                	0x4
    22e2:	0501                	c.addi	a0,0
    22e4:	030c                	c.addi4spn	a1,sp,384
    22e6:	0902                	c.slli64	s2
    22e8:	000c                	0xc
    22ea:	0501                	c.addi	a0,0
    22ec:	0604                	c.addi4spn	s1,sp,768
    22ee:	04097f03          	0x4097f03
    22f2:	0100                	c.addi4spn	s0,sp,128
    22f4:	0905                	c.addi	s2,1
    22f6:	00094303          	lbu	t1,0(s2)
    22fa:	0100                	c.addi4spn	s0,sp,128
    22fc:	2305                	c.jal	281c <__stack_size-0x1ffd7e4>
    22fe:	0306                	c.slli	t1,0x1
    2300:	00d0                	c.addi4spn	a2,sp,68
    2302:	0809                	c.addi	a6,2
    2304:	0100                	c.addi4spn	s0,sp,128
    2306:	0605                	c.addi	a2,1
    2308:	08096a03          	0x8096a03
    230c:	0100                	c.addi4spn	s0,sp,128
    230e:	3905                	c.jal	1f3e <__stack_size-0x1ffe0c2>
    2310:	08091603          	lh	a2,128(s2)
    2314:	0100                	c.addi4spn	s0,sp,128
    2316:	2305                	c.jal	2836 <__stack_size-0x1ffd7ca>
    2318:	08090003          	lb	zero,128(s2)
    231c:	0100                	c.addi4spn	s0,sp,128
    231e:	0305                	c.addi	t1,1
    2320:	0306                	c.slli	t1,0x1
    2322:	0901                	c.addi	s2,0
    2324:	0004                	0x4
    2326:	0501                	c.addi	a0,0
    2328:	7f030623          	sb	a6,2028(t1)
    232c:	0409                	c.addi	s0,2
    232e:	0100                	c.addi4spn	s0,sp,128
    2330:	0605                	c.addi	a2,1
    2332:	04097503          	0x4097503
    2336:	0100                	c.addi4spn	s0,sp,128
    2338:	3905                	c.jal	1f68 <__stack_size-0x1ffe098>
    233a:	04090b03          	lb	s6,64(s2)
    233e:	0100                	c.addi4spn	s0,sp,128
    2340:	2305                	c.jal	2860 <__stack_size-0x1ffd7a0>
    2342:	04090003          	lb	zero,64(s2)
    2346:	0100                	c.addi4spn	s0,sp,128
    2348:	0305                	c.addi	t1,1
    234a:	0306                	c.slli	t1,0x1
    234c:	0901                	c.addi	s2,0
    234e:	0004                	0x4
    2350:	0501                	c.addi	a0,0
    2352:	0611                	c.addi	a2,4
    2354:	00097f03          	0x97f03
    2358:	0100                	c.addi4spn	s0,sp,128
    235a:	1305                	c.addi	t1,-31
    235c:	0c090d03          	lb	s10,192(s2)
    2360:	0100                	c.addi4spn	s0,sp,128
    2362:	1705                	c.addi	a4,-31
    2364:	08090003          	lb	zero,128(s2)
    2368:	0100                	c.addi4spn	s0,sp,128
    236a:	1405                	c.addi	s0,-31
    236c:	0306                	c.slli	t1,0x1
    236e:	095f 0008 0501      	0x5010008095f
    2374:	0606                	c.slli	a2,0x1
    2376:	0c097e03          	0xc097e03
    237a:	0100                	c.addi4spn	s0,sp,128
    237c:	1405                	c.addi	s0,-31
    237e:	08090203          	lb	tp,128(s2)
    2382:	0100                	c.addi4spn	s0,sp,128
    2384:	1705                	c.addi	a4,-31
    2386:	04097f03          	0x4097f03
    238a:	0100                	c.addi4spn	s0,sp,128
    238c:	1405                	c.addi	s0,-31
    238e:	08090103          	lb	sp,128(s2)
    2392:	0100                	c.addi4spn	s0,sp,128
    2394:	0b05                	c.addi	s6,1
    2396:	04097f03          	0x4097f03
    239a:	0100                	c.addi4spn	s0,sp,128
    239c:	3905                	c.jal	1fcc <__stack_size-0x1ffe034>
    239e:	0c091503          	lh	a0,192(s2)
    23a2:	0100                	c.addi4spn	s0,sp,128
    23a4:	1009                	c.addi	zero,-30
    23a6:	0000                	c.unimp
    23a8:	0101                	c.addi	sp,0
    23aa:	0000014f          	fnmadd.s	ft2,ft0,ft0,ft0,rne
    23ae:	0005                	c.addi	zero,1
    23b0:	0004                	0x4
    23b2:	002e                	c.slli	zero,0xb
    23b4:	0000                	c.unimp
    23b6:	0101                	c.addi	sp,0
    23b8:	fb01                	c.bnez	a4,22c8 <__stack_size-0x1ffdd38>
    23ba:	0d0e                	c.slli	s10,0x3
    23bc:	0100                	c.addi4spn	s0,sp,128
    23be:	0101                	c.addi	sp,0
    23c0:	0001                	c.addi	zero,0
    23c2:	0000                	c.unimp
    23c4:	0001                	c.addi	zero,0
    23c6:	0100                	c.addi4spn	s0,sp,128
    23c8:	0101                	c.addi	sp,0
    23ca:	021f 0175 0000      	0x175021f
    23d0:	0175                	c.addi	sp,29
    23d2:	0000                	c.unimp
    23d4:	0102                	c.slli64	sp
    23d6:	021f 020f 019e      	0x19e020f021f
    23dc:	0000                	c.unimp
    23de:	9e00                	0x9e00
    23e0:	0001                	c.addi	zero,0
    23e2:	0100                	c.addi4spn	s0,sp,128
    23e4:	0500                	c.addi4spn	s0,sp,640
    23e6:	8c02                	c.jr	s8
    23e8:	0012                	c.slli	zero,0x4
    23ea:	0380                	c.addi4spn	s0,sp,448
    23ec:	00c4                	c.addi4spn	s1,sp,68
    23ee:	0301                	c.addi	t1,0
    23f0:	0901                	c.addi	s2,0
    23f2:	0004                	0x4
    23f4:	0301                	c.addi	t1,0
    23f6:	0904                	c.addi4spn	s1,sp,144
    23f8:	0004                	0x4
    23fa:	0301                	c.addi	t1,0
    23fc:	0901                	c.addi	s2,0
    23fe:	0004                	0x4
    2400:	0301                	c.addi	t1,0
    2402:	0901                	c.addi	s2,0
    2404:	0004                	0x4
    2406:	0301                	c.addi	t1,0
    2408:	0901                	c.addi	s2,0
    240a:	0004                	0x4
    240c:	0301                	c.addi	t1,0
    240e:	0901                	c.addi	s2,0
    2410:	0004                	0x4
    2412:	0301                	c.addi	t1,0
    2414:	0901                	c.addi	s2,0
    2416:	0004                	0x4
    2418:	0301                	c.addi	t1,0
    241a:	0902                	c.slli64	s2
    241c:	0004                	0x4
    241e:	0301                	c.addi	t1,0
    2420:	0901                	c.addi	s2,0
    2422:	0004                	0x4
    2424:	0301                	c.addi	t1,0
    2426:	0901                	c.addi	s2,0
    2428:	0004                	0x4
    242a:	0301                	c.addi	t1,0
    242c:	0901                	c.addi	s2,0
    242e:	0004                	0x4
    2430:	0301                	c.addi	t1,0
    2432:	0902                	c.slli64	s2
    2434:	0004                	0x4
    2436:	0301                	c.addi	t1,0
    2438:	0902                	c.slli64	s2
    243a:	0004                	0x4
    243c:	0301                	c.addi	t1,0
    243e:	0901                	c.addi	s2,0
    2440:	0004                	0x4
    2442:	0301                	c.addi	t1,0
    2444:	0901                	c.addi	s2,0
    2446:	0004                	0x4
    2448:	0301                	c.addi	t1,0
    244a:	0902                	c.slli64	s2
    244c:	0004                	0x4
    244e:	0301                	c.addi	t1,0
    2450:	0901                	c.addi	s2,0
    2452:	0004                	0x4
    2454:	0301                	c.addi	t1,0
    2456:	0901                	c.addi	s2,0
    2458:	0004                	0x4
    245a:	0301                	c.addi	t1,0
    245c:	0902                	c.slli64	s2
    245e:	0004                	0x4
    2460:	0301                	c.addi	t1,0
    2462:	0905                	c.addi	s2,1
    2464:	0004                	0x4
    2466:	0301                	c.addi	t1,0
    2468:	0901                	c.addi	s2,0
    246a:	0004                	0x4
    246c:	0301                	c.addi	t1,0
    246e:	0901                	c.addi	s2,0
    2470:	0004                	0x4
    2472:	0301                	c.addi	t1,0
    2474:	0901                	c.addi	s2,0
    2476:	0004                	0x4
    2478:	0301                	c.addi	t1,0
    247a:	0905                	c.addi	s2,1
    247c:	0004                	0x4
    247e:	0301                	c.addi	t1,0
    2480:	0902                	c.slli64	s2
    2482:	0004                	0x4
    2484:	0301                	c.addi	t1,0
    2486:	0902                	c.slli64	s2
    2488:	0004                	0x4
    248a:	0301                	c.addi	t1,0
    248c:	0901                	c.addi	s2,0
    248e:	0004                	0x4
    2490:	0301                	c.addi	t1,0
    2492:	0902                	c.slli64	s2
    2494:	0004                	0x4
    2496:	0301                	c.addi	t1,0
    2498:	0902                	c.slli64	s2
    249a:	0004                	0x4
    249c:	0301                	c.addi	t1,0
    249e:	0901                	c.addi	s2,0
    24a0:	0004                	0x4
    24a2:	0301                	c.addi	t1,0
    24a4:	0901                	c.addi	s2,0
    24a6:	0004                	0x4
    24a8:	0301                	c.addi	t1,0
    24aa:	0901                	c.addi	s2,0
    24ac:	0004                	0x4
    24ae:	0301                	c.addi	t1,0
    24b0:	0904                	c.addi4spn	s1,sp,144
    24b2:	0004                	0x4
    24b4:	0301                	c.addi	t1,0
    24b6:	0901                	c.addi	s2,0
    24b8:	0004                	0x4
    24ba:	0301                	c.addi	t1,0
    24bc:	0901                	c.addi	s2,0
    24be:	0004                	0x4
    24c0:	0301                	c.addi	t1,0
    24c2:	0902                	c.slli64	s2
    24c4:	0004                	0x4
    24c6:	0301                	c.addi	t1,0
    24c8:	0901                	c.addi	s2,0
    24ca:	0004                	0x4
    24cc:	0301                	c.addi	t1,0
    24ce:	0901                	c.addi	s2,0
    24d0:	0004                	0x4
    24d2:	0301                	c.addi	t1,0
    24d4:	0902                	c.slli64	s2
    24d6:	0004                	0x4
    24d8:	0301                	c.addi	t1,0
    24da:	0901                	c.addi	s2,0
    24dc:	0004                	0x4
    24de:	0301                	c.addi	t1,0
    24e0:	0902                	c.slli64	s2
    24e2:	0004                	0x4
    24e4:	0301                	c.addi	t1,0
    24e6:	0901                	c.addi	s2,0
    24e8:	0004                	0x4
    24ea:	0301                	c.addi	t1,0
    24ec:	0901                	c.addi	s2,0
    24ee:	0004                	0x4
    24f0:	0301                	c.addi	t1,0
    24f2:	0901                	c.addi	s2,0
    24f4:	0004                	0x4
    24f6:	0901                	c.addi	s2,0
    24f8:	0004                	0x4
    24fa:	0100                	c.addi4spn	s0,sp,128
    24fc:	01              	Address 0x00000000000024fc is out of bounds.


Disassembly of section .debug_line_str:

00000000 <.debug_line_str>:
   0:	2e2e                	c.fldsp	ft8,200(sp)
   2:	2f2e2e2f          	0x2f2e2e2f
   6:	2e2e                	c.fldsp	ft8,200(sp)
   8:	7300                	c.flw	fs0,32(a4)
   a:	6174                	c.flw	fa3,68(a0)
   c:	7472                	c.flwsp	fs0,60(sp)
   e:	532e                	c.lwsp	t1,232(sp)
  10:	6400                	c.flw	fs0,8(s0)
  12:	7972                	c.flwsp	fs2,60(sp)
  14:	632e                	c.flwsp	ft6,200(sp)
  16:	2f00                	c.fld	fs0,24(a4)
  18:	6f68                	c.flw	fa0,92(a4)
  1a:	656d                	c.lui	a0,0x1b
  1c:	7475742f          	0x7475742f
  20:	7475                	c.lui	s0,0xffffd
  22:	2f75                	c.jal	7de <__stack_size-0x1fff822>
  24:	6971                	c.lui	s2,0x1c
  26:	656d                	c.lui	a0,0x1b
  28:	676e                	c.flwsp	fa4,216(sp)
  2a:	6d69732f          	0x6d69732f
  2e:	6c75                	c.lui	s8,0x1d
  30:	7461                	c.lui	s0,0xffff8
  32:	622f726f          	jal	tp,f7654 <__stack_size-0x1f089ac>
  36:	7261                	c.lui	tp,0xffff8
  38:	6d65                	c.lui	s10,0x19
  3a:	7465                	c.lui	s0,0xffff9
  3c:	6c61                	c.lui	s8,0x18
  3e:	6e65622f          	0x6e65622f
  42:	616d6863          	bltu	s10,s6,652 <__stack_size-0x1fff9ae>
  46:	6b72                	c.flwsp	fs6,28(sp)
  48:	68642f73          	csrrs	t5,0x686,s0
  4c:	7972                	c.flwsp	fs2,60(sp)
  4e:	6e6f7473          	csrrci	s0,0x6e6,30
  52:	0065                	c.addi	zero,25
  54:	2e2e                	c.fldsp	ft8,200(sp)
  56:	2f2e2e2f          	0x2f2e2e2f
  5a:	6e69                	c.lui	t3,0x1a
  5c:	64756c63          	bltu	a0,t2,6b4 <__stack_size-0x1fff94c>
  60:	0065                	c.addi	zero,25
  62:	7078                	c.flw	fa4,100(s0)
  64:	6972                	c.flwsp	fs2,28(sp)
  66:	746e                	c.flwsp	fs0,248(sp)
  68:	2e66                	c.fldsp	ft8,88(sp)
  6a:	0068                	c.addi4spn	a0,sp,12
  6c:	623c                	c.flw	fa5,64(a2)
  6e:	6975                	c.lui	s2,0x1d
  70:	746c                	c.flw	fa1,108(s0)
  72:	692d                	c.lui	s2,0xb
  74:	3e6e                	c.fldsp	ft8,248(sp)
  76:	2e00                	c.fld	fs0,24(a2)
  78:	2f2e                	c.fldsp	ft10,200(sp)
  7a:	2e2e                	c.fldsp	ft8,200(sp)
  7c:	2f2e2e2f          	0x2f2e2e2f
  80:	696c                	c.flw	fa1,84(a0)
  82:	2f62                	c.fldsp	ft10,24(sp)
  84:	7078                	c.flw	fa4,100(s0)
  86:	6972                	c.flwsp	fs2,28(sp)
  88:	746e                	c.flwsp	fs0,248(sp)
  8a:	2e66                	c.fldsp	ft8,88(sp)
  8c:	682f0063          	beq	t5,sp,70c <__stack_size-0x1fff8f4>
  90:	2f656d6f          	jal	s10,56386 <__stack_size-0x1fa9c7a>
  94:	7574                	c.flw	fa3,108(a0)
  96:	7574                	c.flw	fa3,108(a0)
  98:	7574                	c.flw	fa3,108(a0)
  9a:	6d69712f          	0x6d69712f
  9e:	6e65                	c.lui	t3,0x19
  a0:	69732f67          	0x69732f67
  a4:	756d                	c.lui	a0,0xffffb
  a6:	616c                	c.flw	fa1,68(a0)
  a8:	6f74                	c.flw	fa3,92(a4)
  aa:	2f72                	c.fldsp	ft10,280(sp)
  ac:	6162                	c.flwsp	ft2,24(sp)
  ae:	6572                	c.flwsp	fa0,28(sp)
  b0:	656d                	c.lui	a0,0x1b
  b2:	6174                	c.flw	fa3,68(a0)
  b4:	2f6c                	c.fld	fa1,216(a4)
  b6:	7472                	c.flwsp	fs0,60(sp)
  b8:	742d                	c.lui	s0,0xfffeb
  ba:	7268                	c.flw	fa0,100(a2)
  bc:	6165                	c.addi16sp	sp,112
  be:	2d64                	c.fld	fs1,216(a0)
  c0:	6d61                	c.lui	s10,0x18
  c2:	6d2d                	c.lui	s10,0xb
  c4:	7361                	c.lui	t1,0xffff8
  c6:	6574                	c.flw	fa3,76(a0)
  c8:	2f72                	c.fldsp	ft10,280(sp)
  ca:	7362                	c.flwsp	ft6,56(sp)
  cc:	2f70                	c.fld	fa2,216(a4)
  ce:	6261                	c.lui	tp,0x18
  d0:	61727473          	csrrci	s0,0x617,4
  d4:	6d2d7463          	bgeu	s10,s2,79c <__stack_size-0x1fff864>
  d8:	6361                	c.lui	t1,0x18
  da:	6968                	c.flw	fa0,84(a0)
  dc:	656e                	c.flwsp	fa0,216(sp)
  de:	2e00                	c.fld	fs0,24(a2)
  e0:	2f2e                	c.fldsp	ft10,200(sp)
  e2:	2e2e                	c.fldsp	ft8,200(sp)
  e4:	2f2e2e2f          	0x2f2e2e2f
  e8:	696c                	c.flw	fa1,84(a0)
  ea:	0062                	c.slli	zero,0x18
  ec:	6d6f682f          	0x6d6f682f
  f0:	2f65                	c.jal	8a8 <__stack_size-0x1fff758>
  f2:	7574                	c.flw	fa3,108(a0)
  f4:	7574                	c.flw	fa3,108(a0)
  f6:	7574                	c.flw	fa3,108(a0)
  f8:	6d69712f          	0x6d69712f
  fc:	6e65                	c.lui	t3,0x19
  fe:	69662f67          	0x69662f67
 102:	656c                	c.flw	fa1,76(a0)
 104:	7261622f          	0x7261622f
 108:	6d65                	c.lui	s10,0x19
 10a:	7465                	c.lui	s0,0xffff9
 10c:	6c61                	c.lui	s8,0x18
 10e:	6f6f742f          	0x6f6f742f
 112:	636c                	c.flw	fa1,68(a4)
 114:	6168                	c.flw	fa0,68(a0)
 116:	6e69                	c.lui	t3,0x1a
 118:	69722f73          	csrrs	t5,0x697,tp
 11c:	2d766373          	csrrsi	t1,0x2d7,12
 120:	6c65                	c.lui	s8,0x19
 122:	3366                	c.fldsp	ft6,120(sp)
 124:	2d32                	c.fldsp	fs10,264(sp)
 126:	6169                	c.addi16sp	sp,208
 128:	62696c2f          	0x62696c2f
 12c:	6363672f          	0x6363672f
 130:	7369722f          	0x7369722f
 134:	32337663          	bgeu	t1,gp,460 <__stack_size-0x1fffba0>
 138:	752d                	c.lui	a0,0xfffeb
 13a:	6b6e                	c.flwsp	fs6,216(sp)
 13c:	6f6e                	c.flwsp	ft10,216(sp)
 13e:	652d6e77          	0x652d6e77
 142:	666c                	c.flw	fa1,76(a2)
 144:	2e31312f          	0x2e31312f
 148:	2e31                	c.jal	464 <__stack_size-0x1fffb9c>
 14a:	2f30                	c.fld	fa2,88(a4)
 14c:	6e69                	c.lui	t3,0x1a
 14e:	64756c63          	bltu	a0,t2,7a6 <__stack_size-0x1fff85a>
 152:	0065                	c.addi	zero,25
 154:	2e2e                	c.fldsp	ft8,200(sp)
 156:	2f2e2e2f          	0x2f2e2e2f
 15a:	2e2e                	c.fldsp	ft8,200(sp)
 15c:	62696c2f          	0x62696c2f
 160:	2f2e2e2f          	0x2f2e2e2f
 164:	6e69                	c.lui	t3,0x1a
 166:	64756c63          	bltu	a0,t2,7be <__stack_size-0x1fff842>
 16a:	0065                	c.addi	zero,25
 16c:	61647473          	csrrci	s0,0x616,8
 170:	6772                	c.flwsp	fa4,28(sp)
 172:	682e                	c.flwsp	fa6,200(sp)
 174:	2e00                	c.fld	fs0,24(a2)
 176:	2f2e                	c.fldsp	ft10,200(sp)
 178:	2e2e                	c.fldsp	ft8,200(sp)
 17a:	2f2e2e2f          	0x2f2e2e2f
 17e:	2f2e                	c.fldsp	ft10,200(sp)
 180:	6972                	c.flwsp	fs2,28(sp)
 182:	2d766373          	csrrsi	t1,0x2d7,12
 186:	2f636367          	0x2f636367
 18a:	696c                	c.flw	fa1,84(a0)
 18c:	6762                	c.flwsp	fa4,24(sp)
 18e:	632f6363          	bltu	t5,s2,7b4 <__stack_size-0x1fff84c>
 192:	69666e6f          	jal	t3,66828 <__stack_size-0x1f997d8>
 196:	69722f67          	0x69722f67
 19a:	00766373          	csrrsi	t1,0x7,12
 19e:	6964                	c.flw	fs1,84(a0)
 1a0:	2e76                	c.fldsp	ft8,344(sp)
 1a2:	          	fadd.s	ft0,ft0,ft0,rne

Disassembly of section .debug_info:

00000000 <.debug_info>:
       0:	0020                	c.addi4spn	s0,sp,8
       2:	0000                	c.unimp
       4:	0005                	c.addi	zero,1
       6:	0401                	c.addi	s0,0
       8:	0000                	c.unimp
       a:	0000                	c.unimp
       c:	0001                	c.addi	zero,0
       e:	0000                	c.unimp
      10:	0000                	c.unimp
      12:	0000                	c.unimp
      14:	2080                	c.fld	fs0,0(s1)
      16:	0000                	c.unimp
      18:	0000                	c.unimp
      1a:	0008                	0x8
      1c:	0000                	c.unimp
      1e:	0059                	c.addi	zero,22
      20:	0000                	c.unimp
      22:	8001                	c.srli64	s0
      24:	1311                	c.addi	t1,-28
      26:	0000                	c.unimp
      28:	0005                	c.addi	zero,1
      2a:	0401                	c.addi	s0,0
      2c:	0014                	0x14
      2e:	0000                	c.unimp
      30:	5928                	c.lw	a0,112(a0)
      32:	0002                	c.slli64	zero
      34:	1d00                	c.addi4spn	s0,sp,688
      36:	0011                	c.addi	zero,4
      38:	0000                	c.unimp
      3a:	00000017          	auipc	zero,0x0
      3e:	00000317          	auipc	t1,0x0
      42:	0000                	c.unimp
      44:	0000                	c.unimp
      46:	0060                	c.addi4spn	s0,sp,12
      48:	0000                	c.unimp
      4a:	f1080113          	addi	sp,a6,-240
      4e:	0001                	c.addi	zero,0
      50:	0c00                	c.addi4spn	s0,sp,528
      52:	00cd                	c.addi	ra,19
      54:	0000                	c.unimp
      56:	0165                	c.addi	sp,25
      58:	3916                	c.fldsp	fs2,352(sp)
      5a:	0000                	c.unimp
      5c:	1300                	c.addi4spn	s0,sp,416
      5e:	0704                	c.addi4spn	s1,sp,896
      60:	00000487          	0x487
      64:	0729                	c.addi	a4,10
      66:	3904                	c.fld	fs1,48(a0)
      68:	0000                	c.unimp
      6a:	0100                	c.addi4spn	s0,sp,128
      6c:	6e0e0177          	0x6e0e0177
      70:	0000                	c.unimp
      72:	1400                	c.addi4spn	s0,sp,544
      74:	045e                	c.slli	s0,0x17
      76:	0000                	c.unimp
      78:	1400                	c.addi4spn	s0,sp,544
      7a:	0065                	c.addi	zero,25
      7c:	0000                	c.unimp
      7e:	1401                	c.addi	s0,-32
      80:	006d                	c.addi	zero,27
      82:	0000                	c.unimp
      84:	1402                	c.slli	s0,0x20
      86:	0075                	c.addi	zero,29
      88:	0000                	c.unimp
      8a:	007d1403          	lh	s0,7(s10) # 19007 <__stack_size-0x1fe6ff9>
      8e:	0000                	c.unimp
      90:	0004                	0x4
      92:	9f0c                	0x9f0c
      94:	77000003          	lb	zero,1904(zero) # 770 <__stack_size-0x1fff890>
      98:	3e01                	c.jal	fffffba8 <_sp+0x77fffba8>
      9a:	0040                	c.addi4spn	s0,sp,4
      9c:	0000                	c.unimp
      9e:	aa0c                	c.fsd	fa1,16(a2)
      a0:	0000                	c.unimp
      a2:	8000                	0x8000
      a4:	0d01                	c.addi	s10,0
      a6:	0086                	c.slli	ra,0x1
      a8:	0000                	c.unimp
      aa:	042a                	c.slli	s0,0xa
      ac:	6905                	c.lui	s2,0x1
      ae:	746e                	c.flwsp	fs0,248(sp)
      b0:	0c00                	c.addi4spn	s0,sp,528
      b2:	0389                	c.addi	t2,2
      b4:	0000                	c.unimp
      b6:	0181                	c.addi	gp,0
      b8:	860d                	c.srai	a2,0x3
      ba:	0000                	c.unimp
      bc:	0c00                	c.addi4spn	s0,sp,528
      be:	037a                	c.slli	t1,0x1e
      c0:	0000                	c.unimp
      c2:	0182                	c.slli64	gp
      c4:	a50e                	c.fsdsp	ft3,136(sp)
      c6:	0000                	c.unimp
      c8:	1300                	c.addi4spn	s0,sp,416
      ca:	0801                	c.addi	a6,0
      cc:	01fa                	c.slli	gp,0x1e
      ce:	0000                	c.unimp
      d0:	0000a52b          	0xa52b
      d4:	0c00                	c.addi4spn	s0,sp,528
      d6:	000002d3          	fadd.s	ft5,ft0,ft0,rne
      da:	860d0183          	lb	gp,-1952(s10)
      de:	0000                	c.unimp
      e0:	0c00                	c.addi4spn	s0,sp,528
      e2:	0350                	c.addi4spn	a2,sp,388
      e4:	0000                	c.unimp
      e6:	0184                	c.addi4spn	s1,sp,192
      e8:	c90e                	c.swsp	gp,144(sp)
      ea:	0000                	c.unimp
      ec:	1600                	c.addi4spn	s0,sp,800
      ee:	00a5                	c.addi	ra,9
      f0:	0000                	c.unimp
      f2:	00d9                	c.addi	ra,22
      f4:	0000                	c.unimp
      f6:	00003917          	auipc	s2,0x3
      fa:	1e00                	c.addi4spn	s0,sp,816
      fc:	1600                	c.addi4spn	s0,sp,800
      fe:	0086                	c.slli	ra,0x1
     100:	0000                	c.unimp
     102:	00e9                	c.addi	ra,26
     104:	0000                	c.unimp
     106:	00003917          	auipc	s2,0x3
     10a:	3100                	c.fld	fs0,32(a0)
     10c:	1600                	c.addi4spn	s0,sp,800
     10e:	0086                	c.slli	ra,0x1
     110:	0000                	c.unimp
     112:	00ff                	0xff
     114:	0000                	c.unimp
     116:	00003917          	auipc	s2,0x3
     11a:	3100                	c.fld	fs0,32(a0)
     11c:	00003917          	auipc	s2,0x3
     120:	3100                	c.fld	fs0,32(a0)
     122:	1c00                	c.addi4spn	s0,sp,560
     124:	8c28                	0x8c28
     126:	2f01                	c.jal	836 <__stack_size-0x1fff7ca>
     128:	0001                	c.addi	zero,0
     12a:	0a00                	c.addi4spn	s0,sp,272
     12c:	021d                	c.addi	tp,7
     12e:	0000                	c.unimp
     130:	018d                	c.addi	gp,3
     132:	00006e13          	ori	t3,zero,0
     136:	0000                	c.unimp
     138:	270a                	c.fldsp	fa4,128(sp)
     13a:	0002                	c.slli64	zero
     13c:	8e00                	0x8e00
     13e:	0b01                	c.addi	s6,0
     140:	0086                	c.slli	ra,0x1
     142:	0000                	c.unimp
     144:	0a04                	c.addi4spn	s1,sp,272
     146:	0334                	c.addi4spn	a3,sp,392
     148:	0000                	c.unimp
     14a:	c90c018f          	0xc90c018f
     14e:	0000                	c.unimp
     150:	0800                	c.addi4spn	s0,sp,16
     152:	1c00                	c.addi4spn	s0,sp,560
     154:	9124                	0x9124
     156:	5201                	c.li	tp,-32
     158:	0001                	c.addi	zero,0
     15a:	0a00                	c.addi4spn	s0,sp,272
     15c:	00000143          	fmadd.s	ft2,ft0,ft0,ft0,rne
     160:	0192                	c.slli	gp,0x4
     162:	00006e13          	ori	t3,zero,0
     166:	0000                	c.unimp
     168:	bd0a                	c.fsdsp	ft2,184(sp)
     16a:	0001                	c.addi	zero,0
     16c:	9300                	0x9300
     16e:	0c01                	c.addi	s8,0
     170:	00c9                	c.addi	ra,18
     172:	0000                	c.unimp
     174:	0004                	0x4
     176:	021c                	c.addi4spn	a5,sp,256
     178:	0195                	c.addi	gp,5
     17a:	0175                	c.addi	sp,29
     17c:	0000                	c.unimp
     17e:	950a                	c.add	a0,sp
     180:	0001                	c.addi	zero,0
     182:	9600                	0x9600
     184:	0c01                	c.addi	s8,0
     186:	00a5                	c.addi	ra,9
     188:	0000                	c.unimp
     18a:	0a00                	c.addi4spn	s0,sp,272
     18c:	03b2                	c.slli	t2,0xc
     18e:	0000                	c.unimp
     190:	a50c0197          	auipc	gp,0xa50c0
     194:	0000                	c.unimp
     196:	0100                	c.addi4spn	s0,sp,128
     198:	2c00                	c.fld	fs0,24(s0)
     19a:	0128                	c.addi4spn	a0,sp,136
     19c:	a103018b          	0xa103018b
     1a0:	0001                	c.addi	zero,0
     1a2:	1d00                	c.addi4spn	s0,sp,688
     1a4:	01b1                	c.addi	gp,12
     1a6:	0000                	c.unimp
     1a8:	0190                	c.addi4spn	a2,sp,192
     1aa:	00ff                	0xff
     1ac:	0000                	c.unimp
     1ae:	b71d                	c.j	d4 <__stack_size-0x1ffff2c>
     1b0:	0001                	c.addi	zero,0
     1b2:	9400                	0x9400
     1b4:	2f01                	c.jal	8c4 <__stack_size-0x1fff73c>
     1b6:	0001                	c.addi	zero,0
     1b8:	1d00                	c.addi4spn	s0,sp,688
     1ba:	013d                	c.addi	sp,15
     1bc:	0000                	c.unimp
     1be:	0198                	c.addi4spn	a4,sp,192
     1c0:	0152                	c.slli	sp,0x14
     1c2:	0000                	c.unimp
     1c4:	2d00                	c.fld	fs0,24(a0)
     1c6:	00d4                	c.addi4spn	a3,sp,68
     1c8:	0000                	c.unimp
     1ca:	0130                	c.addi4spn	a2,sp,136
     1cc:	0188                	c.addi4spn	a0,sp,192
     1ce:	d710                	c.sw	a2,40(a4)
     1d0:	0001                	c.addi	zero,0
     1d2:	0a00                	c.addi4spn	s0,sp,272
     1d4:	00000313          	addi	t1,zero,0
     1d8:	0189                	c.addi	gp,2
     1da:	d712                	c.swsp	tp,172(sp)
     1dc:	0001                	c.addi	zero,0
     1de:	0000                	c.unimp
     1e0:	050a                	c.slli	a0,0x2
     1e2:	8a000003          	lb	zero,-1888(zero) # fffff8a0 <_sp+0x77fff8a0>
     1e6:	0f01                	c.addi	t5,0
     1e8:	006e                	c.slli	zero,0x1b
     1ea:	0000                	c.unimp
     1ec:	0a04                	c.addi4spn	s1,sp,272
     1ee:	02e9                	c.addi	t0,26
     1f0:	0000                	c.unimp
     1f2:	0199                	c.addi	gp,6
     1f4:	7505                	c.lui	a0,0xfffe1
     1f6:	0001                	c.addi	zero,0
     1f8:	0800                	c.addi4spn	s0,sp,16
     1fa:	0d00                	c.addi4spn	s0,sp,656
     1fc:	01a1                	c.addi	gp,8
     1fe:	0000                	c.unimp
     200:	e00c                	c.fsw	fa1,0(s0)
     202:	0001                	c.addi	zero,0
     204:	9a00                	0x9a00
     206:	0e01                	c.addi	t3,0
     208:	000001d7          	0x1d7
     20c:	00032b07          	flw	fs6,0(t1) # 3e <__stack_size-0x1ffffc2>
     210:	9e00                	0x9e00
     212:	0d01                	c.addi	s10,0
     214:	01dc                	c.addi4spn	a5,sp,196
     216:	0000                	c.unimp
     218:	0305                	c.addi	t1,1
     21a:	4634                	c.lw	a3,72(a2)
     21c:	8000                	0x8000
     21e:	00032607          	flw	fa2,0(t1)
     222:	9e00                	0x9e00
     224:	1701                	c.addi	a4,-32
     226:	01dc                	c.addi4spn	a5,sp,196
     228:	0000                	c.unimp
     22a:	0305                	c.addi	t1,1
     22c:	4630                	c.lw	a2,72(a2)
     22e:	8000                	0x8000
     230:	0001a807          	flw	fa6,0(gp) # a50c0190 <_sp+0x1d0c0190>
     234:	9f00                	0x9f00
     236:	0501                	c.addi	a0,0
     238:	0086                	c.slli	ra,0x1
     23a:	0000                	c.unimp
     23c:	0305                	c.addi	t1,1
     23e:	462c                	c.lw	a1,72(a2)
     240:	8000                	0x8000
     242:	0003e707          	0x3e707
     246:	a000                	c.fsd	fs0,0(s0)
     248:	0901                	c.addi	s2,0
     24a:	00b1                	c.addi	ra,12
     24c:	0000                	c.unimp
     24e:	0305                	c.addi	t1,1
     250:	4628                	c.lw	a0,72(a2)
     252:	8000                	0x8000
     254:	00013307          	fld	ft6,0(sp)
     258:	a100                	c.fsd	fs0,0(a0)
     25a:	0601                	c.addi	a2,0
     25c:	00a5                	c.addi	ra,9
     25e:	0000                	c.unimp
     260:	0305                	c.addi	t1,1
     262:	4625                	c.li	a2,9
     264:	8000                	0x8000
     266:	00031c07          	0x31c07
     26a:	a100                	c.fsd	fs0,0(a0)
     26c:	1101                	c.addi	sp,-32
     26e:	00a5                	c.addi	ra,9
     270:	0000                	c.unimp
     272:	0305                	c.addi	t1,1
     274:	4624                	c.lw	s1,72(a2)
     276:	8000                	0x8000
     278:	00008507          	0x8507
     27c:	a200                	c.fsd	fs0,0(a2)
     27e:	0501                	c.addi	a0,0
     280:	00d9                	c.addi	ra,22
     282:	0000                	c.unimp
     284:	0305                	c.addi	t1,1
     286:	1a30                	c.addi4spn	a2,sp,312
     288:	8000                	0x8000
     28a:	00024707          	flq	fa4,0(tp) # 18000 <__stack_size-0x1fe8000>
     28e:	a300                	c.fsd	fs0,0(a4)
     290:	0501                	c.addi	a0,0
     292:	00e9                	c.addi	ra,26
     294:	0000                	c.unimp
     296:	0305                	c.addi	t1,1
     298:	1ef8                	c.addi4spn	a4,sp,892
     29a:	8000                	0x8000
     29c:	522e                	c.lwsp	tp,232(sp)
     29e:	6765                	c.lui	a4,0x19
     2a0:	0100                	c.addi4spn	s0,sp,128
     2a2:	01a9                	c.addi	gp,10
     2a4:	b109                	c.j	fffffea6 <_sp+0x77fffea6>
     2a6:	0000                	c.unimp
     2a8:	0500                	c.addi4spn	s0,sp,640
     2aa:	00462003          	lw	zero,4(a2)
     2ae:	0780                	c.addi4spn	s0,sp,960
     2b0:	0000011b          	0x11b
     2b4:	b10901b3          	0xb10901b3
     2b8:	0000                	c.unimp
     2ba:	0500                	c.addi4spn	s0,sp,640
     2bc:	00461c03          	lh	s8,4(a2)
     2c0:	0780                	c.addi4spn	s0,sp,960
     2c2:	00000427          	0x427
     2c6:	01b5                	c.addi	gp,13
     2c8:	af06                	c.fsdsp	ft1,408(sp)
     2ca:	0002                	c.slli64	zero
     2cc:	0500                	c.addi4spn	s0,sp,640
     2ce:	00461803          	lh	a6,4(a2)
     2d2:	1380                	c.addi4spn	s0,sp,480
     2d4:	0504                	c.addi4spn	s1,sp,640
     2d6:	019f 0000 db07      	0xdb070000019f
     2dc:	0000                	c.unimp
     2de:	b500                	c.fsd	fs0,40(a0)
     2e0:	1201                	c.addi	tp,-32
     2e2:	000002af          	0x2af
     2e6:	0305                	c.addi	t1,1
     2e8:	4614                	c.lw	a3,8(a2)
     2ea:	8000                	0x8000
     2ec:	0000f507          	0xf507
     2f0:	b500                	c.fsd	fs0,40(a0)
     2f2:	1c01                	c.addi	s8,-32
     2f4:	000002af          	0x2af
     2f8:	0305                	c.addi	t1,1
     2fa:	4610                	c.lw	a2,8(a2)
     2fc:	8000                	0x8000
     2fe:	00040b07          	0x40b07
     302:	b600                	c.fsd	fs0,40(a2)
     304:	0701                	c.addi	a4,0
     306:	02ec                	c.addi4spn	a1,sp,332
     308:	0000                	c.unimp
     30a:	0305                	c.addi	t1,1
     30c:	460c                	c.lw	a1,8(a2)
     30e:	8000                	0x8000
     310:	6c040413          	addi	s0,s0,1728 # ffff96c0 <_sp+0x77ff96c0>
     314:	0001                	c.addi	zero,0
     316:	0700                	c.addi4spn	s0,sp,896
     318:	03d1                	c.addi	t2,20
     31a:	0000                	c.unimp
     31c:	01b6                	c.slli	gp,0xd
     31e:	ec15                	c.bnez	s0,35a <__stack_size-0x1fffca6>
     320:	0002                	c.slli64	zero
     322:	0500                	c.addi4spn	s0,sp,640
     324:	00460803          	lb	a6,4(a2)
     328:	1680                	c.addi4spn	s0,sp,864
     32a:	00a5                	c.addi	ra,9
     32c:	0000                	c.unimp
     32e:	0316                	c.slli	t1,0x5
     330:	0000                	c.unimp
     332:	0000392f          	0x392f
     336:	ff00                	c.fsw	fs0,56(a4)
     338:	65180003          	lb	zero,1617(a6)
     33c:	0001                	c.addi	zero,0
     33e:	ba00                	c.fsd	fs0,48(a2)
     340:	0d01                	c.addi	s10,0
     342:	0305                	c.addi	t1,1
     344:	0000                	c.unimp
     346:	0305                	c.addi	t1,1
     348:	1af8                	c.addi4spn	a4,sp,380
     34a:	8000                	0x8000
     34c:	2a18                	c.fld	fa4,16(a2)
     34e:	0001                	c.addi	zero,0
     350:	bb00                	c.fsd	fs0,48(a4)
     352:	0e01                	c.addi	t3,0
     354:	033a                	c.slli	t1,0xe
     356:	0000                	c.unimp
     358:	0305                	c.addi	t1,1
     35a:	4644                	c.lw	s1,12(a2)
     35c:	8000                	0x8000
     35e:	a50d                	c.j	980 <__stack_size-0x1fff680>
     360:	0000                	c.unimp
     362:	0700                	c.addi4spn	s0,sp,896
     364:	01ec                	c.addi4spn	a1,sp,204
     366:	0000                	c.unimp
     368:	02ca                	c.slli	t0,0x12
     36a:	b109                	c.j	ffffff6c <_sp+0x77ffff6c>
     36c:	0000                	c.unimp
     36e:	0500                	c.addi4spn	s0,sp,640
     370:	00464003          	lbu	zero,4(a2)
     374:	3080                	c.fld	fs0,32(s1)
     376:	0000030b          	0x30b
     37a:	0e02                	c.slli64	t3
     37c:	6406                	c.flwsp	fs0,64(sp)
     37e:	1e000003          	lb	zero,480(zero) # 1e0 <__stack_size-0x1fffe20>
     382:	0364                	c.addi4spn	s1,sp,396
     384:	0000                	c.unimp
     386:	0011                	c.addi	zero,4
     388:	ac0d                	c.j	5ba <__stack_size-0x1fffa46>
     38a:	0000                	c.unimp
     38c:	3100                	c.fld	fs0,32(a0)
     38e:	00ff                	0xff
     390:	0000                	c.unimp
     392:	d001                	c.beqz	s0,292 <__stack_size-0x1fffd6e>
     394:	0502                	c.slli64	a0
     396:	0086                	c.slli	ra,0x1
     398:	0000                	c.unimp
     39a:	001c                	0x1c
     39c:	8000                	0x8000
     39e:	081c                	c.addi4spn	a5,sp,16
     3a0:	0000                	c.unimp
     3a2:	9c01                	0x9c01
     3a4:	00000d4b          	fnmsub.s	fs10,ft0,ft0,ft0,rne
     3a8:	0003460f          	0x3460f
     3ac:	d800                	c.sw	s0,48(s0)
     3ae:	0d02                	c.slli64	s10
     3b0:	008d                	c.addi	ra,3
     3b2:	0000                	c.unimp
     3b4:	000c                	0xc
     3b6:	0000                	c.unimp
     3b8:	00015b0f          	0x15b0f
     3bc:	d900                	c.sw	s0,48(a0)
     3be:	1102                	c.slli	sp,0x20
     3c0:	008d                	c.addi	ra,3
     3c2:	0000                	c.unimp
     3c4:	008d                	c.addi	ra,3
     3c6:	0000                	c.unimp
     3c8:	0000b50f          	0xb50f
     3cc:	da00                	c.sw	s0,48(a2)
     3ce:	0d02                	c.slli64	s10
     3d0:	008d                	c.addi	ra,3
     3d2:	0000                	c.unimp
     3d4:	000000f3          	0xf3
     3d8:	0004400f          	0x4400f
     3dc:	db00                	c.sw	s0,48(a4)
     3de:	0c02                	c.slli64	s8
     3e0:	00a5                	c.addi	ra,9
     3e2:	0000                	c.unimp
     3e4:	010c                	c.addi4spn	a1,sp,128
     3e6:	0000                	c.unimp
     3e8:	00017f0f          	0x17f0f
     3ec:	dc00                	c.sw	s0,56(s0)
     3ee:	0f02                	c.slli64	t5
     3f0:	006e                	c.slli	zero,0x1b
     3f2:	0000                	c.unimp
     3f4:	00000153          	fadd.s	ft2,ft0,ft0,rne
     3f8:	2018                	c.fld	fa4,0(s0)
     3fa:	0001                	c.addi	zero,0
     3fc:	dd00                	c.sw	s0,56(a0)
     3fe:	0a02                	c.slli64	s4
     400:	00bd                	c.addi	ra,15
     402:	0000                	c.unimp
     404:	7f809103          	lh	sp,2040(ra)
     408:	c818                	c.sw	a4,16(s0)
     40a:	0001                	c.addi	zero,0
     40c:	de00                	c.sw	s0,56(a2)
     40e:	0a02                	c.slli64	s4
     410:	00bd                	c.addi	ra,15
     412:	0000                	c.unimp
     414:	7fa09103          	lh	sp,2042(ra)
     418:	0001510f          	0x1510f
     41c:	df00                	c.sw	s0,56(a4)
     41e:	0b02                	c.slli64	s6
     420:	0086                	c.slli	ra,0x1
     422:	0000                	c.unimp
     424:	01ba                	c.slli	gp,0xe
     426:	0000                	c.unimp
     428:	1832                	c.slli	a6,0x2c
     42a:	0004                	0x4
     42c:	0100                	c.addi4spn	s0,sp,128
     42e:	02e0                	c.addi4spn	s0,sp,332
     430:	0000860b          	0x860b
     434:	e800                	c.fsw	fs0,16(s0)
     436:	02fe3303          	0x2fe3303
     43a:	0000                	c.unimp
     43c:	033a0003          	lb	zero,51(s4)
     440:	0000                	c.unimp
     442:	042d                	c.addi	s0,11
     444:	0000                	c.unimp
     446:	3a1e                	c.fldsp	fs4,480(sp)
     448:	1e000003          	lb	zero,480(zero) # 1e0 <__stack_size-0x1fffe20>
     44c:	0364                	c.addi4spn	s1,sp,396
     44e:	0000                	c.unimp
     450:	1900                	c.addi4spn	s0,sp,176
     452:	05c0                	c.addi4spn	s0,sp,708
     454:	8000                	0x8000
     456:	0048                	c.addi4spn	a0,sp,4
     458:	0000                	c.unimp
     45a:	04b5                	c.addi	s1,13
     45c:	0000                	c.unimp
     45e:	ab15                	c.j	992 <__stack_size-0x1fff66e>
     460:	86000003          	lb	zero,-1952(zero) # fffff860 <_sp+0x77fff860>
     464:	0000                	c.unimp
     466:	4900                	c.lw	s0,16(a0)
     468:	0004                	0x4
     46a:	1100                	c.addi4spn	s0,sp,160
     46c:	0400                	c.addi4spn	s0,sp,512
     46e:	00000d4b          	fnmsub.s	fs10,ft0,ft0,ft0,rne
     472:	05dc                	c.addi4spn	a5,sp,708
     474:	8000                	0x8000
     476:	00000247          	fmsub.s	ft4,ft0,ft0,ft0,rne
     47a:	035c                	c.addi4spn	a5,sp,388
     47c:	6708                	c.flw	fa0,8(a4)
     47e:	0004                	0x4
     480:	0200                	c.addi4spn	s0,sp,256
     482:	0d5a                	c.slli	s10,0x16
     484:	0000                	c.unimp
     486:	01d1                	c.addi	gp,20
     488:	0000                	c.unimp
     48a:	0300                	c.addi4spn	s0,sp,384
     48c:	05dc                	c.addi4spn	a5,sp,708
     48e:	8000                	0x8000
     490:	12f9                	c.addi	t0,-2
     492:	0000                	c.unimp
     494:	0484                	c.addi4spn	s1,sp,576
     496:	0000                	c.unimp
     498:	0101                	c.addi	sp,0
     49a:	025a                	c.slli	tp,0x16
     49c:	0078                	c.addi4spn	a4,sp,12
     49e:	0101                	c.addi	sp,0
     4a0:	e403055b          	0xe403055b
     4a4:	0015                	c.addi	zero,5
     4a6:	0080                	c.addi4spn	s0,sp,64
     4a8:	0005f803          	0x5f803
     4ac:	5180                	c.lw	s0,32(a1)
     4ae:	a1000003          	lb	zero,-1520(zero) # fffffa10 <_sp+0x77fffa10>
     4b2:	0004                	0x4
     4b4:	0100                	c.addi4spn	s0,sp,128
     4b6:	5a01                	c.li	s4,-32
     4b8:	0305                	c.addi	t1,1
     4ba:	177c                	c.addi4spn	a5,sp,940
     4bc:	8000                	0x8000
     4be:	0101                	c.addi	sp,0
     4c0:	0078025b          	0x78025b
     4c4:	1000                	c.addi4spn	s0,sp,32
     4c6:	0604                	c.addi4spn	s1,sp,768
     4c8:	8000                	0x8000
     4ca:	0351                	c.addi	t1,20
     4cc:	0000                	c.unimp
     4ce:	0101                	c.addi	sp,0
     4d0:	055a                	c.slli	a0,0x16
     4d2:	0017a003          	lw	zero,1(a5)
     4d6:	0080                	c.addi4spn	s0,sp,64
     4d8:	1900                	c.addi4spn	s0,sp,176
     4da:	06bc                	c.addi4spn	a5,sp,840
     4dc:	8000                	0x8000
     4de:	0048                	c.addi4spn	a0,sp,4
     4e0:	0000                	c.unimp
     4e2:	053d                	c.addi	a0,15
     4e4:	0000                	c.unimp
     4e6:	ab15                	c.j	a1a <__stack_size-0x1fff5e6>
     4e8:	86000003          	lb	zero,-1952(zero) # fffff860 <_sp+0x77fff860>
     4ec:	0000                	c.unimp
     4ee:	d100                	c.sw	s0,32(a0)
     4f0:	0004                	0x4
     4f2:	1100                	c.addi4spn	s0,sp,160
     4f4:	0400                	c.addi4spn	s0,sp,512
     4f6:	00000d4b          	fnmsub.s	fs10,ft0,ft0,ft0,rne
     4fa:	06d8                	c.addi4spn	a4,sp,836
     4fc:	8000                	0x8000
     4fe:	02a5                	c.addi	t0,9
     500:	0000                	c.unimp
     502:	0371                	c.addi	t1,28
     504:	ef08                	c.fsw	fa0,24(a4)
     506:	0004                	0x4
     508:	0200                	c.addi4spn	s0,sp,256
     50a:	0d5a                	c.slli	s10,0x16
     50c:	0000                	c.unimp
     50e:	01e4                	c.addi4spn	s1,sp,204
     510:	0000                	c.unimp
     512:	0300                	c.addi4spn	s0,sp,384
     514:	06d8                	c.addi4spn	a4,sp,836
     516:	8000                	0x8000
     518:	12f9                	c.addi	t0,-2
     51a:	0000                	c.unimp
     51c:	050c                	c.addi4spn	a1,sp,640
     51e:	0000                	c.unimp
     520:	0101                	c.addi	sp,0
     522:	025a                	c.slli	tp,0x16
     524:	0078                	c.addi4spn	a4,sp,12
     526:	0101                	c.addi	sp,0
     528:	e403055b          	0xe403055b
     52c:	0015                	c.addi	zero,5
     52e:	0080                	c.addi4spn	s0,sp,64
     530:	0006f403          	0x6f403
     534:	5180                	c.lw	s0,32(a1)
     536:	29000003          	lb	zero,656(zero) # 290 <__stack_size-0x1fffd70>
     53a:	0005                	c.addi	zero,1
     53c:	0100                	c.addi4spn	s0,sp,128
     53e:	5a01                	c.li	s4,-32
     540:	0305                	c.addi	t1,1
     542:	1850                	c.addi4spn	a2,sp,52
     544:	8000                	0x8000
     546:	0101                	c.addi	sp,0
     548:	0078025b          	0x78025b
     54c:	1000                	c.addi4spn	s0,sp,32
     54e:	0700                	c.addi4spn	s0,sp,896
     550:	8000                	0x8000
     552:	0351                	c.addi	t1,20
     554:	0000                	c.unimp
     556:	0101                	c.addi	sp,0
     558:	055a                	c.slli	a0,0x16
     55a:	0017a003          	lw	zero,1(a5)
     55e:	0080                	c.addi4spn	s0,sp,64
     560:	1900                	c.addi4spn	s0,sp,176
     562:	0784                	c.addi4spn	s1,sp,960
     564:	8000                	0x8000
     566:	0034                	c.addi4spn	a3,sp,8
     568:	0000                	c.unimp
     56a:	000005c7          	fmsub.s	fa1,ft0,ft0,ft0,rne
     56e:	ab15                	c.j	aa2 <__stack_size-0x1fff55e>
     570:	86000003          	lb	zero,-1952(zero) # fffff860 <_sp+0x77fff860>
     574:	0000                	c.unimp
     576:	5900                	c.lw	s0,48(a0)
     578:	0005                	c.addi	zero,1
     57a:	1100                	c.addi4spn	s0,sp,160
     57c:	0400                	c.addi4spn	s0,sp,512
     57e:	00000d4b          	fnmsub.s	fs10,ft0,ft0,ft0,rne
     582:	0794                	c.addi4spn	a3,sp,960
     584:	8000                	0x8000
     586:	02f1                	c.addi	t0,28
     588:	0000                	c.unimp
     58a:	0389                	c.addi	t2,2
     58c:	7708                	c.flw	fa0,40(a4)
     58e:	0005                	c.addi	zero,1
     590:	0200                	c.addi4spn	s0,sp,256
     592:	0d5a                	c.slli	s10,0x16
     594:	0000                	c.unimp
     596:	000001f7          	0x1f7
     59a:	0300                	c.addi4spn	s0,sp,384
     59c:	0794                	c.addi4spn	a3,sp,960
     59e:	8000                	0x8000
     5a0:	12f9                	c.addi	t0,-2
     5a2:	0000                	c.unimp
     5a4:	0595                	c.addi	a1,5
     5a6:	0000                	c.unimp
     5a8:	0101                	c.addi	sp,0
     5aa:	035a                	c.slli	t1,0x16
     5ac:	8091                	c.srli	s1,0x4
     5ae:	017f                	0x17f
     5b0:	5b01                	c.li	s6,-32
     5b2:	0305                	c.addi	t1,1
     5b4:	18cc                	c.addi4spn	a1,sp,116
     5b6:	8000                	0x8000
     5b8:	0300                	c.addi4spn	s0,sp,384
     5ba:	07ac                	c.addi4spn	a1,sp,968
     5bc:	8000                	0x8000
     5be:	0351                	c.addi	t1,20
     5c0:	0000                	c.unimp
     5c2:	000005b3          	add	a1,zero,zero
     5c6:	0101                	c.addi	sp,0
     5c8:	055a                	c.slli	a0,0x16
     5ca:	0018ec03          	0x18ec03
     5ce:	0180                	c.addi4spn	s0,sp,192
     5d0:	5b01                	c.li	s6,-32
     5d2:	7f809103          	lh	sp,2040(ra)
     5d6:	1000                	c.addi4spn	s0,sp,32
     5d8:	07b8                	c.addi4spn	a4,sp,968
     5da:	8000                	0x8000
     5dc:	0351                	c.addi	t1,20
     5de:	0000                	c.unimp
     5e0:	0101                	c.addi	sp,0
     5e2:	055a                	c.slli	a0,0x16
     5e4:	00190803          	lb	a6,1(s2) # 311d <__stack_size-0x1ffcee3>
     5e8:	0080                	c.addi4spn	s0,sp,64
     5ea:	1900                	c.addi4spn	s0,sp,176
     5ec:	07b8                	c.addi4spn	a4,sp,968
     5ee:	8000                	0x8000
     5f0:	0034                	c.addi4spn	a3,sp,8
     5f2:	0000                	c.unimp
     5f4:	0651                	c.addi	a2,20
     5f6:	0000                	c.unimp
     5f8:	ab15                	c.j	b2c <__stack_size-0x1fff4d4>
     5fa:	86000003          	lb	zero,-1952(zero) # fffff860 <_sp+0x77fff860>
     5fe:	0000                	c.unimp
     600:	e300                	c.fsw	fs0,0(a4)
     602:	0005                	c.addi	zero,1
     604:	1100                	c.addi4spn	s0,sp,160
     606:	0400                	c.addi4spn	s0,sp,512
     608:	00000d4b          	fnmsub.s	fs10,ft0,ft0,ft0,rne
     60c:	07c8                	c.addi4spn	a0,sp,964
     60e:	8000                	0x8000
     610:	0304                	c.addi4spn	s1,sp,384
     612:	0000                	c.unimp
     614:	038d                	c.addi	t2,3
     616:	0108                	c.addi4spn	a0,sp,128
     618:	0006                	c.slli	zero,0x1
     61a:	0200                	c.addi4spn	s0,sp,256
     61c:	0d5a                	c.slli	s10,0x16
     61e:	0000                	c.unimp
     620:	020a                	c.slli	tp,0x2
     622:	0000                	c.unimp
     624:	0300                	c.addi4spn	s0,sp,384
     626:	07c8                	c.addi4spn	a0,sp,964
     628:	8000                	0x8000
     62a:	12f9                	c.addi	t0,-2
     62c:	0000                	c.unimp
     62e:	061f 0000 0101      	0x1010000061f
     634:	035a                	c.slli	t1,0x16
     636:	a091                	c.j	67a <__stack_size-0x1fff986>
     638:	017f                	0x17f
     63a:	5b01                	c.li	s6,-32
     63c:	0305                	c.addi	t1,1
     63e:	1940                	c.addi4spn	s0,sp,180
     640:	8000                	0x8000
     642:	0300                	c.addi4spn	s0,sp,384
     644:	07e0                	c.addi4spn	s0,sp,972
     646:	8000                	0x8000
     648:	0351                	c.addi	t1,20
     64a:	0000                	c.unimp
     64c:	063d                	c.addi	a2,15
     64e:	0000                	c.unimp
     650:	0101                	c.addi	sp,0
     652:	055a                	c.slli	a0,0x16
     654:	00196003          	0x196003
     658:	0180                	c.addi4spn	s0,sp,192
     65a:	5b01                	c.li	s6,-32
     65c:	7fa09103          	lh	sp,2042(ra)
     660:	1000                	c.addi4spn	s0,sp,32
     662:	07ec                	c.addi4spn	a1,sp,972
     664:	8000                	0x8000
     666:	0351                	c.addi	t1,20
     668:	0000                	c.unimp
     66a:	0101                	c.addi	sp,0
     66c:	055a                	c.slli	a0,0x16
     66e:	00197c03          	0x197c03
     672:	0080                	c.addi4spn	s0,sp,64
     674:	0400                	c.addi4spn	s0,sp,512
     676:	1038                	c.addi4spn	a4,sp,40
     678:	0000                	c.unimp
     67a:	001c                	0x1c
     67c:	8000                	0x8000
     67e:	007d                	c.addi	zero,31
     680:	0000                	c.unimp
     682:	02e6                	c.slli	t0,0x19
     684:	7e20                	c.flw	fs0,120(a2)
     686:	0006                	c.slli	zero,0x1
     688:	0200                	c.addi4spn	s0,sp,256
     68a:	104a                	c.slli	zero,0x32
     68c:	0000                	c.unimp
     68e:	021d                	c.addi	tp,7
     690:	0000                	c.unimp
     692:	7d08                	c.flw	fa0,56(a0)
     694:	0000                	c.unimp
     696:	0500                	c.addi4spn	s0,sp,640
     698:	1056                	c.slli	zero,0x35
     69a:	0000                	c.unimp
     69c:	0000022b          	0x22b
     6a0:	0000                	c.unimp
     6a2:	3804                	c.fld	fs1,48(s0)
     6a4:	0010                	0x10
     6a6:	8000                	0x8000
     6a8:	0000                	c.unimp
     6aa:	9980                	0x9980
     6ac:	0000                	c.unimp
     6ae:	e700                	c.fsw	fs0,8(a4)
     6b0:	1b02                	c.slli	s6,0x20
     6b2:	000006ab          	0x6ab
     6b6:	4a02                	c.lwsp	s4,0(sp)
     6b8:	0010                	0x10
     6ba:	4600                	c.lw	s0,8(a2)
     6bc:	0002                	c.slli64	zero
     6be:	0800                	c.addi4spn	s0,sp,16
     6c0:	0099                	c.addi	ra,6
     6c2:	0000                	c.unimp
     6c4:	5605                	c.li	a2,-31
     6c6:	0010                	0x10
     6c8:	5400                	c.lw	s0,40(s0)
     6ca:	0002                	c.slli64	zero
     6cc:	0000                	c.unimp
     6ce:	3400                	c.fld	fs0,40(s0)
     6d0:	0ef4                	c.addi4spn	a3,sp,860
     6d2:	0000                	c.unimp
     6d4:	01c0                	c.addi4spn	s0,sp,196
     6d6:	8000                	0x8000
     6d8:	0008                	0x8
     6da:	0000                	c.unimp
     6dc:	0301                	c.addi	t1,0
     6de:	fe200703          	lb	a4,-30(zero) # ffffffe2 <_sp+0x77ffffe2>
     6e2:	000e                	c.slli	zero,0x3
     6e4:	c800                	c.sw	s0,16(s0)
     6e6:	0001                	c.addi	zero,0
     6e8:	0880                	c.addi4spn	s0,sp,80
     6ea:	0000                	c.unimp
     6ec:	0400                	c.addi4spn	s0,sp,512
     6ee:	06da0703          	lb	a4,109(s4)
     6f2:	0000                	c.unimp
     6f4:	0905                	c.addi	s2,1
     6f6:	6000000f          	0x6000000f
     6fa:	0002                	c.slli64	zero
     6fc:	0000                	c.unimp
     6fe:	8f04                	0x8f04
     700:	000d                	c.addi	zero,3
     702:	1c00                	c.addi4spn	s0,sp,560
     704:	0002                	c.slli64	zero
     706:	be80                	c.fsd	fs0,56(a3)
     708:	0000                	c.unimp
     70a:	0a00                	c.addi4spn	s0,sp,272
     70c:	077b1403          	lh	s0,119(s6)
     710:	0000                	c.unimp
     712:	aa02                	c.fsdsp	ft0,272(sp)
     714:	000d                	c.addi	zero,3
     716:	6d00                	c.flw	fs0,24(a0)
     718:	0002                	c.slli64	zero
     71a:	0200                	c.addi4spn	s0,sp,256
     71c:	0d9e                	c.slli	s11,0x7
     71e:	0000                	c.unimp
     720:	000002a3          	sb	zero,5(zero) # 5 <__stack_size-0x1fffffb>
     724:	be08                	c.fsd	fa0,56(a2)
     726:	0000                	c.unimp
     728:	0500                	c.addi4spn	s0,sp,640
     72a:	0db6                	c.slli	s11,0xd
     72c:	0000                	c.unimp
     72e:	02d9                	c.addi	t0,22
     730:	0000                	c.unimp
     732:	c21a                	c.swsp	t1,4(sp)
     734:	000d                	c.addi	zero,3
     736:	4100                	c.lw	s0,0(a0)
     738:	e904                	c.fsw	fs1,16(a0)
     73a:	000d                	c.addi	zero,3
     73c:	1c00                	c.addi4spn	s0,sp,560
     73e:	0002                	c.slli64	zero
     740:	da80                	c.sw	s0,48(a3)
     742:	0000                	c.unimp
     744:	a300                	c.fsd	fs0,0(a4)
     746:	0902                	c.slli64	s2
     748:	00000753          	fadd.s	fa4,ft0,ft0,rne
     74c:	0702                	c.slli64	a4
     74e:	000e                	c.slli	zero,0x3
     750:	fe00                	c.fsw	fs0,56(a2)
     752:	0002                	c.slli64	zero
     754:	0200                	c.addi4spn	s0,sp,256
     756:	00000dfb          	0xdfb
     75a:	0319                	c.addi	t1,6
     75c:	0000                	c.unimp
     75e:	da08                	c.sw	a0,48(a2)
     760:	0000                	c.unimp
     762:	0500                	c.addi4spn	s0,sp,640
     764:	00000e13          	addi	t3,zero,0
     768:	0334                	c.addi4spn	a3,sp,392
     76a:	0000                	c.unimp
     76c:	1f05                	c.addi	t5,-31
     76e:	000e                	c.slli	zero,0x3
     770:	3400                	c.fld	fs0,40(s0)
     772:	00000003          	lb	zero,0(zero) # 0 <__stack_size-0x2000000>
     776:	3500                	c.fld	fs0,40(a0)
     778:	0dce                	c.slli	s11,0x13
     77a:	0000                	c.unimp
     77c:	022c                	c.addi4spn	a1,sp,264
     77e:	8000                	0x8000
     780:	000c                	0xc
     782:	0000                	c.unimp
     784:	3810                	c.fld	fa2,48(s0)
     786:	0002                	c.slli64	zero
     788:	f980                	c.fsw	fs0,48(a1)
     78a:	0012                	c.slli	zero,0x4
     78c:	0100                	c.addi4spn	s0,sp,128
     78e:	5a01                	c.li	s4,-32
     790:	7f809103          	lh	sp,2040(ra)
     794:	0101                	c.addi	sp,0
     796:	a091035b          	0xa091035b
     79a:	007f                	0x7f
     79c:	0000                	c.unimp
     79e:	0400                	c.addi4spn	s0,sp,512
     7a0:	0e2c                	c.addi4spn	a1,sp,792
     7a2:	0000                	c.unimp
     7a4:	0238                	c.addi4spn	a4,sp,264
     7a6:	8000                	0x8000
     7a8:	00f6                	c.slli	ra,0x1d
     7aa:	0000                	c.unimp
     7ac:	0315                	c.addi	t1,5
     7ae:	0007b407          	fld	fs0,0(a5)
     7b2:	1200                	c.addi4spn	s0,sp,288
     7b4:	00000e5b          	0xe5b
     7b8:	4f12                	c.lwsp	t5,4(sp)
     7ba:	000e                	c.slli	zero,0x3
     7bc:	1200                	c.addi4spn	s0,sp,288
     7be:	00000e43          	fmadd.s	ft8,ft0,ft0,ft0,rne
     7c2:	3712                	c.fldsp	fa4,288(sp)
     7c4:	000e                	c.slli	zero,0x3
     7c6:	0800                	c.addi4spn	s0,sp,16
     7c8:	00f6                	c.slli	ra,0x1d
     7ca:	0000                	c.unimp
     7cc:	6721                	c.lui	a4,0x8
     7ce:	000e                	c.slli	zero,0x3
     7d0:	2100                	c.fld	fs0,0(a0)
     7d2:	00000e73          	0xe73
     7d6:	0000                	c.unimp
     7d8:	e904                	c.fsw	fs1,16(a0)
     7da:	000d                	c.addi	zero,3
     7dc:	9800                	0x9800
     7de:	0002                	c.slli64	zero
     7e0:	2480                	c.fld	fs0,8(s1)
     7e2:	0001                	c.addi	zero,0
     7e4:	1b00                	c.addi4spn	s0,sp,432
     7e6:	07f31903          	lh	s2,127(t1)
     7ea:	0000                	c.unimp
     7ec:	0702                	c.slli64	a4
     7ee:	000e                	c.slli	zero,0x3
     7f0:	4f00                	c.lw	s0,24(a4)
     7f2:	02000003          	lb	zero,32(zero) # 20 <__stack_size-0x1ffffe0>
     7f6:	00000dfb          	0xdfb
     7fa:	0384                	c.addi4spn	s1,sp,448
     7fc:	0000                	c.unimp
     7fe:	2408                	c.fld	fa0,8(s0)
     800:	0001                	c.addi	zero,0
     802:	0500                	c.addi4spn	s0,sp,640
     804:	00000e13          	addi	t3,zero,0
     808:	0384                	c.addi4spn	s1,sp,448
     80a:	0000                	c.unimp
     80c:	1f05                	c.addi	t5,-31
     80e:	000e                	c.slli	zero,0x3
     810:	8400                	0x8400
     812:	00000003          	lb	zero,0(zero) # 0 <__stack_size-0x2000000>
     816:	0400                	c.addi4spn	s0,sp,512
     818:	00000ecb          	fnmsub.s	ft9,ft0,ft0,ft0,rne
     81c:	02b0                	c.addi4spn	a2,sp,328
     81e:	8000                	0x8000
     820:	0152                	c.slli	sp,0x14
     822:	0000                	c.unimp
     824:	031e                	c.slli	t1,0x7
     826:	0008120b          	0x8120b
     82a:	1200                	c.addi4spn	s0,sp,288
     82c:	0ee2                	c.slli	t4,0x18
     82e:	0000                	c.unimp
     830:	d612                	c.swsp	tp,44(sp)
     832:	000e                	c.slli	zero,0x3
     834:	0000                	c.unimp
     836:	3304                	c.fld	fs1,32(a4)
     838:	5c00000f          	0x5c00000f
     83c:	65800003          	lb	zero,1624(zero) # 658 <__stack_size-0x1fff9a8>
     840:	0001                	c.addi	zero,0
     842:	2900                	c.fld	fs0,16(a0)
     844:	08480703          	lb	a4,132(a6)
     848:	0000                	c.unimp
     84a:	3e02                	c.fldsp	ft8,32(sp)
     84c:	b100000f          	0xb100000f
     850:	08000003          	lb	zero,128(zero) # 80 <__stack_size-0x1ffff80>
     854:	0165                	c.addi	sp,25
     856:	0000                	c.unimp
     858:	4a05                	c.li	s4,1
     85a:	c200000f          	0xc200000f
     85e:	05000003          	lb	zero,80(zero) # 50 <__stack_size-0x1ffffb0>
     862:	0f56                	c.slli	t5,0x15
     864:	0000                	c.unimp
     866:	000003db          	0x3db
     86a:	0000                	c.unimp
     86c:	4b04                	c.lw	s1,16(a4)
     86e:	000d                	c.addi	zero,3
     870:	d000                	c.sw	s0,32(s0)
     872:	81800003          	lb	zero,-2024(zero) # fffff818 <_sp+0x77fff818>
     876:	0001                	c.addi	zero,0
     878:	3500                	c.fld	fs0,40(a0)
     87a:	08660803          	lb	a6,134(a2)
     87e:	0000                	c.unimp
     880:	5a02                	c.lwsp	s4,32(sp)
     882:	000d                	c.addi	zero,3
     884:	f400                	c.fsw	fs0,40(s0)
     886:	00000003          	lb	zero,0(zero) # 0 <__stack_size-0x2000000>
     88a:	4b04                	c.lw	s1,16(a4)
     88c:	000d                	c.addi	zero,3
     88e:	1000                	c.addi4spn	s0,sp,32
     890:	0004                	0x4
     892:	9d80                	0x9d80
     894:	0001                	c.addi	zero,0
     896:	3900                	c.fld	fs0,48(a0)
     898:	08840803          	lb	a6,136(s0)
     89c:	0000                	c.unimp
     89e:	5a02                	c.lwsp	s4,32(sp)
     8a0:	000d                	c.addi	zero,3
     8a2:	1900                	c.addi4spn	s0,sp,176
     8a4:	0004                	0x4
     8a6:	0000                	c.unimp
     8a8:	4b04                	c.lw	s1,16(a4)
     8aa:	000d                	c.addi	zero,3
     8ac:	4400                	c.lw	s0,8(s0)
     8ae:	0004                	0x4
     8b0:	b080                	c.fsd	fs0,32(s1)
     8b2:	0001                	c.addi	zero,0
     8b4:	3d00                	c.fld	fs0,56(a0)
     8b6:	08a20803          	lb	a6,138(tp) # 8a <__stack_size-0x1ffff76>
     8ba:	0000                	c.unimp
     8bc:	5a02                	c.lwsp	s4,32(sp)
     8be:	000d                	c.addi	zero,3
     8c0:	2c00                	c.fld	fs0,24(s0)
     8c2:	0004                	0x4
     8c4:	0000                	c.unimp
     8c6:	4b04                	c.lw	s1,16(a4)
     8c8:	000d                	c.addi	zero,3
     8ca:	7800                	c.flw	fs0,48(s0)
     8cc:	0004                	0x4
     8ce:	c380                	c.sw	s0,0(a5)
     8d0:	0001                	c.addi	zero,0
     8d2:	4100                	c.lw	s0,0(a0)
     8d4:	08c00803          	lb	a6,140(zero) # 8c <__stack_size-0x1ffff74>
     8d8:	0000                	c.unimp
     8da:	5a02                	c.lwsp	s4,32(sp)
     8dc:	000d                	c.addi	zero,3
     8de:	4300                	c.lw	s0,0(a4)
     8e0:	0004                	0x4
     8e2:	0000                	c.unimp
     8e4:	4b04                	c.lw	s1,16(a4)
     8e6:	000d                	c.addi	zero,3
     8e8:	ac00                	c.fsd	fs0,24(s0)
     8ea:	0004                	0x4
     8ec:	d680                	c.sw	s0,40(a3)
     8ee:	0001                	c.addi	zero,0
     8f0:	4500                	c.lw	s0,8(a0)
     8f2:	08de0803          	lb	a6,141(t3) # 1a08d <__stack_size-0x1fe5f73>
     8f6:	0000                	c.unimp
     8f8:	5a02                	c.lwsp	s4,32(sp)
     8fa:	000d                	c.addi	zero,3
     8fc:	5a00                	c.lw	s0,48(a2)
     8fe:	0004                	0x4
     900:	0000                	c.unimp
     902:	4b04                	c.lw	s1,16(a4)
     904:	000d                	c.addi	zero,3
     906:	e000                	c.fsw	fs0,0(s0)
     908:	0004                	0x4
     90a:	e980                	c.fsw	fs0,16(a1)
     90c:	0001                	c.addi	zero,0
     90e:	4900                	c.lw	s0,16(a0)
     910:	08fc0803          	lb	a6,143(s8) # 1908f <__stack_size-0x1fe6f71>
     914:	0000                	c.unimp
     916:	5a02                	c.lwsp	s4,32(sp)
     918:	000d                	c.addi	zero,3
     91a:	6d00                	c.flw	fs0,24(a0)
     91c:	0004                	0x4
     91e:	0000                	c.unimp
     920:	4b04                	c.lw	s1,16(a4)
     922:	000d                	c.addi	zero,3
     924:	1800                	c.addi4spn	s0,sp,48
     926:	0005                	c.addi	zero,1
     928:	fc80                	c.fsw	fs0,56(s1)
     92a:	0001                	c.addi	zero,0
     92c:	4e00                	c.lw	s0,24(a2)
     92e:	091a0803          	lb	a6,145(s4)
     932:	0000                	c.unimp
     934:	5a02                	c.lwsp	s4,32(sp)
     936:	000d                	c.addi	zero,3
     938:	8200                	0x8200
     93a:	0004                	0x4
     93c:	0000                	c.unimp
     93e:	4b04                	c.lw	s1,16(a4)
     940:	000d                	c.addi	zero,3
     942:	4c00                	c.lw	s0,24(s0)
     944:	0005                	c.addi	zero,1
     946:	0f80                	c.addi4spn	s0,sp,976
     948:	0002                	c.slli64	zero
     94a:	5200                	c.lw	s0,32(a2)
     94c:	09380803          	lb	a6,147(a6)
     950:	0000                	c.unimp
     952:	5a02                	c.lwsp	s4,32(sp)
     954:	000d                	c.addi	zero,3
     956:	9500                	0x9500
     958:	0004                	0x4
     95a:	0000                	c.unimp
     95c:	4b04                	c.lw	s1,16(a4)
     95e:	000d                	c.addi	zero,3
     960:	8800                	0x8800
     962:	0005                	c.addi	zero,1
     964:	2b80                	c.fld	fs0,16(a5)
     966:	0002                	c.slli64	zero
     968:	5700                	c.lw	s0,40(a4)
     96a:	09560803          	lb	a6,149(a2)
     96e:	0000                	c.unimp
     970:	5a02                	c.lwsp	s4,32(sp)
     972:	000d                	c.addi	zero,3
     974:	a800                	c.fsd	fs0,16(s0)
     976:	0004                	0x4
     978:	0000                	c.unimp
     97a:	4b04                	c.lw	s1,16(a4)
     97c:	000d                	c.addi	zero,3
     97e:	1400                	c.addi4spn	s0,sp,544
     980:	0006                	c.slli	zero,0x1
     982:	5a80                	c.lw	s0,48(a3)
     984:	0002                	c.slli64	zero
     986:	6300                	c.flw	fs0,0(a4)
     988:	09740803          	lb	a6,151(s0)
     98c:	0000                	c.unimp
     98e:	5a02                	c.lwsp	s4,32(sp)
     990:	000d                	c.addi	zero,3
     992:	bb00                	c.fsd	fs0,48(a4)
     994:	0004                	0x4
     996:	0000                	c.unimp
     998:	4b04                	c.lw	s1,16(a4)
     99a:	000d                	c.addi	zero,3
     99c:	4800                	c.lw	s0,16(s0)
     99e:	0006                	c.slli	zero,0x1
     9a0:	6d80                	c.flw	fs0,24(a1)
     9a2:	0002                	c.slli64	zero
     9a4:	6700                	c.flw	fs0,8(a4)
     9a6:	09920803          	lb	a6,153(tp) # 99 <__stack_size-0x1ffff67>
     9aa:	0000                	c.unimp
     9ac:	5a02                	c.lwsp	s4,32(sp)
     9ae:	000d                	c.addi	zero,3
     9b0:	ce00                	c.sw	s0,24(a2)
     9b2:	0004                	0x4
     9b4:	0000                	c.unimp
     9b6:	4b04                	c.lw	s1,16(a4)
     9b8:	000d                	c.addi	zero,3
     9ba:	8400                	0x8400
     9bc:	0006                	c.slli	zero,0x1
     9be:	8980                	0x8980
     9c0:	0002                	c.slli64	zero
     9c2:	6c00                	c.flw	fs0,24(s0)
     9c4:	09b00803          	lb	a6,155(zero) # 9b <__stack_size-0x1ffff65>
     9c8:	0000                	c.unimp
     9ca:	5a02                	c.lwsp	s4,32(sp)
     9cc:	000d                	c.addi	zero,3
     9ce:	e100                	c.fsw	fs0,0(a0)
     9d0:	0004                	0x4
     9d2:	0000                	c.unimp
     9d4:	4b04                	c.lw	s1,16(a4)
     9d6:	000d                	c.addi	zero,3
     9d8:	0400                	c.addi4spn	s0,sp,512
     9da:	b8800007          	0xb8800007
     9de:	0002                	c.slli64	zero
     9e0:	7800                	c.flw	fs0,48(s0)
     9e2:	09ce0803          	lb	a6,156(t3)
     9e6:	0000                	c.unimp
     9e8:	5a02                	c.lwsp	s4,32(sp)
     9ea:	000d                	c.addi	zero,3
     9ec:	f400                	c.fsw	fs0,40(s0)
     9ee:	0004                	0x4
     9f0:	0000                	c.unimp
     9f2:	4b04                	c.lw	s1,16(a4)
     9f4:	000d                	c.addi	zero,3
     9f6:	3000                	c.fld	fs0,32(s0)
     9f8:	cb800007          	0xcb800007
     9fc:	0002                	c.slli64	zero
     9fe:	7c00                	c.flw	fs0,56(s0)
     a00:	09ec0803          	lb	a6,158(s8)
     a04:	0000                	c.unimp
     a06:	5a02                	c.lwsp	s4,32(sp)
     a08:	000d                	c.addi	zero,3
     a0a:	0700                	c.addi4spn	s0,sp,896
     a0c:	0005                	c.addi	zero,1
     a0e:	0000                	c.unimp
     a10:	4b04                	c.lw	s1,16(a4)
     a12:	000d                	c.addi	zero,3
     a14:	5c00                	c.lw	s0,56(s0)
     a16:	de800007          	0xde800007
     a1a:	0002                	c.slli64	zero
     a1c:	8400                	0x8400
     a1e:	0a0a0803          	lb	a6,160(s4)
     a22:	0000                	c.unimp
     a24:	5a02                	c.lwsp	s4,32(sp)
     a26:	000d                	c.addi	zero,3
     a28:	1a00                	c.addi4spn	s0,sp,304
     a2a:	0005                	c.addi	zero,1
     a2c:	0000                	c.unimp
     a2e:	0000dc03          	lhu	s8,0(ra)
     a32:	0280                	c.addi4spn	s0,sp,320
     a34:	2c000013          	addi	zero,zero,704
     a38:	000a                	c.slli	zero,0x2
     a3a:	0100                	c.addi4spn	s0,sp,128
     a3c:	5a01                	c.li	s4,-32
     a3e:	8402                	c.jr	s0
     a40:	0110                	c.addi4spn	a2,sp,128
     a42:	5b01                	c.li	s6,-32
     a44:	0305                	c.addi	t1,1
     a46:	15e4                	c.addi4spn	s1,sp,748
     a48:	8000                	0x8000
     a4a:	0101                	c.addi	sp,0
     a4c:	015c                	c.addi4spn	a5,sp,132
     a4e:	7803004f          	fnmadd.s	ft0,ft6,ft0,fa5,rne
     a52:	0002                	c.slli64	zero
     a54:	6380                	c.flw	fs0,0(a5)
     a56:	4000000f          	0x4000000f
     a5a:	000a                	c.slli	zero,0x2
     a5c:	0100                	c.addi4spn	s0,sp,128
     a5e:	5a01                	c.li	s4,-32
     a60:	8402                	c.jr	s0
     a62:	0000                	c.unimp
     a64:	4c22                	c.lwsp	s8,8(sp)
     a66:	0b800003          	lb	zero,184(zero) # b8 <__stack_size-0x1ffff48>
     a6a:	03000013          	addi	zero,zero,48
     a6e:	03f8                	c.addi4spn	a4,sp,460
     a70:	8000                	0x8000
     a72:	0351                	c.addi	t1,20
     a74:	0000                	c.unimp
     a76:	0a60                	c.addi4spn	s0,sp,284
     a78:	0000                	c.unimp
     a7a:	0101                	c.addi	sp,0
     a7c:	055a                	c.slli	a0,0x16
     a7e:	00160403          	lb	s0,1(a2)
     a82:	0080                	c.addi4spn	s0,sp,64
     a84:	00040803          	lb	a6,0(s0)
     a88:	5180                	c.lw	s0,32(a1)
     a8a:	7c000003          	lb	zero,1984(zero) # 7c0 <__stack_size-0x1fff840>
     a8e:	000a                	c.slli	zero,0x2
     a90:	0100                	c.addi4spn	s0,sp,128
     a92:	5a01                	c.li	s4,-32
     a94:	0305                	c.addi	t1,1
     a96:	1620                	c.addi4spn	s0,sp,808
     a98:	8000                	0x8000
     a9a:	0101                	c.addi	sp,0
     a9c:	0035015b          	0x35015b
     aa0:	00042c03          	lw	s8,0(s0)
     aa4:	5180                	c.lw	s0,32(a1)
     aa6:	93000003          	lb	zero,-1744(zero) # fffff930 <_sp+0x77fff930>
     aaa:	000a                	c.slli	zero,0x2
     aac:	0100                	c.addi4spn	s0,sp,128
     aae:	5a01                	c.li	s4,-32
     ab0:	0305                	c.addi	t1,1
     ab2:	163c                	c.addi4spn	a5,sp,808
     ab4:	8000                	0x8000
     ab6:	0300                	c.addi4spn	s0,sp,384
     ab8:	043c                	c.addi4spn	a5,sp,520
     aba:	8000                	0x8000
     abc:	0351                	c.addi	t1,20
     abe:	0000                	c.unimp
     ac0:	00000aaf          	0xaaf
     ac4:	0101                	c.addi	sp,0
     ac6:	055a                	c.slli	a0,0x16
     ac8:	00162003          	lw	zero,1(a2)
     acc:	0180                	c.addi4spn	s0,sp,192
     ace:	5b01                	c.li	s6,-32
     ad0:	3101                	c.jal	6d0 <__stack_size-0x1fff930>
     ad2:	0300                	c.addi4spn	s0,sp,384
     ad4:	0460                	c.addi4spn	s0,sp,524
     ad6:	8000                	0x8000
     ad8:	0351                	c.addi	t1,20
     ada:	0000                	c.unimp
     adc:	0ac6                	c.slli	s5,0x11
     ade:	0000                	c.unimp
     ae0:	0101                	c.addi	sp,0
     ae2:	055a                	c.slli	a0,0x16
     ae4:	00165803          	lhu	a6,1(a2)
     ae8:	0080                	c.addi4spn	s0,sp,64
     aea:	00047003          	0x47003
     aee:	5180                	c.lw	s0,32(a1)
     af0:	e3000003          	lb	zero,-464(zero) # fffffe30 <_sp+0x77fffe30>
     af4:	000a                	c.slli	zero,0x2
     af6:	0100                	c.addi4spn	s0,sp,128
     af8:	5a01                	c.li	s4,-32
     afa:	0305                	c.addi	t1,1
     afc:	1674                	c.addi4spn	a3,sp,812
     afe:	8000                	0x8000
     b00:	0101                	c.addi	sp,0
     b02:	4108025b          	0x4108025b
     b06:	0300                	c.addi4spn	s0,sp,384
     b08:	0494                	c.addi4spn	a3,sp,576
     b0a:	8000                	0x8000
     b0c:	0351                	c.addi	t1,20
     b0e:	0000                	c.unimp
     b10:	0afa                	c.slli	s5,0x1e
     b12:	0000                	c.unimp
     b14:	0101                	c.addi	sp,0
     b16:	055a                	c.slli	a0,0x16
     b18:	00169003          	lh	zero,1(a3)
     b1c:	0080                	c.addi4spn	s0,sp,64
     b1e:	0004a403          	lw	s0,0(s1)
     b22:	5180                	c.lw	s0,32(a1)
     b24:	17000003          	lb	zero,368(zero) # 170 <__stack_size-0x1fffe90>
     b28:	0100000b          	0x100000b
     b2c:	5a01                	c.li	s4,-32
     b2e:	0305                	c.addi	t1,1
     b30:	1674                	c.addi4spn	a3,sp,812
     b32:	8000                	0x8000
     b34:	0101                	c.addi	sp,0
     b36:	4208025b          	0x4208025b
     b3a:	0300                	c.addi4spn	s0,sp,384
     b3c:	04c8                	c.addi4spn	a0,sp,580
     b3e:	8000                	0x8000
     b40:	0351                	c.addi	t1,20
     b42:	0000                	c.unimp
     b44:	0b2e                	c.slli	s6,0xb
     b46:	0000                	c.unimp
     b48:	0101                	c.addi	sp,0
     b4a:	055a                	c.slli	a0,0x16
     b4c:	0016ac03          	lw	s8,1(a3)
     b50:	0080                	c.addi4spn	s0,sp,64
     b52:	0004d803          	lhu	a6,0(s1)
     b56:	5180                	c.lw	s0,32(a1)
     b58:	4a000003          	lb	zero,1184(zero) # 4a0 <__stack_size-0x1fffb60>
     b5c:	0100000b          	0x100000b
     b60:	5a01                	c.li	s4,-32
     b62:	0305                	c.addi	t1,1
     b64:	1620                	c.addi4spn	s0,sp,808
     b66:	8000                	0x8000
     b68:	0101                	c.addi	sp,0
     b6a:	0037015b          	0x37015b
     b6e:	0004fc03          	0x4fc03
     b72:	5180                	c.lw	s0,32(a1)
     b74:	61000003          	lb	zero,1552(zero) # 610 <__stack_size-0x1fff9f0>
     b78:	0100000b          	0x100000b
     b7c:	5a01                	c.li	s4,-32
     b7e:	0305                	c.addi	t1,1
     b80:	16c8                	c.addi4spn	a0,sp,868
     b82:	8000                	0x8000
     b84:	0300                	c.addi4spn	s0,sp,384
     b86:	0508                	c.addi4spn	a0,sp,640
     b88:	8000                	0x8000
     b8a:	0351                	c.addi	t1,20
     b8c:	0000                	c.unimp
     b8e:	0b78                	c.addi4spn	a4,sp,412
     b90:	0000                	c.unimp
     b92:	0101                	c.addi	sp,0
     b94:	055a                	c.slli	a0,0x16
     b96:	0016e403          	0x16e403
     b9a:	0080                	c.addi4spn	s0,sp,64
     b9c:	00053003          	0x53003
     ba0:	5180                	c.lw	s0,32(a1)
     ba2:	8f000003          	lb	zero,-1808(zero) # fffff8f0 <_sp+0x77fff8f0>
     ba6:	0100000b          	0x100000b
     baa:	5a01                	c.li	s4,-32
     bac:	0305                	c.addi	t1,1
     bae:	1710                	c.addi4spn	a2,sp,928
     bb0:	8000                	0x8000
     bb2:	0300                	c.addi4spn	s0,sp,384
     bb4:	0540                	c.addi4spn	s0,sp,644
     bb6:	8000                	0x8000
     bb8:	0351                	c.addi	t1,20
     bba:	0000                	c.unimp
     bbc:	00000bab          	0xbab
     bc0:	0101                	c.addi	sp,0
     bc2:	055a                	c.slli	a0,0x16
     bc4:	00162003          	lw	zero,1(a2)
     bc8:	0180                	c.addi4spn	s0,sp,192
     bca:	5b01                	c.li	s6,-32
     bcc:	3001                	c.jal	3cc <__stack_size-0x1fffc34>
     bce:	0300                	c.addi4spn	s0,sp,384
     bd0:	056c                	c.addi4spn	a1,sp,652
     bd2:	8000                	0x8000
     bd4:	0351                	c.addi	t1,20
     bd6:	0000                	c.unimp
     bd8:	0bc2                	c.slli	s7,0x10
     bda:	0000                	c.unimp
     bdc:	0101                	c.addi	sp,0
     bde:	055a                	c.slli	a0,0x16
     be0:	00173403          	0x173403
     be4:	0080                	c.addi4spn	s0,sp,64
     be6:	00057c03          	0x57c03
     bea:	5180                	c.lw	s0,32(a1)
     bec:	de000003          	lb	zero,-544(zero) # fffffde0 <_sp+0x77fffde0>
     bf0:	0100000b          	0x100000b
     bf4:	5a01                	c.li	s4,-32
     bf6:	0305                	c.addi	t1,1
     bf8:	1620                	c.addi4spn	s0,sp,808
     bfa:	8000                	0x8000
     bfc:	0101                	c.addi	sp,0
     bfe:	0032015b          	0x32015b
     c02:	0005a803          	lw	a6,0(a1)
     c06:	5180                	c.lw	s0,32(a1)
     c08:	f5000003          	lb	zero,-176(zero) # ffffff50 <_sp+0x77ffff50>
     c0c:	0100000b          	0x100000b
     c10:	5a01                	c.li	s4,-32
     c12:	0305                	c.addi	t1,1
     c14:	1758                	c.addi4spn	a4,sp,932
     c16:	8000                	0x8000
     c18:	0300                	c.addi4spn	s0,sp,384
     c1a:	05b8                	c.addi4spn	a4,sp,712
     c1c:	8000                	0x8000
     c1e:	0351                	c.addi	t1,20
     c20:	0000                	c.unimp
     c22:	0c11                	c.addi	s8,4
     c24:	0000                	c.unimp
     c26:	0101                	c.addi	sp,0
     c28:	055a                	c.slli	a0,0x16
     c2a:	00162003          	lw	zero,1(a2)
     c2e:	0180                	c.addi4spn	s0,sp,192
     c30:	5b01                	c.li	s6,-32
     c32:	4101                	c.li	sp,0
     c34:	0300                	c.addi4spn	s0,sp,384
     c36:	062c                	c.addi4spn	a1,sp,776
     c38:	8000                	0x8000
     c3a:	0351                	c.addi	t1,20
     c3c:	0000                	c.unimp
     c3e:	0c28                	c.addi4spn	a0,sp,536
     c40:	0000                	c.unimp
     c42:	0101                	c.addi	sp,0
     c44:	055a                	c.slli	a0,0x16
     c46:	0017d803          	lhu	a6,1(a5)
     c4a:	0080                	c.addi4spn	s0,sp,64
     c4c:	00063c03          	0x63c03
     c50:	5180                	c.lw	s0,32(a1)
     c52:	44000003          	lb	zero,1088(zero) # 440 <__stack_size-0x1fffbc0>
     c56:	000c                	0xc
     c58:	0100                	c.addi4spn	s0,sp,128
     c5a:	5a01                	c.li	s4,-32
     c5c:	0305                	c.addi	t1,1
     c5e:	1620                	c.addi4spn	s0,sp,808
     c60:	8000                	0x8000
     c62:	0101                	c.addi	sp,0
     c64:	0030015b          	0x30015b
     c68:	00066803          	0x66803
     c6c:	5180                	c.lw	s0,32(a1)
     c6e:	5b000003          	lb	zero,1456(zero) # 5b0 <__stack_size-0x1fffa50>
     c72:	000c                	0xc
     c74:	0100                	c.addi4spn	s0,sp,128
     c76:	5a01                	c.li	s4,-32
     c78:	0305                	c.addi	t1,1
     c7a:	1800                	c.addi4spn	s0,sp,48
     c7c:	8000                	0x8000
     c7e:	0300                	c.addi4spn	s0,sp,384
     c80:	0678                	c.addi4spn	a4,sp,780
     c82:	8000                	0x8000
     c84:	0351                	c.addi	t1,20
     c86:	0000                	c.unimp
     c88:	00000c77          	0xc77
     c8c:	0101                	c.addi	sp,0
     c8e:	055a                	c.slli	a0,0x16
     c90:	00162003          	lw	zero,1(a2)
     c94:	0180                	c.addi4spn	s0,sp,192
     c96:	5b01                	c.li	s6,-32
     c98:	3101                	c.jal	898 <__stack_size-0x1fff768>
     c9a:	0300                	c.addi4spn	s0,sp,384
     c9c:	06a4                	c.addi4spn	s1,sp,840
     c9e:	8000                	0x8000
     ca0:	0351                	c.addi	t1,20
     ca2:	0000                	c.unimp
     ca4:	0c8e                	c.slli	s9,0x3
     ca6:	0000                	c.unimp
     ca8:	0101                	c.addi	sp,0
     caa:	055a                	c.slli	a0,0x16
     cac:	00182803          	lw	a6,1(a6)
     cb0:	0080                	c.addi4spn	s0,sp,64
     cb2:	0006b403          	0x6b403
     cb6:	5180                	c.lw	s0,32(a1)
     cb8:	aa000003          	lb	zero,-1376(zero) # fffffaa0 <_sp+0x77fffaa0>
     cbc:	000c                	0xc
     cbe:	0100                	c.addi4spn	s0,sp,128
     cc0:	5a01                	c.li	s4,-32
     cc2:	0305                	c.addi	t1,1
     cc4:	1620                	c.addi4spn	s0,sp,808
     cc6:	8000                	0x8000
     cc8:	0101                	c.addi	sp,0
     cca:	0042015b          	0x42015b
     cce:	00072003          	lw	zero,0(a4) # 8000 <__stack_size-0x1ff8000>
     cd2:	5180                	c.lw	s0,32(a1)
     cd4:	c1000003          	lb	zero,-1008(zero) # fffffc10 <_sp+0x77fffc10>
     cd8:	000c                	0xc
     cda:	0100                	c.addi4spn	s0,sp,128
     cdc:	5a01                	c.li	s4,-32
     cde:	0305                	c.addi	t1,1
     ce0:	1878                	c.addi4spn	a4,sp,60
     ce2:	8000                	0x8000
     ce4:	0300                	c.addi4spn	s0,sp,384
     ce6:	0730                	c.addi4spn	a2,sp,904
     ce8:	8000                	0x8000
     cea:	0351                	c.addi	t1,20
     cec:	0000                	c.unimp
     cee:	0cdd                	c.addi	s9,23
     cf0:	0000                	c.unimp
     cf2:	0101                	c.addi	sp,0
     cf4:	055a                	c.slli	a0,0x16
     cf6:	00162003          	lw	zero,1(a2)
     cfa:	0180                	c.addi4spn	s0,sp,192
     cfc:	5b01                	c.li	s6,-32
     cfe:	3501                	c.jal	afe <__stack_size-0x1fff502>
     d00:	0300                	c.addi4spn	s0,sp,384
     d02:	074c                	c.addi4spn	a1,sp,900
     d04:	8000                	0x8000
     d06:	0351                	c.addi	t1,20
     d08:	0000                	c.unimp
     d0a:	0cfa                	c.slli	s9,0x1e
     d0c:	0000                	c.unimp
     d0e:	0101                	c.addi	sp,0
     d10:	055a                	c.slli	a0,0x16
     d12:	00189403          	lh	s0,1(a7)
     d16:	0180                	c.addi4spn	s0,sp,192
     d18:	5b01                	c.li	s6,-32
     d1a:	8402                	c.jr	s0
     d1c:	0000                	c.unimp
     d1e:	00075c03          	lhu	s8,0(a4)
     d22:	5180                	c.lw	s0,32(a1)
     d24:	16000003          	lb	zero,352(zero) # 160 <__stack_size-0x1fffea0>
     d28:	000d                	c.addi	zero,3
     d2a:	0100                	c.addi4spn	s0,sp,128
     d2c:	5a01                	c.li	s4,-32
     d2e:	0305                	c.addi	t1,1
     d30:	1620                	c.addi4spn	s0,sp,808
     d32:	8000                	0x8000
     d34:	0101                	c.addi	sp,0
     d36:	003d015b          	0x3d015b
     d3a:	00077403          	0x77403
     d3e:	5180                	c.lw	s0,32(a1)
     d40:	32000003          	lb	zero,800(zero) # 320 <__stack_size-0x1fffce0>
     d44:	000d                	c.addi	zero,3
     d46:	0100                	c.addi4spn	s0,sp,128
     d48:	5a01                	c.li	s4,-32
     d4a:	0305                	c.addi	t1,1
     d4c:	18b0                	c.addi4spn	a2,sp,120
     d4e:	8000                	0x8000
     d50:	0101                	c.addi	sp,0
     d52:	0030015b          	0x30015b
     d56:	8410                	0x8410
     d58:	51800007          	0x51800007
     d5c:	01000003          	lb	zero,16(zero) # 10 <__stack_size-0x1fffff0>
     d60:	5a01                	c.li	s4,-32
     d62:	0305                	c.addi	t1,1
     d64:	1620                	c.addi4spn	s0,sp,808
     d66:	8000                	0x8000
     d68:	0101                	c.addi	sp,0
     d6a:	0031015b          	0x31015b
     d6e:	1f00                	c.addi4spn	s0,sp,944
     d70:	03f1                	c.addi	t2,28
     d72:	0000                	c.unimp
     d74:	00b102cb          	fnmsub.s	ft5,ft2,fa1,ft0,rne
     d78:	0000                	c.unimp
     d7a:	00000d67          	jalr	s10,0(zero) # 0 <__stack_size-0x2000000>
     d7e:	e206                	c.fswsp	ft1,4(sp)
     d80:	cb000003          	lb	zero,-848(zero) # fffffcb0 <_sp+0x77fffcb0>
     d84:	1302                	c.slli	t1,0x20
     d86:	0086                	c.slli	ra,0x1
     d88:	0000                	c.unimp
     d8a:	1f00                	c.addi4spn	s0,sp,944
     d8c:	00000457          	0x457
     d90:	02ba                	c.slli	t0,0xe
     d92:	00b1                	c.addi	ra,12
     d94:	0000                	c.unimp
     d96:	00000d8f          	0xd8f
     d9a:	5706                	c.lwsp	a4,96(sp)
     d9c:	be000003          	lb	zero,-1056(zero) # fffffbe0 <_sp+0x77fffbe0>
     da0:	0d02                	c.slli64	s10
     da2:	006e                	c.slli	zero,0x1b
     da4:	0000                	c.unimp
     da6:	7f09                	c.lui	t5,0xfffe2
     da8:	0001                	c.addi	zero,0
     daa:	c000                	c.sw	s0,0(s0)
     dac:	0f02                	c.slli64	t5
     dae:	006e                	c.slli	zero,0x1b
     db0:	0000                	c.unimp
     db2:	1f00                	c.addi4spn	s0,sp,944
     db4:	0450                	c.addi4spn	a2,sp,516
     db6:	0000                	c.unimp
     db8:	0295                	c.addi	t0,5
     dba:	00b1                	c.addi	ra,12
     dbc:	0000                	c.unimp
     dbe:	0de9                	c.addi	s11,26
     dc0:	0000                	c.unimp
     dc2:	9c06                	c.add	s8,ra
     dc4:	0000                	c.unimp
     dc6:	9b00                	0x9b00
     dc8:	0802                	c.slli64	a6
     dca:	033a                	c.slli	t1,0xe
     dcc:	0000                	c.unimp
     dce:	bf06                	c.fsdsp	ft1,440(sp)
     dd0:	0000                	c.unimp
     dd2:	9c00                	0x9c00
     dd4:	0802                	c.slli64	a6
     dd6:	033a                	c.slli	t1,0xe
     dd8:	0000                	c.unimp
     dda:	f709                	c.bnez	a4,ce4 <__stack_size-0x1fff31c>
     ddc:	9e000003          	lb	zero,-1568(zero) # fffff9e0 <_sp+0x77fff9e0>
     de0:	1202                	c.slli	tp,0x20
     de2:	007a                	c.slli	zero,0x1e
     de4:	0000                	c.unimp
     de6:	1609                	c.addi	a2,-30
     de8:	0002                	c.slli64	zero
     dea:	9f00                	0x9f00
     dec:	1202                	c.slli	tp,0x20
     dee:	0099                	c.addi	ra,6
     df0:	0000                	c.unimp
     df2:	1536                	c.slli	a0,0x2d
     df4:	000003ab          	0x3ab
     df8:	0086                	c.slli	ra,0x1
     dfa:	0000                	c.unimp
     dfc:	0dde                	c.slli	s11,0x17
     dfe:	0000                	c.unimp
     e00:	0011                	c.addi	zero,4
     e02:	5c22                	c.lwsp	s8,40(sp)
     e04:	f980000b          	0xf980000b
     e08:	0012                	c.slli	zero,0x4
     e0a:	0000                	c.unimp
     e0c:	3700                	c.fld	fs0,40(a4)
     e0e:	0449                	c.addi	s0,18
     e10:	0000                	c.unimp
     e12:	7c01                	c.lui	s8,0xfffe0
     e14:	0d02                	c.slli64	s10
     e16:	006e                	c.slli	zero,0x1b
     e18:	0000                	c.unimp
     e1a:	2c01                	c.jal	102a <__stack_size-0x1ffefd6>
     e1c:	000e                	c.slli	zero,0x3
     e1e:	0600                	c.addi4spn	s0,sp,768
     e20:	0172                	c.slli	sp,0x1c
     e22:	0000                	c.unimp
     e24:	99100283          	lb	t0,-1647(zero) # fffff991 <_sp+0x77fff991>
     e28:	0000                	c.unimp
     e2a:	0600                	c.addi4spn	s0,sp,768
     e2c:	0188                	c.addi4spn	a0,sp,192
     e2e:	0000                	c.unimp
     e30:	0284                	c.addi4spn	s1,sp,320
     e32:	9910                	0x9910
     e34:	0000                	c.unimp
     e36:	0900                	c.addi4spn	s0,sp,144
     e38:	020d                	c.addi	tp,3
     e3a:	0000                	c.unimp
     e3c:	0286                	c.slli	t0,0x1
     e3e:	9912                	c.add	s2,tp
     e40:	0000                	c.unimp
     e42:	0900                	c.addi4spn	s0,sp,144
     e44:	0112                	c.slli	sp,0x4
     e46:	0000                	c.unimp
     e48:	99120287          	0x99120287
     e4c:	0000                	c.unimp
     e4e:	0000                	c.unimp
     e50:	0002521b          	0x2521b
     e54:	6400                	c.flw	fs0,8(s0)
     e56:	8002                	0x8002
     e58:	000e                	c.slli	zero,0x3
     e5a:	0600                	c.addi4spn	s0,sp,768
     e5c:	0104                	c.addi4spn	s1,sp,128
     e5e:	0000                	c.unimp
     e60:	0269                	c.addi	tp,26
     e62:	000e800f          	0xe800f
     e66:	0600                	c.addi4spn	s0,sp,768
     e68:	0432                	c.slli	s0,0xc
     e6a:	0000                	c.unimp
     e6c:	026a                	c.slli	tp,0x1a
     e6e:	000e850b          	0xe850b
     e72:	0600                	c.addi4spn	s0,sp,768
     e74:	01d2                	c.slli	gp,0x14
     e76:	0000                	c.unimp
     e78:	8605026b          	0x8605026b
     e7c:	0000                	c.unimp
     e7e:	0600                	c.addi4spn	s0,sp,768
     e80:	01ff                	0x1ff
     e82:	0000                	c.unimp
     e84:	026c                	c.addi4spn	a1,sp,268
     e86:	8605                	c.srai	a2,0x1
     e88:	0000                	c.unimp
     e8a:	0900                	c.addi4spn	s0,sp,144
     e8c:	0370                	c.addi4spn	a2,sp,396
     e8e:	0000                	c.unimp
     e90:	026e                	c.slli	tp,0x1b
     e92:	8d11                	c.sub	a0,a2
     e94:	0000                	c.unimp
     e96:	0900                	c.addi4spn	s0,sp,144
     e98:	000003f7          	0x3f7
     e9c:	8d11026f          	jal	tp,fff1176c <_sp+0x77f1176c>
     ea0:	0000                	c.unimp
     ea2:	0000                	c.unimp
     ea4:	860d                	c.srai	a2,0x3
     ea6:	0000                	c.unimp
     ea8:	0d00                	c.addi4spn	s0,sp,656
     eaa:	00d9                	c.addi	ra,22
     eac:	0000                	c.unimp
     eae:	0002e21b          	0x2e21b
     eb2:	5c00                	c.lw	s0,56(s0)
     eb4:	c602                	c.swsp	zero,12(sp)
     eb6:	000e                	c.slli	zero,0x3
     eb8:	0600                	c.addi4spn	s0,sp,768
     eba:	01d2                	c.slli	gp,0x14
     ebc:	0000                	c.unimp
     ebe:	025c                	c.addi4spn	a5,sp,260
     ec0:	00008d17          	auipc	s10,0x8
     ec4:	0600                	c.addi4spn	s0,sp,768
     ec6:	01ff                	0x1ff
     ec8:	0000                	c.unimp
     eca:	025c                	c.addi4spn	a5,sp,260
     ecc:	8d30                	0x8d30
     ece:	0000                	c.unimp
     ed0:	0600                	c.addi4spn	s0,sp,768
     ed2:	0364                	c.addi4spn	s1,sp,396
     ed4:	0000                	c.unimp
     ed6:	025d                	c.addi	tp,23
     ed8:	c618                	c.sw	a4,8(a2)
     eda:	000e                	c.slli	zero,0x3
     edc:	0900                	c.addi4spn	s0,sp,144
     ede:	000003f7          	0x3f7
     ee2:	025e                	c.slli	tp,0x17
     ee4:	8d0d                	c.sub	a0,a1
     ee6:	0000                	c.unimp
     ee8:	0000                	c.unimp
     eea:	8d0d                	c.sub	a0,a1
     eec:	0000                	c.unimp
     eee:	1b00                	c.addi4spn	s0,sp,432
     ef0:	000002db          	0x2db
     ef4:	023a                	c.slli	tp,0xe
     ef6:	00000eef          	jal	t4,ef6 <__stack_size-0x1fff10a>
     efa:	f106                	c.fswsp	ft1,160(sp)
     efc:	0002                	c.slli64	zero
     efe:	3f00                	c.fld	fs0,56(a4)
     f00:	1102                	c.slli	sp,0x20
     f02:	006e                	c.slli	zero,0x1b
     f04:	0000                	c.unimp
     f06:	c406                	c.swsp	ra,8(sp)
     f08:	40000003          	lb	zero,1024(zero) # 400 <__stack_size-0x1fffc00>
     f0c:	0e02                	c.slli64	t3
     f0e:	00000eef          	jal	t4,f0e <__stack_size-0x1fff0f2>
     f12:	0d00                	c.addi4spn	s0,sp,656
     f14:	006e                	c.slli	zero,0x1b
     f16:	0000                	c.unimp
     f18:	4038                	c.lw	a4,64(s0)
     f1a:	0002                	c.slli64	zero
     f1c:	0100                	c.addi4spn	s0,sp,128
     f1e:	021a                	c.slli	tp,0x6
     f20:	0106                	c.slli	sp,0x1
     f22:	00023923          	0x23923
     f26:	0f00                	c.addi4spn	s0,sp,912
     f28:	1602                	c.slli	a2,0x20
     f2a:	0900000f          	fence	iw,unknown
     f2e:	0230                	c.addi4spn	a2,sp,264
     f30:	0000                	c.unimp
     f32:	b10b0213          	addi	tp,s6,-1264
     f36:	0000                	c.unimp
     f38:	0000                	c.unimp
     f3a:	0002cc1b          	0x2cc1b
     f3e:	0100                	c.addi4spn	s0,sp,128
     f40:	2e02                	c.fldsp	ft8,0(sp)
     f42:	0600000f          	fence	or,unknown
     f46:	0090                	c.addi4spn	a2,sp,64
     f48:	0000                	c.unimp
     f4a:	0206                	c.slli	tp,0x1
     f4c:	2e12                	c.fldsp	ft8,256(sp)
     f4e:	0000000f          	fence	unknown,unknown
     f52:	dc0d                	c.beqz	s0,e8c <__stack_size-0x1fff174>
     f54:	0001                	c.addi	zero,0
     f56:	2300                	c.fld	fs0,0(a4)
     f58:	02c5                	c.addi	t0,17
     f5a:	0000                	c.unimp
     f5c:	0f6301eb          	0xf6301eb
     f60:	0000                	c.unimp
     f62:	6406                	c.flwsp	fs0,64(sp)
     f64:	f0000003          	lb	zero,-256(zero) # ffffff00 <_sp+0x77ffff00>
     f68:	1001                	c.addi	zero,-32
     f6a:	0ec6                	c.slli	t4,0x11
     f6c:	0000                	c.unimp
     f6e:	f709                	c.bnez	a4,e78 <__stack_size-0x1fff188>
     f70:	f2000003          	lb	zero,-224(zero) # ffffff20 <_sp+0x77ffff20>
     f74:	0d01                	c.addi	s10,0
     f76:	008d                	c.addi	ra,3
     f78:	0000                	c.unimp
     f7a:	7f09                	c.lui	t5,0xfffe2
     f7c:	0001                	c.addi	zero,0
     f7e:	f300                	c.fsw	fs0,32(a4)
     f80:	0f01                	c.addi	t5,0
     f82:	006e                	c.slli	zero,0x1b
     f84:	0000                	c.unimp
     f86:	3900                	c.fld	fs0,48(a0)
     f88:	02be                	c.slli	t0,0xf
     f8a:	0000                	c.unimp
     f8c:	cc01                	c.beqz	s0,fa4 <__stack_size-0x1fff05c>
     f8e:	0601                	c.addi	a2,0
     f90:	0930                	c.addi4spn	a2,sp,152
     f92:	8000                	0x8000
     f94:	0158                	c.addi4spn	a4,sp,132
     f96:	0000                	c.unimp
     f98:	9c01                	0x9c01
     f9a:	1038                	c.addi4spn	a4,sp,40
     f9c:	0000                	c.unimp
     f9e:	933a                	c.add	t1,a4
     fa0:	01000003          	lb	zero,16(zero) # 10 <__stack_size-0x1fffff0>
     fa4:	dc1501cf          	0xdc1501cf
     fa8:	0001                	c.addi	zero,0
     faa:	2d00                	c.fld	fs0,24(a0)
     fac:	0005                	c.addi	zero,1
     fae:	0f00                	c.addi4spn	s0,sp,912
     fb0:	03ff                	0x3ff
     fb2:	0000                	c.unimp
     fb4:	01d2                	c.slli	gp,0x14
     fb6:	0001dc13          	srli	s8,gp,0x0
     fba:	4700                	c.lw	s0,8(a4)
     fbc:	0005                	c.addi	zero,1
     fbe:	0400                	c.addi4spn	s0,sp,512
     fc0:	0f16                	c.slli	t5,0x5
     fc2:	0000                	c.unimp
     fc4:	09b4                	c.addi4spn	a3,sp,216
     fc6:	8000                	0x8000
     fc8:	001f 0000 01db      	0x1db0000001f
     fce:	000ff103          	0xff103
     fd2:	0200                	c.addi4spn	s0,sp,256
     fd4:	0f21                	c.addi	t5,8
     fd6:	0000                	c.unimp
     fd8:	055e                	c.slli	a0,0x17
     fda:	0000                	c.unimp
     fdc:	8a24                	0x8a24
     fde:	000e                	c.slli	zero,0x3
     fe0:	bc00                	c.fsd	fs0,56(s0)
     fe2:	0009                	c.addi	zero,2
     fe4:	3280                	c.fld	fs0,32(a3)
     fe6:	0000                	c.unimp
     fe8:	0200                	c.addi4spn	s0,sp,256
     fea:	0ead                	c.addi	t4,11
     fec:	0000                	c.unimp
     fee:	056a                	c.slli	a0,0x1a
     ff0:	0000                	c.unimp
     ff2:	a102                	c.fsdsp	ft0,128(sp)
     ff4:	000e                	c.slli	zero,0x3
     ff6:	7800                	c.flw	fs0,48(s0)
     ff8:	0005                	c.addi	zero,1
     ffa:	0200                	c.addi4spn	s0,sp,256
     ffc:	0e95                	c.addi	t4,5
     ffe:	0000                	c.unimp
    1000:	0588                	c.addi4spn	a0,sp,704
    1002:	0000                	c.unimp
    1004:	3208                	c.fld	fa0,32(a2)
    1006:	0000                	c.unimp
    1008:	0500                	c.addi4spn	s0,sp,640
    100a:	0eb9                	c.addi	t4,14
    100c:	0000                	c.unimp
    100e:	0595                	c.addi	a1,5
    1010:	0000                	c.unimp
    1012:	0000                	c.unimp
    1014:	0400                	c.addi4spn	s0,sp,512
    1016:	0e8a                	c.slli	t4,0x2
    1018:	0000                	c.unimp
    101a:	0a68                	c.addi4spn	a0,sp,284
    101c:	8000                	0x8000
    101e:	004e                	c.slli	zero,0x13
    1020:	0000                	c.unimp
    1022:	01e5                	c.addi	gp,25
    1024:	2705                	c.jal	1744 <__stack_size-0x1ffe8bc>
    1026:	0010                	0x10
    1028:	0200                	c.addi4spn	s0,sp,256
    102a:	0ead                	c.addi	t4,11
    102c:	0000                	c.unimp
    102e:	05a2                	c.slli	a1,0x8
    1030:	0000                	c.unimp
    1032:	a125                	c.j	145a <__stack_size-0x1ffeba6>
    1034:	000e                	c.slli	zero,0x3
    1036:	0a00                	c.addi4spn	s0,sp,272
    1038:	9525                	c.srai	a0,0x29
    103a:	000e                	c.slli	zero,0x3
    103c:	0600                	c.addi4spn	s0,sp,768
    103e:	4e08                	c.lw	a0,24(a2)
    1040:	0000                	c.unimp
    1042:	1a00                	c.addi4spn	s0,sp,304
    1044:	0eb9                	c.addi	t4,14
    1046:	0000                	c.unimp
    1048:	0008                	0x8
    104a:	1000                	c.addi4spn	s0,sp,32
    104c:	0a68                	c.addi4spn	a0,sp,284
    104e:	8000                	0x8000
    1050:	00000ecb          	fnmsub.s	ft9,ft0,ft0,ft0,rne
    1054:	0101                	c.addi	sp,0
    1056:	0878025b          	0x878025b
    105a:	0000                	c.unimp
    105c:	0003bc3b          	0x3bc3b
    1060:	0100                	c.addi4spn	s0,sp,128
    1062:	01bd                	c.addi	gp,15
    1064:	3a0e                	c.fldsp	fs4,224(sp)
    1066:	01000003          	lb	zero,16(zero) # 10 <__stack_size-0x1fffff0>
    106a:	1064                	c.addi4spn	s1,sp,44
    106c:	0000                	c.unimp
    106e:	4c06                	c.lwsp	s8,64(sp)
    1070:	0001                	c.addi	zero,0
    1072:	bd00                	c.fsd	fs0,56(a0)
    1074:	1d01                	c.addi	s10,-32
    1076:	002d                	c.addi	zero,11
    1078:	0000                	c.unimp
    107a:	723c                	c.flw	fa5,96(a2)
    107c:	7465                	c.lui	s0,0xffff9
    107e:	0100                	c.addi4spn	s0,sp,128
    1080:	01c0                	c.addi4spn	s0,sp,196
    1082:	3a09                	c.jal	994 <__stack_size-0x1fff66c>
    1084:	00000003          	lb	zero,0(zero) # 0 <__stack_size-0x2000000>
    1088:	000f330b          	0xf330b
    108c:	3800                	c.fld	fs0,48(s0)
    108e:	0008                	0x8
    1090:	3080                	c.fld	fs0,32(s1)
    1092:	0000                	c.unimp
    1094:	0100                	c.addi4spn	s0,sp,128
    1096:	8e9c                	0x8e9c
    1098:	0010                	0x10
    109a:	0e00                	c.addi4spn	s0,sp,784
    109c:	0f3e                	c.slli	t5,0xf
    109e:	0000                	c.unimp
    10a0:	5a01                	c.li	s4,-32
    10a2:	4a05                	c.li	s4,1
    10a4:	b000000f          	0xb000000f
    10a8:	0005                	c.addi	zero,1
    10aa:	1a00                	c.addi4spn	s0,sp,304
    10ac:	0f56                	c.slli	t5,0x15
    10ae:	0000                	c.unimp
    10b0:	0000                	c.unimp
    10b2:	000f160b          	0xf160b
    10b6:	6800                	c.flw	fs0,16(s0)
    10b8:	0008                	0x8
    10ba:	2c80                	c.fld	fs0,24(s1)
    10bc:	0000                	c.unimp
    10be:	0100                	c.addi4spn	s0,sp,128
    10c0:	e19c                	c.fsw	fa5,0(a1)
    10c2:	0010                	0x10
    10c4:	0e00                	c.addi4spn	s0,sp,784
    10c6:	0f21                	c.addi	t5,8
    10c8:	0000                	c.unimp
    10ca:	5a01                	c.li	s4,-32
    10cc:	8a24                	0x8a24
    10ce:	000e                	c.slli	zero,0x3
    10d0:	8000                	0x8000
    10d2:	0008                	0x8
    10d4:	0c80                	c.addi4spn	s0,sp,592
    10d6:	0000                	c.unimp
    10d8:	0200                	c.addi4spn	s0,sp,256
    10da:	0ead                	c.addi	t4,11
    10dc:	0000                	c.unimp
    10de:	05ec                	c.addi4spn	a1,sp,716
    10e0:	0000                	c.unimp
    10e2:	a102                	c.fsdsp	ft0,128(sp)
    10e4:	000e                	c.slli	zero,0x3
    10e6:	0000                	c.unimp
    10e8:	0006                	c.slli	zero,0x1
    10ea:	0200                	c.addi4spn	s0,sp,256
    10ec:	0e95                	c.addi	t4,5
    10ee:	0000                	c.unimp
    10f0:	0610                	c.addi4spn	a2,sp,768
    10f2:	0000                	c.unimp
    10f4:	0c08                	c.addi4spn	a0,sp,528
    10f6:	0000                	c.unimp
    10f8:	0500                	c.addi4spn	s0,sp,640
    10fa:	0eb9                	c.addi	t4,14
    10fc:	0000                	c.unimp
    10fe:	061d                	c.addi	a2,7
    1100:	0000                	c.unimp
    1102:	0000                	c.unimp
    1104:	0b00                	c.addi4spn	s0,sp,400
    1106:	0efe                	c.slli	t4,0x1f
    1108:	0000                	c.unimp
    110a:	0894                	c.addi4spn	a3,sp,80
    110c:	8000                	0x8000
    110e:	0030                	c.addi4spn	a2,sp,8
    1110:	0000                	c.unimp
    1112:	9c01                	0x9c01
    1114:	1109                	c.addi	sp,-30
    1116:	0000                	c.unimp
    1118:	0926                	c.slli	s2,0x9
    111a:	0e00000f          	fence	ior,unknown
    111e:	00462503          	lw	a0,4(a2)
    1122:	9480                	0x9480
    1124:	0801                	c.addi	a6,0
    1126:	2941                	c.jal	15b6 <__stack_size-0x1ffea4a>
    1128:	ff08                	c.fsw	fa0,56(a4)
    112a:	9f1a                	c.add	t5,t1
    112c:	3d00                	c.fld	fs0,56(a0)
    112e:	0ef4                	c.addi4spn	a3,sp,860
    1130:	0000                	c.unimp
    1132:	08c4                	c.addi4spn	s1,sp,84
    1134:	8000                	0x8000
    1136:	0018                	0x18
    1138:	0000                	c.unimp
    113a:	9c01                	0x9c01
    113c:	000ecb0b          	0xecb0b
    1140:	dc00                	c.sw	s0,56(s0)
    1142:	0008                	0x8
    1144:	5480                	c.lw	s0,40(s1)
    1146:	0000                	c.unimp
    1148:	0100                	c.addi4spn	s0,sp,128
    114a:	839c                	0x839c
    114c:	0011                	c.addi	zero,4
    114e:	0e00                	c.addi4spn	s0,sp,784
    1150:	0ed6                	c.slli	t4,0x15
    1152:	0000                	c.unimp
    1154:	5a01                	c.li	s4,-32
    1156:	e20e                	c.fswsp	ft3,4(sp)
    1158:	000e                	c.slli	zero,0x3
    115a:	0100                	c.addi4spn	s0,sp,128
    115c:	0d67205b          	0xd67205b
    1160:	0000                	c.unimp
    1162:	08dc                	c.addi4spn	a5,sp,84
    1164:	8000                	0x8000
    1166:	0008                	0x8
    1168:	0000                	c.unimp
    116a:	5e080243          	fmadd.q	ft4,fa6,ft0,fa1,rne
    116e:	0011                	c.addi	zero,4
    1170:	0200                	c.addi4spn	s0,sp,256
    1172:	0d76                	c.slli	s10,0x1d
    1174:	0000                	c.unimp
    1176:	062a                	c.slli	a2,0xa
    1178:	0000                	c.unimp
    117a:	8226                	c.mv	tp,s1
    117c:	000d                	c.addi	zero,3
    117e:	0100                	c.addi4spn	s0,sp,128
    1180:	005a                	c.slli	zero,0x16
    1182:	cb3e                	c.swsp	a5,148(sp)
    1184:	000e                	c.slli	zero,0x3
    1186:	0800                	c.addi4spn	s0,sp,16
    1188:	0009                	c.addi	zero,2
    118a:	1c80                	c.addi4spn	s0,sp,624
    118c:	0000                	c.unimp
    118e:	0100                	c.addi4spn	s0,sp,128
    1190:	023a                	c.slli	tp,0xe
    1192:	0206                	c.slli	tp,0x1
    1194:	0ed6                	c.slli	t4,0x15
    1196:	0000                	c.unimp
    1198:	0636                	c.slli	a2,0xd
    119a:	0000                	c.unimp
    119c:	e202                	c.fswsp	ft0,4(sp)
    119e:	000e                	c.slli	zero,0x3
    11a0:	4300                	c.lw	s0,0(a4)
    11a2:	0006                	c.slli	zero,0x1
    11a4:	0000                	c.unimp
    11a6:	0b00                	c.addi4spn	s0,sp,400
    11a8:	0e8a                	c.slli	t4,0x2
    11aa:	0000                	c.unimp
    11ac:	0a88                	c.addi4spn	a0,sp,336
    11ae:	8000                	0x8000
    11b0:	0010                	0x10
    11b2:	0000                	c.unimp
    11b4:	9c01                	0x9c01
    11b6:	000011b7          	lui	gp,0x1
    11ba:	9502                	c.jalr	a0
    11bc:	000e                	c.slli	zero,0x3
    11be:	4f00                	c.lw	s0,24(a4)
    11c0:	0006                	c.slli	zero,0x1
    11c2:	0e00                	c.addi4spn	s0,sp,784
    11c4:	0ea1                	c.addi	t4,8
    11c6:	0000                	c.unimp
    11c8:	5b01                	c.li	s6,-32
    11ca:	ad0e                	c.fsdsp	ft3,152(sp)
    11cc:	000e                	c.slli	zero,0x3
    11ce:	0100                	c.addi4spn	s0,sp,128
    11d0:	055c                	c.addi4spn	a5,sp,644
    11d2:	0eb9                	c.addi	t4,14
    11d4:	0000                	c.unimp
    11d6:	0676                	c.slli	a2,0x1d
    11d8:	0000                	c.unimp
    11da:	0b00                	c.addi4spn	s0,sp,400
    11dc:	0e2c                	c.addi4spn	a1,sp,792
    11de:	0000                	c.unimp
    11e0:	0a98                	c.addi4spn	a4,sp,336
    11e2:	8000                	0x8000
    11e4:	0074                	c.addi4spn	a3,sp,12
    11e6:	0000                	c.unimp
    11e8:	9c01                	0x9c01
    11ea:	1201                	c.addi	tp,-32
    11ec:	0000                	c.unimp
    11ee:	3702                	c.fldsp	fa4,32(sp)
    11f0:	000e                	c.slli	zero,0x3
    11f2:	9f00                	0x9f00
    11f4:	0006                	c.slli	zero,0x1
    11f6:	0200                	c.addi4spn	s0,sp,256
    11f8:	00000e43          	fmadd.s	ft8,ft0,ft0,ft0,rne
    11fc:	06b9                	c.addi	a3,14
    11fe:	0000                	c.unimp
    1200:	4f02                	c.lwsp	t5,0(sp)
    1202:	000e                	c.slli	zero,0x3
    1204:	d300                	c.sw	s0,32(a4)
    1206:	0006                	c.slli	zero,0x1
    1208:	0200                	c.addi4spn	s0,sp,256
    120a:	00000e5b          	0xe5b
    120e:	070a                	c.slli	a4,0x2
    1210:	0000                	c.unimp
    1212:	6705                	c.lui	a4,0x1
    1214:	000e                	c.slli	zero,0x3
    1216:	3000                	c.fld	fs0,32(s0)
    1218:	05000007          	0x5000007
    121c:	00000e73          	0xe73
    1220:	0776                	c.slli	a4,0x1d
    1222:	0000                	c.unimp
    1224:	0b00                	c.addi4spn	s0,sp,400
    1226:	0de9                	c.addi	s11,26
    1228:	0000                	c.unimp
    122a:	0b0c                	c.addi4spn	a1,sp,400
    122c:	8000                	0x8000
    122e:	0024                	c.addi4spn	s1,sp,8
    1230:	0000                	c.unimp
    1232:	9c01                	0x9c01
    1234:	00001237          	lui	tp,0x1
    1238:	fb02                	c.fswsp	ft0,180(sp)
    123a:	000d                	c.addi	zero,3
    123c:	9e00                	0x9e00
    123e:	0e000007          	0xe000007
    1242:	00000e07          	0xe07
    1246:	5b01                	c.li	s6,-32
    1248:	1305                	c.addi	t1,-31
    124a:	000e                	c.slli	zero,0x3
    124c:	b800                	c.fsd	fs0,48(s0)
    124e:	05000007          	0x5000007
    1252:	0e1f 0000 07ec      	0x7ec00000e1f
    1258:	0000                	c.unimp
    125a:	0b00                	c.addi4spn	s0,sp,400
    125c:	00000d8f          	0xd8f
    1260:	0b30                	c.addi4spn	a2,sp,408
    1262:	8000                	0x8000
    1264:	0060                	c.addi4spn	s0,sp,12
    1266:	0000                	c.unimp
    1268:	9c01                	0x9c01
    126a:	12b8                	c.addi4spn	a4,sp,360
    126c:	0000                	c.unimp
    126e:	9e02                	c.jalr	t3
    1270:	000d                	c.addi	zero,3
    1272:	2000                	c.fld	fs0,0(s0)
    1274:	0008                	0x8
    1276:	0200                	c.addi4spn	s0,sp,256
    1278:	0daa                	c.slli	s11,0xa
    127a:	0000                	c.unimp
    127c:	0845                	c.addi	a6,17
    127e:	0000                	c.unimp
    1280:	b605                	c.j	da0 <__stack_size-0x1fff260>
    1282:	000d                	c.addi	zero,3
    1284:	6a00                	c.flw	fs0,16(a2)
    1286:	0008                	0x8
    1288:	1a00                	c.addi4spn	s0,sp,304
    128a:	0dc2                	c.slli	s11,0x10
    128c:	0000                	c.unimp
    128e:	0441                	c.addi	s0,16
    1290:	0de9                	c.addi	s11,26
    1292:	0000                	c.unimp
    1294:	0b48                	c.addi4spn	a0,sp,404
    1296:	8000                	0x8000
    1298:	006a                	c.slli	zero,0x1a
    129a:	0000                	c.unimp
    129c:	aa0902a3          	sb	zero,-1371(s2)
    12a0:	0012                	c.slli	zero,0x4
    12a2:	0200                	c.addi4spn	s0,sp,256
    12a4:	00000e07          	0xe07
    12a8:	0000089b          	0x89b
    12ac:	fb02                	c.fswsp	ft0,180(sp)
    12ae:	000d                	c.addi	zero,3
    12b0:	b400                	c.fsd	fs0,40(s0)
    12b2:	0008                	0x8
    12b4:	0800                	c.addi4spn	s0,sp,16
    12b6:	006a                	c.slli	zero,0x1a
    12b8:	0000                	c.unimp
    12ba:	1305                	c.addi	t1,-31
    12bc:	000e                	c.slli	zero,0x3
    12be:	cd00                	c.sw	s0,24(a0)
    12c0:	0008                	0x8
    12c2:	0500                	c.addi4spn	s0,sp,640
    12c4:	0e1f 0000 08cd      	0x8cd00000e1f
    12ca:	0000                	c.unimp
    12cc:	0000                	c.unimp
    12ce:	000dce3f 000b5800 	0xb5800000dce3f
    12d6:	1c80                	c.addi4spn	s0,sp,624
    12d8:	0000                	c.unimp
    12da:	0000                	c.unimp
    12dc:	000d670b          	0xd670b
    12e0:	9000                	0x9000
    12e2:	0c80000b          	0xc80000b
    12e6:	0000                	c.unimp
    12e8:	0100                	c.addi4spn	s0,sp,128
    12ea:	de9c                	c.sw	a5,56(a3)
    12ec:	0012                	c.slli	zero,0x4
    12ee:	0200                	c.addi4spn	s0,sp,256
    12f0:	0d76                	c.slli	s10,0x1d
    12f2:	0000                	c.unimp
    12f4:	08e6                	c.slli	a7,0x19
    12f6:	0000                	c.unimp
    12f8:	8205                	c.srli	a2,0x1
    12fa:	000d                	c.addi	zero,3
    12fc:	0d00                	c.addi4spn	s0,sp,656
    12fe:	0009                	c.addi	zero,2
    1300:	0000                	c.unimp
    1302:	000d4b0b          	0xd4b0b
    1306:	9c00                	0x9c00
    1308:	1080000b          	0x1080000b
    130c:	0000                	c.unimp
    130e:	0100                	c.addi4spn	s0,sp,128
    1310:	f99c                	c.fsw	fa5,48(a1)
    1312:	0012                	c.slli	zero,0x4
    1314:	0e00                	c.addi4spn	s0,sp,784
    1316:	0d5a                	c.slli	s10,0x16
    1318:	0000                	c.unimp
    131a:	5a01                	c.li	s4,-32
    131c:	2700                	c.fld	fs0,8(a4)
    131e:	000003ab          	0x3ab
    1322:	000003ab          	0x3ab
    1326:	0000ee27          	0xee27
    132a:	e400                	c.fsw	fs0,8(s0)
    132c:	0000                	c.unimp
    132e:	4000                	c.lw	s0,0(s0)
    1330:	033d                	c.addi	t1,15
    1332:	0000                	c.unimp
    1334:	033d                	c.addi	t1,15
    1336:	0000                	c.unimp
    1338:	e000                	c.fsw	fs0,0(s0)
    133a:	0004                	0x4
    133c:	0500                	c.addi4spn	s0,sp,640
    133e:	0100                	c.addi4spn	s0,sp,128
    1340:	be04                	c.fsd	fs1,56(a2)
    1342:	11000003          	lb	zero,272(zero) # 110 <__stack_size-0x1fffef0>
    1346:	0259                	c.addi	tp,22
    1348:	0000                	c.unimp
    134a:	771d                	c.lui	a4,0xfffe7
    134c:	0000                	c.unimp
    134e:	8e00                	0x8e00
    1350:	0000                	c.unimp
    1352:	ac00                	c.fsd	fs0,24(s0)
    1354:	e080000b          	0xe080000b
    1358:	0006                	c.slli	zero,0x1
    135a:	0f00                	c.addi4spn	s0,sp,912
    135c:	0016                	c.slli	zero,0x5
    135e:	1200                	c.addi4spn	s0,sp,288
    1360:	0031                	c.addi	zero,12
    1362:	0000                	c.unimp
    1364:	00003113          	sltiu	sp,zero,0
    1368:	0000                	c.unimp
    136a:	f1080107          	0xf1080107
    136e:	0001                	c.addi	zero,0
    1370:	1400                	c.addi4spn	s0,sp,544
    1372:	04bd                	c.addi	s1,15
    1374:	0000                	c.unimp
    1376:	440f0b03          	lb	s6,1088(t5) # fffe2440 <_sp+0x77fe2440>
    137a:	0000                	c.unimp
    137c:	0b00                	c.addi4spn	s0,sp,400
    137e:	0026                	c.slli	zero,0x9
    1380:	0000                	c.unimp
    1382:	ae0c                	c.fsd	fa1,24(a2)
    1384:	0004                	0x4
    1386:	2800                	c.fld	fs0,16(s0)
    1388:	0000541b          	0x541b
    138c:	1500                	c.addi4spn	s0,sp,672
    138e:	6604                	c.flw	fs1,8(a2)
    1390:	0004                	0x4
    1392:	0c00                	c.addi4spn	s0,sp,528
    1394:	04b5                	c.addi	s1,13
    1396:	0000                	c.unimp
    1398:	00491863          	bne	s2,tp,13a8 <__stack_size-0x1ffec58>
    139c:	0000                	c.unimp
    139e:	3816                	c.fldsp	fa6,352(sp)
    13a0:	0000                	c.unimp
    13a2:	0100                	c.addi4spn	s0,sp,128
    13a4:	03050813          	addi	a6,a0,48 # fffe1030 <_sp+0x77fe1030>
    13a8:	463c                	c.lw	a5,72(a2)
    13aa:	8000                	0x8000
    13ac:	00049e17          	auipc	t3,0x49
    13b0:	0100                	c.addi4spn	s0,sp,128
    13b2:	0e14                	c.addi4spn	a3,sp,784
    13b4:	0085                	c.addi	ra,1
    13b6:	0000                	c.unimp
    13b8:	0305                	c.addi	t1,1
    13ba:	4638                	c.lw	a4,72(a2)
    13bc:	8000                	0x8000
    13be:	00008a0b          	0x8a0b
    13c2:	0700                	c.addi4spn	s0,sp,896
    13c4:	0801                	c.addi	a6,0
    13c6:	01fa                	c.slli	gp,0x1e
    13c8:	0000                	c.unimp
    13ca:	8a18                	0x8a18
    13cc:	0000                	c.unimp
    13ce:	1900                	c.addi4spn	s0,sp,176
    13d0:	0000030b          	0x30b
    13d4:	9201                	c.srli	a2,0x20
    13d6:	5406                	c.lwsp	s0,96(sp)
    13d8:	000c                	0xc
    13da:	3880                	c.fld	fs0,48(s1)
    13dc:	0006                	c.slli	zero,0x1
    13de:	0100                	c.addi4spn	s0,sp,128
    13e0:	839c                	0x839c
    13e2:	1a000003          	lb	zero,416(zero) # 1a0 <__stack_size-0x1fffe60>
    13e6:	6d66                	c.flwsp	fs10,88(sp)
    13e8:	0074                	c.addi4spn	a3,sp,12
    13ea:	9301                	c.srli	a4,0x20
    13ec:	830e                	c.mv	t1,gp
    13ee:	40000003          	lb	zero,1024(zero) # 400 <__stack_size-0x1fffc00>
    13f2:	0009                	c.addi	zero,2
    13f4:	1b00                	c.addi4spn	s0,sp,432
    13f6:	611c                	c.flw	fa5,0(a0)
    13f8:	7072                	c.flwsp	ft0,60(sp)
    13fa:	0100                	c.addi4spn	s0,sp,128
    13fc:	005a0a97          	auipc	s5,0x5a0
    1400:	0000                	c.unimp
    1402:	7f8c9103          	lh	sp,2040(s9)
    1406:	8805                	c.andi	s0,1
    1408:	ac000003          	lb	zero,-1344(zero) # fffffac0 <_sp+0x77fffac0>
    140c:	000c                	0xc
    140e:	6e80                	c.flw	fs0,24(a3)
    1410:	9b000003          	lb	zero,-1616(zero) # fffff9b0 <_sp+0x77fff9b0>
    1414:	0102                	c.slli64	sp
    1416:	03a0                	c.addi4spn	s0,sp,456
    1418:	0000                	c.unimp
    141a:	0965                	c.addi	s2,25
    141c:	0000                	c.unimp
    141e:	9501                	c.srai	a0,0x20
    1420:	4c000003          	lb	zero,1216(zero) # 4c0 <__stack_size-0x1fffb40>
    1424:	000a                	c.slli	zero,0x2
    1426:	1d00                	c.addi4spn	s0,sp,688
    1428:	036e                	c.slli	t1,0x1b
    142a:	0000                	c.unimp
    142c:	ab04                	c.fsd	fs1,16(a4)
    142e:	14000003          	lb	zero,320(zero) # 140 <__stack_size-0x1fffec0>
    1432:	0400000b          	0x400000b
    1436:	03b4                	c.addi4spn	a3,sp,456
    1438:	0000                	c.unimp
    143a:	0b69                	c.addi	s6,26
    143c:	0000                	c.unimp
    143e:	bd04                	c.fsd	fs1,56(a0)
    1440:	0d000003          	lb	zero,208(zero) # d0 <__stack_size-0x1ffff30>
    1444:	000c                	0xc
    1446:	0400                	c.addi4spn	s0,sp,512
    1448:	03c6                	c.slli	t2,0x11
    144a:	0000                	c.unimp
    144c:	0d4a                	c.slli	s10,0x12
    144e:	0000                	c.unimp
    1450:	cf04                	c.sw	s1,24(a4)
    1452:	62000003          	lb	zero,1568(zero) # 620 <__stack_size-0x1fff9e0>
    1456:	000d                	c.addi	zero,3
    1458:	0400                	c.addi4spn	s0,sp,512
    145a:	03d8                	c.addi4spn	a4,sp,452
    145c:	0000                	c.unimp
    145e:	0dd4                	c.addi4spn	a3,sp,724
    1460:	0000                	c.unimp
    1462:	e10d                	c.bnez	a0,1484 <__stack_size-0x1ffeb7c>
    1464:	03000003          	lb	zero,48(zero) # 30 <__stack_size-0x1ffffd0>
    1468:	9091                	c.srli	s1,0x24
    146a:	047f                	0x47f
    146c:	03ea                	c.slli	t2,0x1a
    146e:	0000                	c.unimp
    1470:	00000e43          	fmadd.s	ft8,ft0,ft0,ft0,rne
    1474:	f304                	c.fsw	fs1,32(a4)
    1476:	bd000003          	lb	zero,-1072(zero) # fffffbd0 <_sp+0x77fffbd0>
    147a:	000e                	c.slli	zero,0x3
    147c:	0d00                	c.addi4spn	s0,sp,656
    147e:	03fc                	c.addi4spn	a5,sp,460
    1480:	0000                	c.unimp
    1482:	5801                	c.li	a6,-32
    1484:	00043a03          	0x43a03
    1488:	cc00                	c.sw	s0,24(s0)
    148a:	000c                	0xc
    148c:	8a80                	0x8a80
    148e:	7b000003          	lb	zero,1968(zero) # 7b0 <__stack_size-0x1fff850>
    1492:	8104                	0x8104
    1494:	0001                	c.addi	zero,0
    1496:	0100                	c.addi4spn	s0,sp,128
    1498:	0444                	c.addi4spn	s1,sp,516
    149a:	0000                	c.unimp
    149c:	0f58                	c.addi4spn	a4,sp,916
    149e:	0000                	c.unimp
    14a0:	3a05                	c.jal	dd0 <__stack_size-0x1fff230>
    14a2:	0004                	0x4
    14a4:	d000                	c.sw	s0,32(s0)
    14a6:	000c                	0xc
    14a8:	af80                	c.fsd	fs0,24(a5)
    14aa:	1a000003          	lb	zero,416(zero) # 1a0 <__stack_size-0x1fffe60>
    14ae:	0106                	c.slli	sp,0x1
    14b0:	0444                	c.addi4spn	s1,sp,516
    14b2:	0000                	c.unimp
    14b4:	00000f6f          	jal	t5,14b4 <__stack_size-0x1ffeb4c>
    14b8:	0000                	c.unimp
    14ba:	00043a03          	0x43a03
    14be:	e400                	c.fsw	fs0,8(s0)
    14c0:	000c                	0xc
    14c2:	cb80                	c.sw	s0,16(a5)
    14c4:	54000003          	lb	zero,1344(zero) # 540 <__stack_size-0x1fffac0>
    14c8:	b504                	c.fsd	fs1,40(a0)
    14ca:	0001                	c.addi	zero,0
    14cc:	0100                	c.addi4spn	s0,sp,128
    14ce:	0444                	c.addi4spn	s1,sp,516
    14d0:	0000                	c.unimp
    14d2:	00000f7b          	0xf7b
    14d6:	3a06                	c.fldsp	fs4,96(sp)
    14d8:	0004                	0x4
    14da:	9400                	0x9400
    14dc:	0011                	c.addi	zero,4
    14de:	0c80                	c.addi4spn	s0,sp,592
    14e0:	0000                	c.unimp
    14e2:	0100                	c.addi4spn	s0,sp,128
    14e4:	0444                	c.addi4spn	s1,sp,516
    14e6:	0000                	c.unimp
    14e8:	0f92                	c.slli	t6,0x4
    14ea:	0000                	c.unimp
    14ec:	0000                	c.unimp
    14ee:	00043a03          	0x43a03
    14f2:	5c00                	c.lw	s0,56(s0)
    14f4:	000e                	c.slli	zero,0x3
    14f6:	e780                	c.fsw	fs0,8(a5)
    14f8:	70000003          	lb	zero,1792(zero) # 700 <__stack_size-0x1fff900>
    14fc:	eb04                	c.fsw	fs1,16(a4)
    14fe:	0001                	c.addi	zero,0
    1500:	0100                	c.addi4spn	s0,sp,128
    1502:	0444                	c.addi4spn	s1,sp,516
    1504:	0000                	c.unimp
    1506:	0f9e                	c.slli	t6,0x7
    1508:	0000                	c.unimp
    150a:	3a05                	c.jal	e3a <__stack_size-0x1fff1c6>
    150c:	0004                	0x4
    150e:	c800                	c.sw	s0,16(s0)
    1510:	0011                	c.addi	zero,4
    1512:	1580                	c.addi4spn	s0,sp,736
    1514:	0004                	0x4
    1516:	1a00                	c.addi4spn	s0,sp,304
    1518:	0106                	c.slli	sp,0x1
    151a:	0444                	c.addi4spn	s1,sp,516
    151c:	0000                	c.unimp
    151e:	0fb5                	c.addi	t6,13
    1520:	0000                	c.unimp
    1522:	0000                	c.unimp
    1524:	00043a03          	0x43a03
    1528:	c800                	c.sw	s0,16(s0)
    152a:	000e                	c.slli	zero,0x3
    152c:	2880                	c.fld	fs0,16(s1)
    152e:	0004                	0x4
    1530:	6b00                	c.flw	fs0,16(a4)
    1532:	2b20                	c.fld	fs0,80(a4)
    1534:	0002                	c.slli64	zero
    1536:	0100                	c.addi4spn	s0,sp,128
    1538:	0444                	c.addi4spn	s1,sp,516
    153a:	0000                	c.unimp
    153c:	0fc1                	c.addi	t6,16
    153e:	0000                	c.unimp
    1540:	3a06                	c.fldsp	fs4,96(sp)
    1542:	0004                	0x4
    1544:	ec00                	c.fsw	fs0,24(s0)
    1546:	000e                	c.slli	zero,0x3
    1548:	1080                	c.addi4spn	s0,sp,96
    154a:	0000                	c.unimp
    154c:	0100                	c.addi4spn	s0,sp,128
    154e:	0444                	c.addi4spn	s1,sp,516
    1550:	0000                	c.unimp
    1552:	0fdc                	c.addi4spn	a5,sp,980
    1554:	0000                	c.unimp
    1556:	fc08                	c.fsw	fa0,56(s0)
    1558:	000e                	c.slli	zero,0x3
    155a:	0980                	c.addi4spn	s0,sp,208
    155c:	5a01                	c.li	s4,-32
    155e:	0802                	c.slli64	a6
    1560:	0020                	c.addi4spn	s0,sp,8
    1562:	0000                	c.unimp
    1564:	00042403          	lw	s0,0(s0) # ffff9000 <_sp+0x77ff9000>
    1568:	0c00                	c.addi4spn	s0,sp,528
    156a:	3b80000f          	0x3b80000f
    156e:	0004                	0x4
    1570:	6c00                	c.flw	fs0,24(s0)
    1572:	7804                	c.flw	fs1,48(s0)
    1574:	0002                	c.slli64	zero
    1576:	0100                	c.addi4spn	s0,sp,128
    1578:	042e                	c.slli	s0,0xb
    157a:	0000                	c.unimp
    157c:	0fea                	c.slli	t6,0x1a
    157e:	0000                	c.unimp
    1580:	3a05                	c.jal	eb0 <__stack_size-0x1fff150>
    1582:	0004                	0x4
    1584:	6c00                	c.flw	fs0,24(s0)
    1586:	6980000f          	0x6980000f
    158a:	0004                	0x4
    158c:	3000                	c.fld	fs0,32(s0)
    158e:	04440103          	lb	sp,68(s0)
    1592:	0000                	c.unimp
    1594:	100c                	c.addi4spn	a1,sp,32
    1596:	0000                	c.unimp
    1598:	3a06                	c.fldsp	fs4,96(sp)
    159a:	0004                	0x4
    159c:	8c00                	0x8c00
    159e:	1080000f          	0x1080000f
    15a2:	0000                	c.unimp
    15a4:	0100                	c.addi4spn	s0,sp,128
    15a6:	0444                	c.addi4spn	s1,sp,516
    15a8:	0000                	c.unimp
    15aa:	00001023          	sh	zero,0(zero) # 0 <__stack_size-0x2000000>
    15ae:	0000                	c.unimp
    15b0:	0300                	c.addi4spn	s0,sp,384
    15b2:	043a                	c.slli	s0,0xe
    15b4:	0000                	c.unimp
    15b6:	0f28                	c.addi4spn	a0,sp,920
    15b8:	8000                	0x8000
    15ba:	0485                	c.addi	s1,1
    15bc:	0000                	c.unimp
    15be:	146d                	c.addi	s0,-5
    15c0:	02b8                	c.addi4spn	a4,sp,328
    15c2:	0000                	c.unimp
    15c4:	4401                	c.li	s0,0
    15c6:	0004                	0x4
    15c8:	2f00                	c.fld	fs0,24(a4)
    15ca:	0010                	0x10
    15cc:	0600                	c.addi4spn	s0,sp,768
    15ce:	043a                	c.slli	s0,0xe
    15d0:	0000                	c.unimp
    15d2:	0f4c                	c.addi4spn	a1,sp,916
    15d4:	8000                	0x8000
    15d6:	0010                	0x10
    15d8:	0000                	c.unimp
    15da:	4401                	c.li	s0,0
    15dc:	0004                	0x4
    15de:	4a00                	c.lw	s0,16(a2)
    15e0:	0010                	0x10
    15e2:	0800                	c.addi4spn	s0,sp,16
    15e4:	0f5c                	c.addi4spn	a5,sp,916
    15e6:	8000                	0x8000
    15e8:	0109                	c.addi	sp,2
    15ea:	025a                	c.slli	tp,0x16
    15ec:	2008                	c.fld	fa0,0(s0)
    15ee:	0000                	c.unimp
    15f0:	0300                	c.addi4spn	s0,sp,384
    15f2:	043a                	c.slli	s0,0xe
    15f4:	0000                	c.unimp
    15f6:	107c                	c.addi4spn	a5,sp,44
    15f8:	8000                	0x8000
    15fa:	0498                	c.addi4spn	a4,sp,576
    15fc:	0000                	c.unimp
    15fe:	1f8c                	c.addi4spn	a1,sp,1008
    1600:	02f8                	c.addi4spn	a4,sp,332
    1602:	0000                	c.unimp
    1604:	4401                	c.li	s0,0
    1606:	0004                	0x4
    1608:	5800                	c.lw	s0,48(s0)
    160a:	0010                	0x10
    160c:	0600                	c.addi4spn	s0,sp,768
    160e:	043a                	c.slli	s0,0xe
    1610:	0000                	c.unimp
    1612:	1128                	c.addi4spn	a0,sp,168
    1614:	8000                	0x8000
    1616:	0010                	0x10
    1618:	0000                	c.unimp
    161a:	4401                	c.li	s0,0
    161c:	0004                	0x4
    161e:	6400                	c.flw	fs0,8(s0)
    1620:	0010                	0x10
    1622:	0800                	c.addi4spn	s0,sp,16
    1624:	1138                	c.addi4spn	a4,sp,168
    1626:	8000                	0x8000
    1628:	0109                	c.addi	sp,2
    162a:	025a                	c.slli	tp,0x16
    162c:	008a                	c.slli	ra,0x2
    162e:	0000                	c.unimp
    1630:	0300                	c.addi4spn	s0,sp,384
    1632:	043a                	c.slli	s0,0xe
    1634:	0000                	c.unimp
    1636:	10a4                	c.addi4spn	s1,sp,104
    1638:	8000                	0x8000
    163a:	000004ab          	0x4ab
    163e:	068d                	c.addi	a3,3
    1640:	032e                	c.slli	t1,0xb
    1642:	0000                	c.unimp
    1644:	4401                	c.li	s0,0
    1646:	0004                	0x4
    1648:	7000                	c.flw	fs0,32(s0)
    164a:	0010                	0x10
    164c:	0500                	c.addi4spn	s0,sp,640
    164e:	043a                	c.slli	s0,0xe
    1650:	0000                	c.unimp
    1652:	10c4                	c.addi4spn	s1,sp,100
    1654:	8000                	0x8000
    1656:	04d0                	c.addi4spn	a2,sp,580
    1658:	0000                	c.unimp
    165a:	061a                	c.slli	a2,0x6
    165c:	4401                	c.li	s0,0
    165e:	0004                	0x4
    1660:	8700                	0x8700
    1662:	0010                	0x10
    1664:	0000                	c.unimp
    1666:	0300                	c.addi4spn	s0,sp,384
    1668:	043a                	c.slli	s0,0xe
    166a:	0000                	c.unimp
    166c:	10b8                	c.addi4spn	a4,sp,104
    166e:	8000                	0x8000
    1670:	000004e3          	beq	zero,zero,1e78 <__stack_size-0x1ffe188>
    1674:	138e                	c.slli	t2,0x23
    1676:	036e                	c.slli	t1,0x1b
    1678:	0000                	c.unimp
    167a:	4401                	c.li	s0,0
    167c:	0004                	0x4
    167e:	9300                	0x9300
    1680:	0010                	0x10
    1682:	0600                	c.addi4spn	s0,sp,768
    1684:	043a                	c.slli	s0,0xe
    1686:	0000                	c.unimp
    1688:	1108                	c.addi4spn	a0,sp,160
    168a:	8000                	0x8000
    168c:	0014                	0x14
    168e:	0000                	c.unimp
    1690:	4401                	c.li	s0,0
    1692:	0004                	0x4
    1694:	ae00                	c.fsd	fs0,24(a2)
    1696:	0010                	0x10
    1698:	0800                	c.addi4spn	s0,sp,16
    169a:	1118                	c.addi4spn	a4,sp,160
    169c:	8000                	0x8000
    169e:	0109                	c.addi	sp,2
    16a0:	025a                	c.slli	tp,0x16
    16a2:	2008                	c.fld	fa0,0(s0)
    16a4:	0000                	c.unimp
    16a6:	0e00                	c.addi4spn	s0,sp,784
    16a8:	0ff0                	c.addi4spn	a2,sp,988
    16aa:	8000                	0x8000
    16ac:	04d1                	c.addi	s1,20
    16ae:	0000                	c.unimp
    16b0:	000e                	c.slli	zero,0x3
    16b2:	0010                	0x10
    16b4:	da80                	c.sw	s0,48(a3)
    16b6:	0004                	0x4
    16b8:	0000                	c.unimp
    16ba:	0000                	c.unimp
    16bc:	0000910b          	0x910b
    16c0:	1e00                	c.addi4spn	s0,sp,816
    16c2:	04a5                	c.addi	s1,9
    16c4:	0000                	c.unimp
    16c6:	4601                	c.li	a2,0
    16c8:	0106                	c.slli	sp,0x1
    16ca:	0406                	c.slli	s0,0x1
    16cc:	0000                	c.unimp
    16ce:	660a                	c.flwsp	fa2,128(sp)
    16d0:	746d                	c.lui	s0,0xffffb
    16d2:	4700                	c.lw	s0,8(a4)
    16d4:	830e                	c.mv	t1,gp
    16d6:	0a000003          	lb	zero,160(zero) # a0 <__stack_size-0x1ffff60>
    16da:	7261                	c.lui	tp,0xffff8
    16dc:	0070                	c.addi4spn	a2,sp,12
    16de:	0a48                	c.addi4spn	a0,sp,276
    16e0:	005a                	c.slli	zero,0x16
    16e2:	0000                	c.unimp
    16e4:	7202                	c.flwsp	ft4,32(sp)
    16e6:	4b00                	c.lw	s0,16(a4)
    16e8:	0004060f          	0x4060f
    16ec:	0200                	c.addi4spn	s0,sp,256
    16ee:	0069                	c.addi	zero,26
    16f0:	0406124b          	0x406124b
    16f4:	0000                	c.unimp
    16f6:	6a02                	c.flwsp	fs4,0(sp)
    16f8:	4b00                	c.lw	s0,16(a4)
    16fa:	0615                	c.addi	a2,5
    16fc:	0004                	0x4
    16fe:	0200                	c.addi4spn	s0,sp,256
    1700:	184b0077          	0x184b0077
    1704:	0406                	c.slli	s0,0x1
    1706:	0000                	c.unimp
    1708:	6602                	c.flwsp	fa2,0(sp)
    170a:	4b00                	c.lw	s0,16(a4)
    170c:	0004061b          	0x4061b
    1710:	0200                	c.addi4spn	s0,sp,256
    1712:	0076                	c.slli	zero,0x1d
    1714:	104c                	c.addi4spn	a1,sp,36
    1716:	040d                	c.addi	s0,3
    1718:	0000                	c.unimp
    171a:	7302                	c.flwsp	ft6,32(sp)
    171c:	4d00                	c.lw	s0,24(a0)
    171e:	00041407          	0x41407
    1722:	0200                	c.addi4spn	s0,sp,256
    1724:	0e4d0063          	beq	s10,tp,1804 <__stack_size-0x1ffe7fc>
    1728:	008a                	c.slli	ra,0x2
    172a:	0000                	c.unimp
    172c:	6402                	c.flwsp	fs0,0(sp)
    172e:	4d00                	c.lw	s0,24(a0)
    1730:	8a11                	c.andi	a2,4
    1732:	0000                	c.unimp
    1734:	0200                	c.addi4spn	s0,sp,256
    1736:	0070                	c.addi4spn	a2,sp,12
    1738:	154d                	c.addi	a0,-13
    173a:	0085                	c.addi	ra,1
    173c:	0000                	c.unimp
    173e:	0700                	c.addi4spn	s0,sp,896
    1740:	0704                	c.addi4spn	s1,sp,896
    1742:	00000487          	0x487
    1746:	82070407          	0x82070407
    174a:	0004                	0x4
    174c:	1f00                	c.addi4spn	s0,sp,944
    174e:	008a                	c.slli	ra,0x2
    1750:	0000                	c.unimp
    1752:	0424                	c.addi4spn	s1,sp,520
    1754:	0000                	c.unimp
    1756:	0620                	c.addi4spn	s0,sp,776
    1758:	0004                	0x4
    175a:	0f00                	c.addi4spn	s0,sp,912
    175c:	0f00                	c.addi4spn	s0,sp,912
    175e:	000004c7          	fmsub.s	fs1,ft0,ft0,ft0,rne
    1762:	00043a2b          	0x43a2b
    1766:	0a00                	c.addi4spn	s0,sp,272
    1768:	00727473          	csrrci	s0,0x7,4
    176c:	0e2c                	c.addi4spn	a1,sp,792
    176e:	00000383          	lb	t2,0(zero) # 0 <__stack_size-0x2000000>
    1772:	0f00                	c.addi4spn	s0,sp,912
    1774:	04cd                	c.addi	s1,19
    1776:	0000                	c.unimp
    1778:	4e1a                	c.lwsp	t3,132(sp)
    177a:	0004                	0x4
    177c:	0a00                	c.addi4spn	s0,sp,272
    177e:	121a0063          	beq	s4,ra,189e <__stack_size-0x1ffe762>
    1782:	008a                	c.slli	ra,0x2
    1784:	0000                	c.unimp
    1786:	2100                	c.fld	fs0,0(a0)
    1788:	043a                	c.slli	s0,0xe
    178a:	0000                	c.unimp
    178c:	0bac                	c.addi4spn	a1,sp,472
    178e:	8000                	0x8000
    1790:	0030                	c.addi4spn	a2,sp,8
    1792:	0000                	c.unimp
    1794:	9c01                	0x9c01
    1796:	0482                	c.slli64	s1
    1798:	0000                	c.unimp
    179a:	4401                	c.li	s0,0
    179c:	0004                	0x4
    179e:	bc00                	c.fsd	fs0,56(s0)
    17a0:	0010                	0x10
    17a2:	0600                	c.addi4spn	s0,sp,768
    17a4:	043a                	c.slli	s0,0xe
    17a6:	0000                	c.unimp
    17a8:	0bc8                	c.addi4spn	a0,sp,468
    17aa:	8000                	0x8000
    17ac:	0010                	0x10
    17ae:	0000                	c.unimp
    17b0:	4401                	c.li	s0,0
    17b2:	0004                	0x4
    17b4:	e100                	c.fsw	fs0,0(a0)
    17b6:	0010                	0x10
    17b8:	0000                	c.unimp
    17ba:	2200                	c.fld	fs0,0(a2)
    17bc:	0424                	c.addi4spn	s1,sp,520
    17be:	0000                	c.unimp
    17c0:	0bdc                	c.addi4spn	a5,sp,468
    17c2:	8000                	0x8000
    17c4:	0078                	c.addi4spn	a4,sp,12
    17c6:	0000                	c.unimp
    17c8:	9c01                	0x9c01
    17ca:	04d1                	c.addi	s1,20
    17cc:	0000                	c.unimp
    17ce:	2e01                	c.jal	1ade <__stack_size-0x1ffe522>
    17d0:	0004                	0x4
    17d2:	f800                	c.fsw	fs0,48(s0)
    17d4:	0010                	0x10
    17d6:	0500                	c.addi4spn	s0,sp,640
    17d8:	043a                	c.slli	s0,0xe
    17da:	0000                	c.unimp
    17dc:	0c00                	c.addi4spn	s0,sp,528
    17de:	8000                	0x8000
    17e0:	0336                	c.slli	t1,0xd
    17e2:	0000                	c.unimp
    17e4:	0330                	c.addi4spn	a2,sp,392
    17e6:	4401                	c.li	s0,0
    17e8:	0004                	0x4
    17ea:	0f00                	c.addi4spn	s0,sp,912
    17ec:	0011                	c.addi	zero,4
    17ee:	0500                	c.addi4spn	s0,sp,640
    17f0:	043a                	c.slli	s0,0xe
    17f2:	0000                	c.unimp
    17f4:	0c00                	c.addi4spn	s0,sp,528
    17f6:	8000                	0x8000
    17f8:	0352                	c.slli	t1,0x14
    17fa:	0000                	c.unimp
    17fc:	061a                	c.slli	a2,0x6
    17fe:	4401                	c.li	s0,0
    1800:	0004                	0x4
    1802:	2600                	c.fld	fs0,8(a2)
    1804:	0011                	c.addi	zero,4
    1806:	0000                	c.unimp
    1808:	0000                	c.unimp
    180a:	9410                	0x9410
    180c:	0004                	0x4
    180e:	9400                	0x9400
    1810:	0004                	0x4
    1812:	1000                	c.addi4spn	s0,sp,32
    1814:	0478                	c.addi4spn	a4,sp,524
    1816:	0000                	c.unimp
    1818:	0478                	c.addi4spn	a4,sp,524
    181a:	0000                	c.unimp
    181c:	2100                	c.fld	fs0,0(a0)
    181e:	0000                	c.unimp
    1820:	0500                	c.addi4spn	s0,sp,640
    1822:	0100                	c.addi4spn	s0,sp,128
    1824:	8b04                	0x8b04
    1826:	0005                	c.addi	zero,1
    1828:	0100                	c.addi4spn	s0,sp,128
    182a:	23aa                	c.fldsp	ft7,136(sp)
    182c:	0000                	c.unimp
    182e:	128c                	c.addi4spn	a1,sp,352
    1830:	8000                	0x8000
    1832:	01b4                	c.addi4spn	a3,sp,200
    1834:	000004d3          	fadd.s	fs1,ft0,ft0,rne
    1838:	04d9                	c.addi	s1,22
    183a:	0000                	c.unimp
    183c:	0059                	c.addi	zero,22
    183e:	0000                	c.unimp
    1840:	8001                	c.srli64	s0

Disassembly of section .debug_abbrev:

00000000 <.debug_abbrev>:
   0:	1101                	c.addi	sp,-32
   2:	1000                	c.addi4spn	s0,sp,32
   4:	12011117          	auipc	sp,0x12011
   8:	1b0e030f          	0x1b0e030f
   c:	250e                	c.fldsp	fa0,192(sp)
   e:	130e                	c.slli	t1,0x23
  10:	0005                	c.addi	zero,1
  12:	0000                	c.unimp
  14:	4901                	c.li	s2,0
  16:	0200                	c.addi4spn	s0,sp,256
  18:	7e18                	c.flw	fa4,56(a2)
  1a:	0018                	0x18
  1c:	0200                	c.addi4spn	s0,sp,256
  1e:	0005                	c.addi	zero,1
  20:	1331                	c.addi	t1,-20
  22:	1702                	c.slli	a4,0x20
  24:	0000                	c.unimp
  26:	7d014803          	lbu	a6,2000(sp) # 120117d4 <__stack_size+0x100117d4>
  2a:	7f01                	c.lui	t5,0xfffe0
  2c:	00130113          	addi	sp,t1,1
  30:	0400                	c.addi4spn	s0,sp,512
  32:	011d                	c.addi	sp,7
  34:	1331                	c.addi	t1,-20
  36:	0152                	c.slli	sp,0x14
  38:	1755                	c.addi	a4,-11
  3a:	2158                	c.fld	fa4,128(a0)
  3c:	5901                	c.li	s2,-32
  3e:	5705                	c.li	a4,-31
  40:	0013010b          	0x13010b
  44:	0500                	c.addi4spn	s0,sp,640
  46:	0034                	c.addi4spn	a3,sp,8
  48:	1331                	c.addi	t1,-20
  4a:	1702                	c.slli	a4,0x20
  4c:	0000                	c.unimp
  4e:	0506                	c.slli	a0,0x1
  50:	0300                	c.addi4spn	s0,sp,384
  52:	3a0e                	c.fldsp	fs4,224(sp)
  54:	0121                	c.addi	sp,8
  56:	0b39053b          	0xb39053b
  5a:	1349                	c.addi	t1,-14
  5c:	0000                	c.unimp
  5e:	03003407          	fld	fs0,48(zero) # 30 <__stack_size-0x1ffffd0>
  62:	3a0e                	c.fldsp	fs4,224(sp)
  64:	0121                	c.addi	sp,8
  66:	0b39053b          	0xb39053b
  6a:	1349                	c.addi	t1,-14
  6c:	1802193f 0b080000 	0xb0800001802193f
  74:	5501                	c.li	a0,-32
  76:	09000017          	auipc	zero,0x9000
  7a:	0034                	c.addi4spn	a3,sp,8
  7c:	213a0e03          	lb	t3,531(s4)
  80:	3b01                	c.jal	fffffd90 <_sp+0x77fffd90>
  82:	3905                	c.jal	fffffcb2 <_sp+0x77fffcb2>
  84:	0013490b          	0x13490b
  88:	0a00                	c.addi4spn	s0,sp,272
  8a:	000d                	c.addi	zero,3
  8c:	213a0e03          	lb	t3,531(s4)
  90:	3b01                	c.jal	fffffda0 <_sp+0x77fffda0>
  92:	3905                	c.jal	fffffcc2 <_sp+0x77fffcc2>
  94:	3813490b          	0x3813490b
  98:	0b00000b          	0xb00000b
  9c:	012e                	c.slli	sp,0xb
  9e:	1331                	c.addi	t1,-20
  a0:	0111                	c.addi	sp,4
  a2:	0612                	c.slli	a2,0x4
  a4:	1840                	c.addi4spn	s0,sp,52
  a6:	197a                	c.slli	s2,0x3e
  a8:	1301                	c.addi	t1,-32
  aa:	0000                	c.unimp
  ac:	160c                	c.addi4spn	a1,sp,800
  ae:	0300                	c.addi4spn	s0,sp,384
  b0:	3a0e                	c.fldsp	fs4,224(sp)
  b2:	0121                	c.addi	sp,8
  b4:	0b39053b          	0xb39053b
  b8:	1349                	c.addi	t1,-14
  ba:	0000                	c.unimp
  bc:	0f0d                	c.addi	t5,3
  be:	0b00                	c.addi4spn	s0,sp,400
  c0:	0421                	c.addi	s0,8
  c2:	1349                	c.addi	t1,-14
  c4:	0000                	c.unimp
  c6:	050e                	c.slli	a0,0x3
  c8:	3100                	c.fld	fs0,32(a0)
  ca:	00180213          	addi	tp,a6,1
  ce:	0f00                	c.addi4spn	s0,sp,912
  d0:	0034                	c.addi4spn	a3,sp,8
  d2:	213a0e03          	lb	t3,531(s4)
  d6:	3b01                	c.jal	fffffde6 <_sp+0x77fffde6>
  d8:	3905                	c.jal	fffffd08 <_sp+0x77fffd08>
  da:	0213490b          	0x213490b
  de:	10000017          	auipc	zero,0x10000
  e2:	0148                	c.addi4spn	a0,sp,132
  e4:	017d                	c.addi	sp,31
  e6:	137f                	0x137f
  e8:	0000                	c.unimp
  ea:	1811                	c.addi	a6,-28
  ec:	0000                	c.unimp
  ee:	1200                	c.addi4spn	s0,sp,288
  f0:	0005                	c.addi	zero,1
  f2:	1331                	c.addi	t1,-20
  f4:	0000                	c.unimp
  f6:	0b002413          	slti	s0,zero,176
  fa:	030b3e0b          	0x30b3e0b
  fe:	000e                	c.slli	zero,0x3
 100:	1400                	c.addi4spn	s0,sp,544
 102:	0028                	c.addi4spn	a0,sp,8
 104:	0b1c0e03          	lb	t3,177(s8) # fffe00b1 <_sp+0x77fe00b1>
 108:	0000                	c.unimp
 10a:	2e15                	c.jal	43e <__stack_size-0x1fffbc2>
 10c:	3f01                	c.jal	1c <__stack_size-0x1ffffe4>
 10e:	0319                	c.addi	t1,6
 110:	3a0e                	c.fldsp	fs4,224(sp)
 112:	0321                	c.addi	t1,8
 114:	4900213b          	0x4900213b
 118:	01193c13          	sltiu	s8,s2,17
 11c:	16000013          	addi	zero,zero,352
 120:	0101                	c.addi	sp,0
 122:	1349                	c.addi	t1,-14
 124:	1301                	c.addi	t1,-32
 126:	0000                	c.unimp
 128:	49002117          	auipc	sp,0x49002
 12c:	000b2f13          	slti	t5,s6,0
 130:	1800                	c.addi4spn	s0,sp,48
 132:	0034                	c.addi4spn	a3,sp,8
 134:	213a0e03          	lb	t3,531(s4)
 138:	3b01                	c.jal	fffffe48 <_sp+0x77fffe48>
 13a:	3905                	c.jal	fffffd6a <_sp+0x77fffd6a>
 13c:	0213490b          	0x213490b
 140:	0018                	0x18
 142:	1900                	c.addi4spn	s0,sp,176
 144:	0111010b          	0x111010b
 148:	0612                	c.slli	a2,0x4
 14a:	1301                	c.addi	t1,-32
 14c:	0000                	c.unimp
 14e:	341a                	c.fldsp	fs0,416(sp)
 150:	3100                	c.fld	fs0,32(a0)
 152:	000b1c13          	slli	s8,s6,0x0
 156:	1b00                	c.addi4spn	s0,sp,432
 158:	012e                	c.slli	sp,0xb
 15a:	0e03193f 3b01213a 	0x3b01213a0e03193f
 162:	3905                	c.jal	fffffd92 <_sp+0x77fffd92>
 164:	0621                	c.addi	a2,8
 166:	21201927          	0x21201927
 16a:	0101                	c.addi	sp,0
 16c:	1c000013          	addi	zero,zero,448
 170:	0b0b0113          	addi	sp,s6,176
 174:	213a                	c.fldsp	ft2,392(sp)
 176:	3b01                	c.jal	fffffe86 <_sp+0x77fffe86>
 178:	3905                	c.jal	fffffda8 <_sp+0x77fffda8>
 17a:	0521                	c.addi	a0,8
 17c:	1301                	c.addi	t1,-32
 17e:	0000                	c.unimp
 180:	0d1d                	c.addi	s10,7
 182:	0300                	c.addi4spn	s0,sp,384
 184:	3a0e                	c.fldsp	fs4,224(sp)
 186:	0121                	c.addi	sp,8
 188:	2139053b          	0x2139053b
 18c:	00134907          	flq	fs2,1(t1)
 190:	1e00                	c.addi4spn	s0,sp,816
 192:	0005                	c.addi	zero,1
 194:	1349                	c.addi	t1,-14
 196:	0000                	c.unimp
 198:	2e1f 3f01 0319      	0x3193f012e1f
 19e:	3a0e                	c.fldsp	fs4,224(sp)
 1a0:	0121                	c.addi	sp,8
 1a2:	2139053b          	0x2139053b
 1a6:	2709                	c.jal	8a8 <__stack_size-0x1fff758>
 1a8:	4919                	c.li	s2,6
 1aa:	01212013          	slti	zero,sp,18
 1ae:	1301                	c.addi	t1,-32
 1b0:	0000                	c.unimp
 1b2:	1d20                	c.addi4spn	s0,sp,696
 1b4:	3101                	c.jal	fffffdb4 <_sp+0x77fffdb4>
 1b6:	12011113          	0x12011113
 1ba:	5806                	c.lwsp	a6,96(sp)
 1bc:	0121                	c.addi	sp,8
 1be:	0559                	c.addi	a0,22
 1c0:	13010b57          	0x13010b57
 1c4:	0000                	c.unimp
 1c6:	3421                	c.jal	fffffbce <_sp+0x77fffbce>
 1c8:	3100                	c.fld	fs0,32(a0)
 1ca:	22000013          	addi	zero,zero,544
 1ce:	0048                	c.addi4spn	a0,sp,4
 1d0:	017d                	c.addi	sp,31
 1d2:	137f                	0x137f
 1d4:	0000                	c.unimp
 1d6:	3f012e23          	sw	a6,1020(sp) # 49002524 <__stack_size+0x47002524>
 1da:	0319                	c.addi	t1,6
 1dc:	3a0e                	c.fldsp	fs4,224(sp)
 1de:	0121                	c.addi	sp,8
 1e0:	2139053b          	0x2139053b
 1e4:	2006                	c.fldsp	ft0,64(sp)
 1e6:	0121                	c.addi	sp,8
 1e8:	1301                	c.addi	t1,-32
 1ea:	0000                	c.unimp
 1ec:	1d24                	c.addi4spn	s1,sp,696
 1ee:	3101                	c.jal	fffffdee <_sp+0x77fffdee>
 1f0:	55015213          	0x55015213
 1f4:	01215817          	auipc	a6,0x1215
 1f8:	2159                	c.jal	67e <__stack_size-0x1fff982>
 1fa:	048c                	c.addi4spn	a1,sp,576
 1fc:	00032157          	0x32157
 200:	2500                	c.fld	fs0,8(a0)
 202:	0005                	c.addi	zero,1
 204:	1331                	c.addi	t1,-20
 206:	0b1c                	c.addi4spn	a5,sp,400
 208:	0000                	c.unimp
 20a:	3426                	c.fldsp	fs0,104(sp)
 20c:	3100                	c.fld	fs0,32(a0)
 20e:	00180213          	addi	tp,a6,1 # 12151f5 <__stack_size-0xdeae0b>
 212:	2700                	c.fld	fs0,8(a4)
 214:	002e                	c.slli	zero,0xb
 216:	193c193f 0e030e6e 	0xe030e6e193c193f
 21e:	213a                	c.fldsp	ft2,392(sp)
 220:	00213b03          	0x213b03
 224:	0000                	c.unimp
 226:	1128                	c.addi4spn	a0,sp,168
 228:	2501                	c.jal	828 <__stack_size-0x1fff7d8>
 22a:	130e                	c.slli	t1,0x23
 22c:	1b1f030b          	0x1b1f030b
 230:	551f 1117 1001      	0x10011117551f
 236:	29000017          	auipc	zero,0x29000
 23a:	0104                	c.addi4spn	s1,sp,128
 23c:	0b3e                	c.slli	s6,0xf
 23e:	13490b0b          	0x13490b0b
 242:	0b3a                	c.slli	s6,0xe
 244:	0b39053b          	0xb39053b
 248:	1301                	c.addi	t1,-32
 24a:	0000                	c.unimp
 24c:	242a                	c.fldsp	fs0,136(sp)
 24e:	0b00                	c.addi4spn	s0,sp,400
 250:	030b3e0b          	0x30b3e0b
 254:	0008                	0x8
 256:	2b00                	c.fld	fs0,16(a4)
 258:	0026                	c.slli	zero,0x9
 25a:	1349                	c.addi	t1,-14
 25c:	0000                	c.unimp
 25e:	172c                	c.addi4spn	a1,sp,936
 260:	0b01                	c.addi	s6,0
 262:	3b0b3a0b          	0x3b0b3a0b
 266:	3905                	c.jal	fffffe96 <_sp+0x77fffe96>
 268:	0013010b          	0x13010b
 26c:	2d00                	c.fld	fs0,24(a0)
 26e:	0e030113          	addi	sp,t1,224
 272:	0b3a0b0b          	0xb3a0b0b
 276:	0b39053b          	0xb39053b
 27a:	1301                	c.addi	t1,-32
 27c:	0000                	c.unimp
 27e:	342e                	c.fldsp	fs0,232(sp)
 280:	0300                	c.addi4spn	s0,sp,384
 282:	3a08                	c.fld	fa0,48(a2)
 284:	39053b0b          	0x39053b0b
 288:	3f13490b          	0x3f13490b
 28c:	0219                	c.addi	tp,6
 28e:	0018                	0x18
 290:	2f00                	c.fld	fs0,24(a4)
 292:	0021                	c.addi	zero,8
 294:	1349                	c.addi	t1,-14
 296:	0000052f          	0x52f
 29a:	2e30                	c.fld	fa2,88(a2)
 29c:	3f01                	c.jal	1ac <__stack_size-0x1fffe54>
 29e:	0319                	c.addi	t1,6
 2a0:	3a0e                	c.fldsp	fs4,224(sp)
 2a2:	390b3b0b          	0x390b3b0b
 2a6:	3c19270b          	0x3c19270b
 2aa:	0119                	c.addi	sp,6
 2ac:	31000013          	addi	zero,zero,784
 2b0:	012e                	c.slli	sp,0xb
 2b2:	0e03193f 053b0b3a 	0x53b0b3a0e03193f
 2ba:	0b39                	c.addi	s6,14
 2bc:	1349                	c.addi	t1,-14
 2be:	0111                	c.addi	sp,4
 2c0:	0612                	c.slli	a2,0x4
 2c2:	1840                	c.addi4spn	s0,sp,52
 2c4:	197a                	c.slli	s2,0x3e
 2c6:	1301                	c.addi	t1,-32
 2c8:	0000                	c.unimp
 2ca:	3432                	c.fldsp	fs0,296(sp)
 2cc:	0300                	c.addi4spn	s0,sp,384
 2ce:	3a0e                	c.fldsp	fs4,224(sp)
 2d0:	39053b0b          	0x39053b0b
 2d4:	1c13490b          	0x1c13490b
 2d8:	0005                	c.addi	zero,1
 2da:	3300                	c.fld	fs0,32(a4)
 2dc:	012e                	c.slli	sp,0xb
 2de:	0e03193f 0b3b0b3a 	0xb3b0b3a0e03193f
 2e6:	13491927          	0x13491927
 2ea:	193c                	c.addi4spn	a5,sp,184
 2ec:	1301                	c.addi	t1,-32
 2ee:	0000                	c.unimp
 2f0:	1d34                	c.addi4spn	a3,sp,696
 2f2:	3100                	c.fld	fs0,32(a0)
 2f4:	12011113          	0x12011113
 2f8:	5806                	c.lwsp	a6,96(sp)
 2fa:	5705590b          	0x5705590b
 2fe:	3500000b          	0x3500000b
 302:	1331010b          	0x1331010b
 306:	0111                	c.addi	sp,4
 308:	0612                	c.slli	a2,0x4
 30a:	0000                	c.unimp
 30c:	0b36                	c.slli	s6,0xd
 30e:	0001                	c.addi	zero,0
 310:	3700                	c.fld	fs0,40(a4)
 312:	012e                	c.slli	sp,0xb
 314:	0e03193f 053b0b3a 	0x53b0b3a0e03193f
 31c:	0b39                	c.addi	s6,14
 31e:	1349                	c.addi	t1,-14
 320:	0b20                	c.addi4spn	s0,sp,408
 322:	1301                	c.addi	t1,-32
 324:	0000                	c.unimp
 326:	2e38                	c.fld	fa4,88(a2)
 328:	3f00                	c.fld	fs0,56(a4)
 32a:	0319                	c.addi	t1,6
 32c:	3a0e                	c.fldsp	fs4,224(sp)
 32e:	39053b0b          	0x39053b0b
 332:	000b200b          	0xb200b
 336:	3900                	c.fld	fs0,48(a0)
 338:	012e                	c.slli	sp,0xb
 33a:	0e03193f 053b0b3a 	0x53b0b3a0e03193f
 342:	0b39                	c.addi	s6,14
 344:	0111                	c.addi	sp,4
 346:	0612                	c.slli	a2,0x4
 348:	1840                	c.addi4spn	s0,sp,52
 34a:	197a                	c.slli	s2,0x3e
 34c:	1301                	c.addi	t1,-32
 34e:	0000                	c.unimp
 350:	053a                	c.slli	a0,0xe
 352:	0300                	c.addi4spn	s0,sp,384
 354:	3a0e                	c.fldsp	fs4,224(sp)
 356:	39053b0b          	0x39053b0b
 35a:	0213490b          	0x213490b
 35e:	3b000017          	auipc	zero,0x3b000
 362:	012e                	c.slli	sp,0xb
 364:	0b3a0e03          	lb	t3,179(s4)
 368:	0b39053b          	0xb39053b
 36c:	13491927          	0x13491927
 370:	0b20                	c.addi4spn	s0,sp,408
 372:	1301                	c.addi	t1,-32
 374:	0000                	c.unimp
 376:	343c                	c.fld	fa5,104(s0)
 378:	0300                	c.addi4spn	s0,sp,384
 37a:	3a08                	c.fld	fa0,48(a2)
 37c:	39053b0b          	0x39053b0b
 380:	0013490b          	0x13490b
 384:	3d00                	c.fld	fs0,56(a0)
 386:	002e                	c.slli	zero,0xb
 388:	1331                	c.addi	t1,-20
 38a:	0111                	c.addi	sp,4
 38c:	0612                	c.slli	a2,0x4
 38e:	1840                	c.addi4spn	s0,sp,52
 390:	197a                	c.slli	s2,0x3e
 392:	0000                	c.unimp
 394:	1d3e                	c.slli	s10,0x2f
 396:	3101                	c.jal	ffffff96 <_sp+0x77ffff96>
 398:	12011113          	0x12011113
 39c:	5806                	c.lwsp	a6,96(sp)
 39e:	5705590b          	0x5705590b
 3a2:	3f00000b          	0x3f00000b
 3a6:	1331000b          	0x1331000b
 3aa:	0111                	c.addi	sp,4
 3ac:	0612                	c.slli	a2,0x4
 3ae:	0000                	c.unimp
 3b0:	2e40                	c.fld	fs0,152(a2)
 3b2:	3f00                	c.fld	fs0,56(a4)
 3b4:	3c19                	c.jal	fffffdca <_sp+0x77fffdca>
 3b6:	6e19                	c.lui	t3,0x6
 3b8:	030e                	c.slli	t1,0x3
 3ba:	000e                	c.slli	zero,0x3
 3bc:	0000                	c.unimp
 3be:	0501                	c.addi	a0,0
 3c0:	3100                	c.fld	fs0,32(a0)
 3c2:	00170213          	addi	tp,a4,1 # fffe7001 <_sp+0x77fe7001>
 3c6:	0200                	c.addi4spn	s0,sp,256
 3c8:	0034                	c.addi4spn	a3,sp,8
 3ca:	213a0803          	lb	a6,531(s4)
 3ce:	3b01                	c.jal	de <__stack_size-0x1ffff22>
 3d0:	490b390b          	0x490b390b
 3d4:	03000013          	addi	zero,zero,48
 3d8:	011d                	c.addi	sp,7
 3da:	1331                	c.addi	t1,-20
 3dc:	0152                	c.slli	sp,0x14
 3de:	1755                	c.addi	a4,-11
 3e0:	2158                	c.fld	fa4,128(a0)
 3e2:	5901                	c.li	s2,-32
 3e4:	010b570b          	0x10b570b
 3e8:	04000013          	addi	zero,zero,64
 3ec:	0034                	c.addi4spn	a3,sp,8
 3ee:	1331                	c.addi	t1,-20
 3f0:	1702                	c.slli	a4,0x20
 3f2:	0000                	c.unimp
 3f4:	1d05                	c.addi	s10,-31
 3f6:	3101                	c.jal	fffffff6 <_sp+0x77fffff6>
 3f8:	55015213          	0x55015213
 3fc:	01215817          	auipc	a6,0x1215
 400:	0b59                	c.addi	s6,22
 402:	00000b57          	0xb57
 406:	1d06                	c.slli	s10,0x21
 408:	3101                	c.jal	8 <__stack_size-0x1fffff8>
 40a:	12011113          	0x12011113
 40e:	5806                	c.lwsp	a6,96(sp)
 410:	0121                	c.addi	sp,8
 412:	2159                	c.jal	898 <__stack_size-0x1fff768>
 414:	571a                	c.lwsp	a4,164(sp)
 416:	0621                	c.addi	a2,8
 418:	0000                	c.unimp
 41a:	0b002407          	flw	fs0,176(zero) # b0 <__stack_size-0x1ffff50>
 41e:	030b3e0b          	0x30b3e0b
 422:	000e                	c.slli	zero,0x3
 424:	0800                	c.addi4spn	s0,sp,16
 426:	0148                	c.addi4spn	a0,sp,132
 428:	017d                	c.addi	sp,31
 42a:	0000                	c.unimp
 42c:	4909                	c.li	s2,2
 42e:	0200                	c.addi4spn	s0,sp,256
 430:	7e18                	c.flw	fa4,56(a2)
 432:	0018                	0x18
 434:	0a00                	c.addi4spn	s0,sp,272
 436:	0005                	c.addi	zero,1
 438:	213a0803          	lb	a6,531(s4)
 43c:	3b01                	c.jal	14c <__stack_size-0x1fffeb4>
 43e:	490b390b          	0x490b390b
 442:	0b000013          	addi	zero,zero,176
 446:	210b000f          	0x210b000f
 44a:	4904                	c.lw	s1,16(a0)
 44c:	0c000013          	addi	zero,zero,192
 450:	0016                	c.slli	zero,0x5
 452:	213a0e03          	lb	t3,531(s4)
 456:	3b02                	c.fldsp	fs6,32(sp)
 458:	490b390b          	0x490b390b
 45c:	0d000013          	addi	zero,zero,208
 460:	0034                	c.addi4spn	a3,sp,8
 462:	1331                	c.addi	t1,-20
 464:	1802                	c.slli	a6,0x20
 466:	0000                	c.unimp
 468:	480e                	c.lwsp	a6,192(sp)
 46a:	7d00                	c.flw	fs0,56(a0)
 46c:	7f01                	c.lui	t5,0xfffe0
 46e:	0f000013          	addi	zero,zero,240
 472:	012e                	c.slli	sp,0xb
 474:	0e03193f 3b01213a 	0x3b01213a0e03193f
 47c:	0621390b          	0x621390b
 480:	21201927          	0x21201927
 484:	0101                	c.addi	sp,0
 486:	10000013          	addi	zero,zero,256
 48a:	002e                	c.slli	zero,0xb
 48c:	193c193f 0e030e6e 	0xe030e6e193c193f
 494:	0000                	c.unimp
 496:	1111                	c.addi	sp,-28
 498:	2501                	c.jal	a98 <__stack_size-0x1fff568>
 49a:	130e                	c.slli	t1,0x23
 49c:	1b1f030b          	0x1b1f030b
 4a0:	111f 1201 1006      	0x10061201111f
 4a6:	12000017          	auipc	zero,0x12000
 4aa:	0115                	c.addi	sp,5
 4ac:	13011927          	0x13011927
 4b0:	0000                	c.unimp
 4b2:	49000513          	addi	a0,zero,1168
 4b6:	14000013          	addi	zero,zero,320
 4ba:	0034                	c.addi4spn	a3,sp,8
 4bc:	0b3a0e03          	lb	t3,179(s4)
 4c0:	0b390b3b          	0xb390b3b
 4c4:	1349                	c.addi	t1,-14
 4c6:	193c193f 0f150000 	0xf150000193c193f
 4ce:	0b00                	c.addi4spn	s0,sp,400
 4d0:	000e030b          	0xe030b
 4d4:	1600                	c.addi4spn	s0,sp,800
 4d6:	0034                	c.addi4spn	a3,sp,8
 4d8:	0b3a1347          	fmsub.d	ft6,fs4,fs3,ft1,rtz
 4dc:	0b390b3b          	0xb390b3b
 4e0:	1802                	c.slli	a6,0x20
 4e2:	0000                	c.unimp
 4e4:	03003417          	auipc	s0,0x3003
 4e8:	3a0e                	c.fldsp	fs4,224(sp)
 4ea:	390b3b0b          	0x390b3b0b
 4ee:	0213490b          	0x213490b
 4f2:	0018                	0x18
 4f4:	1800                	c.addi4spn	s0,sp,48
 4f6:	0026                	c.slli	zero,0x9
 4f8:	1349                	c.addi	t1,-14
 4fa:	0000                	c.unimp
 4fc:	2e19                	c.jal	812 <__stack_size-0x1fff7ee>
 4fe:	3f01                	c.jal	40e <__stack_size-0x1fffbf2>
 500:	0319                	c.addi	t1,6
 502:	3a0e                	c.fldsp	fs4,224(sp)
 504:	390b3b0b          	0x390b3b0b
 508:	1119270b          	0x1119270b
 50c:	1201                	c.addi	tp,-32
 50e:	4006                	0x4006
 510:	7c18                	c.flw	fa4,56(s0)
 512:	0119                	c.addi	sp,6
 514:	1a000013          	addi	zero,zero,416
 518:	0005                	c.addi	zero,1
 51a:	0b3a0803          	lb	a6,179(s4)
 51e:	0b390b3b          	0xb390b3b
 522:	1349                	c.addi	t1,-14
 524:	1702                	c.slli	a4,0x20
 526:	0000                	c.unimp
 528:	0000181b          	0x181b
 52c:	1c00                	c.addi4spn	s0,sp,560
 52e:	0034                	c.addi4spn	a3,sp,8
 530:	0b3a0803          	lb	a6,179(s4)
 534:	0b390b3b          	0xb390b3b
 538:	1349                	c.addi	t1,-14
 53a:	1802                	c.slli	a6,0x20
 53c:	0000                	c.unimp
 53e:	0b1d                	c.addi	s6,7
 540:	5501                	c.li	a0,-32
 542:	1e000017          	auipc	zero,0x1e000
 546:	012e                	c.slli	sp,0xb
 548:	0b3a0e03          	lb	t3,179(s4)
 54c:	0b390b3b          	0xb390b3b
 550:	0b201927          	0xb201927
 554:	1301                	c.addi	t1,-32
 556:	0000                	c.unimp
 558:	011f 4901 0113      	0x1134901011f
 55e:	20000013          	addi	zero,zero,512
 562:	0021                	c.addi	zero,8
 564:	1349                	c.addi	t1,-14
 566:	00000b2f          	0xb2f
 56a:	2e21                	c.jal	882 <__stack_size-0x1fff77e>
 56c:	3101                	c.jal	16c <__stack_size-0x1fffe94>
 56e:	12011113          	0x12011113
 572:	4006                	0x4006
 574:	0118                	c.addi4spn	a4,sp,128
 576:	22000013          	addi	zero,zero,544
 57a:	012e                	c.slli	sp,0xb
 57c:	1331                	c.addi	t1,-20
 57e:	0111                	c.addi	sp,4
 580:	0612                	c.slli	a2,0x4
 582:	1840                	c.addi4spn	s0,sp,52
 584:	197c                	c.addi4spn	a5,sp,188
 586:	1301                	c.addi	t1,-32
 588:	0000                	c.unimp
 58a:	0100                	c.addi4spn	s0,sp,128
 58c:	0011                	c.addi	zero,4
 58e:	1710                	c.addi4spn	a2,sp,928
 590:	0111                	c.addi	sp,4
 592:	0f12                	c.slli	t5,0x4
 594:	0e1b0e03          	lb	t3,225(s6)
 598:	0e25                	c.addi	t3,9
 59a:	00000513          	addi	a0,zero,0
	...

Disassembly of section .debug_aranges:

00000000 <.debug_aranges>:
   0:	001c                	0x1c
   2:	0000                	c.unimp
   4:	0002                	c.slli64	zero
   6:	0000                	c.unimp
   8:	0000                	c.unimp
   a:	0004                	0x4
   c:	0000                	c.unimp
   e:	0000                	c.unimp
  10:	0000                	c.unimp
  12:	8000                	0x8000
  14:	001c                	0x1c
	...
  1e:	0000                	c.unimp
  20:	0024                	c.addi4spn	s1,sp,8
  22:	0000                	c.unimp
  24:	0002                	c.slli64	zero
  26:	0024                	c.addi4spn	s1,sp,8
  28:	0000                	c.unimp
  2a:	0004                	0x4
  2c:	0000                	c.unimp
  2e:	0000                	c.unimp
  30:	0838                	c.addi4spn	a4,sp,24
  32:	8000                	0x8000
  34:	0374                	c.addi4spn	a3,sp,396
  36:	0000                	c.unimp
  38:	001c                	0x1c
  3a:	8000                	0x8000
  3c:	081c                	c.addi4spn	a5,sp,16
	...
  46:	0000                	c.unimp
  48:	001c                	0x1c
  4a:	0000                	c.unimp
  4c:	0002                	c.slli64	zero
  4e:	1339                	c.addi	t1,-18
  50:	0000                	c.unimp
  52:	0004                	0x4
  54:	0000                	c.unimp
  56:	0000                	c.unimp
  58:	0bac                	c.addi4spn	a1,sp,472
  5a:	8000                	0x8000
  5c:	06e0                	c.addi4spn	s0,sp,844
	...
  66:	0000                	c.unimp
  68:	001c                	0x1c
  6a:	0000                	c.unimp
  6c:	0002                	c.slli64	zero
  6e:	181d                	c.addi	a6,-25
  70:	0000                	c.unimp
  72:	0004                	0x4
  74:	0000                	c.unimp
  76:	0000                	c.unimp
  78:	128c                	c.addi4spn	a1,sp,352
  7a:	8000                	0x8000
  7c:	00b4                	c.addi4spn	a3,sp,72
	...

Disassembly of section .debug_str:

00000000 <.debug_str>:
   0:	72617473          	csrrci	s0,0x726,2
   4:	2e74                	c.fld	fa3,216(a2)
   6:	682f0053          	0x682f0053
   a:	2f656d6f          	jal	s10,56300 <__stack_size-0x1fa9d00>
   e:	7574                	c.flw	fa3,108(a0)
  10:	7574                	c.flw	fa3,108(a0)
  12:	7574                	c.flw	fa3,108(a0)
  14:	6d69712f          	0x6d69712f
  18:	6e65                	c.lui	t3,0x19
  1a:	69732f67          	0x69732f67
  1e:	756d                	c.lui	a0,0xffffb
  20:	616c                	c.flw	fa1,68(a0)
  22:	6f74                	c.flw	fa3,92(a4)
  24:	2f72                	c.fldsp	ft10,280(sp)
  26:	6162                	c.flwsp	ft2,24(sp)
  28:	6572                	c.flwsp	fa0,28(sp)
  2a:	656d                	c.lui	a0,0x1b
  2c:	6174                	c.flw	fa3,68(a0)
  2e:	2f6c                	c.fld	fa1,216(a4)
  30:	7472                	c.flwsp	fs0,60(sp)
  32:	742d                	c.lui	s0,0xfffeb
  34:	7268                	c.flw	fa0,100(a2)
  36:	6165                	c.addi16sp	sp,112
  38:	2d64                	c.fld	fs1,216(a0)
  3a:	6d61                	c.lui	s10,0x18
  3c:	6d2d                	c.lui	s10,0xb
  3e:	7361                	c.lui	t1,0xffff8
  40:	6574                	c.flw	fa3,76(a0)
  42:	2f72                	c.fldsp	ft10,280(sp)
  44:	7362                	c.flwsp	ft6,56(sp)
  46:	2f70                	c.fld	fa2,216(a4)
  48:	6261                	c.lui	tp,0x18
  4a:	61727473          	csrrci	s0,0x617,4
  4e:	6d2d7463          	bgeu	s10,s2,716 <__stack_size-0x1fff8ea>
  52:	6361                	c.lui	t1,0x18
  54:	6968                	c.flw	fa0,84(a0)
  56:	656e                	c.flwsp	fa0,216(sp)
  58:	4700                	c.lw	s0,8(a4)
  5a:	554e                	c.lwsp	a0,240(sp)
  5c:	4120                	c.lw	s0,64(a0)
  5e:	2e322053          	0x2e322053
  62:	49003733          	0x49003733
  66:	6564                	c.flw	fs1,76(a0)
  68:	746e                	c.flwsp	fs0,248(sp)
  6a:	325f 4900 6564      	0x65644900325f
  70:	746e                	c.flwsp	fs0,248(sp)
  72:	335f 4900 6564      	0x65644900335f
  78:	746e                	c.flwsp	fs0,248(sp)
  7a:	345f 4900 6564      	0x65644900345f
  80:	746e                	c.flwsp	fs0,248(sp)
  82:	355f 4100 7272      	0x72724100355f
  88:	315f 475f 6f6c      	0x6f6c475f315f
  8e:	0062                	c.slli	zero,0x18
  90:	7450                	c.flw	fa2,44(s0)
  92:	5f72                	c.lwsp	t5,60(sp)
  94:	6552                	c.flwsp	fa0,20(sp)
  96:	5f66                	c.lwsp	t5,120(sp)
  98:	6150                	c.flw	fa2,4(a0)
  9a:	0072                	c.slli	zero,0x1c
  9c:	5f727453          	0x5f727453
  a0:	5f31                	c.li	t5,-20
  a2:	6150                	c.flw	fa2,4(a0)
  a4:	5f72                	c.lwsp	t5,60(sp)
  a6:	6552                	c.flwsp	fa0,20(sp)
  a8:	0066                	c.slli	zero,0x19
  aa:	5f656e4f          	fnmadd.q	ft8,fa0,fs6,fa1,unknown
  ae:	6854                	c.flw	fa3,20(s0)
  b0:	7269                	c.lui	tp,0xffffa
  b2:	7974                	c.flw	fa3,116(a0)
  b4:	4900                	c.lw	s0,16(a0)
  b6:	746e                	c.flwsp	fs0,248(sp)
  b8:	335f 4c5f 636f      	0x636f4c5f335f
  be:	5300                	c.lw	s0,32(a4)
  c0:	7274                	c.flw	fa3,100(a2)
  c2:	325f 505f 7261      	0x7261505f325f
  c8:	525f 6665 7300      	0x73006665525f
  ce:	7a69                	c.lui	s4,0xffffa
  d0:	5f65                	c.li	t5,-7
  d2:	0074                	c.addi4spn	a3,sp,12
  d4:	6572                	c.flwsp	fa0,28(sp)
  d6:	64726f63          	bltu	tp,t2,734 <__stack_size-0x1fff8cc>
  da:	4500                	c.lw	s0,8(a0)
  dc:	646e                	c.flwsp	fs0,216(sp)
  de:	545f 6d69 0065      	0x656d69545f
  e4:	5f5f 7562 6c69      	0x6c6975625f5f
  ea:	6974                	c.flw	fa3,84(a0)
  ec:	5f6e                	c.lwsp	t5,248(sp)
  ee:	656d                	c.lui	a0,0x1b
  f0:	636d                	c.lui	t1,0x1b
  f2:	7970                	c.flw	fa2,116(a0)
  f4:	5500                	c.lw	s0,40(a0)
  f6:	5f726573          	csrrsi	a0,0x5f7,4
  fa:	6954                	c.flw	fa3,20(a0)
  fc:	656d                	c.lui	a0,0x1b
  fe:	6d00                	c.flw	fs0,24(a0)
 100:	6961                	c.lui	s2,0x18
 102:	006e                	c.slli	zero,0x1b
 104:	7241                	c.lui	tp,0xffff0
 106:	5f72                	c.lwsp	t5,60(sp)
 108:	5f31                	c.li	t5,-20
 10a:	6150                	c.flw	fa2,4(a0)
 10c:	5f72                	c.lwsp	t5,60(sp)
 10e:	6552                	c.flwsp	fa0,20(sp)
 110:	0066                	c.slli	zero,0x19
 112:	325f6843          	fmadd.d	fa6,ft10,ft5,ft6,unknown
 116:	4c5f 636f 4400      	0x4400636f4c5f
 11c:	00656e6f          	jal	t3,56122 <__stack_size-0x1fa9ede>
 120:	5f727453          	0x5f727453
 124:	5f31                	c.li	t5,-20
 126:	6f4c                	c.flw	fa1,28(a4)
 128:	72660063          	beq	a2,t1,848 <__stack_size-0x1fff7b8>
 12c:	6565                	c.lui	a0,0x19
 12e:	6d5f 6d65 4300      	0x43006d656d5f
 134:	5f68                	c.lw	a0,124(a4)
 136:	5f31                	c.li	t5,-20
 138:	626f6c47          	fmsub.d	fs8,ft10,ft6,fa2,unknown
 13c:	7600                	c.flw	fs0,40(a2)
 13e:	7261                	c.lui	tp,0xffff8
 140:	335f 4500 435f      	0x435f4500335f
 146:	5f706d6f          	jal	s10,6f3c <__stack_size-0x1ff90c4>
 14a:	0032                	c.slli	zero,0xc
 14c:	657a6973          	csrrsi	s2,0x657,20
 150:	5200                	c.lw	s0,32(a2)
 152:	6e75                	c.lui	t3,0x1d
 154:	495f 646e 7865      	0x7865646e495f
 15a:	4900                	c.lw	s0,16(a0)
 15c:	746e                	c.flwsp	fs0,248(sp)
 15e:	325f 4c5f 636f      	0x636f4c5f325f
 164:	6d00                	c.flw	fs0,24(a0)
 166:	6d65                	c.lui	s10,0x19
 168:	0079726f          	jal	tp,9796e <__stack_size-0x1f68692>
 16c:	6c66                	c.flwsp	fs8,88(sp)
 16e:	0074616f          	jal	sp,46974 <__stack_size-0x1fb968c>
 172:	315f6843          	fmadd.s	fa6,ft10,fs5,ft6,unknown
 176:	505f 7261 565f      	0x565f7261505f
 17c:	6c61                	c.lui	s8,0x18
 17e:	4500                	c.lw	s0,8(a0)
 180:	756e                	c.flwsp	fa0,248(sp)
 182:	5f6d                	c.li	t5,-5
 184:	6f4c                	c.flw	fa1,28(a4)
 186:	68430063          	beq	t1,tp,806 <__stack_size-0x1fff7fa>
 18a:	325f 505f 7261      	0x7261505f325f
 190:	565f 6c61 4300      	0x43006c61565f
 196:	5f68                	c.lw	a0,124(a4)
 198:	5f31                	c.li	t5,-20
 19a:	706d6f43          	fmadd.s	ft10,fs10,ft6,fa4,unknown
 19e:	6c00                	c.flw	fs0,24(s0)
 1a0:	20676e6f          	jal	t3,763a6 <__stack_size-0x1f89c5a>
 1a4:	6e69                	c.lui	t3,0x1a
 1a6:	0074                	c.addi4spn	a3,sp,12
 1a8:	6e49                	c.lui	t3,0x12
 1aa:	5f74                	c.lw	a3,124(a4)
 1ac:	626f6c47          	fmsub.d	fs8,ft10,ft6,fa2,unknown
 1b0:	7600                	c.flw	fs0,40(a2)
 1b2:	7261                	c.lui	tp,0xffff8
 1b4:	315f 7600 7261      	0x72617600315f
 1ba:	325f 5300 7274      	0x72745300325f
 1c0:	325f 435f 6d6f      	0x6d6f435f325f
 1c6:	0070                	c.addi4spn	a2,sp,12
 1c8:	5f727453          	0x5f727453
 1cc:	5f32                	c.lwsp	t5,44(sp)
 1ce:	6f4c                	c.flw	fa1,28(a4)
 1d0:	6e490063          	beq	s2,tp,8b0 <__stack_size-0x1fff750>
 1d4:	5f74                	c.lw	a3,124(a4)
 1d6:	5f31                	c.li	t5,-20
 1d8:	6150                	c.flw	fa2,4(a0)
 1da:	5f72                	c.lwsp	t5,60(sp)
 1dc:	6156                	c.flwsp	ft2,84(sp)
 1de:	006c                	c.addi4spn	a1,sp,12
 1e0:	6552                	c.flwsp	fa0,20(sp)
 1e2:	6f505f63          	bge	zero,s5,8e0 <__stack_size-0x1fff720>
 1e6:	6e69                	c.lui	t3,0x1a
 1e8:	6574                	c.flw	fa3,76(a0)
 1ea:	0072                	c.slli	zero,0x1c
 1ec:	6170                	c.flw	fa2,68(a0)
 1ee:	75007373          	csrrci	t1,0x750,0
 1f2:	736e                	c.flwsp	ft6,248(sp)
 1f4:	6769                	c.lui	a4,0x1a
 1f6:	656e                	c.flwsp	fa0,216(sp)
 1f8:	2064                	c.fld	fs1,192(s0)
 1fa:	72616863          	bltu	sp,t1,92a <__stack_size-0x1fff6d6>
 1fe:	4900                	c.lw	s0,16(a0)
 200:	746e                	c.flwsp	fs0,248(sp)
 202:	325f 505f 7261      	0x7261505f325f
 208:	565f 6c61 4300      	0x43006c61565f
 20e:	5f68                	c.lw	a0,124(a4)
 210:	5f31                	c.li	t5,-20
 212:	6f4c                	c.flw	fa1,28(a4)
 214:	68430063          	beq	t1,tp,894 <__stack_size-0x1fff76c>
 218:	4c5f 636f 4500      	0x4500636f4c5f
 21e:	756e                	c.flwsp	fa0,248(sp)
 220:	5f6d                	c.li	t5,-5
 222:	706d6f43          	fmadd.s	ft10,fs10,ft6,fa4,unknown
 226:	4900                	c.lw	s0,16(a0)
 228:	746e                	c.flwsp	fs0,248(sp)
 22a:	435f 6d6f 0070      	0x706d6f435f
 230:	6f42                	c.flwsp	ft10,16(sp)
 232:	4c5f6c6f          	jal	s8,f6ef6 <__stack_size-0x1f0910a>
 236:	5000636f          	jal	t1,6736 <__stack_size-0x1ff98ca>
 23a:	6f72                	c.flwsp	ft10,28(sp)
 23c:	00345f63          	bge	s0,gp,25a <__stack_size-0x1fffda6>
 240:	7250                	c.flw	fa2,36(a2)
 242:	355f636f          	jal	t1,f6d96 <__stack_size-0x1f0926a>
 246:	4100                	c.lw	s0,0(a0)
 248:	7272                	c.flwsp	ft4,60(sp)
 24a:	325f 475f 6f6c      	0x6f6c475f325f
 250:	0062                	c.slli	zero,0x18
 252:	7250                	c.flw	fa2,36(a2)
 254:	385f636f          	jal	t1,f6dd8 <__stack_size-0x1f09228>
 258:	4700                	c.lw	s0,8(a4)
 25a:	554e                	c.lwsp	a0,240(sp)
 25c:	4320                	c.lw	s0,64(a4)
 25e:	3731                	c.jal	16a <__stack_size-0x1fffe96>
 260:	3120                	c.fld	fs0,96(a0)
 262:	2e31                	c.jal	57e <__stack_size-0x1fffa82>
 264:	2e31                	c.jal	580 <__stack_size-0x1fffa80>
 266:	2030                	c.fld	fa2,64(s0)
 268:	6d2d                	c.lui	s10,0xb
 26a:	7261                	c.lui	tp,0xffff8
 26c:	723d6863          	bltu	s10,gp,99c <__stack_size-0x1fff664>
 270:	3376                	c.fldsp	ft6,376(sp)
 272:	6932                	c.flwsp	fs2,12(sp)
 274:	2061                	c.jal	2fc <__stack_size-0x1fffd04>
 276:	6d2d                	c.lui	s10,0xb
 278:	6261                	c.lui	tp,0x18
 27a:	3d69                	c.jal	114 <__stack_size-0x1fffeec>
 27c:	6c69                	c.lui	s8,0x1a
 27e:	3370                	c.fld	fa2,224(a4)
 280:	2032                	c.fldsp	ft0,264(sp)
 282:	6d2d                	c.lui	s10,0xb
 284:	646f6d63          	bltu	t5,t1,8de <__stack_size-0x1fff722>
 288:	6c65                	c.lui	s8,0x19
 28a:	6d3d                	c.lui	s10,0xf
 28c:	6465                	c.lui	s0,0x19
 28e:	6f6c                	c.flw	fa1,92(a4)
 290:	6d2d2077          	0x6d2d2077
 294:	7574                	c.flw	fa3,108(a0)
 296:	656e                	c.flwsp	fa0,216(sp)
 298:	723d                	c.lui	tp,0xfffef
 29a:	656b636f          	jal	t1,b68f0 <__stack_size-0x1f49710>
 29e:	2074                	c.fld	fa3,192(s0)
 2a0:	6d2d                	c.lui	s10,0xb
 2a2:	7261                	c.lui	tp,0xffff8
 2a4:	723d6863          	bltu	s10,gp,9d4 <__stack_size-0x1fff62c>
 2a8:	3376                	c.fldsp	ft6,376(sp)
 2aa:	6932                	c.flwsp	fs2,12(sp)
 2ac:	2061                	c.jal	334 <__stack_size-0x1fffccc>
 2ae:	672d                	c.lui	a4,0xb
 2b0:	7764                	c.flw	fs1,108(a4)
 2b2:	7261                	c.lui	tp,0xffff8
 2b4:	2066                	c.fldsp	ft0,88(sp)
 2b6:	4f2d                	c.li	t5,11
 2b8:	2032                	c.fldsp	ft0,264(sp)
 2ba:	4f2d                	c.li	t5,11
 2bc:	0032                	c.slli	zero,0xc
 2be:	7250                	c.flw	fa2,36(a2)
 2c0:	315f636f          	jal	t1,f6dd4 <__stack_size-0x1f0922c>
 2c4:	5000                	c.lw	s0,32(s0)
 2c6:	6f72                	c.flwsp	ft10,28(sp)
 2c8:	00325f63          	bge	tp,gp,2e6 <__stack_size-0x1fffd1a>
 2cc:	7250                	c.flw	fa2,36(a2)
 2ce:	335f636f          	jal	t1,f6e02 <__stack_size-0x1f091fe>
 2d2:	4200                	c.lw	s0,0(a2)
 2d4:	656c6f6f          	jal	t5,c692a <__stack_size-0x1f396d6>
 2d8:	6e61                	c.lui	t3,0x18
 2da:	5000                	c.lw	s0,32(s0)
 2dc:	6f72                	c.flwsp	ft10,28(sp)
 2de:	00365f63          	bge	a2,gp,2fc <__stack_size-0x1fffd04>
 2e2:	7250                	c.flw	fa2,36(a2)
 2e4:	375f636f          	jal	t1,f6e58 <__stack_size-0x1f091a8>
 2e8:	7600                	c.flw	fs0,40(a2)
 2ea:	7261                	c.lui	tp,0xffff8
 2ec:	6169                	c.addi16sp	sp,208
 2ee:	746e                	c.flwsp	fs0,248(sp)
 2f0:	4500                	c.lw	s0,8(a0)
 2f2:	756e                	c.flwsp	fa0,248(sp)
 2f4:	5f6d                	c.li	t5,-5
 2f6:	6156                	c.flwsp	ft2,84(sp)
 2f8:	5f6c                	c.lw	a1,124(a4)
 2fa:	6150                	c.flw	fa2,4(a0)
 2fc:	0072                	c.slli	zero,0x1c
 2fe:	63727473          	csrrci	s0,0x637,4
 302:	7970                	c.flw	fa2,116(a0)
 304:	4400                	c.lw	s0,8(s0)
 306:	7369                	c.lui	t1,0xffffa
 308:	78007263          	bgeu	zero,zero,a8c <__stack_size-0x1fff574>
 30c:	7270                	c.flw	fa2,100(a2)
 30e:	6e69                	c.lui	t3,0x1a
 310:	6674                	c.flw	fa3,76(a2)
 312:	5000                	c.lw	s0,32(s0)
 314:	7274                	c.flw	fa3,100(a2)
 316:	435f 6d6f 0070      	0x706d6f435f
 31c:	325f6843          	fmadd.d	fa6,ft10,ft5,ft6,unknown
 320:	475f 6f6c 0062      	0x626f6c475f
 326:	654e                	c.flwsp	fa0,208(sp)
 328:	7478                	c.flw	fa4,108(s0)
 32a:	505f 7274 475f      	0x475f7274505f
 330:	6f6c                	c.flw	fa1,92(a4)
 332:	0062                	c.slli	zero,0x18
 334:	5f727453          	0x5f727453
 338:	706d6f43          	fmadd.s	ft10,fs10,ft6,fa4,unknown
 33c:	5f00                	c.lw	s0,56(a4)
 33e:	645f 7669 6973      	0x69737669645f
 344:	6e490033          	0x6e490033
 348:	5f74                	c.lw	a3,124(a4)
 34a:	5f31                	c.li	t5,-20
 34c:	6f4c                	c.flw	fa1,28(a4)
 34e:	74530063          	beq	t1,t0,a8e <__stack_size-0x1fff572>
 352:	5f72                	c.lwsp	t5,60(sp)
 354:	45003033          	0x45003033
 358:	756e                	c.flwsp	fa0,248(sp)
 35a:	5f6d                	c.li	t5,-5
 35c:	6150                	c.flw	fa2,4(a0)
 35e:	5f72                	c.lwsp	t5,60(sp)
 360:	6156                	c.flwsp	ft2,84(sp)
 362:	006c                	c.addi4spn	a1,sp,12
 364:	6e49                	c.lui	t3,0x12
 366:	5f74                	c.lw	a3,124(a4)
 368:	6150                	c.flw	fa2,4(a0)
 36a:	5f72                	c.lwsp	t5,60(sp)
 36c:	6552                	c.flwsp	fa0,20(sp)
 36e:	0066                	c.slli	zero,0x19
 370:	6e49                	c.lui	t3,0x12
 372:	5f74                	c.lw	a3,124(a4)
 374:	6e49                	c.lui	t3,0x12
 376:	6564                	c.flw	fs1,76(a0)
 378:	0078                	c.addi4spn	a4,sp,12
 37a:	69706143          	fmadd.s	ft2,ft0,fs7,fa3,unknown
 37e:	6174                	c.flw	fa3,68(a0)
 380:	5f6c                	c.lw	a1,124(a4)
 382:	654c                	c.flw	fa1,12(a0)
 384:	7474                	c.flw	fa3,108(s0)
 386:	7265                	c.lui	tp,0xffff9
 388:	4f00                	c.lw	s0,24(a4)
 38a:	656e                	c.flwsp	fa0,216(sp)
 38c:	465f 6669 7974      	0x79746669465f
 392:	5000                	c.lw	s0,32(s0)
 394:	7274                	c.flw	fa3,100(a2)
 396:	565f 6c61 505f      	0x505f6c61565f
 39c:	7261                	c.lui	tp,0xffff8
 39e:	4500                	c.lw	s0,8(a0)
 3a0:	756e                	c.flwsp	fa0,248(sp)
 3a2:	656d                	c.lui	a0,0x1b
 3a4:	6172                	c.flwsp	ft2,28(sp)
 3a6:	6974                	c.flw	fa3,84(a0)
 3a8:	73006e6f          	jal	t3,6ad8 <__stack_size-0x1ff9528>
 3ac:	7274                	c.flw	fa3,100(a2)
 3ae:	00706d63          	bltu	zero,t2,3c8 <__stack_size-0x1fffc38>
 3b2:	325f6843          	fmadd.d	fa6,ft10,ft5,ft6,unknown
 3b6:	435f 6d6f 0070      	0x706d6f435f
 3bc:	796d                	c.lui	s2,0xffffb
 3be:	6c61                	c.lui	s8,0x18
 3c0:	6f6c                	c.flw	fa1,92(a4)
 3c2:	6e450063          	beq	a0,tp,aa2 <__stack_size-0x1fff55e>
 3c6:	6d75                	c.lui	s10,0x1d
 3c8:	525f 6665 505f      	0x505f6665525f
 3ce:	7261                	c.lui	tp,0xffff8
 3d0:	4400                	c.lw	s0,8(s0)
 3d2:	7268                	c.flw	fa0,100(a2)
 3d4:	7379                	c.lui	t1,0xffffe
 3d6:	6f74                	c.flw	fa3,92(a4)
 3d8:	656e                	c.flwsp	fa0,216(sp)
 3da:	65505f73          	csrrwi	t5,0x655,0
 3de:	5f72                	c.lwsp	t5,60(sp)
 3e0:	6f636553          	0x6f636553
 3e4:	646e                	c.flwsp	fs0,216(sp)
 3e6:	4200                	c.lw	s0,0(a2)
 3e8:	5f6c6f6f          	jal	t5,c69de <__stack_size-0x1f39622>
 3ec:	626f6c47          	fmsub.d	fs8,ft10,ft6,fa2,unknown
 3f0:	6300                	c.flw	fs0,0(a4)
 3f2:	6568                	c.flw	fa0,76(a0)
 3f4:	49006b63          	bltu	zero,a6,88a <__stack_size-0x1fff776>
 3f8:	746e                	c.flwsp	fs0,248(sp)
 3fa:	4c5f 636f 4e00      	0x4e00636f4c5f
 400:	7865                	c.lui	a6,0xffff9
 402:	5f74                	c.lw	a3,124(a4)
 404:	6552                	c.flwsp	fa0,20(sp)
 406:	64726f63          	bltu	tp,t2,a64 <__stack_size-0x1fff59c>
 40a:	4d00                	c.lw	s0,24(a0)
 40c:	6369                	c.lui	t1,0x1a
 40e:	6f72                	c.flwsp	ft10,28(sp)
 410:	6f636573          	csrrsi	a0,0x6f6,6
 414:	646e                	c.flwsp	fs0,216(sp)
 416:	754e0073          	0x754e0073
 41a:	626d                	c.lui	tp,0x1b
 41c:	7265                	c.lui	tp,0xffff9
 41e:	4f5f 5f66 7552      	0x75525f664f5f
 424:	736e                	c.flwsp	ft6,248(sp)
 426:	4200                	c.lw	s0,0(a2)
 428:	6765                	c.lui	a4,0x19
 42a:	6e69                	c.lui	t3,0x1a
 42c:	545f 6d69 0065      	0x656d69545f
 432:	7241                	c.lui	tp,0xffff0
 434:	5f72                	c.lwsp	t5,60(sp)
 436:	5f32                	c.lwsp	t5,44(sp)
 438:	6150                	c.flw	fa2,4(a0)
 43a:	5f72                	c.lwsp	t5,60(sp)
 43c:	6552                	c.flwsp	fa0,20(sp)
 43e:	0066                	c.slli	zero,0x19
 440:	495f6843          	fmadd.s	fa6,ft10,fs5,fs1,unknown
 444:	646e                	c.flwsp	fs0,216(sp)
 446:	7865                	c.lui	a6,0xffff9
 448:	4600                	c.lw	s0,8(a2)
 44a:	6e75                	c.lui	t3,0x1d
 44c:	00315f63          	bge	sp,gp,46a <__stack_size-0x1fffb96>
 450:	7546                	c.flwsp	fa0,112(sp)
 452:	636e                	c.flwsp	ft6,216(sp)
 454:	325f 4600 6e75      	0x6e754600325f
 45a:	00335f63          	bge	t1,gp,478 <__stack_size-0x1fffb88>
 45e:	6449                	c.lui	s0,0x12
 460:	6e65                	c.lui	t3,0x19
 462:	5f74                	c.lw	a3,124(a4)
 464:	0031                	c.addi	zero,12
 466:	5f5f 7562 6c69      	0x6c6975625f5f
 46c:	6974                	c.flw	fa3,84(a0)
 46e:	5f6e                	c.lwsp	t5,248(sp)
 470:	6176                	c.flwsp	ft2,92(sp)
 472:	6c5f 7369 0074      	0x7473696c5f
 478:	5f5f 6475 7669      	0x766964755f5f
 47e:	00336973          	csrrsi	s2,fcsr,6
 482:	6f6c                	c.flw	fa1,92(a4)
 484:	676e                	c.flwsp	fa4,216(sp)
 486:	7520                	c.flw	fs0,104(a0)
 488:	736e                	c.flwsp	ft6,248(sp)
 48a:	6769                	c.lui	a4,0x1a
 48c:	656e                	c.flwsp	fa0,216(sp)
 48e:	2064                	c.fld	fs1,192(s0)
 490:	6e69                	c.lui	t3,0x1a
 492:	0074                	c.addi4spn	a3,sp,12
 494:	5f5f 6d75 646f      	0x646f6d755f5f
 49a:	00336973          	csrrsi	s2,fcsr,6
 49e:	7074756f          	jal	a0,483a4 <__stack_size-0x1fb7c5c>
 4a2:	7274                	c.flw	fa3,100(a2)
 4a4:	7800                	c.flw	fs0,48(s0)
 4a6:	7076                	c.flwsp	ft0,124(sp)
 4a8:	6972                	c.flwsp	fs2,28(sp)
 4aa:	746e                	c.flwsp	fs0,248(sp)
 4ac:	0066                	c.slli	zero,0x19
 4ae:	5f5f 6e67 6375      	0x63756e675f5f
 4b4:	765f 5f61 696c      	0x696c5f61765f
 4ba:	78007473          	csrrci	s0,0x780,0
 4be:	7566                	c.flwsp	fa0,120(sp)
 4c0:	636e                	c.flwsp	ft6,216(sp)
 4c2:	6f5f 7475 7800      	0x780074756f5f
 4c8:	7570                	c.flw	fa2,108(a0)
 4ca:	7374                	c.flw	fa3,100(a4)
 4cc:	7800                	c.flw	fs0,48(s0)
 4ce:	7570                	c.flw	fa2,108(a0)
 4d0:	6374                	c.flw	fa3,68(a4)
 4d2:	6400                	c.flw	fs0,8(s0)
 4d4:	7669                	c.lui	a2,0xffffa
 4d6:	532e                	c.lwsp	t1,232(sp)
 4d8:	2f00                	c.fld	fs0,24(a4)
 4da:	6f68                	c.flw	fa0,92(a4)
 4dc:	656d                	c.lui	a0,0x1b
 4de:	6e696a2f          	0x6e696a2f
 4e2:	6570                	c.flw	fa2,76(a0)
 4e4:	676e                	c.flwsp	fa4,216(sp)
 4e6:	2f696577          	0x2f696577
 4ea:	6972                	c.flwsp	fs2,28(sp)
 4ec:	2d766373          	csrrsi	t1,0x2d7,12
 4f0:	2d756e67          	0x2d756e67
 4f4:	6f74                	c.flw	fa3,92(a4)
 4f6:	68636c6f          	jal	s8,36b7c <__stack_size-0x1fc9484>
 4fa:	6961                	c.lui	s2,0x18
 4fc:	2f6e                	c.fldsp	ft10,216(sp)
 4fe:	7562                	c.flwsp	fa0,56(sp)
 500:	6c69                	c.lui	s8,0x1a
 502:	2d64                	c.fld	fs1,216(a0)
 504:	2d636367          	0x2d636367
 508:	656e                	c.flwsp	fa0,216(sp)
 50a:	62696c77          	0x62696c77
 50e:	732d                	c.lui	t1,0xfffeb
 510:	6174                	c.flw	fa3,68(a0)
 512:	2f326567          	0x2f326567
 516:	6972                	c.flwsp	fs2,28(sp)
 518:	33766373          	csrrsi	t1,mhpmevent23,12
 51c:	2d32                	c.fldsp	fs10,264(sp)
 51e:	6e75                	c.lui	t3,0x1d
 520:	776f6e6b          	0x776f6e6b
 524:	2d6e                	c.fldsp	fs10,216(sp)
 526:	6c65                	c.lui	s8,0x19
 528:	2f66                	c.fldsp	ft10,88(sp)
 52a:	696c                	c.flw	fa1,84(a0)
 52c:	6762                	c.flwsp	fa4,24(sp)
 52e:	          	bltu	zero,zero,534 <__stack_size-0x1fffacc>

Disassembly of section .debug_loclists:

00000000 <.debug_loclists>:
       0:	0930                	c.addi4spn	a2,sp,152
       2:	0000                	c.unimp
       4:	0005                	c.addi	zero,1
       6:	0004                	0x4
       8:	0000                	c.unimp
       a:	0000                	c.unimp
       c:	0001d007          	0x1d007
      10:	7480                	c.flw	fs0,40(s1)
      12:	0002                	c.slli64	zero
      14:	0280                	c.addi4spn	s0,sp,320
      16:	9f32                	c.add	t5,a2
      18:	00027407          	0x27407
      1c:	5c80                	c.lw	s0,56(s1)
      1e:	02800003          	lb	zero,40(zero) # 28 <__stack_size-0x1ffffd8>
      22:	70079f33          	0x70079f33
      26:	90800003          	lb	zero,-1784(zero) # fffff908 <_sp+0x77fff908>
      2a:	01800003          	lb	zero,24(zero) # 18 <__stack_size-0x1ffffe8>
      2e:	075a                	c.slli	a4,0x16
      30:	0390                	c.addi4spn	a2,sp,448
      32:	8000                	0x8000
      34:	039c                	c.addi4spn	a5,sp,448
      36:	8000                	0x8000
      38:	3302                	c.fldsp	ft6,32(sp)
      3a:	079f 039c 8000      	0x8000039c079f
      40:	03a4                	c.addi4spn	s1,sp,456
      42:	8000                	0x8000
      44:	3202                	c.fldsp	ft4,32(sp)
      46:	079f 03a4 8000      	0x800003a4079f
      4c:	03c0                	c.addi4spn	s0,sp,452
      4e:	8000                	0x8000
      50:	3302                	c.fldsp	ft6,32(sp)
      52:	079f 03c0 8000      	0x800003c0079f
      58:	03dc                	c.addi4spn	a5,sp,452
      5a:	8000                	0x8000
      5c:	5a01                	c.li	s4,-32
      5e:	0003dc07          	0x3dc07
      62:	e080                	c.fsw	fs0,0(s1)
      64:	01800003          	lb	zero,24(zero) # 18 <__stack_size-0x1ffffe8>
      68:	075f 03e0 8000      	0x800003e0075f
      6e:	03e8                	c.addi4spn	a0,sp,460
      70:	8000                	0x8000
      72:	5a01                	c.li	s4,-32
      74:	0003e807          	0x3e807
      78:	0c80                	c.addi4spn	s0,sp,592
      7a:	0004                	0x4
      7c:	0380                	c.addi4spn	s0,sp,448
      7e:	d891                	c.beqz	s1,ffffff92 <_sp+0x77ffff92>
      80:	077e                	c.slli	a4,0x1f
      82:	0830                	c.addi4spn	a2,sp,24
      84:	8000                	0x8000
      86:	0838                	c.addi4spn	a4,sp,24
      88:	8000                	0x8000
      8a:	5a01                	c.li	s4,-32
      8c:	0700                	c.addi4spn	s0,sp,896
      8e:	01d0                	c.addi4spn	a2,sp,196
      90:	8000                	0x8000
      92:	029c                	c.addi4spn	a5,sp,320
      94:	8000                	0x8000
      96:	3302                	c.fldsp	ft6,32(sp)
      98:	079f 029c 8000      	0x8000029c079f
      9e:	02b0                	c.addi4spn	a2,sp,328
      a0:	8000                	0x8000
      a2:	5b01                	c.li	s6,-32
      a4:	00030007          	0x30007
      a8:	1880                	c.addi4spn	s0,sp,112
      aa:	01800003          	lb	zero,24(zero) # 18 <__stack_size-0x1ffffe8>
      ae:	03180763          	beq	a6,a7,dc <__stack_size-0x1ffff24>
      b2:	8000                	0x8000
      b4:	0340                	c.addi4spn	s0,sp,388
      b6:	8000                	0x8000
      b8:	5b01                	c.li	s6,-32
      ba:	00039007          	0x39007
      be:	9c80                	0x9c80
      c0:	01800003          	lb	zero,24(zero) # 18 <__stack_size-0x1ffffe8>
      c4:	039c075b          	0x39c075b
      c8:	8000                	0x8000
      ca:	03b8                	c.addi4spn	a4,sp,456
      cc:	8000                	0x8000
      ce:	3302                	c.fldsp	ft6,32(sp)
      d0:	079f 03b8 8000      	0x800003b8079f
      d6:	03c0                	c.addi4spn	s0,sp,452
      d8:	8000                	0x8000
      da:	5b01                	c.li	s6,-32
      dc:	0003dc07          	0x3dc07
      e0:	0880                	c.addi4spn	s0,sp,80
      e2:	0008                	0x8
      e4:	0180                	c.addi4spn	s0,sp,192
      e6:	0764                	c.addi4spn	s1,sp,908
      e8:	0830                	c.addi4spn	a2,sp,24
      ea:	8000                	0x8000
      ec:	0838                	c.addi4spn	a4,sp,24
      ee:	8000                	0x8000
      f0:	6401                	0x6401
      f2:	0700                	c.addi4spn	s0,sp,896
      f4:	0194                	c.addi4spn	a3,sp,192
      f6:	8000                	0x8000
      f8:	07ec                	c.addi4spn	a1,sp,972
      fa:	8000                	0x8000
      fc:	3702                	c.fldsp	fa4,32(sp)
      fe:	079f 0830 8000      	0x80000830079f
     104:	0838                	c.addi4spn	a4,sp,24
     106:	8000                	0x8000
     108:	3702                	c.fldsp	fa4,32(sp)
     10a:	009f 7807 0002      	0x27807009f
     110:	9c80                	0x9c80
     112:	0002                	c.slli64	zero
     114:	0380                	c.addi4spn	s0,sp,448
     116:	4108                	c.lw	a0,0(a0)
     118:	079f 02a4 8000      	0x800002a4079f
     11e:	02b0                	c.addi4spn	a2,sp,328
     120:	8000                	0x8000
     122:	5f01                	c.li	t5,-32
     124:	00031407          	0x31407
     128:	2880                	c.fld	fs0,16(s1)
     12a:	01800003          	lb	zero,24(zero) # 18 <__stack_size-0x1ffffe8>
     12e:	075f 0390 8000      	0x80000390075f
     134:	039c                	c.addi4spn	a5,sp,448
     136:	8000                	0x8000
     138:	5f01                	c.li	t5,-32
     13a:	0003a407          	flw	fs0,0(t2)
     13e:	b880                	c.fsd	fs0,48(s1)
     140:	03800003          	lb	zero,56(zero) # 38 <__stack_size-0x1ffffc8>
     144:	4108                	c.lw	a0,0(a0)
     146:	079f 03b8 8000      	0x800003b8079f
     14c:	03c0                	c.addi4spn	s0,sp,452
     14e:	8000                	0x8000
     150:	5f01                	c.li	t5,-32
     152:	0700                	c.addi4spn	s0,sp,896
     154:	021c                	c.addi4spn	a5,sp,256
     156:	8000                	0x8000
     158:	029c                	c.addi4spn	a5,sp,320
     15a:	8000                	0x8000
     15c:	3102                	c.fldsp	ft2,32(sp)
     15e:	079f 029c 8000      	0x8000029c079f
     164:	02b0                	c.addi4spn	a2,sp,328
     166:	8000                	0x8000
     168:	5901                	c.li	s2,-32
     16a:	0002b007          	fld	ft0,0(t0)
     16e:	1480                	c.addi4spn	s0,sp,608
     170:	02800003          	lb	zero,40(zero) # 28 <__stack_size-0x1ffffd8>
     174:	9f30                	0x9f30
     176:	00031407          	0x31407
     17a:	5c80                	c.lw	s0,56(s1)
     17c:	01800003          	lb	zero,24(zero) # 18 <__stack_size-0x1ffffe8>
     180:	0759                	c.addi	a4,22
     182:	0374                	c.addi4spn	a3,sp,396
     184:	8000                	0x8000
     186:	038c                	c.addi4spn	a1,sp,448
     188:	8000                	0x8000
     18a:	5901                	c.li	s2,-32
     18c:	00039007          	0x39007
     190:	9c80                	0x9c80
     192:	01800003          	lb	zero,24(zero) # 18 <__stack_size-0x1ffffe8>
     196:	0759                	c.addi	a4,22
     198:	039c                	c.addi4spn	a5,sp,448
     19a:	8000                	0x8000
     19c:	03b8                	c.addi4spn	a4,sp,456
     19e:	8000                	0x8000
     1a0:	3102                	c.fldsp	ft2,32(sp)
     1a2:	079f 03b8 8000      	0x800003b8079f
     1a8:	07ec                	c.addi4spn	a1,sp,972
     1aa:	8000                	0x8000
     1ac:	5901                	c.li	s2,-32
     1ae:	00083007          	fld	ft0,0(a6) # ffff9000 <_sp+0x77ff9000>
     1b2:	3880                	c.fld	fs0,48(s1)
     1b4:	0008                	0x8
     1b6:	0180                	c.addi4spn	s0,sp,192
     1b8:	0059                	c.addi	zero,22
     1ba:	0001c007          	flq	ft0,0(gp) # 1000 <__stack_size-0x1fff000>
     1be:	f080                	c.fsw	fs0,32(s1)
     1c0:	01800003          	lb	zero,24(zero) # 18 <__stack_size-0x1ffffe8>
     1c4:	08300763          	beq	zero,gp,252 <__stack_size-0x1fffdae>
     1c8:	8000                	0x8000
     1ca:	0834                	c.addi4spn	a3,sp,24
     1cc:	8000                	0x8000
     1ce:	6301                	0x6301
     1d0:	0700                	c.addi4spn	s0,sp,896
     1d2:	05dc                	c.addi4spn	a5,sp,708
     1d4:	8000                	0x8000
     1d6:	05e8                	c.addi4spn	a0,sp,716
     1d8:	8000                	0x8000
     1da:	7a08                	c.flw	fa0,48(a2)
     1dc:	3000                	c.fld	fs0,32(s0)
     1de:	0829                	c.addi	a6,10
     1e0:	1aff                	0x1aff
     1e2:	009f d807 0006      	0x6d807009f
     1e8:	e480                	c.fsw	fs0,8(s1)
     1ea:	0006                	c.slli	zero,0x1
     1ec:	0880                	c.addi4spn	s0,sp,80
     1ee:	007a                	c.slli	zero,0x1e
     1f0:	2930                	c.fld	fa2,80(a0)
     1f2:	ff08                	c.fsw	fa0,56(a4)
     1f4:	9f1a                	c.add	t5,t1
     1f6:	0700                	c.addi4spn	s0,sp,896
     1f8:	0794                	c.addi4spn	a3,sp,960
     1fa:	8000                	0x8000
     1fc:	079c                	c.addi4spn	a5,sp,960
     1fe:	8000                	0x8000
     200:	7a08                	c.flw	fa0,48(a2)
     202:	3000                	c.fld	fs0,32(s0)
     204:	0829                	c.addi	a6,10
     206:	1aff                	0x1aff
     208:	009f c807 0007      	0x7c807009f
     20e:	d080                	c.sw	s0,32(s1)
     210:	08800007          	0x8800007
     214:	007a                	c.slli	zero,0x1e
     216:	2930                	c.fld	fa2,80(a0)
     218:	ff08                	c.fsw	fa0,56(a4)
     21a:	9f1a                	c.add	t5,t1
     21c:	0700                	c.addi4spn	s0,sp,896
     21e:	001c                	0x1c
     220:	8000                	0x8000
     222:	0088                	c.addi4spn	a0,sp,64
     224:	8000                	0x8000
     226:	9f300803          	lb	a6,-1549(zero) # fffff9f3 <_sp+0x77fff9f3>
     22a:	0700                	c.addi4spn	s0,sp,896
     22c:	0078                	c.addi4spn	a4,sp,12
     22e:	8000                	0x8000
     230:	00b0                	c.addi4spn	a2,sp,72
     232:	8000                	0x8000
     234:	5f01                	c.li	t5,-32
     236:	0000b007          	fld	ft0,0(ra)
     23a:	db80                	c.sw	s0,48(a5)
     23c:	0000                	c.unimp
     23e:	0580                	c.addi4spn	s0,sp,704
     240:	00463003          	0x463003
     244:	0080                	c.addi4spn	s0,sp,64
     246:	00008807          	0x8807
     24a:	d880                	c.sw	s0,48(s1)
     24c:	0000                	c.unimp
     24e:	0380                	c.addi4spn	s0,sp,448
     250:	3008                	c.fld	fa0,32(s0)
     252:	009f a007 0000      	0xa007009f
     258:	c080                	c.sw	s0,0(s1)
     25a:	0001                	c.addi	zero,0
     25c:	0180                	c.addi4spn	s0,sp,192
     25e:	0064                	c.addi4spn	s1,sp,12
     260:	0001c807          	flq	fa6,0(gp)
     264:	d080                	c.sw	s0,32(s1)
     266:	0001                	c.addi	zero,0
     268:	0280                	c.addi4spn	s0,sp,320
     26a:	9f31                	0x9f31
     26c:	0700                	c.addi4spn	s0,sp,896
     26e:	021c                	c.addi4spn	a5,sp,256
     270:	8000                	0x8000
     272:	0230                	c.addi4spn	a2,sp,264
     274:	8000                	0x8000
     276:	9104                	0x9104
     278:	7fa0                	c.flw	fs0,120(a5)
     27a:	079f 0230 8000      	0x80000230079f
     280:	80000237          	lui	tp,0x80000
     284:	5b01                	c.li	s6,-32
     286:	00023707          	fld	fa4,0(tp) # 80000000 <_sp+0xf8000000>
     28a:	3880                	c.fld	fs0,48(s1)
     28c:	0002                	c.slli64	zero
     28e:	0480                	c.addi4spn	s0,sp,576
     290:	a091                	c.j	2d4 <__stack_size-0x1fffd2c>
     292:	9f7f                	0x9f7f
     294:	00039c07          	0x39c07
     298:	a480                	c.fsd	fs0,8(s1)
     29a:	04800003          	lb	zero,72(zero) # 48 <__stack_size-0x1ffffb8>
     29e:	a091                	c.j	2e2 <__stack_size-0x1fffd1e>
     2a0:	9f7f                	0x9f7f
     2a2:	0700                	c.addi4spn	s0,sp,896
     2a4:	021c                	c.addi4spn	a5,sp,256
     2a6:	8000                	0x8000
     2a8:	0234                	c.addi4spn	a3,sp,264
     2aa:	8000                	0x8000
     2ac:	9104                	0x9104
     2ae:	7f80                	c.flw	fs0,56(a5)
     2b0:	079f 0234 8000      	0x80000234079f
     2b6:	80000237          	lui	tp,0x80000
     2ba:	5a01                	c.li	s4,-32
     2bc:	00023707          	fld	fa4,0(tp) # 80000000 <_sp+0xf8000000>
     2c0:	3880                	c.fld	fs0,48(s1)
     2c2:	0002                	c.slli64	zero
     2c4:	0480                	c.addi4spn	s0,sp,576
     2c6:	8091                	c.srli	s1,0x4
     2c8:	9f7f                	0x9f7f
     2ca:	00039c07          	0x39c07
     2ce:	a480                	c.fsd	fs0,8(s1)
     2d0:	04800003          	lb	zero,72(zero) # 48 <__stack_size-0x1ffffb8>
     2d4:	8091                	c.srli	s1,0x4
     2d6:	9f7f                	0x9f7f
     2d8:	0700                	c.addi4spn	s0,sp,896
     2da:	021c                	c.addi4spn	a5,sp,256
     2dc:	8000                	0x8000
     2de:	022c                	c.addi4spn	a1,sp,264
     2e0:	8000                	0x8000
     2e2:	3202                	c.fldsp	ft4,32(sp)
     2e4:	079f 022c 8000      	0x8000022c079f
     2ea:	0238                	c.addi4spn	a4,sp,264
     2ec:	8000                	0x8000
     2ee:	3302                	c.fldsp	ft6,32(sp)
     2f0:	079f 039c 8000      	0x8000039c079f
     2f6:	03a4                	c.addi4spn	s1,sp,456
     2f8:	8000                	0x8000
     2fa:	3202                	c.fldsp	ft4,32(sp)
     2fc:	009f 2007 0002      	0x22007009f
     302:	2c80                	c.fld	fs0,24(s1)
     304:	0002                	c.slli64	zero
     306:	0380                	c.addi4spn	s0,sp,448
     308:	a391                	c.j	84c <__stack_size-0x1fff7b4>
     30a:	077f                	0x77f
     30c:	039c                	c.addi4spn	a5,sp,448
     30e:	8000                	0x8000
     310:	03a4                	c.addi4spn	s1,sp,456
     312:	8000                	0x8000
     314:	7fa39103          	lh	sp,2042(t2)
     318:	0700                	c.addi4spn	s0,sp,896
     31a:	0220                	c.addi4spn	s0,sp,264
     31c:	8000                	0x8000
     31e:	022c                	c.addi4spn	a1,sp,264
     320:	8000                	0x8000
     322:	7f829103          	lh	sp,2040(t0)
     326:	00039c07          	0x39c07
     32a:	a480                	c.fsd	fs0,8(s1)
     32c:	03800003          	lb	zero,56(zero) # 38 <__stack_size-0x1ffffc8>
     330:	8291                	c.srli	a3,0x4
     332:	007f                	0x7f
     334:	00022007          	flw	ft0,0(tp) # 0 <__stack_size-0x2000000>
     338:	3780                	c.fld	fs0,40(a5)
     33a:	0002                	c.slli64	zero
     33c:	0380                	c.addi4spn	s0,sp,448
     33e:	8291                	c.srli	a3,0x4
     340:	077f                	0x77f
     342:	039c                	c.addi4spn	a5,sp,448
     344:	8000                	0x8000
     346:	03a4                	c.addi4spn	s1,sp,456
     348:	8000                	0x8000
     34a:	7f829103          	lh	sp,2040(t0)
     34e:	0700                	c.addi4spn	s0,sp,896
     350:	02a4                	c.addi4spn	s1,sp,328
     352:	8000                	0x8000
     354:	02b0                	c.addi4spn	a2,sp,328
     356:	8000                	0x8000
     358:	9f430803          	lb	a6,-1548(t1) # fffea9f4 <_sp+0x77fea9f4>
     35c:	00031407          	0x31407
     360:	5c80                	c.lw	s0,56(s1)
     362:	03800003          	lb	zero,56(zero) # 38 <__stack_size-0x1ffffc8>
     366:	4308                	c.lw	a0,0(a4)
     368:	079f 0390 8000      	0x80000390079f
     36e:	039c                	c.addi4spn	a5,sp,448
     370:	8000                	0x8000
     372:	9f430803          	lb	a6,-1548(t1)
     376:	0003b807          	fld	fa6,0(t2)
     37a:	c080                	c.sw	s0,0(s1)
     37c:	03800003          	lb	zero,56(zero) # 38 <__stack_size-0x1ffffc8>
     380:	4308                	c.lw	a0,0(a4)
     382:	009f a407 0002      	0x2a407009f
     388:	b080                	c.fsd	fs0,32(s1)
     38a:	0002                	c.slli64	zero
     38c:	0180                	c.addi4spn	s0,sp,192
     38e:	075f 0314 8000      	0x80000314075f
     394:	0328                	c.addi4spn	a0,sp,392
     396:	8000                	0x8000
     398:	5f01                	c.li	t5,-32
     39a:	00039007          	0x39007
     39e:	9c80                	0x9c80
     3a0:	01800003          	lb	zero,24(zero) # 18 <__stack_size-0x1ffffe8>
     3a4:	075f 03b8 8000      	0x800003b8075f
     3aa:	03c0                	c.addi4spn	s0,sp,452
     3ac:	8000                	0x8000
     3ae:	5f01                	c.li	t5,-32
     3b0:	0700                	c.addi4spn	s0,sp,896
     3b2:	035c                	c.addi4spn	a5,sp,388
     3b4:	8000                	0x8000
     3b6:	0370                	c.addi4spn	a2,sp,396
     3b8:	8000                	0x8000
     3ba:	a006                	c.fsdsp	ft1,0(sp)
     3bc:	03a8                	c.addi4spn	a0,sp,456
     3be:	0000                	c.unimp
     3c0:	0000                	c.unimp
     3c2:	00036407          	0x36407
     3c6:	6c80                	c.flw	fs0,24(s1)
     3c8:	03800003          	lb	zero,56(zero) # 38 <__stack_size-0x1ffffc8>
     3cc:	097a                	c.slli	s2,0x1e
     3ce:	079f 036c 8000      	0x8000036c079f
     3d4:	0370                	c.addi4spn	a2,sp,396
     3d6:	8000                	0x8000
     3d8:	5a01                	c.li	s4,-32
     3da:	0700                	c.addi4spn	s0,sp,896
     3dc:	0370                	c.addi4spn	a2,sp,396
     3de:	8000                	0x8000
     3e0:	0390                	c.addi4spn	a2,sp,448
     3e2:	8000                	0x8000
     3e4:	3002                	c.fldsp	ft0,32(sp)
     3e6:	079f 03c0 8000      	0x800003c0079f
     3ec:	0838                	c.addi4spn	a4,sp,24
     3ee:	8000                	0x8000
     3f0:	3002                	c.fldsp	ft0,32(sp)
     3f2:	009f dc07 0003      	0x3dc07009f
     3f8:	f480                	c.fsw	fs0,40(s1)
     3fa:	08800003          	lb	zero,136(zero) # 88 <__stack_size-0x1ffff78>
     3fe:	2935007b          	0x2935007b
     402:	ff08                	c.fsw	fa0,56(a4)
     404:	9f1a                	c.add	t5,t1
     406:	00083007          	fld	ft0,0(a6)
     40a:	3880                	c.fld	fs0,48(s1)
     40c:	0008                	0x8
     40e:	0880                	c.addi4spn	s0,sp,80
     410:	2935007b          	0x2935007b
     414:	ff08                	c.fsw	fa0,56(a4)
     416:	9f1a                	c.add	t5,t1
     418:	0700                	c.addi4spn	s0,sp,896
     41a:	0410                	c.addi4spn	a2,sp,512
     41c:	8000                	0x8000
     41e:	0428                	c.addi4spn	a0,sp,520
     420:	8000                	0x8000
     422:	7b08                	c.flw	fa0,48(a4)
     424:	3100                	c.fld	fs0,32(a0)
     426:	0829                	c.addi	a6,10
     428:	1aff                	0x1aff
     42a:	009f 4407 0004      	0x44407009f
     430:	5c80                	c.lw	s0,56(s1)
     432:	0004                	0x4
     434:	0c80                	c.addi4spn	s0,sp,592
     436:	ff08007b          	0xff08007b
     43a:	081a                	c.slli	a6,0x6
     43c:	2941                	c.jal	8cc <__stack_size-0x1fff734>
     43e:	ff08                	c.fsw	fa0,56(a4)
     440:	9f1a                	c.add	t5,t1
     442:	0700                	c.addi4spn	s0,sp,896
     444:	0478                	c.addi4spn	a4,sp,524
     446:	8000                	0x8000
     448:	0490                	c.addi4spn	a2,sp,576
     44a:	8000                	0x8000
     44c:	7b0c                	c.flw	fa1,48(a4)
     44e:	0800                	c.addi4spn	s0,sp,16
     450:	1aff                	0x1aff
     452:	4208                	c.lw	a0,0(a2)
     454:	0829                	c.addi	a6,10
     456:	1aff                	0x1aff
     458:	009f ac07 0004      	0x4ac07009f
     45e:	c480                	c.sw	s0,8(s1)
     460:	0004                	0x4
     462:	0880                	c.addi4spn	s0,sp,80
     464:	2937007b          	0x2937007b
     468:	ff08                	c.fsw	fa0,56(a4)
     46a:	9f1a                	c.add	t5,t1
     46c:	0700                	c.addi4spn	s0,sp,896
     46e:	04e0                	c.addi4spn	s0,sp,588
     470:	8000                	0x8000
     472:	04f8                	c.addi4spn	a4,sp,588
     474:	8000                	0x8000
     476:	7b0a                	c.flwsp	fs6,160(sp)
     478:	0a00                	c.addi4spn	s0,sp,272
     47a:	03f2                	c.slli	t2,0x1c
     47c:	0829                	c.addi	a6,10
     47e:	1aff                	0x1aff
     480:	009f 1807 0005      	0x51807009f
     486:	2c80                	c.fld	fs0,24(s1)
     488:	0005                	c.addi	zero,1
     48a:	0880                	c.addi4spn	s0,sp,80
     48c:	2930007b          	0x2930007b
     490:	ff08                	c.fsw	fa0,56(a4)
     492:	9f1a                	c.add	t5,t1
     494:	0700                	c.addi4spn	s0,sp,896
     496:	0554                	c.addi4spn	a3,sp,644
     498:	8000                	0x8000
     49a:	0568                	c.addi4spn	a0,sp,652
     49c:	8000                	0x8000
     49e:	7b08                	c.flw	fa0,48(a4)
     4a0:	3200                	c.fld	fs0,32(a2)
     4a2:	0829                	c.addi	a6,10
     4a4:	1aff                	0x1aff
     4a6:	009f 9007 0005      	0x59007009f
     4ac:	a480                	c.fsd	fs0,8(s1)
     4ae:	0005                	c.addi	zero,1
     4b0:	0880                	c.addi4spn	s0,sp,80
     4b2:	2941007b          	0x2941007b
     4b6:	ff08                	c.fsw	fa0,56(a4)
     4b8:	9f1a                	c.add	t5,t1
     4ba:	0700                	c.addi4spn	s0,sp,896
     4bc:	0614                	c.addi4spn	a3,sp,768
     4be:	8000                	0x8000
     4c0:	0628                	c.addi4spn	a0,sp,776
     4c2:	8000                	0x8000
     4c4:	7b08                	c.flw	fa0,48(a4)
     4c6:	3000                	c.fld	fs0,32(s0)
     4c8:	0829                	c.addi	a6,10
     4ca:	1aff                	0x1aff
     4cc:	009f 5007 0006      	0x65007009f
     4d2:	6480                	c.flw	fs0,8(s1)
     4d4:	0006                	c.slli	zero,0x1
     4d6:	0880                	c.addi4spn	s0,sp,80
     4d8:	2931007b          	0x2931007b
     4dc:	ff08                	c.fsw	fa0,56(a4)
     4de:	9f1a                	c.add	t5,t1
     4e0:	0700                	c.addi4spn	s0,sp,896
     4e2:	068c                	c.addi4spn	a1,sp,832
     4e4:	8000                	0x8000
     4e6:	06a0                	c.addi4spn	s0,sp,840
     4e8:	8000                	0x8000
     4ea:	7b08                	c.flw	fa0,48(a4)
     4ec:	4200                	c.lw	s0,0(a2)
     4ee:	0829                	c.addi	a6,10
     4f0:	1aff                	0x1aff
     4f2:	009f 0407 0007      	0x70407009f
     4f8:	1c80                	c.addi4spn	s0,sp,624
     4fa:	08800007          	0x8800007
     4fe:	007f                	0x7f
     500:	2935                	c.jal	93c <__stack_size-0x1fff6c4>
     502:	ff08                	c.fsw	fa0,56(a4)
     504:	9f1a                	c.add	t5,t1
     506:	0700                	c.addi4spn	s0,sp,896
     508:	0730                	c.addi4spn	a2,sp,904
     50a:	8000                	0x8000
     50c:	0748                	c.addi4spn	a0,sp,900
     50e:	8000                	0x8000
     510:	8408                	0x8408
     512:	3d00                	c.fld	fs0,56(a0)
     514:	0829                	c.addi	a6,10
     516:	1aff                	0x1aff
     518:	009f 5c07 0007      	0x75c07009f
     51e:	7080                	c.flw	fs0,32(s1)
     520:	08800007          	0x8800007
     524:	0079                	c.addi	zero,30
     526:	2931                	c.jal	942 <__stack_size-0x1fff6be>
     528:	ff08                	c.fsw	fa0,56(a4)
     52a:	9f1a                	c.add	t5,t1
     52c:	0700                	c.addi4spn	s0,sp,896
     52e:	0930                	c.addi4spn	a2,sp,152
     530:	8000                	0x8000
     532:	0a58                	c.addi4spn	a4,sp,276
     534:	8000                	0x8000
     536:	5a01                	c.li	s4,-32
     538:	000a5807          	0xa5807
     53c:	8880                	0x8880
     53e:	000a                	c.slli	zero,0x2
     540:	0480                	c.addi4spn	s0,sp,576
     542:	9f5a01a3          	sb	s5,-1565(s4) # ffff99e3 <_sp+0x77ff99e3>
     546:	0700                	c.addi4spn	s0,sp,896
     548:	0948                	c.addi4spn	a0,sp,148
     54a:	8000                	0x8000
     54c:	09e8                	c.addi4spn	a0,sp,220
     54e:	8000                	0x8000
     550:	5801                	c.li	a6,-32
     552:	000a5407          	0xa5407
     556:	7c80                	c.flw	fs0,56(s1)
     558:	000a                	c.slli	zero,0x2
     55a:	0180                	c.addi4spn	s0,sp,192
     55c:	0058                	c.addi4spn	a4,sp,4
     55e:	0009d007          	0x9d007
     562:	d480                	c.sw	s0,40(s1)
     564:	0009                	c.addi	zero,2
     566:	0180                	c.addi4spn	s0,sp,192
     568:	0058                	c.addi4spn	a4,sp,4
     56a:	0009d007          	0x9d007
     56e:	d480                	c.sw	s0,40(s1)
     570:	0009                	c.addi	zero,2
     572:	0380                	c.addi4spn	s0,sp,448
     574:	0c7d                	c.addi	s8,31
     576:	009f d007 0009      	0x9d007009f
     57c:	d480                	c.sw	s0,40(s1)
     57e:	0009                	c.addi	zero,2
     580:	0580                	c.addi4spn	s0,sp,704
     582:	00462c03          	lw	s8,4(a2) # ffffa004 <_sp+0x77ffa004>
     586:	0080                	c.addi4spn	s0,sp,64
     588:	0009d007          	0x9d007
     58c:	d480                	c.sw	s0,40(s1)
     58e:	0009                	c.addi	zero,2
     590:	0280                	c.addi4spn	s0,sp,320
     592:	9f3a                	c.add	t5,a4
     594:	0700                	c.addi4spn	s0,sp,896
     596:	09d0                	c.addi4spn	a2,sp,212
     598:	8000                	0x8000
     59a:	09d4                	c.addi4spn	a3,sp,212
     59c:	8000                	0x8000
     59e:	3c02                	c.fldsp	fs8,32(sp)
     5a0:	009f 7007 000a      	0xa7007009f
     5a6:	7c80                	c.flw	fs0,56(s1)
     5a8:	000a                	c.slli	zero,0x2
     5aa:	0380                	c.addi4spn	s0,sp,448
     5ac:	0c78                	c.addi4spn	a4,sp,540
     5ae:	009f 4407 0008      	0x84407009f
     5b4:	4c80                	c.lw	s0,24(s1)
     5b6:	0008                	0x8
     5b8:	0680                	c.addi4spn	s0,sp,832
     5ba:	007a                	c.slli	zero,0x1e
     5bc:	2306                	c.fldsp	ft6,64(sp)
     5be:	9f0a                	c.add	t5,sp
     5c0:	00084c07          	flq	fs8,0(a6)
     5c4:	5c80                	c.lw	s0,56(s1)
     5c6:	0008                	0x8
     5c8:	0680                	c.addi4spn	s0,sp,832
     5ca:	007a                	c.slli	zero,0x1e
     5cc:	2306                	c.fldsp	ft6,64(sp)
     5ce:	9f09                	0x9f09
     5d0:	00085c07          	0x85c07
     5d4:	6080                	c.flw	fs0,0(s1)
     5d6:	0008                	0x8
     5d8:	0180                	c.addi4spn	s0,sp,192
     5da:	075f 0860 8000      	0x80000860075f
     5e0:	0864                	c.addi4spn	s1,sp,28
     5e2:	8000                	0x8000
     5e4:	7a06                	c.flwsp	fs4,96(sp)
     5e6:	0600                	c.addi4spn	s0,sp,768
     5e8:	009f0923          	sb	s1,18(t5) # fffe0012 <_sp+0x77fe0012>
     5ec:	00088007          	0x88007
     5f0:	9080                	0x9080
     5f2:	0008                	0x8
     5f4:	0980                	c.addi4spn	s0,sp,208
     5f6:	00463403          	0x463403
     5fa:	0680                	c.addi4spn	s0,sp,832
     5fc:	009f0c23          	sb	s1,24(t5)
     600:	00088007          	0x88007
     604:	9080                	0x9080
     606:	0008                	0x8
     608:	0580                	c.addi4spn	s0,sp,704
     60a:	00462c03          	lw	s8,4(a2)
     60e:	0080                	c.addi4spn	s0,sp,64
     610:	00088007          	0x88007
     614:	9080                	0x9080
     616:	0008                	0x8
     618:	0280                	c.addi4spn	s0,sp,320
     61a:	9f3a                	c.add	t5,a4
     61c:	0700                	c.addi4spn	s0,sp,896
     61e:	0880                	c.addi4spn	s0,sp,80
     620:	8000                	0x8000
     622:	0890                	c.addi4spn	a2,sp,80
     624:	8000                	0x8000
     626:	3c02                	c.fldsp	fs8,32(sp)
     628:	009f dc07 0008      	0x8dc07009f
     62e:	e480                	c.fsw	fs0,8(s1)
     630:	0008                	0x8
     632:	0180                	c.addi4spn	s0,sp,192
     634:	005a                	c.slli	zero,0x16
     636:	00090807          	0x90807
     63a:	1880                	c.addi4spn	s0,sp,112
     63c:	0009                	c.addi	zero,2
     63e:	0280                	c.addi4spn	s0,sp,320
     640:	9f31                	0x9f31
     642:	0700                	c.addi4spn	s0,sp,896
     644:	0908                	c.addi4spn	a0,sp,144
     646:	8000                	0x8000
     648:	0918                	c.addi4spn	a4,sp,144
     64a:	8000                	0x8000
     64c:	5b01                	c.li	s6,-32
     64e:	0700                	c.addi4spn	s0,sp,896
     650:	0a88                	c.addi4spn	a0,sp,336
     652:	8000                	0x8000
     654:	0a8c                	c.addi4spn	a1,sp,336
     656:	8000                	0x8000
     658:	5a01                	c.li	s4,-32
     65a:	000a8c07          	0xa8c07
     65e:	9080                	0x9080
     660:	000a                	c.slli	zero,0x2
     662:	0380                	c.addi4spn	s0,sp,448
     664:	7e7a                	c.flwsp	ft8,188(sp)
     666:	079f 0a90 8000      	0x80000a90079f
     66c:	0a98                	c.addi4spn	a4,sp,336
     66e:	8000                	0x8000
     670:	a304                	c.fsd	fs1,0(a4)
     672:	5a01                	c.li	s4,-32
     674:	009f 8807 000a      	0xa8807009f
     67a:	8c80                	0x8c80
     67c:	000a                	c.slli	zero,0x2
     67e:	0380                	c.addi4spn	s0,sp,448
     680:	027a                	c.slli	tp,0x1e
     682:	079f 0a8c 8000      	0x80000a8c079f
     688:	0a90                	c.addi4spn	a2,sp,336
     68a:	8000                	0x8000
     68c:	5a01                	c.li	s4,-32
     68e:	000a9007          	0xa9007
     692:	9880                	0x9880
     694:	000a                	c.slli	zero,0x2
     696:	0680                	c.addi4spn	s0,sp,832
     698:	235a01a3          	sb	s5,547(s4)
     69c:	9f02                	c.jalr	t5
     69e:	0700                	c.addi4spn	s0,sp,896
     6a0:	0a98                	c.addi4spn	a4,sp,336
     6a2:	8000                	0x8000
     6a4:	0abc                	c.addi4spn	a5,sp,344
     6a6:	8000                	0x8000
     6a8:	5a01                	c.li	s4,-32
     6aa:	000abc07          	fld	fs8,0(s5) # 5a13fc <__stack_size-0x1a5ec04>
     6ae:	0c80                	c.addi4spn	s0,sp,592
     6b0:	0480000b          	0x480000b
     6b4:	9f5a01a3          	sb	s5,-1565(s4)
     6b8:	0700                	c.addi4spn	s0,sp,896
     6ba:	0a98                	c.addi4spn	a4,sp,336
     6bc:	8000                	0x8000
     6be:	0aec                	c.addi4spn	a1,sp,348
     6c0:	8000                	0x8000
     6c2:	5b01                	c.li	s6,-32
     6c4:	000aec07          	0xaec07
     6c8:	0c80                	c.addi4spn	s0,sp,592
     6ca:	0480000b          	0x480000b
     6ce:	9f5b01a3          	sb	s5,-1565(s6)
     6d2:	0700                	c.addi4spn	s0,sp,896
     6d4:	0a98                	c.addi4spn	a4,sp,336
     6d6:	8000                	0x8000
     6d8:	0ab8                	c.addi4spn	a4,sp,344
     6da:	8000                	0x8000
     6dc:	5c01                	c.li	s8,-32
     6de:	000ab807          	fld	fa6,0(s5)
     6e2:	e080                	c.fsw	fs0,0(s1)
     6e4:	000a                	c.slli	zero,0x2
     6e6:	0380                	c.addi4spn	s0,sp,448
     6e8:	7b7e                	c.flwsp	fs6,252(sp)
     6ea:	079f 0ae0 8000      	0x80000ae0079f
     6f0:	0afc                	c.addi4spn	a5,sp,348
     6f2:	8000                	0x8000
     6f4:	7d06                	c.flwsp	fs10,96(sp)
     6f6:	0614                	c.addi4spn	a3,sp,768
     6f8:	1c35                	c.addi	s8,-19
     6fa:	079f 0afc 8000      	0x80000afc079f
     700:	0b0c                	c.addi4spn	a1,sp,400
     702:	8000                	0x8000
     704:	a304                	c.fsd	fs1,0(a4)
     706:	5c01                	c.li	s8,-32
     708:	009f 9807 000a      	0xa9807009f
     70e:	d080                	c.sw	s0,32(s1)
     710:	000a                	c.slli	zero,0x2
     712:	0180                	c.addi4spn	s0,sp,192
     714:	075d                	c.addi	a4,23
     716:	0ad0                	c.addi4spn	a2,sp,340
     718:	8000                	0x8000
     71a:	0ad8                	c.addi4spn	a4,sp,340
     71c:	8000                	0x8000
     71e:	7a02                	c.flwsp	fs4,32(sp)
     720:	0700                	c.addi4spn	s0,sp,896
     722:	0ad8                	c.addi4spn	a4,sp,340
     724:	8000                	0x8000
     726:	0b0c                	c.addi4spn	a1,sp,400
     728:	8000                	0x8000
     72a:	a304                	c.fsd	fs1,0(a4)
     72c:	5d01                	c.li	s10,-32
     72e:	009f cc07 000a      	0xacc07009f
     734:	d880                	c.sw	s0,48(s1)
     736:	000a                	c.slli	zero,0x2
     738:	0180                	c.addi4spn	s0,sp,192
     73a:	075e                	c.slli	a4,0x17
     73c:	0ad8                	c.addi4spn	a4,sp,340
     73e:	8000                	0x8000
     740:	0adc                	c.addi4spn	a5,sp,340
     742:	8000                	0x8000
     744:	9f017e03          	0x9f017e03
     748:	000adc07          	0xadc07
     74c:	e080                	c.fsw	fs0,0(s1)
     74e:	000a                	c.slli	zero,0x2
     750:	0380                	c.addi4spn	s0,sp,448
     752:	027e                	c.slli	tp,0x1f
     754:	079f 0ae0 8000      	0x80000ae0079f
     75a:	0afc                	c.addi4spn	a5,sp,348
     75c:	8000                	0x8000
     75e:	7d06                	c.flwsp	fs10,96(sp)
     760:	0614                	c.addi4spn	a3,sp,768
     762:	079f0223          	sb	s9,100(t5)
     766:	0afc                	c.addi4spn	a5,sp,348
     768:	8000                	0x8000
     76a:	0b0c                	c.addi4spn	a1,sp,400
     76c:	8000                	0x8000
     76e:	a306                	c.fsdsp	ft1,384(sp)
     770:	5c01                	c.li	s8,-32
     772:	009f0723          	sb	s1,14(t5)
     776:	000a9c07          	0xa9c07
     77a:	e080                	c.fsw	fs0,0(s1)
     77c:	000a                	c.slli	zero,0x2
     77e:	0180                	c.addi4spn	s0,sp,192
     780:	075e                	c.slli	a4,0x17
     782:	0ae0                	c.addi4spn	s0,sp,348
     784:	8000                	0x8000
     786:	0afc                	c.addi4spn	a5,sp,348
     788:	8000                	0x8000
     78a:	7d02                	c.flwsp	fs10,32(sp)
     78c:	0714                	c.addi4spn	a3,sp,896
     78e:	0afc                	c.addi4spn	a5,sp,348
     790:	8000                	0x8000
     792:	0b0c                	c.addi4spn	a1,sp,400
     794:	8000                	0x8000
     796:	a306                	c.fsdsp	ft1,384(sp)
     798:	5c01                	c.li	s8,-32
     79a:	009f0523          	sb	s1,10(t5)
     79e:	000b0c07          	0xb0c07
     7a2:	1c80                	c.addi4spn	s0,sp,624
     7a4:	0180000b          	0x180000b
     7a8:	075a                	c.slli	a4,0x16
     7aa:	0b1c                	c.addi4spn	a5,sp,400
     7ac:	8000                	0x8000
     7ae:	0b30                	c.addi4spn	a2,sp,408
     7b0:	8000                	0x8000
     7b2:	a304                	c.fsd	fs1,0(a4)
     7b4:	5a01                	c.li	s4,-32
     7b6:	009f 1007 000b      	0xb1007009f
     7bc:	1c80                	c.addi4spn	s0,sp,624
     7be:	0180000b          	0x180000b
     7c2:	075a                	c.slli	a4,0x16
     7c4:	0b1c                	c.addi4spn	a5,sp,400
     7c6:	8000                	0x8000
     7c8:	0b20                	c.addi4spn	s0,sp,408
     7ca:	8000                	0x8000
     7cc:	a304                	c.fsd	fs1,0(a4)
     7ce:	5a01                	c.li	s4,-32
     7d0:	079f 0b20 8000      	0x80000b20079f
     7d6:	0b2c                	c.addi4spn	a1,sp,408
     7d8:	8000                	0x8000
     7da:	5a01                	c.li	s4,-32
     7dc:	000b2c07          	flw	fs8,0(s6)
     7e0:	3080                	c.fld	fs0,32(s1)
     7e2:	0580000b          	0x580000b
     7e6:	00462503          	lw	a0,4(a2)
     7ea:	0080                	c.addi4spn	s0,sp,64
     7ec:	000b1007          	0xb1007
     7f0:	1c80                	c.addi4spn	s0,sp,624
     7f2:	0180000b          	0x180000b
     7f6:	075a                	c.slli	a4,0x16
     7f8:	0b1c                	c.addi4spn	a5,sp,400
     7fa:	8000                	0x8000
     7fc:	0b20                	c.addi4spn	s0,sp,408
     7fe:	8000                	0x8000
     800:	a304                	c.fsd	fs1,0(a4)
     802:	5a01                	c.li	s4,-32
     804:	079f 0b20 8000      	0x80000b20079f
     80a:	0b2c                	c.addi4spn	a1,sp,408
     80c:	8000                	0x8000
     80e:	5a01                	c.li	s4,-32
     810:	000b2c07          	flw	fs8,0(s6)
     814:	3080                	c.fld	fs0,32(s1)
     816:	0580000b          	0x580000b
     81a:	00462503          	lw	a0,4(a2)
     81e:	0080                	c.addi4spn	s0,sp,64
     820:	000b3007          	fld	ft0,0(s6)
     824:	5b80                	c.lw	s0,48(a5)
     826:	0180000b          	0x180000b
     82a:	075a                	c.slli	a4,0x16
     82c:	80000b5b          	0x80000b5b
     830:	0b84                	c.addi4spn	s1,sp,464
     832:	8000                	0x8000
     834:	a304                	c.fsd	fs1,0(a4)
     836:	5a01                	c.li	s4,-32
     838:	079f 0b84 8000      	0x80000b84079f
     83e:	0b90                	c.addi4spn	a2,sp,464
     840:	8000                	0x8000
     842:	5a01                	c.li	s4,-32
     844:	0700                	c.addi4spn	s0,sp,896
     846:	0b30                	c.addi4spn	a2,sp,408
     848:	8000                	0x8000
     84a:	80000b5b          	0x80000b5b
     84e:	5b01                	c.li	s6,-32
     850:	000b5b07          	0xb5b07
     854:	8480                	0x8480
     856:	0480000b          	0x480000b
     85a:	9f5b01a3          	sb	s5,-1565(s6)
     85e:	000b8407          	0xb8407
     862:	9080                	0x9080
     864:	0180000b          	0x180000b
     868:	3007005b          	0x3007005b
     86c:	5880000b          	0x5880000b
     870:	0280000b          	0x280000b
     874:	9f32                	c.add	t5,a2
     876:	000b5807          	0xb5807
     87a:	6480                	c.flw	fs0,8(s1)
     87c:	0280000b          	0x280000b
     880:	64079f33          	0x64079f33
     884:	7480000b          	0x7480000b
     888:	0280000b          	0x280000b
     88c:	9f3a                	c.add	t5,a4
     88e:	000b8407          	0xb8407
     892:	9080                	0x9080
     894:	0280000b          	0x280000b
     898:	9f32                	c.add	t5,a2
     89a:	0700                	c.addi4spn	s0,sp,896
     89c:	0b48                	c.addi4spn	a0,sp,404
     89e:	8000                	0x8000
     8a0:	0b58                	c.addi4spn	a4,sp,404
     8a2:	8000                	0x8000
     8a4:	7b02                	c.flwsp	fs6,32(sp)
     8a6:	0b840703          	lb	a4,184(s0) # 120b8 <__stack_size-0x1fedf48>
     8aa:	8000                	0x8000
     8ac:	0b90                	c.addi4spn	a2,sp,464
     8ae:	8000                	0x8000
     8b0:	7b02                	c.flwsp	fs6,32(sp)
     8b2:	48070003          	lb	zero,1152(a4) # 1a480 <__stack_size-0x1fe5b80>
     8b6:	5880000b          	0x5880000b
     8ba:	0280000b          	0x280000b
     8be:	027a                	c.slli	tp,0x1e
     8c0:	000b8407          	0xb8407
     8c4:	9080                	0x9080
     8c6:	0280000b          	0x280000b
     8ca:	027a                	c.slli	tp,0x1e
     8cc:	0700                	c.addi4spn	s0,sp,896
     8ce:	0b48                	c.addi4spn	a0,sp,404
     8d0:	8000                	0x8000
     8d2:	80000b5b          	0x80000b5b
     8d6:	7a02                	c.flwsp	fs4,32(sp)
     8d8:	0702                	c.slli64	a4
     8da:	0b84                	c.addi4spn	s1,sp,464
     8dc:	8000                	0x8000
     8de:	0b90                	c.addi4spn	a2,sp,464
     8e0:	8000                	0x8000
     8e2:	7a02                	c.flwsp	fs4,32(sp)
     8e4:	0002                	c.slli64	zero
     8e6:	000b9007          	0xb9007
     8ea:	9480                	0x9480
     8ec:	0180000b          	0x180000b
     8f0:	075a                	c.slli	a4,0x16
     8f2:	0b94                	c.addi4spn	a3,sp,464
     8f4:	8000                	0x8000
     8f6:	0b98                	c.addi4spn	a4,sp,464
     8f8:	8000                	0x8000
     8fa:	9f027a03          	0x9f027a03
     8fe:	000b9807          	0xb9807
     902:	9c80                	0x9c80
     904:	0480000b          	0x480000b
     908:	9f5a01a3          	sb	s5,-1565(s4)
     90c:	0700                	c.addi4spn	s0,sp,896
     90e:	0b90                	c.addi4spn	a2,sp,464
     910:	8000                	0x8000
     912:	0b94                	c.addi4spn	a3,sp,464
     914:	8000                	0x8000
     916:	5a01                	c.li	s4,-32
     918:	000b9407          	0xb9407
     91c:	9880                	0x9880
     91e:	0380000b          	0x380000b
     922:	027a                	c.slli	tp,0x1e
     924:	079f 0b98 8000      	0x80000b98079f
     92a:	0b9c                	c.addi4spn	a5,sp,464
     92c:	8000                	0x8000
     92e:	a304                	c.fsd	fs1,0(a4)
     930:	5a01                	c.li	s4,-32
     932:	009f 0805 0000      	0x805009f
     938:	0005                	c.addi	zero,1
     93a:	0004                	0x4
     93c:	0000                	c.unimp
     93e:	0000                	c.unimp
     940:	000c5407          	0xc5407
     944:	b080                	c.fsd	fs0,32(s1)
     946:	000c                	0xc
     948:	0180                	c.addi4spn	s0,sp,192
     94a:	075a                	c.slli	a4,0x16
     94c:	0cb0                	c.addi4spn	a2,sp,600
     94e:	8000                	0x8000
     950:	0ce4                	c.addi4spn	s1,sp,604
     952:	8000                	0x8000
     954:	6801                	0x6801
     956:	000ce407          	0xce407
     95a:	8c80                	0x8c80
     95c:	0012                	c.slli	zero,0x4
     95e:	0480                	c.addi4spn	s0,sp,576
     960:	9f5a01a3          	sb	s5,-1565(s4)
     964:	0700                	c.addi4spn	s0,sp,896
     966:	0cbc                	c.addi4spn	a5,sp,600
     968:	8000                	0x8000
     96a:	0ce4                	c.addi4spn	s1,sp,604
     96c:	8000                	0x8000
     96e:	6501                	0x6501
     970:	000e1c07          	0xe1c07
     974:	2c80                	c.fld	fs0,24(s1)
     976:	000e                	c.slli	zero,0x3
     978:	0780                	c.addi4spn	s0,sp,960
     97a:	f491                	c.bnez	s1,886 <__stack_size-0x1fff77a>
     97c:	067e                	c.slli	a2,0x1f
     97e:	079f0423          	sb	s9,104(t5)
     982:	0e2c                	c.addi4spn	a1,sp,792
     984:	8000                	0x8000
     986:	0e34                	c.addi4spn	a3,sp,792
     988:	8000                	0x8000
     98a:	5f01                	c.li	t5,-32
     98c:	000e3407          	fld	fs0,0(t3) # 1d000 <__stack_size-0x1fe3000>
     990:	3880                	c.fld	fs0,48(s1)
     992:	000e                	c.slli	zero,0x3
     994:	0380                	c.addi4spn	s0,sp,448
     996:	f491                	c.bnez	s1,8a2 <__stack_size-0x1fff75e>
     998:	077e                	c.slli	a4,0x1f
     99a:	0e68                	c.addi4spn	a0,sp,796
     99c:	8000                	0x8000
     99e:	0e80                	c.addi4spn	s0,sp,848
     9a0:	8000                	0x8000
     9a2:	6501                	0x6501
     9a4:	000e9007          	0xe9007
     9a8:	9c80                	0x9c80
     9aa:	0180000f          	fence	w,i
     9ae:	0765                	c.addi	a4,25
     9b0:	0fa8                	c.addi4spn	a0,sp,984
     9b2:	8000                	0x8000
     9b4:	0fb8                	c.addi4spn	a4,sp,984
     9b6:	8000                	0x8000
     9b8:	7ef49107          	0x7ef49107
     9bc:	2306                	c.fldsp	ft6,64(sp)
     9be:	9f04                	0x9f04
     9c0:	000fb807          	fld	fa6,0(t6) # 4099154 <__stack_size+0x2099154>
     9c4:	bc80                	c.fsd	fs0,56(s1)
     9c6:	0180000f          	fence	w,i
     9ca:	075f 1160 8000      	0x80001160075f
     9d0:	1164                	c.addi4spn	s1,sp,172
     9d2:	8000                	0x8000
     9d4:	9f087f03          	0x9f087f03
     9d8:	00116407          	0x116407
     9dc:	6c80                	c.flw	fs0,24(s1)
     9de:	0011                	c.addi	zero,4
     9e0:	0380                	c.addi4spn	s0,sp,448
     9e2:	047f                	0x47f
     9e4:	079f 1178 8000      	0x80001178079f
     9ea:	118c                	c.addi4spn	a1,sp,224
     9ec:	8000                	0x8000
     9ee:	7ef49107          	0x7ef49107
     9f2:	2306                	c.fldsp	ft6,64(sp)
     9f4:	9f04                	0x9f04
     9f6:	00118c07          	0x118c07
     9fa:	9480                	0x9480
     9fc:	0011                	c.addi	zero,4
     9fe:	0180                	c.addi4spn	s0,sp,192
     a00:	075f 11c8 8000      	0x800011c8075f
     a06:	11d8                	c.addi4spn	a4,sp,228
     a08:	8000                	0x8000
     a0a:	6501                	0x6501
     a0c:	0011e407          	0x11e407
     a10:	0080                	c.addi4spn	s0,sp,64
     a12:	0012                	c.slli	zero,0x4
     a14:	0180                	c.addi4spn	s0,sp,192
     a16:	0765                	c.addi	a4,25
     a18:	1220                	c.addi4spn	s0,sp,296
     a1a:	8000                	0x8000
     a1c:	1234                	c.addi4spn	a3,sp,296
     a1e:	8000                	0x8000
     a20:	7ef49107          	0x7ef49107
     a24:	2306                	c.fldsp	ft6,64(sp)
     a26:	9f04                	0x9f04
     a28:	00123407          	fld	fs0,1(tp) # 1 <__stack_size-0x1ffffff>
     a2c:	3c80                	c.fld	fs0,56(s1)
     a2e:	0012                	c.slli	zero,0x4
     a30:	0180                	c.addi4spn	s0,sp,192
     a32:	075f 124c 8000      	0x8000124c075f
     a38:	1278                	c.addi4spn	a4,sp,300
     a3a:	8000                	0x8000
     a3c:	6501                	0x6501
     a3e:	00127807          	0x127807
     a42:	8480                	0x8480
     a44:	0012                	c.slli	zero,0x4
     a46:	0380                	c.addi4spn	s0,sp,448
     a48:	f491                	c.bnez	s1,954 <__stack_size-0x1fff6ac>
     a4a:	007e                	c.slli	zero,0x1f
     a4c:	000cbc07          	fld	fs8,0(s9)
     a50:	cc80                	c.sw	s0,24(s1)
     a52:	000c                	0xc
     a54:	0380                	c.addi4spn	s0,sp,448
     a56:	0188                	c.addi4spn	a0,sp,192
     a58:	079f 0ccc 8000      	0x80000ccc079f
     a5e:	0cfc                	c.addi4spn	a5,sp,604
     a60:	8000                	0x8000
     a62:	5d01                	c.li	s10,-32
     a64:	000cfc07          	0xcfc07
     a68:	0480                	c.addi4spn	s0,sp,576
     a6a:	000d                	c.addi	zero,3
     a6c:	0180                	c.addi4spn	s0,sp,192
     a6e:	0768                	c.addi4spn	a0,sp,908
     a70:	0d04                	c.addi4spn	s1,sp,656
     a72:	8000                	0x8000
     a74:	0d10                	c.addi4spn	a2,sp,656
     a76:	8000                	0x8000
     a78:	5d01                	c.li	s10,-32
     a7a:	000d1007          	0xd1007
     a7e:	2880                	c.fld	fs0,16(s1)
     a80:	000d                	c.addi	zero,3
     a82:	0380                	c.addi4spn	s0,sp,448
     a84:	0288                	c.addi4spn	a0,sp,320
     a86:	079f 0d28 8000      	0x80000d28079f
     a8c:	0d50                	c.addi4spn	a2,sp,660
     a8e:	8000                	0x8000
     a90:	6801                	0x6801
     a92:	000d5007          	0xd5007
     a96:	5c80                	c.lw	s0,56(s1)
     a98:	000d                	c.addi	zero,3
     a9a:	0380                	c.addi4spn	s0,sp,448
     a9c:	7f88                	c.flw	fa0,56(a5)
     a9e:	079f 0d5c 8000      	0x80000d5c079f
     aa4:	0db8                	c.addi4spn	a4,sp,728
     aa6:	8000                	0x8000
     aa8:	6801                	0x6801
     aaa:	000db807          	fld	fa6,0(s11) # ffff2000 <_sp+0x77ff2000>
     aae:	bc80                	c.fsd	fs0,56(s1)
     ab0:	000d                	c.addi	zero,3
     ab2:	0380                	c.addi4spn	s0,sp,448
     ab4:	0188                	c.addi4spn	a0,sp,192
     ab6:	079f 0dbc 8000      	0x80000dbc079f
     abc:	0dc0                	c.addi4spn	s0,sp,724
     abe:	8000                	0x8000
     ac0:	6801                	0x6801
     ac2:	000dfc07          	0xdfc07
     ac6:	9480                	0x9480
     ac8:	0011                	c.addi	zero,4
     aca:	0180                	c.addi4spn	s0,sp,192
     acc:	0768                	c.addi4spn	a0,sp,908
     ace:	1194                	c.addi4spn	a3,sp,224
     ad0:	8000                	0x8000
     ad2:	11a0                	c.addi4spn	s0,sp,232
     ad4:	8000                	0x8000
     ad6:	5d01                	c.li	s10,-32
     ad8:	0011a007          	flw	ft0,1(gp)
     adc:	a880                	c.fsd	fs0,16(s1)
     ade:	0011                	c.addi	zero,4
     ae0:	0180                	c.addi4spn	s0,sp,192
     ae2:	0768                	c.addi4spn	a0,sp,908
     ae4:	11a8                	c.addi4spn	a0,sp,232
     ae6:	8000                	0x8000
     ae8:	11b4                	c.addi4spn	a3,sp,232
     aea:	8000                	0x8000
     aec:	9f038803          	lb	a6,-1552(t2)
     af0:	0011b407          	fld	fs0,1(gp)
     af4:	b880                	c.fsd	fs0,48(s1)
     af6:	0011                	c.addi	zero,4
     af8:	0180                	c.addi4spn	s0,sp,192
     afa:	0768                	c.addi4spn	a0,sp,908
     afc:	11b8                	c.addi4spn	a4,sp,232
     afe:	8000                	0x8000
     b00:	11c4                	c.addi4spn	s1,sp,228
     b02:	8000                	0x8000
     b04:	9f038803          	lb	a6,-1552(t2)
     b08:	0011c407          	flq	fs0,1(gp)
     b0c:	8c80                	0x8c80
     b0e:	0012                	c.slli	zero,0x4
     b10:	0180                	c.addi4spn	s0,sp,192
     b12:	0068                	c.addi4spn	a0,sp,12
     b14:	000e1407          	0xe1407
     b18:	5880                	c.lw	s0,48(s1)
     b1a:	000e                	c.slli	zero,0x3
     b1c:	0280                	c.addi4spn	s0,sp,320
     b1e:	9f3a                	c.add	t5,a4
     b20:	000f9c07          	0xf9c07
     b24:	a880                	c.fsd	fs0,16(s1)
     b26:	0280000f          	fence	r,i
     b2a:	9f38                	0x9f38
     b2c:	00114407          	flq	fs0,1(sp)
     b30:	6c80                	c.flw	fs0,24(s1)
     b32:	0011                	c.addi	zero,4
     b34:	0280                	c.addi4spn	s0,sp,320
     b36:	9f40                	0x9f40
     b38:	00116c07          	0x116c07
     b3c:	9480                	0x9480
     b3e:	0011                	c.addi	zero,4
     b40:	0280                	c.addi4spn	s0,sp,320
     b42:	9f32                	c.add	t5,a2
     b44:	00120007          	0x120007
     b48:	2080                	c.fld	fs0,0(s1)
     b4a:	0012                	c.slli	zero,0x4
     b4c:	0280                	c.addi4spn	s0,sp,320
     b4e:	9f3a                	c.add	t5,a4
     b50:	00122007          	flw	ft0,1(tp) # 1 <__stack_size-0x1ffffff>
     b54:	3c80                	c.fld	fs0,56(s1)
     b56:	0012                	c.slli	zero,0x4
     b58:	0280                	c.addi4spn	s0,sp,320
     b5a:	9f38                	0x9f38
     b5c:	00127807          	0x127807
     b60:	8c80                	0x8c80
     b62:	0012                	c.slli	zero,0x4
     b64:	0280                	c.addi4spn	s0,sp,320
     b66:	9f3a                	c.add	t5,a4
     b68:	0700                	c.addi4spn	s0,sp,896
     b6a:	0fbc                	c.addi4spn	a5,sp,984
     b6c:	8000                	0x8000
     b6e:	0fe0                	c.addi4spn	s0,sp,988
     b70:	8000                	0x8000
     b72:	3002                	c.fldsp	ft0,32(sp)
     b74:	079f 0fe0 8000      	0x80000fe0079f
     b7a:	0fe4                	c.addi4spn	s1,sp,988
     b7c:	8000                	0x8000
     b7e:	5801                	c.li	a6,-32
     b80:	000fe407          	0xfe407
     b84:	2080                	c.fld	fs0,0(s1)
     b86:	0010                	0x10
     b88:	0180                	c.addi4spn	s0,sp,192
     b8a:	1020076b          	0x1020076b
     b8e:	8000                	0x8000
     b90:	1040                	c.addi4spn	s0,sp,36
     b92:	8000                	0x8000
     b94:	5801                	c.li	a6,-32
     b96:	00104007          	flq	ft0,1(zero) # 1 <__stack_size-0x1ffffff>
     b9a:	5880                	c.lw	s0,48(s1)
     b9c:	0010                	0x10
     b9e:	0380                	c.addi4spn	s0,sp,448
     ba0:	079f028b          	0x79f028b
     ba4:	1058                	c.addi4spn	a4,sp,36
     ba6:	8000                	0x8000
     ba8:	10a0                	c.addi4spn	s0,sp,104
     baa:	8000                	0x8000
     bac:	5801                	c.li	a6,-32
     bae:	0010a407          	flw	fs0,1(ra)
     bb2:	b480                	c.fsd	fs0,40(s1)
     bb4:	0010                	0x10
     bb6:	0880                	c.addi4spn	s0,sp,80
     bb8:	0078                	c.addi4spn	a4,sp,12
     bba:	0091                	c.addi	ra,4
     bbc:	231c                	c.fld	fa5,0(a4)
     bbe:	b4079f6f          	jal	t5,fff79efe <_sp+0x77f79efe>
     bc2:	0010                	0x10
     bc4:	b880                	c.fsd	fs0,48(s1)
     bc6:	0010                	0x10
     bc8:	0880                	c.addi4spn	s0,sp,80
     bca:	0078                	c.addi4spn	a4,sp,12
     bcc:	0091                	c.addi	ra,4
     bce:	231c                	c.fld	fa5,0(a4)
     bd0:	9f70                	0x9f70
     bd2:	0010bc07          	fld	fs8,1(ra)
     bd6:	d080                	c.sw	s0,32(s1)
     bd8:	0010                	0x10
     bda:	0880                	c.addi4spn	s0,sp,80
     bdc:	0078                	c.addi4spn	a4,sp,12
     bde:	0091                	c.addi	ra,4
     be0:	231c                	c.fld	fa5,0(a4)
     be2:	d0079f6f          	jal	t5,fff7a0e2 <_sp+0x77f7a0e2>
     be6:	0010                	0x10
     be8:	d880                	c.sw	s0,48(s1)
     bea:	0010                	0x10
     bec:	0880                	c.addi4spn	s0,sp,80
     bee:	0078                	c.addi4spn	a4,sp,12
     bf0:	0091                	c.addi	ra,4
     bf2:	231c                	c.fld	fa5,0(a4)
     bf4:	9f70                	0x9f70
     bf6:	00111c07          	0x111c07
     bfa:	4480                	c.lw	s0,8(s1)
     bfc:	0011                	c.addi	zero,4
     bfe:	0180                	c.addi4spn	s0,sp,192
     c00:	0758                	c.addi4spn	a4,sp,900
     c02:	123c                	c.addi4spn	a5,sp,296
     c04:	8000                	0x8000
     c06:	124c                	c.addi4spn	a1,sp,292
     c08:	8000                	0x8000
     c0a:	5801                	c.li	a6,-32
     c0c:	0700                	c.addi4spn	s0,sp,896
     c0e:	0e90                	c.addi4spn	a2,sp,848
     c10:	8000                	0x8000
     c12:	0e9c                	c.addi4spn	a5,sp,848
     c14:	8000                	0x8000
     c16:	3002                	c.fldsp	ft0,32(sp)
     c18:	079f 0e9c 8000      	0x80000e9c079f
     c1e:	0ebc                	c.addi4spn	a5,sp,856
     c20:	8000                	0x8000
     c22:	5d01                	c.li	s10,-32
     c24:	000ebc07          	fld	fs8,0(t4)
     c28:	c080                	c.sw	s0,0(s1)
     c2a:	000e                	c.slli	zero,0x3
     c2c:	0380                	c.addi4spn	s0,sp,448
     c2e:	017d                	c.addi	sp,31
     c30:	079f 0ec8 8000      	0x80000ec8079f
     c36:	0edc                	c.addi4spn	a5,sp,852
     c38:	8000                	0x8000
     c3a:	6701                	0x6701
     c3c:	000edc07          	0xedc07
     c40:	e480                	c.fsw	fs0,8(s1)
     c42:	000e                	c.slli	zero,0x3
     c44:	0180                	c.addi4spn	s0,sp,192
     c46:	075f 0ee4 8000      	0x80000ee4075f
     c4c:	0f00                	c.addi4spn	s0,sp,912
     c4e:	8000                	0x8000
     c50:	6701                	0x6701
     c52:	000f0007          	0xf0007
     c56:	0880                	c.addi4spn	s0,sp,80
     c58:	0180000f          	fence	w,i
     c5c:	075f 0f1c 8000      	0x80000f1c075f
     c62:	0f20                	c.addi4spn	s0,sp,920
     c64:	8000                	0x8000
     c66:	6901                	0x6901
     c68:	000f2007          	flw	ft0,0(t5)
     c6c:	2880                	c.fld	fs0,16(s1)
     c6e:	0380000f          	fence	rw,i
     c72:	0189                	c.addi	gp,2
     c74:	079f 0f28 8000      	0x80000f28079f
     c7a:	0f3c                	c.addi4spn	a5,sp,920
     c7c:	8000                	0x8000
     c7e:	6701                	0x6701
     c80:	000f3c07          	fld	fs8,0(t5)
     c84:	4480                	c.lw	s0,8(s1)
     c86:	0180000f          	fence	w,i
     c8a:	075f 0f44 8000      	0x80000f44075f
     c90:	0f60                	c.addi4spn	s0,sp,924
     c92:	8000                	0x8000
     c94:	6701                	0x6701
     c96:	000f6007          	0xf6007
     c9a:	6480                	c.flw	fs0,8(s1)
     c9c:	0180000f          	fence	w,i
     ca0:	075f 1058 8000      	0x80001058075f
     ca6:	1074                	c.addi4spn	a3,sp,44
     ca8:	8000                	0x8000
     caa:	5801                	c.li	a6,-32
     cac:	00107407          	0x107407
     cb0:	9c80                	0x9c80
     cb2:	0010                	0x10
     cb4:	0180                	c.addi4spn	s0,sp,192
     cb6:	0769                	c.addi	a4,26
     cb8:	10a4                	c.addi4spn	s1,sp,104
     cba:	8000                	0x8000
     cbc:	10dc                	c.addi4spn	a5,sp,100
     cbe:	8000                	0x8000
     cc0:	6701                	0x6701
     cc2:	0010dc07          	0x10dc07
     cc6:	f880                	c.fsw	fs0,48(s1)
     cc8:	0010                	0x10
     cca:	0180                	c.addi4spn	s0,sp,192
     ccc:	0758                	c.addi4spn	a4,sp,900
     cce:	10f8                	c.addi4spn	a4,sp,108
     cd0:	8000                	0x8000
     cd2:	1100                	c.addi4spn	s0,sp,160
     cd4:	8000                	0x8000
     cd6:	5f01                	c.li	t5,-32
     cd8:	00110007          	0x110007
     cdc:	1c80                	c.addi4spn	s0,sp,624
     cde:	0011                	c.addi	zero,4
     ce0:	0180                	c.addi4spn	s0,sp,192
     ce2:	0758                	c.addi4spn	a4,sp,900
     ce4:	111c                	c.addi4spn	a5,sp,160
     ce6:	8000                	0x8000
     ce8:	1120                	c.addi4spn	s0,sp,168
     cea:	8000                	0x8000
     cec:	6901                	0x6901
     cee:	00112007          	flw	ft0,1(sp)
     cf2:	2880                	c.fld	fs0,16(s1)
     cf4:	0011                	c.addi	zero,4
     cf6:	0180                	c.addi4spn	s0,sp,192
     cf8:	075d                	c.addi	a4,23
     cfa:	11f8                	c.addi4spn	a4,sp,236
     cfc:	8000                	0x8000
     cfe:	1200                	c.addi4spn	s0,sp,288
     d00:	8000                	0x8000
     d02:	6901                	0x6901
     d04:	00123c07          	fld	fs8,1(tp) # 1 <__stack_size-0x1ffffff>
     d08:	4480                	c.lw	s0,8(s1)
     d0a:	0012                	c.slli	zero,0x4
     d0c:	0180                	c.addi4spn	s0,sp,192
     d0e:	0758                	c.addi4spn	a4,sp,900
     d10:	1244                	c.addi4spn	s1,sp,292
     d12:	8000                	0x8000
     d14:	124c                	c.addi4spn	a1,sp,292
     d16:	8000                	0x8000
     d18:	6901                	0x6901
     d1a:	00124c07          	flq	fs8,1(tp) # 1 <__stack_size-0x1ffffff>
     d1e:	5080                	c.lw	s0,32(s1)
     d20:	0012                	c.slli	zero,0x4
     d22:	0280                	c.addi4spn	s0,sp,320
     d24:	9f30                	0x9f30
     d26:	00125007          	0x125007
     d2a:	6080                	c.flw	fs0,0(s1)
     d2c:	0012                	c.slli	zero,0x4
     d2e:	0280                	c.addi4spn	s0,sp,320
     d30:	9f31                	0x9f31
     d32:	00126007          	0x126007
     d36:	6c80                	c.flw	fs0,24(s1)
     d38:	0012                	c.slli	zero,0x4
     d3a:	0180                	c.addi4spn	s0,sp,192
     d3c:	075d                	c.addi	a4,23
     d3e:	126c                	c.addi4spn	a1,sp,300
     d40:	8000                	0x8000
     d42:	1278                	c.addi4spn	a4,sp,300
     d44:	8000                	0x8000
     d46:	3002                	c.fldsp	ft0,32(sp)
     d48:	009f 2c07 000d      	0xd2c07009f
     d4e:	4080                	c.lw	s0,0(s1)
     d50:	000d                	c.addi	zero,3
     d52:	0280                	c.addi4spn	s0,sp,320
     d54:	9f30                	0x9f30
     d56:	000d4007          	flq	ft0,0(s10) # 1d000 <__stack_size-0x1fe3000>
     d5a:	6880                	c.flw	fs0,16(s1)
     d5c:	000d                	c.addi	zero,3
     d5e:	0180                	c.addi4spn	s0,sp,192
     d60:	0059                	c.addi	zero,22
     d62:	000d1007          	0xd1007
     d66:	2c80                	c.fld	fs0,24(s1)
     d68:	000d                	c.addi	zero,3
     d6a:	0280                	c.addi4spn	s0,sp,320
     d6c:	9f30                	0x9f30
     d6e:	000d2c07          	flw	fs8,0(s10)
     d72:	c080                	c.sw	s0,0(s1)
     d74:	000d                	c.addi	zero,3
     d76:	0180                	c.addi4spn	s0,sp,192
     d78:	0dfc0767          	jalr	a4,223(s8) # 190df <__stack_size-0x1fe6f21>
     d7c:	8000                	0x8000
     d7e:	0e88                	c.addi4spn	a0,sp,848
     d80:	8000                	0x8000
     d82:	6701                	0x6701
     d84:	000f9c07          	0xf9c07
     d88:	6480                	c.flw	fs0,8(s1)
     d8a:	0010                	0x10
     d8c:	0180                	c.addi4spn	s0,sp,192
     d8e:	11440767          	jalr	a4,276(s0)
     d92:	8000                	0x8000
     d94:	1194                	c.addi4spn	a3,sp,224
     d96:	8000                	0x8000
     d98:	6701                	0x6701
     d9a:	0011a807          	flw	fa6,1(gp)
     d9e:	b880                	c.fsd	fs0,48(s1)
     da0:	0011                	c.addi	zero,4
     da2:	0280                	c.addi4spn	s0,sp,320
     da4:	9f31                	0x9f31
     da6:	0011b807          	fld	fa6,1(gp)
     daa:	c880                	c.sw	s0,16(s1)
     dac:	0011                	c.addi	zero,4
     dae:	0280                	c.addi4spn	s0,sp,320
     db0:	9f32                	c.add	t5,a2
     db2:	0011c807          	flq	fa6,1(gp)
     db6:	e480                	c.fsw	fs0,8(s1)
     db8:	0011                	c.addi	zero,4
     dba:	0180                	c.addi4spn	s0,sp,192
     dbc:	12000767          	jalr	a4,288(zero) # 0 <__stack_size-0x2000000>
     dc0:	8000                	0x8000
     dc2:	123c                	c.addi4spn	a5,sp,296
     dc4:	8000                	0x8000
     dc6:	6701                	0x6701
     dc8:	00127807          	0x127807
     dcc:	8c80                	0x8c80
     dce:	0012                	c.slli	zero,0x4
     dd0:	0180                	c.addi4spn	s0,sp,192
     dd2:	34070067          	jalr	zero,832(a4)
     dd6:	000e                	c.slli	zero,0x3
     dd8:	4880                	c.lw	s0,16(s1)
     dda:	000e                	c.slli	zero,0x3
     ddc:	0180                	c.addi4spn	s0,sp,192
     dde:	075f 0e48 8000      	0x80000e48075f
     de4:	0e58                	c.addi4spn	a4,sp,788
     de6:	8000                	0x8000
     de8:	6501                	0x6501
     dea:	000fbc07          	fld	fs8,0(t6)
     dee:	0c80                	c.addi4spn	s0,sp,592
     df0:	0010                	0x10
     df2:	0180                	c.addi4spn	s0,sp,192
     df4:	0765                	c.addi	a4,25
     df6:	100c                	c.addi4spn	a1,sp,32
     df8:	8000                	0x8000
     dfa:	1024                	c.addi4spn	s1,sp,40
     dfc:	8000                	0x8000
     dfe:	5a01                	c.li	s4,-32
     e00:	00102407          	flw	fs0,1(zero) # 1 <__stack_size-0x1ffffff>
     e04:	4480                	c.lw	s0,8(s1)
     e06:	0011                	c.addi	zero,4
     e08:	0180                	c.addi4spn	s0,sp,192
     e0a:	0765                	c.addi	a4,25
     e0c:	1160                	c.addi4spn	s0,sp,172
     e0e:	8000                	0x8000
     e10:	116c                	c.addi4spn	a1,sp,172
     e12:	8000                	0x8000
     e14:	6501                	0x6501
     e16:	00118807          	0x118807
     e1a:	9480                	0x9480
     e1c:	0011                	c.addi	zero,4
     e1e:	0180                	c.addi4spn	s0,sp,192
     e20:	0765                	c.addi	a4,25
     e22:	121c                	c.addi4spn	a5,sp,288
     e24:	8000                	0x8000
     e26:	1220                	c.addi4spn	s0,sp,296
     e28:	8000                	0x8000
     e2a:	5f01                	c.li	t5,-32
     e2c:	00123007          	fld	ft0,1(tp) # 1 <__stack_size-0x1ffffff>
     e30:	4c80                	c.lw	s0,24(s1)
     e32:	0012                	c.slli	zero,0x4
     e34:	0180                	c.addi4spn	s0,sp,192
     e36:	0765                	c.addi	a4,25
     e38:	1278                	c.addi4spn	a4,sp,300
     e3a:	8000                	0x8000
     e3c:	1284                	c.addi4spn	s1,sp,352
     e3e:	8000                	0x8000
     e40:	5f01                	c.li	t5,-32
     e42:	0700                	c.addi4spn	s0,sp,896
     e44:	0cbc                	c.addi4spn	a5,sp,600
     e46:	8000                	0x8000
     e48:	0cfc                	c.addi4spn	a5,sp,604
     e4a:	8000                	0x8000
     e4c:	5a01                	c.li	s4,-32
     e4e:	000d0407          	0xd0407
     e52:	5880                	c.lw	s0,48(s1)
     e54:	000d                	c.addi	zero,3
     e56:	0180                	c.addi4spn	s0,sp,192
     e58:	075a                	c.slli	a4,0x16
     e5a:	0d5c                	c.addi4spn	a5,sp,660
     e5c:	8000                	0x8000
     e5e:	0db4                	c.addi4spn	a3,sp,728
     e60:	8000                	0x8000
     e62:	5a01                	c.li	s4,-32
     e64:	000db807          	fld	fa6,0(s11)
     e68:	6480                	c.flw	fs0,8(s1)
     e6a:	000e                	c.slli	zero,0x3
     e6c:	0180                	c.addi4spn	s0,sp,192
     e6e:	075a                	c.slli	a4,0x16
     e70:	0e80                	c.addi4spn	s0,sp,848
     e72:	8000                	0x8000
     e74:	0e94                	c.addi4spn	a3,sp,848
     e76:	8000                	0x8000
     e78:	5a01                	c.li	s4,-32
     e7a:	000f9c07          	0xf9c07
     e7e:	e080                	c.fsw	fs0,0(s1)
     e80:	0180000f          	fence	w,i
     e84:	075a                	c.slli	a4,0x16
     e86:	1144                	c.addi4spn	s1,sp,164
     e88:	8000                	0x8000
     e8a:	11a0                	c.addi4spn	s0,sp,232
     e8c:	8000                	0x8000
     e8e:	5a01                	c.li	s4,-32
     e90:	0011a807          	flw	fa6,1(gp)
     e94:	c880                	c.sw	s0,16(s1)
     e96:	0011                	c.addi	zero,4
     e98:	0180                	c.addi4spn	s0,sp,192
     e9a:	075a                	c.slli	a4,0x16
     e9c:	11d8                	c.addi4spn	a4,sp,228
     e9e:	8000                	0x8000
     ea0:	11e4                	c.addi4spn	s1,sp,236
     ea2:	8000                	0x8000
     ea4:	5a01                	c.li	s4,-32
     ea6:	00120007          	0x120007
     eaa:	3c80                	c.fld	fs0,56(s1)
     eac:	0012                	c.slli	zero,0x4
     eae:	0180                	c.addi4spn	s0,sp,192
     eb0:	075a                	c.slli	a4,0x16
     eb2:	1278                	c.addi4spn	a4,sp,300
     eb4:	8000                	0x8000
     eb6:	128c                	c.addi4spn	a1,sp,352
     eb8:	8000                	0x8000
     eba:	5a01                	c.li	s4,-32
     ebc:	0700                	c.addi4spn	s0,sp,896
     ebe:	0d78                	c.addi4spn	a4,sp,668
     ec0:	8000                	0x8000
     ec2:	0d8c                	c.addi4spn	a1,sp,720
     ec4:	8000                	0x8000
     ec6:	5a01                	c.li	s4,-32
     ec8:	000d8c07          	0xd8c07
     ecc:	b080                	c.fsd	fs0,32(s1)
     ece:	000d                	c.addi	zero,3
     ed0:	0180                	c.addi4spn	s0,sp,192
     ed2:	075c                	c.addi4spn	a5,sp,900
     ed4:	0dfc                	c.addi4spn	a5,sp,732
     ed6:	8000                	0x8000
     ed8:	0e9c                	c.addi4spn	a5,sp,848
     eda:	8000                	0x8000
     edc:	5c01                	c.li	s8,-32
     ede:	000f9c07          	0xf9c07
     ee2:	e080                	c.fsw	fs0,0(s1)
     ee4:	0180000f          	fence	w,i
     ee8:	075c                	c.addi4spn	a5,sp,900
     eea:	1008                	c.addi4spn	a0,sp,32
     eec:	8000                	0x8000
     eee:	1018                	c.addi4spn	a4,sp,32
     ef0:	8000                	0x8000
     ef2:	5f01                	c.li	t5,-32
     ef4:	00101807          	0x101807
     ef8:	1c80                	c.addi4spn	s0,sp,624
     efa:	0010                	0x10
     efc:	0180                	c.addi4spn	s0,sp,192
     efe:	0758                	c.addi4spn	a4,sp,900
     f00:	101c                	c.addi4spn	a5,sp,32
     f02:	8000                	0x8000
     f04:	1028                	c.addi4spn	a0,sp,40
     f06:	8000                	0x8000
     f08:	5f01                	c.li	t5,-32
     f0a:	00106c07          	0x106c07
     f0e:	4480                	c.lw	s0,8(s1)
     f10:	0011                	c.addi	zero,4
     f12:	0180                	c.addi4spn	s0,sp,192
     f14:	076a                	c.slli	a4,0x1a
     f16:	1144                	c.addi4spn	s1,sp,164
     f18:	8000                	0x8000
     f1a:	1194                	c.addi4spn	a3,sp,224
     f1c:	8000                	0x8000
     f1e:	5c01                	c.li	s8,-32
     f20:	0011c807          	flq	fa6,1(gp)
     f24:	e480                	c.fsw	fs0,8(s1)
     f26:	0011                	c.addi	zero,4
     f28:	0180                	c.addi4spn	s0,sp,192
     f2a:	075c                	c.addi4spn	a5,sp,900
     f2c:	1200                	c.addi4spn	s0,sp,288
     f2e:	8000                	0x8000
     f30:	123c                	c.addi4spn	a5,sp,296
     f32:	8000                	0x8000
     f34:	5c01                	c.li	s8,-32
     f36:	00123c07          	fld	fs8,1(tp) # 1 <__stack_size-0x1ffffff>
     f3a:	4c80                	c.lw	s0,24(s1)
     f3c:	0012                	c.slli	zero,0x4
     f3e:	0180                	c.addi4spn	s0,sp,192
     f40:	076a                	c.slli	a4,0x1a
     f42:	124c                	c.addi4spn	a1,sp,292
     f44:	8000                	0x8000
     f46:	1260                	c.addi4spn	s0,sp,300
     f48:	8000                	0x8000
     f4a:	5c01                	c.li	s8,-32
     f4c:	00126c07          	0x126c07
     f50:	8c80                	0x8c80
     f52:	0012                	c.slli	zero,0x4
     f54:	0180                	c.addi4spn	s0,sp,192
     f56:	005c                	c.addi4spn	a5,sp,4
     f58:	000dfc07          	0xdfc07
     f5c:	1480                	c.addi4spn	s0,sp,608
     f5e:	000e                	c.slli	zero,0x3
     f60:	0180                	c.addi4spn	s0,sp,192
     f62:	075a                	c.slli	a4,0x16
     f64:	11d8                	c.addi4spn	a4,sp,228
     f66:	8000                	0x8000
     f68:	11e4                	c.addi4spn	s1,sp,236
     f6a:	8000                	0x8000
     f6c:	5a01                	c.li	s4,-32
     f6e:	0700                	c.addi4spn	s0,sp,896
     f70:	11d8                	c.addi4spn	a4,sp,228
     f72:	8000                	0x8000
     f74:	11e4                	c.addi4spn	s1,sp,236
     f76:	8000                	0x8000
     f78:	5a01                	c.li	s4,-32
     f7a:	0700                	c.addi4spn	s0,sp,896
     f7c:	0ce4                	c.addi4spn	s1,sp,604
     f7e:	8000                	0x8000
     f80:	0cfc                	c.addi4spn	a5,sp,604
     f82:	8000                	0x8000
     f84:	5a01                	c.li	s4,-32
     f86:	00119407          	0x119407
     f8a:	a080                	c.fsd	fs0,0(s1)
     f8c:	0011                	c.addi	zero,4
     f8e:	0180                	c.addi4spn	s0,sp,192
     f90:	005a                	c.slli	zero,0x16
     f92:	00119407          	0x119407
     f96:	a080                	c.fsd	fs0,0(s1)
     f98:	0011                	c.addi	zero,4
     f9a:	0180                	c.addi4spn	s0,sp,192
     f9c:	005a                	c.slli	zero,0x16
     f9e:	000e6807          	0xe6807
     fa2:	8080                	0x8080
     fa4:	000e                	c.slli	zero,0x3
     fa6:	0180                	c.addi4spn	s0,sp,192
     fa8:	075a                	c.slli	a4,0x16
     faa:	11c8                	c.addi4spn	a0,sp,228
     fac:	8000                	0x8000
     fae:	11d8                	c.addi4spn	a4,sp,228
     fb0:	8000                	0x8000
     fb2:	5a01                	c.li	s4,-32
     fb4:	0700                	c.addi4spn	s0,sp,896
     fb6:	11c8                	c.addi4spn	a0,sp,228
     fb8:	8000                	0x8000
     fba:	11d8                	c.addi4spn	a4,sp,228
     fbc:	8000                	0x8000
     fbe:	5a01                	c.li	s4,-32
     fc0:	0700                	c.addi4spn	s0,sp,896
     fc2:	0ec8                	c.addi4spn	a0,sp,852
     fc4:	8000                	0x8000
     fc6:	0ed8                	c.addi4spn	a4,sp,852
     fc8:	8000                	0x8000
     fca:	9f200803          	lb	a6,-1550(zero) # fffff9f2 <_sp+0x77fff9f2>
     fce:	000ee407          	0xee407
     fd2:	fc80                	c.fsw	fs0,56(s1)
     fd4:	000e                	c.slli	zero,0x3
     fd6:	0380                	c.addi4spn	s0,sp,448
     fd8:	2008                	c.fld	fa0,0(s0)
     fda:	009f ec07 000e      	0xeec07009f
     fe0:	fc80                	c.fsw	fs0,56(s1)
     fe2:	000e                	c.slli	zero,0x3
     fe4:	0380                	c.addi4spn	s0,sp,448
     fe6:	2008                	c.fld	fa0,0(s0)
     fe8:	009f 1c07 000f      	0xf1c07009f
     fee:	2080                	c.fld	fs0,0(s1)
     ff0:	0180000f          	fence	w,i
     ff4:	0758                	c.addi4spn	a4,sp,900
     ff6:	0f6c                	c.addi4spn	a1,sp,924
     ff8:	8000                	0x8000
     ffa:	0f9c                	c.addi4spn	a5,sp,976
     ffc:	8000                	0x8000
     ffe:	5801                	c.li	a6,-32
    1000:	0011f807          	0x11f807
    1004:	0080                	c.addi4spn	s0,sp,64
    1006:	0012                	c.slli	zero,0x4
    1008:	0180                	c.addi4spn	s0,sp,192
    100a:	0058                	c.addi4spn	a4,sp,4
    100c:	000f6c07          	0xf6c07
    1010:	7880                	c.flw	fs0,48(s1)
    1012:	0180000f          	fence	w,i
    1016:	075a                	c.slli	a4,0x16
    1018:	0f88                	c.addi4spn	a0,sp,976
    101a:	8000                	0x8000
    101c:	80000f97          	auipc	t6,0x80000
    1020:	5a01                	c.li	s4,-32
    1022:	0700                	c.addi4spn	s0,sp,896
    1024:	0f8c                	c.addi4spn	a1,sp,976
    1026:	8000                	0x8000
    1028:	80000f97          	auipc	t6,0x80000
    102c:	5a01                	c.li	s4,-32
    102e:	0700                	c.addi4spn	s0,sp,896
    1030:	0f28                	c.addi4spn	a0,sp,920
    1032:	8000                	0x8000
    1034:	0f38                	c.addi4spn	a4,sp,920
    1036:	8000                	0x8000
    1038:	9f200803          	lb	a6,-1550(zero) # fffff9f2 <_sp+0x77fff9f2>
    103c:	000f4407          	flq	fs0,0(t5)
    1040:	5c80                	c.lw	s0,56(s1)
    1042:	0380000f          	fence	rw,i
    1046:	2008                	c.fld	fa0,0(s0)
    1048:	009f 4c07 000f      	0xf4c07009f
    104e:	5c80                	c.lw	s0,56(s1)
    1050:	0380000f          	fence	rw,i
    1054:	2008                	c.fld	fa0,0(s0)
    1056:	009f 7c07 0010      	0x107c07009f
    105c:	9480                	0x9480
    105e:	0010                	0x10
    1060:	0180                	c.addi4spn	s0,sp,192
    1062:	006a                	c.slli	zero,0x1a
    1064:	00112807          	flw	fa6,1(sp)
    1068:	4480                	c.lw	s0,8(s1)
    106a:	0011                	c.addi	zero,4
    106c:	0180                	c.addi4spn	s0,sp,192
    106e:	006a                	c.slli	zero,0x1a
    1070:	0010a407          	flw	fs0,1(ra)
    1074:	b080                	c.fsd	fs0,32(s1)
    1076:	0010                	0x10
    1078:	0180                	c.addi4spn	s0,sp,192
    107a:	075a                	c.slli	a4,0x16
    107c:	10c0                	c.addi4spn	s0,sp,100
    107e:	8000                	0x8000
    1080:	800010d3          	0x800010d3
    1084:	5a01                	c.li	s4,-32
    1086:	0700                	c.addi4spn	s0,sp,896
    1088:	10c4                	c.addi4spn	s1,sp,100
    108a:	8000                	0x8000
    108c:	800010d3          	0x800010d3
    1090:	5a01                	c.li	s4,-32
    1092:	0700                	c.addi4spn	s0,sp,896
    1094:	10e4                	c.addi4spn	s1,sp,108
    1096:	8000                	0x8000
    1098:	10f4                	c.addi4spn	a3,sp,108
    109a:	8000                	0x8000
    109c:	9f200803          	lb	a6,-1550(zero) # fffff9f2 <_sp+0x77fff9f2>
    10a0:	00110007          	0x110007
    10a4:	1c80                	c.addi4spn	s0,sp,624
    10a6:	0011                	c.addi	zero,4
    10a8:	0380                	c.addi4spn	s0,sp,448
    10aa:	2008                	c.fld	fa0,0(s0)
    10ac:	009f 0807 0011      	0x110807009f
    10b2:	1c80                	c.addi4spn	s0,sp,624
    10b4:	0011                	c.addi	zero,4
    10b6:	0380                	c.addi4spn	s0,sp,448
    10b8:	2008                	c.fld	fa0,0(s0)
    10ba:	009f ac07 000b      	0xbac07009f
    10c0:	d780                	c.sw	s0,40(a5)
    10c2:	0180000b          	0x180000b
    10c6:	075a                	c.slli	a4,0x16
    10c8:	80000bd7          	0x80000bd7
    10cc:	0bd8                	c.addi4spn	a4,sp,468
    10ce:	8000                	0x8000
    10d0:	a304                	c.fsd	fs1,0(a4)
    10d2:	5a01                	c.li	s4,-32
    10d4:	079f 0bd8 8000      	0x80000bd8079f
    10da:	0bdc                	c.addi4spn	a5,sp,468
    10dc:	8000                	0x8000
    10de:	5a01                	c.li	s4,-32
    10e0:	0700                	c.addi4spn	s0,sp,896
    10e2:	0bc8                	c.addi4spn	a0,sp,468
    10e4:	8000                	0x8000
    10e6:	80000bd7          	0x80000bd7
    10ea:	5a01                	c.li	s4,-32
    10ec:	000bd807          	0xbd807
    10f0:	dc80                	c.sw	s0,56(s1)
    10f2:	0180000b          	0x180000b
    10f6:	005a                	c.slli	zero,0x16
    10f8:	000bdc07          	0xbdc07
    10fc:	f880                	c.fsw	fs0,48(s1)
    10fe:	0180000b          	0x180000b
    1102:	075a                	c.slli	a4,0x16
    1104:	0bf8                	c.addi4spn	a4,sp,476
    1106:	8000                	0x8000
    1108:	0c44                	c.addi4spn	s1,sp,532
    110a:	8000                	0x8000
    110c:	5801                	c.li	a6,-32
    110e:	0700                	c.addi4spn	s0,sp,896
    1110:	0c08                	c.addi4spn	a0,sp,528
    1112:	8000                	0x8000
    1114:	0c10                	c.addi4spn	a2,sp,528
    1116:	8000                	0x8000
    1118:	5a01                	c.li	s4,-32
    111a:	000c2007          	flw	ft0,0(s8)
    111e:	3380                	c.fld	fs0,32(a5)
    1120:	000c                	0xc
    1122:	0180                	c.addi4spn	s0,sp,192
    1124:	005a                	c.slli	zero,0x16
    1126:	000c0807          	0xc0807
    112a:	1080                	c.addi4spn	s0,sp,96
    112c:	000c                	0xc
    112e:	0180                	c.addi4spn	s0,sp,192
    1130:	075a                	c.slli	a4,0x16
    1132:	0c18                	c.addi4spn	a4,sp,528
    1134:	8000                	0x8000
    1136:	80000c33          	0x80000c33
    113a:	5a01                	c.li	s4,-32
	...

Disassembly of section .debug_rnglists:

00000000 <.debug_rnglists>:
   0:	0326                	c.slli	t1,0x9
   2:	0000                	c.unimp
   4:	0005                	c.addi	zero,1
   6:	0004                	0x4
   8:	0000                	c.unimp
   a:	0000                	c.unimp
   c:	8006                	c.mv	zero,ra
   e:	0008                	0x8
  10:	8080                	0x8080
  12:	0008                	0x8
  14:	0680                	c.addi4spn	s0,sp,832
  16:	0884                	c.addi4spn	s1,sp,80
  18:	8000                	0x8000
  1a:	0890                	c.addi4spn	a2,sp,80
  1c:	8000                	0x8000
  1e:	0600                	c.addi4spn	s0,sp,768
  20:	09b4                	c.addi4spn	a3,sp,216
  22:	8000                	0x8000
  24:	09cc                	c.addi4spn	a1,sp,212
  26:	8000                	0x8000
  28:	d006                	c.swsp	ra,32(sp)
  2a:	0009                	c.addi	zero,2
  2c:	d480                	c.sw	s0,40(s1)
  2e:	0009                	c.addi	zero,2
  30:	0080                	c.addi4spn	s0,sp,64
  32:	bc06                	c.fsdsp	ft1,56(sp)
  34:	0009                	c.addi	zero,2
  36:	c080                	c.sw	s0,0(s1)
  38:	0009                	c.addi	zero,2
  3a:	0680                	c.addi4spn	s0,sp,832
  3c:	09c4                	c.addi4spn	s1,sp,212
  3e:	8000                	0x8000
  40:	09cc                	c.addi4spn	a1,sp,212
  42:	8000                	0x8000
  44:	d006                	c.swsp	ra,32(sp)
  46:	0009                	c.addi	zero,2
  48:	d480                	c.sw	s0,40(s1)
  4a:	0009                	c.addi	zero,2
  4c:	0080                	c.addi4spn	s0,sp,64
  4e:	6806                	c.flwsp	fa6,64(sp)
  50:	000a                	c.slli	zero,0x2
  52:	6c80                	c.flw	fs0,24(s1)
  54:	000a                	c.slli	zero,0x2
  56:	0680                	c.addi4spn	s0,sp,832
  58:	0a70                	c.addi4spn	a2,sp,284
  5a:	8000                	0x8000
  5c:	0a70                	c.addi4spn	a2,sp,284
  5e:	8000                	0x8000
  60:	7406                	c.flwsp	fs0,96(sp)
  62:	000a                	c.slli	zero,0x2
  64:	7880                	c.flw	fs0,48(s1)
  66:	000a                	c.slli	zero,0x2
  68:	0080                	c.addi4spn	s0,sp,64
  6a:	4806                	c.lwsp	a6,64(sp)
  6c:	5880000b          	0x5880000b
  70:	0680000b          	0x680000b
  74:	0b84                	c.addi4spn	s1,sp,464
  76:	8000                	0x8000
  78:	0b90                	c.addi4spn	a2,sp,464
  7a:	8000                	0x8000
  7c:	0600                	c.addi4spn	s0,sp,768
  7e:	001c                	0x1c
  80:	8000                	0x8000
  82:	0024                	c.addi4spn	s1,sp,8
  84:	8000                	0x8000
  86:	5c06                	c.lwsp	s8,96(sp)
  88:	0000                	c.unimp
  8a:	7880                	c.flw	fs0,48(s1)
  8c:	0000                	c.unimp
  8e:	0680                	c.addi4spn	s0,sp,832
  90:	0084                	c.addi4spn	s1,sp,64
  92:	8000                	0x8000
  94:	0088                	c.addi4spn	a0,sp,64
  96:	8000                	0x8000
  98:	0600                	c.addi4spn	s0,sp,768
  9a:	0080                	c.addi4spn	s0,sp,64
  9c:	8000                	0x8000
  9e:	0084                	c.addi4spn	s1,sp,64
  a0:	8000                	0x8000
  a2:	8806                	c.mv	a6,ra
  a4:	0000                	c.unimp
  a6:	a080                	c.fsd	fs0,0(s1)
  a8:	0000                	c.unimp
  aa:	0680                	c.addi4spn	s0,sp,832
  ac:	00c0                	c.addi4spn	s0,sp,68
  ae:	8000                	0x8000
  b0:	00c4                	c.addi4spn	s1,sp,68
  b2:	8000                	0x8000
  b4:	d406                	c.swsp	ra,40(sp)
  b6:	0000                	c.unimp
  b8:	d880                	c.sw	s0,48(s1)
  ba:	0000                	c.unimp
  bc:	0080                	c.addi4spn	s0,sp,64
  be:	1c06                	c.slli	s8,0x21
  c0:	0002                	c.slli64	zero
  c2:	3880                	c.fld	fs0,48(s1)
  c4:	0002                	c.slli64	zero
  c6:	0680                	c.addi4spn	s0,sp,832
  c8:	0384                	c.addi4spn	s1,sp,448
  ca:	8000                	0x8000
  cc:	0388                	c.addi4spn	a0,sp,448
  ce:	8000                	0x8000
  d0:	9c06                	c.add	s8,ra
  d2:	a4800003          	lb	zero,-1464(zero) # fffffa48 <_sp+0x77fffa48>
  d6:	00800003          	lb	zero,8(zero) # 8 <__stack_size-0x1fffff8>
  da:	1c06                	c.slli	s8,0x21
  dc:	0002                	c.slli64	zero
  de:	2080                	c.fld	fs0,0(s1)
  e0:	0002                	c.slli64	zero
  e2:	0680                	c.addi4spn	s0,sp,832
  e4:	0220                	c.addi4spn	s0,sp,264
  e6:	8000                	0x8000
  e8:	022c                	c.addi4spn	a1,sp,264
  ea:	8000                	0x8000
  ec:	9c06                	c.add	s8,ra
  ee:	a4800003          	lb	zero,-1464(zero) # fffffa48 <_sp+0x77fffa48>
  f2:	00800003          	lb	zero,8(zero) # 8 <__stack_size-0x1fffff8>
  f6:	3806                	c.fldsp	fa6,96(sp)
  f8:	0002                	c.slli64	zero
  fa:	4480                	c.lw	s0,8(s1)
  fc:	0002                	c.slli64	zero
  fe:	0680                	c.addi4spn	s0,sp,832
 100:	0248                	c.addi4spn	a0,sp,260
 102:	8000                	0x8000
 104:	025c                	c.addi4spn	a5,sp,260
 106:	8000                	0x8000
 108:	6006                	c.flwsp	ft0,64(sp)
 10a:	0002                	c.slli64	zero
 10c:	7080                	c.flw	fs0,32(s1)
 10e:	0002                	c.slli64	zero
 110:	0680                	c.addi4spn	s0,sp,832
 112:	0274                	c.addi4spn	a3,sp,268
 114:	8000                	0x8000
 116:	0274                	c.addi4spn	a3,sp,268
 118:	8000                	0x8000
 11a:	8806                	c.mv	a6,ra
 11c:	90800003          	lb	zero,-1784(zero) # fffff908 <_sp+0x77fff908>
 120:	00800003          	lb	zero,8(zero) # 8 <__stack_size-0x1fffff8>
 124:	9806                	c.add	a6,ra
 126:	0002                	c.slli64	zero
 128:	9c80                	0x9c80
 12a:	0002                	c.slli64	zero
 12c:	0680                	c.addi4spn	s0,sp,832
 12e:	02a4                	c.addi4spn	s1,sp,328
 130:	8000                	0x8000
 132:	02a4                	c.addi4spn	s1,sp,328
 134:	8000                	0x8000
 136:	a806                	c.fsdsp	ft1,16(sp)
 138:	0002                	c.slli64	zero
 13a:	b080                	c.fsd	fs0,32(s1)
 13c:	0002                	c.slli64	zero
 13e:	0680                	c.addi4spn	s0,sp,832
 140:	0314                	c.addi4spn	a3,sp,384
 142:	8000                	0x8000
 144:	0314                	c.addi4spn	a3,sp,384
 146:	8000                	0x8000
 148:	9006                	c.add	zero,ra
 14a:	9c800003          	lb	zero,-1592(zero) # fffff9c8 <_sp+0x77fff9c8>
 14e:	00800003          	lb	zero,8(zero) # 8 <__stack_size-0x1fffff8>
 152:	b006                	c.fsdsp	ft1,32(sp)
 154:	0002                	c.slli64	zero
 156:	b080                	c.fsd	fs0,32(s1)
 158:	0002                	c.slli64	zero
 15a:	0680                	c.addi4spn	s0,sp,832
 15c:	0310                	c.addi4spn	a2,sp,384
 15e:	8000                	0x8000
 160:	0314                	c.addi4spn	a3,sp,384
 162:	8000                	0x8000
 164:	0600                	c.addi4spn	s0,sp,768
 166:	035c                	c.addi4spn	a5,sp,388
 168:	8000                	0x8000
 16a:	0370                	c.addi4spn	a2,sp,396
 16c:	8000                	0x8000
 16e:	a406                	c.fsdsp	ft1,8(sp)
 170:	b0800003          	lb	zero,-1272(zero) # fffffb08 <_sp+0x77fffb08>
 174:	06800003          	lb	zero,104(zero) # 68 <__stack_size-0x1ffff98>
 178:	03b8                	c.addi4spn	a4,sp,456
 17a:	8000                	0x8000
 17c:	03c0                	c.addi4spn	s0,sp,452
 17e:	8000                	0x8000
 180:	0600                	c.addi4spn	s0,sp,768
 182:	03d0                	c.addi4spn	a2,sp,452
 184:	8000                	0x8000
 186:	03d4                	c.addi4spn	a3,sp,452
 188:	8000                	0x8000
 18a:	dc06                	c.swsp	ra,56(sp)
 18c:	e4800003          	lb	zero,-440(zero) # fffffe48 <_sp+0x77fffe48>
 190:	06800003          	lb	zero,104(zero) # 68 <__stack_size-0x1ffff98>
 194:	03ec                	c.addi4spn	a1,sp,460
 196:	8000                	0x8000
 198:	03f4                	c.addi4spn	a3,sp,460
 19a:	8000                	0x8000
 19c:	0600                	c.addi4spn	s0,sp,768
 19e:	0410                	c.addi4spn	a2,sp,512
 1a0:	8000                	0x8000
 1a2:	0418                	c.addi4spn	a4,sp,512
 1a4:	8000                	0x8000
 1a6:	2406                	c.fldsp	fs0,64(sp)
 1a8:	0004                	0x4
 1aa:	2880                	c.fld	fs0,16(s1)
 1ac:	0004                	0x4
 1ae:	0080                	c.addi4spn	s0,sp,64
 1b0:	4406                	c.lwsp	s0,64(sp)
 1b2:	0004                	0x4
 1b4:	4c80                	c.lw	s0,24(s1)
 1b6:	0004                	0x4
 1b8:	0680                	c.addi4spn	s0,sp,832
 1ba:	0458                	c.addi4spn	a4,sp,516
 1bc:	8000                	0x8000
 1be:	045c                	c.addi4spn	a5,sp,516
 1c0:	8000                	0x8000
 1c2:	0600                	c.addi4spn	s0,sp,768
 1c4:	0478                	c.addi4spn	a4,sp,524
 1c6:	8000                	0x8000
 1c8:	0480                	c.addi4spn	s0,sp,576
 1ca:	8000                	0x8000
 1cc:	8c06                	c.mv	s8,ra
 1ce:	0004                	0x4
 1d0:	9080                	0x9080
 1d2:	0004                	0x4
 1d4:	0080                	c.addi4spn	s0,sp,64
 1d6:	ac06                	c.fsdsp	ft1,24(sp)
 1d8:	0004                	0x4
 1da:	b480                	c.fsd	fs0,40(s1)
 1dc:	0004                	0x4
 1de:	0680                	c.addi4spn	s0,sp,832
 1e0:	04c0                	c.addi4spn	s0,sp,580
 1e2:	8000                	0x8000
 1e4:	04c4                	c.addi4spn	s1,sp,580
 1e6:	8000                	0x8000
 1e8:	0600                	c.addi4spn	s0,sp,768
 1ea:	04e0                	c.addi4spn	s0,sp,588
 1ec:	8000                	0x8000
 1ee:	04e8                	c.addi4spn	a0,sp,588
 1f0:	8000                	0x8000
 1f2:	f406                	c.fswsp	ft1,40(sp)
 1f4:	0004                	0x4
 1f6:	f880                	c.fsw	fs0,48(s1)
 1f8:	0004                	0x4
 1fa:	0080                	c.addi4spn	s0,sp,64
 1fc:	1806                	c.slli	a6,0x21
 1fe:	0005                	c.addi	zero,1
 200:	1c80                	c.addi4spn	s0,sp,624
 202:	0005                	c.addi	zero,1
 204:	0680                	c.addi4spn	s0,sp,832
 206:	0528                	c.addi4spn	a0,sp,648
 208:	8000                	0x8000
 20a:	052c                	c.addi4spn	a1,sp,648
 20c:	8000                	0x8000
 20e:	0600                	c.addi4spn	s0,sp,768
 210:	054c                	c.addi4spn	a1,sp,644
 212:	8000                	0x8000
 214:	0550                	c.addi4spn	a2,sp,644
 216:	8000                	0x8000
 218:	5406                	c.lwsp	s0,96(sp)
 21a:	0005                	c.addi	zero,1
 21c:	5880                	c.lw	s0,48(s1)
 21e:	0005                	c.addi	zero,1
 220:	0680                	c.addi4spn	s0,sp,832
 222:	0564                	c.addi4spn	s1,sp,652
 224:	8000                	0x8000
 226:	0568                	c.addi4spn	a0,sp,652
 228:	8000                	0x8000
 22a:	0600                	c.addi4spn	s0,sp,768
 22c:	0588                	c.addi4spn	a0,sp,704
 22e:	8000                	0x8000
 230:	058c                	c.addi4spn	a1,sp,704
 232:	8000                	0x8000
 234:	9006                	c.add	zero,ra
 236:	0005                	c.addi	zero,1
 238:	9480                	0x9480
 23a:	0005                	c.addi	zero,1
 23c:	0680                	c.addi4spn	s0,sp,832
 23e:	05a0                	c.addi4spn	s0,sp,712
 240:	8000                	0x8000
 242:	05a4                	c.addi4spn	s1,sp,712
 244:	8000                	0x8000
 246:	0600                	c.addi4spn	s0,sp,768
 248:	05dc                	c.addi4spn	a5,sp,708
 24a:	8000                	0x8000
 24c:	05e4                	c.addi4spn	s1,sp,716
 24e:	8000                	0x8000
 250:	f006                	c.fswsp	ft1,32(sp)
 252:	0005                	c.addi	zero,1
 254:	f480                	c.fsw	fs0,40(s1)
 256:	0005                	c.addi	zero,1
 258:	0080                	c.addi4spn	s0,sp,64
 25a:	1406                	c.slli	s0,0x21
 25c:	0006                	c.slli	zero,0x1
 25e:	1880                	c.addi4spn	s0,sp,112
 260:	0006                	c.slli	zero,0x1
 262:	0680                	c.addi4spn	s0,sp,832
 264:	0624                	c.addi4spn	s1,sp,776
 266:	8000                	0x8000
 268:	0628                	c.addi4spn	a0,sp,776
 26a:	8000                	0x8000
 26c:	0600                	c.addi4spn	s0,sp,768
 26e:	0648                	c.addi4spn	a0,sp,772
 270:	8000                	0x8000
 272:	064c                	c.addi4spn	a1,sp,772
 274:	8000                	0x8000
 276:	5006                	0x5006
 278:	0006                	c.slli	zero,0x1
 27a:	5480                	c.lw	s0,40(s1)
 27c:	0006                	c.slli	zero,0x1
 27e:	0680                	c.addi4spn	s0,sp,832
 280:	0660                	c.addi4spn	s0,sp,780
 282:	8000                	0x8000
 284:	0664                	c.addi4spn	s1,sp,780
 286:	8000                	0x8000
 288:	0600                	c.addi4spn	s0,sp,768
 28a:	0684                	c.addi4spn	s1,sp,832
 28c:	8000                	0x8000
 28e:	0688                	c.addi4spn	a0,sp,832
 290:	8000                	0x8000
 292:	8c06                	c.mv	s8,ra
 294:	0006                	c.slli	zero,0x1
 296:	9080                	0x9080
 298:	0006                	c.slli	zero,0x1
 29a:	0680                	c.addi4spn	s0,sp,832
 29c:	069c                	c.addi4spn	a5,sp,832
 29e:	8000                	0x8000
 2a0:	06a0                	c.addi4spn	s0,sp,840
 2a2:	8000                	0x8000
 2a4:	0600                	c.addi4spn	s0,sp,768
 2a6:	06d8                	c.addi4spn	a4,sp,836
 2a8:	8000                	0x8000
 2aa:	06e0                	c.addi4spn	s0,sp,844
 2ac:	8000                	0x8000
 2ae:	ec06                	c.fswsp	ft1,24(sp)
 2b0:	0006                	c.slli	zero,0x1
 2b2:	f080                	c.fsw	fs0,32(s1)
 2b4:	0006                	c.slli	zero,0x1
 2b6:	0080                	c.addi4spn	s0,sp,64
 2b8:	0406                	c.slli	s0,0x1
 2ba:	0c800007          	0xc800007
 2be:	06800007          	0x6800007
 2c2:	0718                	c.addi4spn	a4,sp,896
 2c4:	8000                	0x8000
 2c6:	071c                	c.addi4spn	a5,sp,896
 2c8:	8000                	0x8000
 2ca:	0600                	c.addi4spn	s0,sp,768
 2cc:	0730                	c.addi4spn	a2,sp,904
 2ce:	8000                	0x8000
 2d0:	0738                	c.addi4spn	a4,sp,904
 2d2:	8000                	0x8000
 2d4:	4406                	c.lwsp	s0,64(sp)
 2d6:	48800007          	0x48800007
 2da:	00800007          	0x800007
 2de:	5c06                	c.lwsp	s8,96(sp)
 2e0:	60800007          	0x60800007
 2e4:	06800007          	0x6800007
 2e8:	076c                	c.addi4spn	a1,sp,908
 2ea:	8000                	0x8000
 2ec:	0770                	c.addi4spn	a2,sp,908
 2ee:	8000                	0x8000
 2f0:	0600                	c.addi4spn	s0,sp,768
 2f2:	0794                	c.addi4spn	a3,sp,960
 2f4:	8000                	0x8000
 2f6:	0798                	c.addi4spn	a4,sp,960
 2f8:	8000                	0x8000
 2fa:	a406                	c.fsdsp	ft1,8(sp)
 2fc:	a8800007          	0xa8800007
 300:	00800007          	0x800007
 304:	c806                	c.swsp	ra,16(sp)
 306:	cc800007          	0xcc800007
 30a:	06800007          	0x6800007
 30e:	07d8                	c.addi4spn	a4,sp,964
 310:	8000                	0x8000
 312:	07dc                	c.addi4spn	a5,sp,964
 314:	8000                	0x8000
 316:	0600                	c.addi4spn	s0,sp,768
 318:	0838                	c.addi4spn	a4,sp,24
 31a:	8000                	0x8000
 31c:	0bac                	c.addi4spn	a1,sp,472
 31e:	8000                	0x8000
 320:	1c06                	c.slli	s8,0x21
 322:	0000                	c.unimp
 324:	3880                	c.fld	fs0,48(s1)
 326:	0008                	0x8
 328:	0080                	c.addi4spn	s0,sp,64
 32a:	01d1                	c.addi	gp,20
 32c:	0000                	c.unimp
 32e:	0005                	c.addi	zero,1
 330:	0004                	0x4
 332:	0000                	c.unimp
 334:	0000                	c.unimp
 336:	0006                	c.slli	zero,0x1
 338:	000c                	0xc
 33a:	1080                	c.addi4spn	s0,sp,96
 33c:	000c                	0xc
 33e:	0680                	c.addi4spn	s0,sp,832
 340:	0c18                	c.addi4spn	a4,sp,528
 342:	8000                	0x8000
 344:	0c1c                	c.addi4spn	a5,sp,528
 346:	8000                	0x8000
 348:	2006                	c.fldsp	ft0,64(sp)
 34a:	000c                	0xc
 34c:	3480                	c.fld	fs0,40(s1)
 34e:	000c                	0xc
 350:	0080                	c.addi4spn	s0,sp,64
 352:	0006                	c.slli	zero,0x1
 354:	000c                	0xc
 356:	0880                	c.addi4spn	s0,sp,80
 358:	000c                	0xc
 35a:	0680                	c.addi4spn	s0,sp,832
 35c:	0c18                	c.addi4spn	a4,sp,528
 35e:	8000                	0x8000
 360:	0c18                	c.addi4spn	a4,sp,528
 362:	8000                	0x8000
 364:	2806                	c.fldsp	fa6,64(sp)
 366:	000c                	0xc
 368:	3480                	c.fld	fs0,40(s1)
 36a:	000c                	0xc
 36c:	0080                	c.addi4spn	s0,sp,64
 36e:	ac06                	c.fsdsp	ft1,24(sp)
 370:	000c                	0xc
 372:	b080                	c.fsd	fs0,32(s1)
 374:	000c                	0xc
 376:	0680                	c.addi4spn	s0,sp,832
 378:	0cbc                	c.addi4spn	a5,sp,600
 37a:	8000                	0x8000
 37c:	0dc0                	c.addi4spn	s0,sp,724
 37e:	8000                	0x8000
 380:	fc06                	c.fswsp	ft1,56(sp)
 382:	000d                	c.addi	zero,3
 384:	8c80                	0x8c80
 386:	0012                	c.slli	zero,0x4
 388:	0080                	c.addi4spn	s0,sp,64
 38a:	cc06                	c.swsp	ra,24(sp)
 38c:	000c                	0xc
 38e:	d480                	c.sw	s0,40(s1)
 390:	000c                	0xc
 392:	0680                	c.addi4spn	s0,sp,832
 394:	0dfc                	c.addi4spn	a5,sp,732
 396:	8000                	0x8000
 398:	0e14                	c.addi4spn	a3,sp,784
 39a:	8000                	0x8000
 39c:	a006                	c.fsdsp	ft1,0(sp)
 39e:	0011                	c.addi	zero,4
 3a0:	a880                	c.fsd	fs0,16(s1)
 3a2:	0011                	c.addi	zero,4
 3a4:	0680                	c.addi4spn	s0,sp,832
 3a6:	11d8                	c.addi4spn	a4,sp,228
 3a8:	8000                	0x8000
 3aa:	11e4                	c.addi4spn	s1,sp,236
 3ac:	8000                	0x8000
 3ae:	0600                	c.addi4spn	s0,sp,768
 3b0:	0cd0                	c.addi4spn	a2,sp,596
 3b2:	8000                	0x8000
 3b4:	0cd4                	c.addi4spn	a3,sp,596
 3b6:	8000                	0x8000
 3b8:	a006                	c.fsdsp	ft1,0(sp)
 3ba:	0011                	c.addi	zero,4
 3bc:	a880                	c.fsd	fs0,16(s1)
 3be:	0011                	c.addi	zero,4
 3c0:	0680                	c.addi4spn	s0,sp,832
 3c2:	11d8                	c.addi4spn	a4,sp,228
 3c4:	8000                	0x8000
 3c6:	11e4                	c.addi4spn	s1,sp,236
 3c8:	8000                	0x8000
 3ca:	0600                	c.addi4spn	s0,sp,768
 3cc:	0ce4                	c.addi4spn	s1,sp,604
 3ce:	8000                	0x8000
 3d0:	0cfc                	c.addi4spn	a5,sp,604
 3d2:	8000                	0x8000
 3d4:	6406                	c.flwsp	fs0,64(sp)
 3d6:	0010                	0x10
 3d8:	6880                	c.flw	fs0,16(s1)
 3da:	0010                	0x10
 3dc:	0680                	c.addi4spn	s0,sp,832
 3de:	1194                	c.addi4spn	a3,sp,224
 3e0:	8000                	0x8000
 3e2:	11a0                	c.addi4spn	s0,sp,232
 3e4:	8000                	0x8000
 3e6:	0600                	c.addi4spn	s0,sp,768
 3e8:	0e5c                	c.addi4spn	a5,sp,788
 3ea:	8000                	0x8000
 3ec:	0e60                	c.addi4spn	s0,sp,796
 3ee:	8000                	0x8000
 3f0:	6806                	c.flwsp	fa6,64(sp)
 3f2:	000e                	c.slli	zero,0x3
 3f4:	7880                	c.flw	fs0,48(s1)
 3f6:	000e                	c.slli	zero,0x3
 3f8:	0680                	c.addi4spn	s0,sp,832
 3fa:	0e7c                	c.addi4spn	a5,sp,796
 3fc:	8000                	0x8000
 3fe:	0e80                	c.addi4spn	s0,sp,848
 400:	8000                	0x8000
 402:	c806                	c.swsp	ra,16(sp)
 404:	0011                	c.addi	zero,4
 406:	cc80                	c.sw	s0,24(s1)
 408:	0011                	c.addi	zero,4
 40a:	0680                	c.addi4spn	s0,sp,832
 40c:	11d0                	c.addi4spn	a2,sp,228
 40e:	8000                	0x8000
 410:	11d8                	c.addi4spn	a4,sp,228
 412:	8000                	0x8000
 414:	0600                	c.addi4spn	s0,sp,768
 416:	11c8                	c.addi4spn	a0,sp,228
 418:	8000                	0x8000
 41a:	11cc                	c.addi4spn	a1,sp,228
 41c:	8000                	0x8000
 41e:	d006                	c.swsp	ra,32(sp)
 420:	0011                	c.addi	zero,4
 422:	d880                	c.sw	s0,48(s1)
 424:	0011                	c.addi	zero,4
 426:	0080                	c.addi4spn	s0,sp,64
 428:	c806                	c.swsp	ra,16(sp)
 42a:	000e                	c.slli	zero,0x3
 42c:	d880                	c.sw	s0,48(s1)
 42e:	000e                	c.slli	zero,0x3
 430:	0680                	c.addi4spn	s0,sp,832
 432:	0ee4                	c.addi4spn	s1,sp,860
 434:	8000                	0x8000
 436:	0efc                	c.addi4spn	a5,sp,860
 438:	8000                	0x8000
 43a:	0600                	c.addi4spn	s0,sp,768
 43c:	0f0c                	c.addi4spn	a1,sp,912
 43e:	8000                	0x8000
 440:	0f10                	c.addi4spn	a2,sp,912
 442:	8000                	0x8000
 444:	1c06                	c.slli	s8,0x21
 446:	2080000f          	0x2080000f
 44a:	0680000f          	fence	or,i
 44e:	0f6c                	c.addi4spn	a1,sp,924
 450:	8000                	0x8000
 452:	0f9c                	c.addi4spn	a5,sp,976
 454:	8000                	0x8000
 456:	e406                	c.fswsp	ft1,8(sp)
 458:	0011                	c.addi	zero,4
 45a:	e880                	c.fsw	fs0,16(s1)
 45c:	0011                	c.addi	zero,4
 45e:	0680                	c.addi4spn	s0,sp,832
 460:	11f8                	c.addi4spn	a4,sp,236
 462:	8000                	0x8000
 464:	1200                	c.addi4spn	s0,sp,288
 466:	8000                	0x8000
 468:	0600                	c.addi4spn	s0,sp,768
 46a:	0f6c                	c.addi4spn	a1,sp,924
 46c:	8000                	0x8000
 46e:	0f78                	c.addi4spn	a4,sp,924
 470:	8000                	0x8000
 472:	8006                	c.mv	zero,ra
 474:	8480000f          	0x8480000f
 478:	0680000f          	fence	or,i
 47c:	0f88                	c.addi4spn	a0,sp,976
 47e:	8000                	0x8000
 480:	0f9c                	c.addi4spn	a5,sp,976
 482:	8000                	0x8000
 484:	0600                	c.addi4spn	s0,sp,768
 486:	0f28                	c.addi4spn	a0,sp,920
 488:	8000                	0x8000
 48a:	0f38                	c.addi4spn	a4,sp,920
 48c:	8000                	0x8000
 48e:	4406                	c.lwsp	s0,64(sp)
 490:	5c80000f          	0x5c80000f
 494:	0080000f          	fence	unknown,i
 498:	7c06                	c.flwsp	fs8,96(sp)
 49a:	0010                	0x10
 49c:	9480                	0x9480
 49e:	0010                	0x10
 4a0:	0680                	c.addi4spn	s0,sp,832
 4a2:	1128                	c.addi4spn	a0,sp,168
 4a4:	8000                	0x8000
 4a6:	1138                	c.addi4spn	a4,sp,168
 4a8:	8000                	0x8000
 4aa:	0600                	c.addi4spn	s0,sp,768
 4ac:	10a4                	c.addi4spn	s1,sp,104
 4ae:	8000                	0x8000
 4b0:	10b0                	c.addi4spn	a2,sp,104
 4b2:	8000                	0x8000
 4b4:	c006                	c.swsp	ra,0(sp)
 4b6:	0010                	0x10
 4b8:	cc80                	c.sw	s0,24(s1)
 4ba:	0010                	0x10
 4bc:	0680                	c.addi4spn	s0,sp,832
 4be:	10d0                	c.addi4spn	a2,sp,100
 4c0:	8000                	0x8000
 4c2:	10d4                	c.addi4spn	a3,sp,100
 4c4:	8000                	0x8000
 4c6:	3806                	c.fldsp	fa6,96(sp)
 4c8:	0011                	c.addi	zero,4
 4ca:	4480                	c.lw	s0,8(s1)
 4cc:	0011                	c.addi	zero,4
 4ce:	0080                	c.addi4spn	s0,sp,64
 4d0:	c406                	c.swsp	ra,8(sp)
 4d2:	0010                	0x10
 4d4:	cc80                	c.sw	s0,24(s1)
 4d6:	0010                	0x10
 4d8:	0680                	c.addi4spn	s0,sp,832
 4da:	10d0                	c.addi4spn	a2,sp,100
 4dc:	8000                	0x8000
 4de:	10d4                	c.addi4spn	a3,sp,100
 4e0:	8000                	0x8000
 4e2:	0600                	c.addi4spn	s0,sp,768
 4e4:	10b8                	c.addi4spn	a4,sp,104
 4e6:	8000                	0x8000
 4e8:	10bc                	c.addi4spn	a5,sp,104
 4ea:	8000                	0x8000
 4ec:	e406                	c.fswsp	ft1,8(sp)
 4ee:	0010                	0x10
 4f0:	f480                	c.fsw	fs0,40(s1)
 4f2:	0010                	0x10
 4f4:	0680                	c.addi4spn	s0,sp,832
 4f6:	1100                	c.addi4spn	s0,sp,160
 4f8:	8000                	0x8000
 4fa:	111c                	c.addi4spn	a5,sp,160
 4fc:	8000                	0x8000
	...

Disassembly of section .debug_frame:

00000000 <.debug_frame>:
   0:	000c                	0xc
   2:	0000                	c.unimp
   4:	ffff                	0xffff
   6:	ffff                	0xffff
   8:	7c010003          	lb	zero,1984(sp)
   c:	0d01                	c.addi	s10,0
   e:	0002                	c.slli64	zero
  10:	000c                	0xc
  12:	0000                	c.unimp
  14:	0000                	c.unimp
  16:	0000                	c.unimp
  18:	0838                	c.addi4spn	a4,sp,24
  1a:	8000                	0x8000
  1c:	0030                	c.addi4spn	a2,sp,8
  1e:	0000                	c.unimp
  20:	000c                	0xc
  22:	0000                	c.unimp
  24:	0000                	c.unimp
  26:	0000                	c.unimp
  28:	0868                	c.addi4spn	a0,sp,28
  2a:	8000                	0x8000
  2c:	002c                	c.addi4spn	a1,sp,8
  2e:	0000                	c.unimp
  30:	000c                	0xc
  32:	0000                	c.unimp
  34:	0000                	c.unimp
  36:	0000                	c.unimp
  38:	0894                	c.addi4spn	a3,sp,80
  3a:	8000                	0x8000
  3c:	0030                	c.addi4spn	a2,sp,8
  3e:	0000                	c.unimp
  40:	000c                	0xc
  42:	0000                	c.unimp
  44:	0000                	c.unimp
  46:	0000                	c.unimp
  48:	08c4                	c.addi4spn	s1,sp,84
  4a:	8000                	0x8000
  4c:	0018                	0x18
  4e:	0000                	c.unimp
  50:	000c                	0xc
  52:	0000                	c.unimp
  54:	0000                	c.unimp
  56:	0000                	c.unimp
  58:	08dc                	c.addi4spn	a5,sp,84
  5a:	8000                	0x8000
  5c:	0054                	c.addi4spn	a3,sp,4
  5e:	0000                	c.unimp
  60:	0030                	c.addi4spn	a2,sp,8
  62:	0000                	c.unimp
  64:	0000                	c.unimp
  66:	0000                	c.unimp
  68:	0930                	c.addi4spn	a2,sp,152
  6a:	8000                	0x8000
  6c:	0158                	c.addi4spn	a4,sp,132
  6e:	0000                	c.unimp
  70:	0e4c                	c.addi4spn	a1,sp,788
  72:	4810                	c.lw	a2,16(s0)
  74:	0288                	c.addi4spn	a0,sp,320
  76:	8974                	0x8974
  78:	02018103          	lb	sp,32(gp)
  7c:	0a6c                	c.addi4spn	a1,sp,284
  7e:	44c1                	c.li	s1,16
  80:	02c8                	c.addi4spn	a0,sp,324
  82:	c964                	c.sw	s1,84(a0)
  84:	0e44                	c.addi4spn	s1,sp,788
  86:	4400                	c.lw	s0,8(s0)
  88:	48c1600b          	0x48c1600b
  8c:	44c8                	c.lw	a0,12(s1)
  8e:	44c9                	c.li	s1,18
  90:	000e                	c.slli	zero,0x3
  92:	0000                	c.unimp
  94:	000c                	0xc
  96:	0000                	c.unimp
  98:	0000                	c.unimp
  9a:	0000                	c.unimp
  9c:	0a88                	c.addi4spn	a0,sp,336
  9e:	8000                	0x8000
  a0:	0010                	0x10
  a2:	0000                	c.unimp
  a4:	000c                	0xc
  a6:	0000                	c.unimp
  a8:	0000                	c.unimp
  aa:	0000                	c.unimp
  ac:	0a98                	c.addi4spn	a4,sp,336
  ae:	8000                	0x8000
  b0:	0074                	c.addi4spn	a3,sp,12
  b2:	0000                	c.unimp
  b4:	000c                	0xc
  b6:	0000                	c.unimp
  b8:	0000                	c.unimp
  ba:	0000                	c.unimp
  bc:	0b0c                	c.addi4spn	a1,sp,400
  be:	8000                	0x8000
  c0:	0024                	c.addi4spn	s1,sp,8
  c2:	0000                	c.unimp
  c4:	001c                	0x1c
  c6:	0000                	c.unimp
  c8:	0000                	c.unimp
  ca:	0000                	c.unimp
  cc:	0b30                	c.addi4spn	a2,sp,408
  ce:	8000                	0x8000
  d0:	0060                	c.addi4spn	s0,sp,12
  d2:	0000                	c.unimp
  d4:	0e44                	c.addi4spn	s1,sp,788
  d6:	4410                	c.lw	a2,8(s0)
  d8:	0181                	c.addi	gp,0
  da:	4002                	0x4002
  dc:	c10a                	c.swsp	sp,128(sp)
  de:	0e48                	c.addi4spn	a0,sp,788
  e0:	4400                	c.lw	s0,8(s0)
  e2:	000c000b          	0xc000b
  e6:	0000                	c.unimp
  e8:	0000                	c.unimp
  ea:	0000                	c.unimp
  ec:	0b90                	c.addi4spn	a2,sp,464
  ee:	8000                	0x8000
  f0:	000c                	0xc
  f2:	0000                	c.unimp
  f4:	000c                	0xc
  f6:	0000                	c.unimp
  f8:	0000                	c.unimp
  fa:	0000                	c.unimp
  fc:	0b9c                	c.addi4spn	a5,sp,464
  fe:	8000                	0x8000
 100:	0010                	0x10
 102:	0000                	c.unimp
 104:	0050                	c.addi4spn	a2,sp,4
 106:	0000                	c.unimp
 108:	0000                	c.unimp
 10a:	0000                	c.unimp
 10c:	001c                	0x1c
 10e:	8000                	0x8000
 110:	081c                	c.addi4spn	a5,sp,16
 112:	0000                	c.unimp
 114:	0e4c                	c.addi4spn	a1,sp,788
 116:	01b0                	c.addi4spn	a2,sp,200
 118:	8174                	0x8174
 11a:	8801                	c.andi	s0,0
 11c:	8902                	c.jr	s2
 11e:	93049203          	lh	tp,-1744(s1)
 122:	9405                	c.srai	s0,0x21
 124:	9506                	c.add	a0,ra
 126:	97089607          	0x97089607
 12a:	9809                	c.andi	s0,-30
 12c:	990a                	c.add	s2,sp
 12e:	9b0c9a0b          	0x9b0c9a0b
 132:	030d                	c.addi	t1,3
 134:	0798                	c.addi4spn	a4,sp,960
 136:	c10a                	c.swsp	sp,128(sp)
 138:	c844                	c.sw	s1,20(s0)
 13a:	c944                	c.sw	s1,20(a0)
 13c:	d244                	c.sw	s1,36(a2)
 13e:	d344                	c.sw	s1,36(a4)
 140:	d444                	c.sw	s1,44(s0)
 142:	d544                	c.sw	s1,44(a0)
 144:	d644                	c.sw	s1,44(a2)
 146:	d744                	c.sw	s1,44(a4)
 148:	d844                	c.sw	s1,52(s0)
 14a:	d944                	c.sw	s1,52(a0)
 14c:	da44                	c.sw	s1,52(a2)
 14e:	db44                	c.sw	s1,52(a4)
 150:	0e48                	c.addi4spn	a0,sp,788
 152:	4400                	c.lw	s0,8(s0)
 154:	0000000b          	0xb
 158:	000c                	0xc
 15a:	0000                	c.unimp
 15c:	ffff                	0xffff
 15e:	ffff                	0xffff
 160:	7c010003          	lb	zero,1984(sp)
 164:	0d01                	c.addi	s10,0
 166:	0002                	c.slli64	zero
 168:	000c                	0xc
 16a:	0000                	c.unimp
 16c:	0158                	c.addi4spn	a4,sp,132
 16e:	0000                	c.unimp
 170:	0bac                	c.addi4spn	a1,sp,472
 172:	8000                	0x8000
 174:	0030                	c.addi4spn	a2,sp,8
 176:	0000                	c.unimp
 178:	0024                	c.addi4spn	s1,sp,8
 17a:	0000                	c.unimp
 17c:	0158                	c.addi4spn	a4,sp,132
 17e:	0000                	c.unimp
 180:	0bdc                	c.addi4spn	a5,sp,468
 182:	8000                	0x8000
 184:	0078                	c.addi4spn	a4,sp,12
 186:	0000                	c.unimp
 188:	0e44                	c.addi4spn	s1,sp,788
 18a:	5010                	c.lw	a2,32(s0)
 18c:	0288                	c.addi4spn	a0,sp,320
 18e:	0181                	c.addi	gp,0
 190:	0389                	c.addi	t2,2
 192:	0492                	c.slli	s1,0x4
 194:	5002                	0x5002
 196:	44c1                	c.li	s1,16
 198:	44c8                	c.lw	a0,12(s1)
 19a:	44c9                	c.li	s1,18
 19c:	44d2                	c.lwsp	s1,20(sp)
 19e:	000e                	c.slli	zero,0x3
 1a0:	0050                	c.addi4spn	a2,sp,4
 1a2:	0000                	c.unimp
 1a4:	0158                	c.addi4spn	a4,sp,132
 1a6:	0000                	c.unimp
 1a8:	0c54                	c.addi4spn	a3,sp,532
 1aa:	8000                	0x8000
 1ac:	0638                	c.addi4spn	a4,sp,776
 1ae:	0000                	c.unimp
 1b0:	0e44                	c.addi4spn	s1,sp,788
 1b2:	0190                	c.addi4spn	a2,sp,192
 1b4:	9574                	0x9574
 1b6:	8112980f          	0x8112980f
 1ba:	8809                	c.andi	s0,2
 1bc:	890a                	c.mv	s2,sp
 1be:	930c920b          	0x930c920b
 1c2:	940d                	c.srai	s0,0x23
 1c4:	960e                	c.add	a2,gp
 1c6:	9710                	0x9710
 1c8:	9911                	c.andi	a0,-28
 1ca:	9b149a13          	0x9b149a13
 1ce:	0315                	c.addi	t1,5
 1d0:	0138                	c.addi4spn	a4,sp,136
 1d2:	c10a                	c.swsp	sp,128(sp)
 1d4:	c844                	c.sw	s1,20(s0)
 1d6:	c944                	c.sw	s1,20(a0)
 1d8:	d244                	c.sw	s1,36(a2)
 1da:	d344                	c.sw	s1,36(a4)
 1dc:	d444                	c.sw	s1,44(s0)
 1de:	d544                	c.sw	s1,44(a0)
 1e0:	d644                	c.sw	s1,44(a2)
 1e2:	d744                	c.sw	s1,44(a4)
 1e4:	d844                	c.sw	s1,52(s0)
 1e6:	d944                	c.sw	s1,52(a0)
 1e8:	da44                	c.sw	s1,52(a2)
 1ea:	db44                	c.sw	s1,52(a4)
 1ec:	0e44                	c.addi4spn	s1,sp,788
 1ee:	4400                	c.lw	s0,8(s0)
 1f0:	0000000b          	0xb
